GAS LISTING /tmp/ccfuCR9P.s 			page 1


   1              		.file	"assert.cpp"
   2              		.option pic
   3              		.option norelax
   4              		.text
   5              	.Ltext0:
   6              		.align	2
   7              		.globl	_Z13assert_failedPKci
   9              	_Z13assert_failedPKci:
  10              	.LFB0:
  11              		.file 1 "src/assert.cpp"
   1:src/assert.cpp **** /**
   2:src/assert.cpp ****  * @file assert.cpp
   3:src/assert.cpp ****  * @author stcksmsh (vukicevickosta@gmail.com)
   4:src/assert.cpp ****  * @brief implementation of the assert_failed function
   5:src/assert.cpp ****  * @version 0.1
   6:src/assert.cpp ****  * @date 2024-01-01
   7:src/assert.cpp ****  * 
   8:src/assert.cpp ****  * @copyright Copyright (c) 2024
   9:src/assert.cpp ****  * 
  10:src/assert.cpp ****  */
  11:src/assert.cpp **** #include "assert.h"
  12:src/assert.cpp **** #include "syscalls_c.h"
  13:src/assert.cpp **** 
  14:src/assert.cpp **** void assert_failed( const char* file, int line ){
  12              		.loc 1 14 49
  13              		.cfi_startproc
  14              	.LVL0:
  15 0000 130101FC 		addi	sp,sp,-64
  16              		.cfi_def_cfa_offset 64
  17 0004 233C1102 		sd	ra,56(sp)
  18 0008 23388102 		sd	s0,48(sp)
  19 000c 23349102 		sd	s1,40(sp)
  20 0010 23302103 		sd	s2,32(sp)
  21              		.cfi_offset 1, -8
  22              		.cfi_offset 8, -16
  23              		.cfi_offset 9, -24
  24              		.cfi_offset 18, -32
  25 0014 13040104 		addi	s0,sp,64
  26              		.cfi_def_cfa 8, 0
  27 0018 93040500 		mv	s1,a0
  28 001c 13890500 		mv	s2,a1
  15:src/assert.cpp ****     putc('\n');
  29              		.loc 1 15 5
  30              		.loc 1 15 9 is_stmt 0
  31 0020 1305A000 		li	a0,10
  32              	.LVL1:
  33 0024 97000000 		call	_Z4putcc@plt
  33      E7800000 
  34              	.LVL2:
  16:src/assert.cpp ****     putc('A');
  35              		.loc 1 16 5 is_stmt 1
  36              		.loc 1 16 9 is_stmt 0
  37 002c 13051004 		li	a0,65
  38 0030 97000000 		call	_Z4putcc@plt
  38      E7800000 
  39              	.LVL3:
  17:src/assert.cpp ****     putc('s');
GAS LISTING /tmp/ccfuCR9P.s 			page 2


  40              		.loc 1 17 5 is_stmt 1
  41              		.loc 1 17 9 is_stmt 0
  42 0038 13053007 		li	a0,115
  43 003c 97000000 		call	_Z4putcc@plt
  43      E7800000 
  44              	.LVL4:
  18:src/assert.cpp ****     putc('s');
  45              		.loc 1 18 5 is_stmt 1
  46              		.loc 1 18 9 is_stmt 0
  47 0044 13053007 		li	a0,115
  48 0048 97000000 		call	_Z4putcc@plt
  48      E7800000 
  49              	.LVL5:
  19:src/assert.cpp ****     putc('e');
  50              		.loc 1 19 5 is_stmt 1
  51              		.loc 1 19 9 is_stmt 0
  52 0050 13055006 		li	a0,101
  53 0054 97000000 		call	_Z4putcc@plt
  53      E7800000 
  54              	.LVL6:
  20:src/assert.cpp ****     putc('r');
  55              		.loc 1 20 5 is_stmt 1
  56              		.loc 1 20 9 is_stmt 0
  57 005c 13052007 		li	a0,114
  58 0060 97000000 		call	_Z4putcc@plt
  58      E7800000 
  59              	.LVL7:
  21:src/assert.cpp ****     putc('t');
  60              		.loc 1 21 5 is_stmt 1
  61              		.loc 1 21 9 is_stmt 0
  62 0068 13054007 		li	a0,116
  63 006c 97000000 		call	_Z4putcc@plt
  63      E7800000 
  64              	.LVL8:
  22:src/assert.cpp ****     putc('i');
  65              		.loc 1 22 5 is_stmt 1
  66              		.loc 1 22 9 is_stmt 0
  67 0074 13059006 		li	a0,105
  68 0078 97000000 		call	_Z4putcc@plt
  68      E7800000 
  69              	.LVL9:
  23:src/assert.cpp ****     putc('o');
  70              		.loc 1 23 5 is_stmt 1
  71              		.loc 1 23 9 is_stmt 0
  72 0080 1305F006 		li	a0,111
  73 0084 97000000 		call	_Z4putcc@plt
  73      E7800000 
  74              	.LVL10:
  24:src/assert.cpp ****     putc('n');
  75              		.loc 1 24 5 is_stmt 1
  76              		.loc 1 24 9 is_stmt 0
  77 008c 1305E006 		li	a0,110
  78 0090 97000000 		call	_Z4putcc@plt
  78      E7800000 
  79              	.LVL11:
  25:src/assert.cpp ****     putc(' ');
  80              		.loc 1 25 5 is_stmt 1
GAS LISTING /tmp/ccfuCR9P.s 			page 3


  81              		.loc 1 25 9 is_stmt 0
  82 0098 13050002 		li	a0,32
  83 009c 97000000 		call	_Z4putcc@plt
  83      E7800000 
  84              	.LVL12:
  26:src/assert.cpp ****     putc('f');
  85              		.loc 1 26 5 is_stmt 1
  86              		.loc 1 26 9 is_stmt 0
  87 00a4 13056006 		li	a0,102
  88 00a8 97000000 		call	_Z4putcc@plt
  88      E7800000 
  89              	.LVL13:
  27:src/assert.cpp ****     putc('a');
  90              		.loc 1 27 5 is_stmt 1
  91              		.loc 1 27 9 is_stmt 0
  92 00b0 13051006 		li	a0,97
  93 00b4 97000000 		call	_Z4putcc@plt
  93      E7800000 
  94              	.LVL14:
  28:src/assert.cpp ****     putc('i');
  95              		.loc 1 28 5 is_stmt 1
  96              		.loc 1 28 9 is_stmt 0
  97 00bc 13059006 		li	a0,105
  98 00c0 97000000 		call	_Z4putcc@plt
  98      E7800000 
  99              	.LVL15:
  29:src/assert.cpp ****     putc('l');
 100              		.loc 1 29 5 is_stmt 1
 101              		.loc 1 29 9 is_stmt 0
 102 00c8 1305C006 		li	a0,108
 103 00cc 97000000 		call	_Z4putcc@plt
 103      E7800000 
 104              	.LVL16:
  30:src/assert.cpp ****     putc('e');
 105              		.loc 1 30 5 is_stmt 1
 106              		.loc 1 30 9 is_stmt 0
 107 00d4 13055006 		li	a0,101
 108 00d8 97000000 		call	_Z4putcc@plt
 108      E7800000 
 109              	.LVL17:
  31:src/assert.cpp ****     putc('d');
 110              		.loc 1 31 5 is_stmt 1
 111              		.loc 1 31 9 is_stmt 0
 112 00e0 13054006 		li	a0,100
 113 00e4 97000000 		call	_Z4putcc@plt
 113      E7800000 
 114              	.LVL18:
  32:src/assert.cpp ****     putc(' ');
 115              		.loc 1 32 5 is_stmt 1
 116              		.loc 1 32 9 is_stmt 0
 117 00ec 13050002 		li	a0,32
 118 00f0 97000000 		call	_Z4putcc@plt
 118      E7800000 
 119              	.LVL19:
  33:src/assert.cpp ****     putc('i');
 120              		.loc 1 33 5 is_stmt 1
 121              		.loc 1 33 9 is_stmt 0
GAS LISTING /tmp/ccfuCR9P.s 			page 4


 122 00f8 13059006 		li	a0,105
 123 00fc 97000000 		call	_Z4putcc@plt
 123      E7800000 
 124              	.LVL20:
  34:src/assert.cpp ****     putc('n');
 125              		.loc 1 34 5 is_stmt 1
 126              		.loc 1 34 9 is_stmt 0
 127 0104 1305E006 		li	a0,110
 128 0108 97000000 		call	_Z4putcc@plt
 128      E7800000 
 129              	.LVL21:
  35:src/assert.cpp ****     putc(' ');
 130              		.loc 1 35 5 is_stmt 1
 131              		.loc 1 35 9 is_stmt 0
 132 0110 13050002 		li	a0,32
 133 0114 97000000 		call	_Z4putcc@plt
 133      E7800000 
 134              	.LVL22:
  36:src/assert.cpp ****     putc('f');
 135              		.loc 1 36 5 is_stmt 1
 136              		.loc 1 36 9 is_stmt 0
 137 011c 13056006 		li	a0,102
 138 0120 97000000 		call	_Z4putcc@plt
 138      E7800000 
 139              	.LVL23:
  37:src/assert.cpp ****     putc('i');
 140              		.loc 1 37 5 is_stmt 1
 141              		.loc 1 37 9 is_stmt 0
 142 0128 13059006 		li	a0,105
 143 012c 97000000 		call	_Z4putcc@plt
 143      E7800000 
 144              	.LVL24:
  38:src/assert.cpp ****     putc('l');
 145              		.loc 1 38 5 is_stmt 1
 146              		.loc 1 38 9 is_stmt 0
 147 0134 1305C006 		li	a0,108
 148 0138 97000000 		call	_Z4putcc@plt
 148      E7800000 
 149              	.LVL25:
  39:src/assert.cpp ****     putc('e');
 150              		.loc 1 39 5 is_stmt 1
 151              		.loc 1 39 9 is_stmt 0
 152 0140 13055006 		li	a0,101
 153 0144 97000000 		call	_Z4putcc@plt
 153      E7800000 
 154              	.LVL26:
  40:src/assert.cpp ****     putc(':');
 155              		.loc 1 40 5 is_stmt 1
 156              		.loc 1 40 9 is_stmt 0
 157 014c 1305A003 		li	a0,58
 158 0150 97000000 		call	_Z4putcc@plt
 158      E7800000 
 159              	.LVL27:
  41:src/assert.cpp ****     putc(' ');
 160              		.loc 1 41 5 is_stmt 1
 161              		.loc 1 41 9 is_stmt 0
 162 0158 13050002 		li	a0,32
GAS LISTING /tmp/ccfuCR9P.s 			page 5


 163 015c 97000000 		call	_Z4putcc@plt
 163      E7800000 
 164              	.LVL28:
 165              	.L3:
  42:src/assert.cpp ****     while(*file != 0){
 166              		.loc 1 42 5 is_stmt 1
 167              		.loc 1 42 17
 168              		.loc 1 42 11 is_stmt 0
 169 0164 03C50400 		lbu	a0,0(s1)
 170              		.loc 1 42 17
 171 0168 630A0500 		beqz	a0,.L2
  43:src/assert.cpp ****         putc(*file);
 172              		.loc 1 43 9 is_stmt 1
 173              		.loc 1 43 13 is_stmt 0
 174 016c 97000000 		call	_Z4putcc@plt
 174      E7800000 
 175              	.LVL29:
  44:src/assert.cpp ****         file++;
 176              		.loc 1 44 9 is_stmt 1
 177              		.loc 1 44 13 is_stmt 0
 178 0174 93841400 		addi	s1,s1,1
 179              	.LVL30:
  42:src/assert.cpp ****     while(*file != 0){
 180              		.loc 1 42 5
 181 0178 6FF0DFFE 		j	.L3
 182              	.L2:
  45:src/assert.cpp ****     }
  46:src/assert.cpp ****     putc('\n');
 183              		.loc 1 46 5 is_stmt 1
 184              		.loc 1 46 9 is_stmt 0
 185 017c 1305A000 		li	a0,10
 186 0180 97000000 		call	_Z4putcc@plt
 186      E7800000 
 187              	.LVL31:
  47:src/assert.cpp ****     putc('l');
 188              		.loc 1 47 5 is_stmt 1
 189              		.loc 1 47 9 is_stmt 0
 190 0188 1305C006 		li	a0,108
 191 018c 97000000 		call	_Z4putcc@plt
 191      E7800000 
 192              	.LVL32:
  48:src/assert.cpp ****     putc('i');
 193              		.loc 1 48 5 is_stmt 1
 194              		.loc 1 48 9 is_stmt 0
 195 0194 13059006 		li	a0,105
 196 0198 97000000 		call	_Z4putcc@plt
 196      E7800000 
 197              	.LVL33:
  49:src/assert.cpp ****     putc('n');
 198              		.loc 1 49 5 is_stmt 1
 199              		.loc 1 49 9 is_stmt 0
 200 01a0 1305E006 		li	a0,110
 201 01a4 97000000 		call	_Z4putcc@plt
 201      E7800000 
 202              	.LVL34:
  50:src/assert.cpp ****     putc('e');
 203              		.loc 1 50 5 is_stmt 1
GAS LISTING /tmp/ccfuCR9P.s 			page 6


 204              		.loc 1 50 9 is_stmt 0
 205 01ac 13055006 		li	a0,101
 206 01b0 97000000 		call	_Z4putcc@plt
 206      E7800000 
 207              	.LVL35:
  51:src/assert.cpp ****     putc(':');
 208              		.loc 1 51 5 is_stmt 1
 209              		.loc 1 51 9 is_stmt 0
 210 01b8 1305A003 		li	a0,58
 211 01bc 97000000 		call	_Z4putcc@plt
 211      E7800000 
 212              	.LVL36:
  52:src/assert.cpp ****     putc(' ');
 213              		.loc 1 52 5 is_stmt 1
 214              		.loc 1 52 9 is_stmt 0
 215 01c4 13050002 		li	a0,32
 216 01c8 97000000 		call	_Z4putcc@plt
 216      E7800000 
 217              	.LVL37:
  53:src/assert.cpp ****     char buffer[20];
  54:src/assert.cpp ****     int i = 0;
 218              		.loc 1 54 9
 219 01d0 93040000 		li	s1,0
 220              	.LVL38:
 221              	.L5:
  55:src/assert.cpp ****     while(line != 0){
 222              		.loc 1 55 5 is_stmt 1
 223              		.loc 1 55 16
 224 01d4 63040902 		beqz	s2,.L4
  56:src/assert.cpp ****         buffer[i] = line % 10 + '0';
 225              		.loc 1 56 9
 226              		.loc 1 56 26 is_stmt 0
 227 01d8 1307A000 		li	a4,10
 228 01dc BB67E902 		remw	a5,s2,a4
 229              		.loc 1 56 31
 230 01e0 9B870703 		addiw	a5,a5,48
 231              		.loc 1 56 19
 232 01e4 930604FE 		addi	a3,s0,-32
 233 01e8 B3869600 		add	a3,a3,s1
 234 01ec 2384F6FE 		sb	a5,-24(a3)
  57:src/assert.cpp ****         line /= 10;
 235              		.loc 1 57 9 is_stmt 1
 236              		.loc 1 57 14 is_stmt 0
 237 01f0 3B49E902 		divw	s2,s2,a4
 238              	.LVL39:
  58:src/assert.cpp ****         i++;
 239              		.loc 1 58 9 is_stmt 1
 240              		.loc 1 58 10 is_stmt 0
 241 01f4 9B841400 		addiw	s1,s1,1
 242              	.LVL40:
  55:src/assert.cpp ****         buffer[i] = line % 10 + '0';
 243              		.loc 1 55 5
 244 01f8 6FF0DFFD 		j	.L5
 245              	.LVL41:
 246              	.L4:
  59:src/assert.cpp ****     }
  60:src/assert.cpp ****     while(i != 0){
GAS LISTING /tmp/ccfuCR9P.s 			page 7


 247              		.loc 1 60 5 is_stmt 1
 248              		.loc 1 60 13
 249 01fc 63800402 		beqz	s1,.L6
  61:src/assert.cpp ****         i--;
 250              		.loc 1 61 9
 251              		.loc 1 61 10 is_stmt 0
 252 0200 9B84F4FF 		addiw	s1,s1,-1
 253              	.LVL42:
  62:src/assert.cpp ****         putc(buffer[i]);
 254              		.loc 1 62 9 is_stmt 1
 255              		.loc 1 62 13 is_stmt 0
 256 0204 930704FE 		addi	a5,s0,-32
 257 0208 B3879700 		add	a5,a5,s1
 258 020c 03C587FE 		lbu	a0,-24(a5)
 259 0210 97000000 		call	_Z4putcc@plt
 259      E7800000 
 260              	.LVL43:
 261 0218 6FF05FFE 		j	.L4
 262              	.LVL44:
 263              	.L6:
  63:src/assert.cpp ****     }
  64:src/assert.cpp ****     putc('\n');
 264              		.loc 1 64 5 is_stmt 1
 265              		.loc 1 64 9 is_stmt 0
 266 021c 1305A000 		li	a0,10
 267 0220 97000000 		call	_Z4putcc@plt
 267      E7800000 
 268              	.LVL45:
 269              	.L7:
  65:src/assert.cpp ****     while(1);
 270              		.loc 1 65 5 is_stmt 1 discriminator 1
 271              		.loc 1 65 5 discriminator 1
 272 0228 6F000000 		j	.L7
 273              		.cfi_endproc
 274              	.LFE0:
 276              	.Letext0:
 277              		.file 2 "./lib/hw.h"
 278              		.file 3 "./h/syscalls_c.h"
GAS LISTING /tmp/ccfuCR9P.s 			page 8


DEFINED SYMBOLS
                            *ABS*:0000000000000000 assert.cpp
     /tmp/ccfuCR9P.s:9      .text:0000000000000000 _Z13assert_failedPKci
     /tmp/ccfuCR9P.s:13     .text:0000000000000000 .L0 
     /tmp/ccfuCR9P.s:15     .text:0000000000000000 .L0 
     /tmp/ccfuCR9P.s:16     .text:0000000000000004 .L0 
     /tmp/ccfuCR9P.s:21     .text:0000000000000014 .L0 
     /tmp/ccfuCR9P.s:22     .text:0000000000000014 .L0 
     /tmp/ccfuCR9P.s:23     .text:0000000000000014 .L0 
     /tmp/ccfuCR9P.s:24     .text:0000000000000014 .L0 
     /tmp/ccfuCR9P.s:26     .text:0000000000000018 .L0 
     /tmp/ccfuCR9P.s:30     .text:0000000000000020 .L0 
     /tmp/ccfuCR9P.s:31     .text:0000000000000020 .L0 
     /tmp/ccfuCR9P.s:36     .text:000000000000002c .L0 
     /tmp/ccfuCR9P.s:37     .text:000000000000002c .L0 
     /tmp/ccfuCR9P.s:41     .text:0000000000000038 .L0 
     /tmp/ccfuCR9P.s:42     .text:0000000000000038 .L0 
     /tmp/ccfuCR9P.s:46     .text:0000000000000044 .L0 
     /tmp/ccfuCR9P.s:47     .text:0000000000000044 .L0 
     /tmp/ccfuCR9P.s:51     .text:0000000000000050 .L0 
     /tmp/ccfuCR9P.s:52     .text:0000000000000050 .L0 
     /tmp/ccfuCR9P.s:56     .text:000000000000005c .L0 
     /tmp/ccfuCR9P.s:57     .text:000000000000005c .L0 
     /tmp/ccfuCR9P.s:61     .text:0000000000000068 .L0 
     /tmp/ccfuCR9P.s:62     .text:0000000000000068 .L0 
     /tmp/ccfuCR9P.s:66     .text:0000000000000074 .L0 
     /tmp/ccfuCR9P.s:67     .text:0000000000000074 .L0 
     /tmp/ccfuCR9P.s:71     .text:0000000000000080 .L0 
     /tmp/ccfuCR9P.s:72     .text:0000000000000080 .L0 
     /tmp/ccfuCR9P.s:76     .text:000000000000008c .L0 
     /tmp/ccfuCR9P.s:77     .text:000000000000008c .L0 
     /tmp/ccfuCR9P.s:81     .text:0000000000000098 .L0 
     /tmp/ccfuCR9P.s:82     .text:0000000000000098 .L0 
     /tmp/ccfuCR9P.s:86     .text:00000000000000a4 .L0 
     /tmp/ccfuCR9P.s:87     .text:00000000000000a4 .L0 
     /tmp/ccfuCR9P.s:91     .text:00000000000000b0 .L0 
     /tmp/ccfuCR9P.s:92     .text:00000000000000b0 .L0 
     /tmp/ccfuCR9P.s:96     .text:00000000000000bc .L0 
     /tmp/ccfuCR9P.s:97     .text:00000000000000bc .L0 
     /tmp/ccfuCR9P.s:101    .text:00000000000000c8 .L0 
     /tmp/ccfuCR9P.s:102    .text:00000000000000c8 .L0 
     /tmp/ccfuCR9P.s:106    .text:00000000000000d4 .L0 
     /tmp/ccfuCR9P.s:107    .text:00000000000000d4 .L0 
     /tmp/ccfuCR9P.s:111    .text:00000000000000e0 .L0 
     /tmp/ccfuCR9P.s:112    .text:00000000000000e0 .L0 
     /tmp/ccfuCR9P.s:116    .text:00000000000000ec .L0 
     /tmp/ccfuCR9P.s:117    .text:00000000000000ec .L0 
     /tmp/ccfuCR9P.s:121    .text:00000000000000f8 .L0 
     /tmp/ccfuCR9P.s:122    .text:00000000000000f8 .L0 
     /tmp/ccfuCR9P.s:126    .text:0000000000000104 .L0 
     /tmp/ccfuCR9P.s:127    .text:0000000000000104 .L0 
     /tmp/ccfuCR9P.s:131    .text:0000000000000110 .L0 
     /tmp/ccfuCR9P.s:132    .text:0000000000000110 .L0 
     /tmp/ccfuCR9P.s:136    .text:000000000000011c .L0 
     /tmp/ccfuCR9P.s:137    .text:000000000000011c .L0 
     /tmp/ccfuCR9P.s:141    .text:0000000000000128 .L0 
     /tmp/ccfuCR9P.s:142    .text:0000000000000128 .L0 
GAS LISTING /tmp/ccfuCR9P.s 			page 9


     /tmp/ccfuCR9P.s:146    .text:0000000000000134 .L0 
     /tmp/ccfuCR9P.s:147    .text:0000000000000134 .L0 
     /tmp/ccfuCR9P.s:151    .text:0000000000000140 .L0 
     /tmp/ccfuCR9P.s:152    .text:0000000000000140 .L0 
     /tmp/ccfuCR9P.s:156    .text:000000000000014c .L0 
     /tmp/ccfuCR9P.s:157    .text:000000000000014c .L0 
     /tmp/ccfuCR9P.s:161    .text:0000000000000158 .L0 
     /tmp/ccfuCR9P.s:162    .text:0000000000000158 .L0 
     /tmp/ccfuCR9P.s:167    .text:0000000000000164 .L0 
     /tmp/ccfuCR9P.s:168    .text:0000000000000164 .L0 
     /tmp/ccfuCR9P.s:169    .text:0000000000000164 .L0 
     /tmp/ccfuCR9P.s:171    .text:0000000000000168 .L0 
     /tmp/ccfuCR9P.s:173    .text:000000000000016c .L0 
     /tmp/ccfuCR9P.s:174    .text:000000000000016c .L0 
     /tmp/ccfuCR9P.s:177    .text:0000000000000174 .L0 
     /tmp/ccfuCR9P.s:178    .text:0000000000000174 .L0 
     /tmp/ccfuCR9P.s:181    .text:0000000000000178 .L0 
     /tmp/ccfuCR9P.s:184    .text:000000000000017c .L0 
     /tmp/ccfuCR9P.s:185    .text:000000000000017c .L0 
     /tmp/ccfuCR9P.s:189    .text:0000000000000188 .L0 
     /tmp/ccfuCR9P.s:190    .text:0000000000000188 .L0 
     /tmp/ccfuCR9P.s:194    .text:0000000000000194 .L0 
     /tmp/ccfuCR9P.s:195    .text:0000000000000194 .L0 
     /tmp/ccfuCR9P.s:199    .text:00000000000001a0 .L0 
     /tmp/ccfuCR9P.s:200    .text:00000000000001a0 .L0 
     /tmp/ccfuCR9P.s:204    .text:00000000000001ac .L0 
     /tmp/ccfuCR9P.s:205    .text:00000000000001ac .L0 
     /tmp/ccfuCR9P.s:209    .text:00000000000001b8 .L0 
     /tmp/ccfuCR9P.s:210    .text:00000000000001b8 .L0 
     /tmp/ccfuCR9P.s:214    .text:00000000000001c4 .L0 
     /tmp/ccfuCR9P.s:215    .text:00000000000001c4 .L0 
     /tmp/ccfuCR9P.s:219    .text:00000000000001d0 .L0 
     /tmp/ccfuCR9P.s:223    .text:00000000000001d4 .L0 
     /tmp/ccfuCR9P.s:224    .text:00000000000001d4 .L0 
     /tmp/ccfuCR9P.s:226    .text:00000000000001d8 .L0 
     /tmp/ccfuCR9P.s:227    .text:00000000000001d8 .L0 
     /tmp/ccfuCR9P.s:230    .text:00000000000001e0 .L0 
     /tmp/ccfuCR9P.s:232    .text:00000000000001e4 .L0 
     /tmp/ccfuCR9P.s:236    .text:00000000000001f0 .L0 
     /tmp/ccfuCR9P.s:237    .text:00000000000001f0 .L0 
     /tmp/ccfuCR9P.s:240    .text:00000000000001f4 .L0 
     /tmp/ccfuCR9P.s:241    .text:00000000000001f4 .L0 
     /tmp/ccfuCR9P.s:244    .text:00000000000001f8 .L0 
     /tmp/ccfuCR9P.s:248    .text:00000000000001fc .L0 
     /tmp/ccfuCR9P.s:249    .text:00000000000001fc .L0 
     /tmp/ccfuCR9P.s:251    .text:0000000000000200 .L0 
     /tmp/ccfuCR9P.s:252    .text:0000000000000200 .L0 
     /tmp/ccfuCR9P.s:255    .text:0000000000000204 .L0 
     /tmp/ccfuCR9P.s:256    .text:0000000000000204 .L0 
     /tmp/ccfuCR9P.s:265    .text:000000000000021c .L0 
     /tmp/ccfuCR9P.s:266    .text:000000000000021c .L0 
     /tmp/ccfuCR9P.s:271    .text:0000000000000228 .L0 
     /tmp/ccfuCR9P.s:272    .text:0000000000000228 .L0 
     /tmp/ccfuCR9P.s:273    .text:000000000000022c .L0 
     /tmp/ccfuCR9P.s:279    .text:000000000000022c .L0 
     /tmp/ccfuCR9P.s:182    .text:000000000000017c .L2
     /tmp/ccfuCR9P.s:165    .text:0000000000000164 .L3
GAS LISTING /tmp/ccfuCR9P.s 			page 10


     /tmp/ccfuCR9P.s:246    .text:00000000000001fc .L4
     /tmp/ccfuCR9P.s:221    .text:00000000000001d4 .L5
     /tmp/ccfuCR9P.s:263    .text:000000000000021c .L6
     /tmp/ccfuCR9P.s:269    .text:0000000000000228 .L7
     /tmp/ccfuCR9P.s:874    .debug_abbrev:0000000000000000 .Ldebug_abbrev0
     /tmp/ccfuCR9P.s:1262   .debug_str:00000000000000fb .LASF21
     /tmp/ccfuCR9P.s:1228   .debug_str:0000000000000012 .LASF22
     /tmp/ccfuCR9P.s:1252   .debug_str:00000000000000ad .LASF23
     /tmp/ccfuCR9P.s:5      .text:0000000000000000 .Ltext0
     /tmp/ccfuCR9P.s:276    .text:000000000000022c .Letext0
     /tmp/ccfuCR9P.s:1222   .debug_line:0000000000000000 .Ldebug_line0
     /tmp/ccfuCR9P.s:1226   .debug_str:0000000000000005 .LASF0
     /tmp/ccfuCR9P.s:1260   .debug_str:00000000000000e8 .LASF1
     /tmp/ccfuCR9P.s:1244   .debug_str:000000000000007f .LASF2
     /tmp/ccfuCR9P.s:1240   .debug_str:000000000000006c .LASF4
     /tmp/ccfuCR9P.s:1236   .debug_str:0000000000000047 .LASF3
     /tmp/ccfuCR9P.s:1232   .debug_str:0000000000000030 .LASF5
     /tmp/ccfuCR9P.s:1238   .debug_str:0000000000000059 .LASF6
     /tmp/ccfuCR9P.s:1258   .debug_str:00000000000000d5 .LASF7
     /tmp/ccfuCR9P.s:1274   .debug_str:0000000000000209 .LASF8
     /tmp/ccfuCR9P.s:1268   .debug_str:00000000000001d7 .LASF9
     /tmp/ccfuCR9P.s:1230   .debug_str:0000000000000021 .LASF10
     /tmp/ccfuCR9P.s:1264   .debug_str:00000000000001bf .LASF11
     /tmp/ccfuCR9P.s:1234   .debug_str:0000000000000037 .LASF12
     /tmp/ccfuCR9P.s:1276   .debug_str:0000000000000219 .LASF13
     /tmp/ccfuCR9P.s:1242   .debug_str:0000000000000073 .LASF14
     /tmp/ccfuCR9P.s:1256   .debug_str:00000000000000bf .LASF15
     /tmp/ccfuCR9P.s:1250   .debug_str:0000000000000097 .LASF16
     /tmp/ccfuCR9P.s:1272   .debug_str:00000000000001fb .LASF24
     /tmp/ccfuCR9P.s:1270   .debug_str:00000000000001e5 .LASF25
     /tmp/ccfuCR9P.s:10     .text:0000000000000000 .LFB0
     /tmp/ccfuCR9P.s:274    .text:000000000000022c .LFE0
     /tmp/ccfuCR9P.s:1254   .debug_str:00000000000000ba .LASF17
     /tmp/ccfuCR9P.s:1161   .debug_loc:0000000000000000 .LLST0
     /tmp/ccfuCR9P.s:1224   .debug_str:0000000000000000 .LASF18
     /tmp/ccfuCR9P.s:1172   .debug_loc:0000000000000036 .LLST1
     /tmp/ccfuCR9P.s:1278   .debug_str:0000000000000229 .LASF19
     /tmp/ccfuCR9P.s:1194   .debug_loc:0000000000000095 .LLST2
     /tmp/ccfuCR9P.s:34     .text:000000000000002c .LVL2
     /tmp/ccfuCR9P.s:39     .text:0000000000000038 .LVL3
     /tmp/ccfuCR9P.s:44     .text:0000000000000044 .LVL4
     /tmp/ccfuCR9P.s:49     .text:0000000000000050 .LVL5
     /tmp/ccfuCR9P.s:54     .text:000000000000005c .LVL6
     /tmp/ccfuCR9P.s:59     .text:0000000000000068 .LVL7
     /tmp/ccfuCR9P.s:64     .text:0000000000000074 .LVL8
     /tmp/ccfuCR9P.s:69     .text:0000000000000080 .LVL9
     /tmp/ccfuCR9P.s:74     .text:000000000000008c .LVL10
     /tmp/ccfuCR9P.s:79     .text:0000000000000098 .LVL11
     /tmp/ccfuCR9P.s:84     .text:00000000000000a4 .LVL12
     /tmp/ccfuCR9P.s:89     .text:00000000000000b0 .LVL13
     /tmp/ccfuCR9P.s:94     .text:00000000000000bc .LVL14
     /tmp/ccfuCR9P.s:99     .text:00000000000000c8 .LVL15
     /tmp/ccfuCR9P.s:104    .text:00000000000000d4 .LVL16
     /tmp/ccfuCR9P.s:109    .text:00000000000000e0 .LVL17
     /tmp/ccfuCR9P.s:114    .text:00000000000000ec .LVL18
     /tmp/ccfuCR9P.s:119    .text:00000000000000f8 .LVL19
     /tmp/ccfuCR9P.s:124    .text:0000000000000104 .LVL20
GAS LISTING /tmp/ccfuCR9P.s 			page 11


     /tmp/ccfuCR9P.s:129    .text:0000000000000110 .LVL21
     /tmp/ccfuCR9P.s:134    .text:000000000000011c .LVL22
     /tmp/ccfuCR9P.s:139    .text:0000000000000128 .LVL23
     /tmp/ccfuCR9P.s:144    .text:0000000000000134 .LVL24
     /tmp/ccfuCR9P.s:149    .text:0000000000000140 .LVL25
     /tmp/ccfuCR9P.s:154    .text:000000000000014c .LVL26
     /tmp/ccfuCR9P.s:159    .text:0000000000000158 .LVL27
     /tmp/ccfuCR9P.s:164    .text:0000000000000164 .LVL28
     /tmp/ccfuCR9P.s:175    .text:0000000000000174 .LVL29
     /tmp/ccfuCR9P.s:187    .text:0000000000000188 .LVL31
     /tmp/ccfuCR9P.s:192    .text:0000000000000194 .LVL32
     /tmp/ccfuCR9P.s:197    .text:00000000000001a0 .LVL33
     /tmp/ccfuCR9P.s:202    .text:00000000000001ac .LVL34
     /tmp/ccfuCR9P.s:207    .text:00000000000001b8 .LVL35
     /tmp/ccfuCR9P.s:212    .text:00000000000001c4 .LVL36
     /tmp/ccfuCR9P.s:217    .text:00000000000001d0 .LVL37
     /tmp/ccfuCR9P.s:260    .text:0000000000000218 .LVL43
     /tmp/ccfuCR9P.s:268    .text:0000000000000228 .LVL45
     /tmp/ccfuCR9P.s:1246   .debug_str:000000000000008d .LASF20
     /tmp/ccfuCR9P.s:1266   .debug_str:00000000000001ce .LASF26
     /tmp/ccfuCR9P.s:1248   .debug_str:0000000000000092 .LASF27
     /tmp/ccfuCR9P.s:14     .text:0000000000000000 .LVL0
     /tmp/ccfuCR9P.s:32     .text:0000000000000024 .LVL1
     /tmp/ccfuCR9P.s:220    .text:00000000000001d4 .LVL38
     /tmp/ccfuCR9P.s:238    .text:00000000000001f4 .LVL39
     /tmp/ccfuCR9P.s:245    .text:00000000000001fc .LVL41
     /tmp/ccfuCR9P.s:242    .text:00000000000001f8 .LVL40
     /tmp/ccfuCR9P.s:253    .text:0000000000000204 .LVL42
     /tmp/ccfuCR9P.s:262    .text:000000000000021c .LVL44
     /tmp/ccfuCR9P.s:280    .debug_info:0000000000000000 .Ldebug_info0

UNDEFINED SYMBOLS
_Z4putcc
