GAS LISTING /tmp/ccfuCR9P.s 			page 1


   1              		.file	"assert.cpp"
   2              		.option pic
   3              		.option norelax
   4              		.text
   5              	.Ltext0:
   6              		.align	2
   7              		.globl	_Z13assert_failedPKci
   9              	_Z13assert_failedPKci:
  10              	.LFB0:
  11              		.file 1 "src/assert.cpp"
   1:src/assert.cpp **** /**
   2:src/assert.cpp ****  * @file assert.cpp
   3:src/assert.cpp ****  * @author stcksmsh (vukicevickosta@gmail.com)
   4:src/assert.cpp ****  * @brief implementation of the assert_failed function
   5:src/assert.cpp ****  * @version 0.1
   6:src/assert.cpp ****  * @date 2024-01-01
   7:src/assert.cpp ****  * 
   8:src/assert.cpp ****  * @copyright Copyright (c) 2024
   9:src/assert.cpp ****  * 
  10:src/assert.cpp ****  */
  11:src/assert.cpp **** #include "assert.h"
  12:src/assert.cpp **** #include "syscalls_c.h"
  13:src/assert.cpp **** 
  14:src/assert.cpp **** void assert_failed( const char* file, int line ){
  12              		.loc 1 14 49
  13              		.cfi_startproc
  14              	.LVL0:
  15 0000 130101FC 		addi	sp,sp,-64
  16              		.cfi_def_cfa_offset 64
  17 0004 233C1102 		sd	ra,56(sp)
  18 0008 23388102 		sd	s0,48(sp)
  19 000c 23349102 		sd	s1,40(sp)
  20 0010 23302103 		sd	s2,32(sp)
  21              		.cfi_offset 1, -8
  22              		.cfi_offset 8, -16
  23              		.cfi_offset 9, -24
  24              		.cfi_offset 18, -32
  25 0014 13040104 		addi	s0,sp,64
  26              		.cfi_def_cfa 8, 0
  27 0018 93040500 		mv	s1,a0
  28 001c 13890500 		mv	s2,a1
  15:src/assert.cpp ****     putc('\n');
  29              		.loc 1 15 5
  30              		.loc 1 15 9 is_stmt 0
  31 0020 1305A000 		li	a0,10
  32              	.LVL1:
  33 0024 97000000 		call	_Z4putcc@plt
  33      E7800000 
  34              	.LVL2:
  16:src/assert.cpp ****     putc('A');
  35              		.loc 1 16 5 is_stmt 1
  36              		.loc 1 16 9 is_stmt 0
  37 002c 13051004 		li	a0,65
  38 0030 97000000 		call	_Z4putcc@plt
  38      E7800000 
  39              	.LVL3:
  17:src/assert.cpp ****     putc('s');
GAS LISTING /tmp/ccfuCR9P.s 			page 2


  40              		.loc 1 17 5 is_stmt 1
  41              		.loc 1 17 9 is_stmt 0
  42 0038 13053007 		li	a0,115
  43 003c 97000000 		call	_Z4putcc@plt
  43      E7800000 
  44              	.LVL4:
  18:src/assert.cpp ****     putc('s');
  45              		.loc 1 18 5 is_stmt 1
  46              		.loc 1 18 9 is_stmt 0
  47 0044 13053007 		li	a0,115
  48 0048 97000000 		call	_Z4putcc@plt
  48      E7800000 
  49              	.LVL5:
  19:src/assert.cpp ****     putc('e');
  50              		.loc 1 19 5 is_stmt 1
  51              		.loc 1 19 9 is_stmt 0
  52 0050 13055006 		li	a0,101
  53 0054 97000000 		call	_Z4putcc@plt
  53      E7800000 
  54              	.LVL6:
  20:src/assert.cpp ****     putc('r');
  55              		.loc 1 20 5 is_stmt 1
  56              		.loc 1 20 9 is_stmt 0
  57 005c 13052007 		li	a0,114
  58 0060 97000000 		call	_Z4putcc@plt
  58      E7800000 
  59              	.LVL7:
  21:src/assert.cpp ****     putc('t');
  60              		.loc 1 21 5 is_stmt 1
  61              		.loc 1 21 9 is_stmt 0
  62 0068 13054007 		li	a0,116
  63 006c 97000000 		call	_Z4putcc@plt
  63      E7800000 
  64              	.LVL8:
  22:src/assert.cpp ****     putc('i');
  65              		.loc 1 22 5 is_stmt 1
  66              		.loc 1 22 9 is_stmt 0
  67 0074 13059006 		li	a0,105
  68 0078 97000000 		call	_Z4putcc@plt
  68      E7800000 
  69              	.LVL9:
  23:src/assert.cpp ****     putc('o');
  70              		.loc 1 23 5 is_stmt 1
  71              		.loc 1 23 9 is_stmt 0
  72 0080 1305F006 		li	a0,111
  73 0084 97000000 		call	_Z4putcc@plt
  73      E7800000 
  74              	.LVL10:
  24:src/assert.cpp ****     putc('n');
  75              		.loc 1 24 5 is_stmt 1
  76              		.loc 1 24 9 is_stmt 0
  77 008c 1305E006 		li	a0,110
  78 0090 97000000 		call	_Z4putcc@plt
  78      E7800000 
  79              	.LVL11:
  25:src/assert.cpp ****     putc(' ');
  80              		.loc 1 25 5 is_stmt 1
GAS LISTING /tmp/ccfuCR9P.s 			page 3


  81              		.loc 1 25 9 is_stmt 0
  82 0098 13050002 		li	a0,32
  83 009c 97000000 		call	_Z4putcc@plt
  83      E7800000 
  84              	.LVL12:
  26:src/assert.cpp ****     putc('f');
  85              		.loc 1 26 5 is_stmt 1
  86              		.loc 1 26 9 is_stmt 0
  87 00a4 13056006 		li	a0,102
  88 00a8 97000000 		call	_Z4putcc@plt
  88      E7800000 
  89              	.LVL13:
  27:src/assert.cpp ****     putc('a');
  90              		.loc 1 27 5 is_stmt 1
  91              		.loc 1 27 9 is_stmt 0
  92 00b0 13051006 		li	a0,97
  93 00b4 97000000 		call	_Z4putcc@plt
  93      E7800000 
  94              	.LVL14:
  28:src/assert.cpp ****     putc('i');
  95              		.loc 1 28 5 is_stmt 1
  96              		.loc 1 28 9 is_stmt 0
  97 00bc 13059006 		li	a0,105
  98 00c0 97000000 		call	_Z4putcc@plt
  98      E7800000 
  99              	.LVL15:
  29:src/assert.cpp ****     putc('l');
 100              		.loc 1 29 5 is_stmt 1
 101              		.loc 1 29 9 is_stmt 0
 102 00c8 1305C006 		li	a0,108
 103 00cc 97000000 		call	_Z4putcc@plt
 103      E7800000 
 104              	.LVL16:
  30:src/assert.cpp ****     putc('e');
 105              		.loc 1 30 5 is_stmt 1
 106              		.loc 1 30 9 is_stmt 0
 107 00d4 13055006 		li	a0,101
 108 00d8 97000000 		call	_Z4putcc@plt
 108      E7800000 
 109              	.LVL17:
  31:src/assert.cpp ****     putc('d');
 110              		.loc 1 31 5 is_stmt 1
 111              		.loc 1 31 9 is_stmt 0
 112 00e0 13054006 		li	a0,100
 113 00e4 97000000 		call	_Z4putcc@plt
 113      E7800000 
 114              	.LVL18:
  32:src/assert.cpp ****     putc(' ');
 115              		.loc 1 32 5 is_stmt 1
 116              		.loc 1 32 9 is_stmt 0
 117 00ec 13050002 		li	a0,32
 118 00f0 97000000 		call	_Z4putcc@plt
 118      E7800000 
 119              	.LVL19:
  33:src/assert.cpp ****     putc('i');
 120              		.loc 1 33 5 is_stmt 1
 121              		.loc 1 33 9 is_stmt 0
GAS LISTING /tmp/ccfuCR9P.s 			page 4


 122 00f8 13059006 		li	a0,105
 123 00fc 97000000 		call	_Z4putcc@plt
 123      E7800000 
 124              	.LVL20:
  34:src/assert.cpp ****     putc('n');
 125              		.loc 1 34 5 is_stmt 1
 126              		.loc 1 34 9 is_stmt 0
 127 0104 1305E006 		li	a0,110
 128 0108 97000000 		call	_Z4putcc@plt
 128      E7800000 
 129              	.LVL21:
  35:src/assert.cpp ****     putc(' ');
 130              		.loc 1 35 5 is_stmt 1
 131              		.loc 1 35 9 is_stmt 0
 132 0110 13050002 		li	a0,32
 133 0114 97000000 		call	_Z4putcc@plt
 133      E7800000 
 134              	.LVL22:
  36:src/assert.cpp ****     putc('f');
 135              		.loc 1 36 5 is_stmt 1
 136              		.loc 1 36 9 is_stmt 0
 137 011c 13056006 		li	a0,102
 138 0120 97000000 		call	_Z4putcc@plt
 138      E7800000 
 139              	.LVL23:
  37:src/assert.cpp ****     putc('i');
 140              		.loc 1 37 5 is_stmt 1
 141              		.loc 1 37 9 is_stmt 0
 142 0128 13059006 		li	a0,105
 143 012c 97000000 		call	_Z4putcc@plt
 143      E7800000 
 144              	.LVL24:
  38:src/assert.cpp ****     putc('l');
 145              		.loc 1 38 5 is_stmt 1
 146              		.loc 1 38 9 is_stmt 0
 147 0134 1305C006 		li	a0,108
 148 0138 97000000 		call	_Z4putcc@plt
 148      E7800000 
 149              	.LVL25:
  39:src/assert.cpp ****     putc('e');
 150              		.loc 1 39 5 is_stmt 1
 151              		.loc 1 39 9 is_stmt 0
 152 0140 13055006 		li	a0,101
 153 0144 97000000 		call	_Z4putcc@plt
 153      E7800000 
 154              	.LVL26:
  40:src/assert.cpp ****     putc(':');
 155              		.loc 1 40 5 is_stmt 1
 156              		.loc 1 40 9 is_stmt 0
 157 014c 1305A003 		li	a0,58
 158 0150 97000000 		call	_Z4putcc@plt
 158      E7800000 
 159              	.LVL27:
  41:src/assert.cpp ****     putc(' ');
 160              		.loc 1 41 5 is_stmt 1
 161              		.loc 1 41 9 is_stmt 0
 162 0158 13050002 		li	a0,32
GAS LISTING /tmp/ccfuCR9P.s 			page 5


 163 015c 97000000 		call	_Z4putcc@plt
 163      E7800000 
 164              	.LVL28:
 165              	.L3:
  42:src/assert.cpp ****     while(*file != 0){
 166              		.loc 1 42 5 is_stmt 1
 167              		.loc 1 42 17
 168              		.loc 1 42 11 is_stmt 0
 169 0164 03C50400 		lbu	a0,0(s1)
 170              		.loc 1 42 17
 171 0168 630A0500 		beqz	a0,.L2
  43:src/assert.cpp ****         putc(*file);
 172              		.loc 1 43 9 is_stmt 1
 173              		.loc 1 43 13 is_stmt 0
 174 016c 97000000 		call	_Z4putcc@plt
 174      E7800000 
 175              	.LVL29:
  44:src/assert.cpp ****         file++;
 176              		.loc 1 44 9 is_stmt 1
 177              		.loc 1 44 13 is_stmt 0
 178 0174 93841400 		addi	s1,s1,1
 179              	.LVL30:
  42:src/assert.cpp ****     while(*file != 0){
 180              		.loc 1 42 5
 181 0178 6FF0DFFE 		j	.L3
 182              	.L2:
  45:src/assert.cpp ****     }
  46:src/assert.cpp ****     putc('\n');
 183              		.loc 1 46 5 is_stmt 1
 184              		.loc 1 46 9 is_stmt 0
 185 017c 1305A000 		li	a0,10
 186 0180 97000000 		call	_Z4putcc@plt
 186      E7800000 
 187              	.LVL31:
  47:src/assert.cpp ****     putc('l');
 188              		.loc 1 47 5 is_stmt 1
 189              		.loc 1 47 9 is_stmt 0
 190 0188 1305C006 		li	a0,108
 191 018c 97000000 		call	_Z4putcc@plt
 191      E7800000 
 192              	.LVL32:
  48:src/assert.cpp ****     putc('i');
 193              		.loc 1 48 5 is_stmt 1
 194              		.loc 1 48 9 is_stmt 0
 195 0194 13059006 		li	a0,105
 196 0198 97000000 		call	_Z4putcc@plt
 196      E7800000 
 197              	.LVL33:
  49:src/assert.cpp ****     putc('n');
 198              		.loc 1 49 5 is_stmt 1
 199              		.loc 1 49 9 is_stmt 0
 200 01a0 1305E006 		li	a0,110
 201 01a4 97000000 		call	_Z4putcc@plt
 201      E7800000 
 202              	.LVL34:
  50:src/assert.cpp ****     putc('e');
 203              		.loc 1 50 5 is_stmt 1
GAS LISTING /tmp/ccfuCR9P.s 			page 6


 204              		.loc 1 50 9 is_stmt 0
 205 01ac 13055006 		li	a0,101
 206 01b0 97000000 		call	_Z4putcc@plt
 206      E7800000 
 207              	.LVL35:
  51:src/assert.cpp ****     putc(':');
 208              		.loc 1 51 5 is_stmt 1
 209              		.loc 1 51 9 is_stmt 0
 210 01b8 1305A003 		li	a0,58
 211 01bc 97000000 		call	_Z4putcc@plt
 211      E7800000 
 212              	.LVL36:
  52:src/assert.cpp ****     putc(' ');
 213              		.loc 1 52 5 is_stmt 1
 214              		.loc 1 52 9 is_stmt 0
 215 01c4 13050002 		li	a0,32
 216 01c8 97000000 		call	_Z4putcc@plt
 216      E7800000 
 217              	.LVL37:
  53:src/assert.cpp ****     char buffer[20];
  54:src/assert.cpp ****     int i = 0;
 218              		.loc 1 54 9
 219 01d0 93040000 		li	s1,0
 220              	.LVL38:
 221              	.L5:
  55:src/assert.cpp ****     while(line != 0){
 222              		.loc 1 55 5 is_stmt 1
 223              		.loc 1 55 16
 224 01d4 63040902 		beqz	s2,.L4
  56:src/assert.cpp ****         buffer[i] = line % 10 + '0';
 225              		.loc 1 56 9
 226              		.loc 1 56 26 is_stmt 0
 227 01d8 1307A000 		li	a4,10
 228 01dc BB67E902 		remw	a5,s2,a4
 229              		.loc 1 56 31
 230 01e0 9B870703 		addiw	a5,a5,48
 231              		.loc 1 56 19
 232 01e4 930604FE 		addi	a3,s0,-32
 233 01e8 B3869600 		add	a3,a3,s1
 234 01ec 2384F6FE 		sb	a5,-24(a3)
  57:src/assert.cpp ****         line /= 10;
 235              		.loc 1 57 9 is_stmt 1
 236              		.loc 1 57 14 is_stmt 0
 237 01f0 3B49E902 		divw	s2,s2,a4
 238              	.LVL39:
  58:src/assert.cpp ****         i++;
 239              		.loc 1 58 9 is_stmt 1
 240              		.loc 1 58 10 is_stmt 0
 241 01f4 9B841400 		addiw	s1,s1,1
 242              	.LVL40:
  55:src/assert.cpp ****         buffer[i] = line % 10 + '0';
 243              		.loc 1 55 5
 244 01f8 6FF0DFFD 		j	.L5
 245              	.LVL41:
 246              	.L4:
  59:src/assert.cpp ****     }
  60:src/assert.cpp ****     while(i != 0){
GAS LISTING /tmp/ccfuCR9P.s 			page 7


 247              		.loc 1 60 5 is_stmt 1
 248              		.loc 1 60 13
 249 01fc 63800402 		beqz	s1,.L6
  61:src/assert.cpp ****         i--;
 250              		.loc 1 61 9
 251              		.loc 1 61 10 is_stmt 0
 252 0200 9B84F4FF 		addiw	s1,s1,-1
 253              	.LVL42:
  62:src/assert.cpp ****         putc(buffer[i]);
 254              		.loc 1 62 9 is_stmt 1
 255              		.loc 1 62 13 is_stmt 0
 256 0204 930704FE 		addi	a5,s0,-32
 257 0208 B3879700 		add	a5,a5,s1
 258 020c 03C587FE 		lbu	a0,-24(a5)
 259 0210 97000000 		call	_Z4putcc@plt
 259      E7800000 
 260              	.LVL43:
 261 0218 6FF05FFE 		j	.L4
 262              	.LVL44:
 263              	.L6:
  63:src/assert.cpp ****     }
  64:src/assert.cpp ****     putc('\n');
 264              		.loc 1 64 5 is_stmt 1
 265              		.loc 1 64 9 is_stmt 0
 266 021c 1305A000 		li	a0,10
 267 0220 97000000 		call	_Z4putcc@plt
 267      E7800000 
 268              	.LVL45:
 269              	.L7:
  65:src/assert.cpp ****     while(1);
 270              		.loc 1 65 5 is_stmt 1 discriminator 1
 271              		.loc 1 65 5 discriminator 1
 272 0228 6F000000 		j	.L7
 273              		.cfi_endproc
 274              	.LFE0:
 276              	.Letext0:
 277              		.file 2 "./lib/hw.h"
 278              		.file 3 "./h/syscalls_c.h"
GAS LISTING /tmp/ccfuCR9P.s 			page 8

