GAS LISTING /tmp/ccO2svE7.s 			page 1


   1              		.file	"c_syscall.cpp"
   2              		.option nopic
   3              		.option norelax
   4              		.attribute arch, "rv64i2p0_m2p0_a2p0"
   5              		.attribute unaligned_access, 0
   6              		.attribute stack_align, 16
   7              		.text
   8              	.Ltext0:
   9              		.align	2
  10              		.globl	_Z9mem_allocm
  12              	_Z9mem_allocm:
  13              	.LFB3:
  14              		.file 1 "src/c_syscall.cpp"
   1:src/c_syscall.cpp **** #include "../h/c_syscall.hpp"
   2:src/c_syscall.cpp **** #include "../h/MemoryAllocator.hpp"
   3:src/c_syscall.cpp **** 
   4:src/c_syscall.cpp **** 
   5:src/c_syscall.cpp **** void* mem_alloc(size_t size){
  15              		.loc 1 5 29
  16              		.cfi_startproc
  17              	.LVL0:
  18 0000 130101FE 		addi	sp,sp,-32
  19              		.cfi_def_cfa_offset 32
  20 0004 233C1100 		sd	ra,24(sp)
  21 0008 23388100 		sd	s0,16(sp)
  22 000c 23349100 		sd	s1,8(sp)
  23              		.cfi_offset 1, -8
  24              		.cfi_offset 8, -16
  25              		.cfi_offset 9, -24
  26 0010 13040102 		addi	s0,sp,32
  27              		.cfi_def_cfa 8, 0
  28 0014 93040500 		mv	s1,a0
   6:src/c_syscall.cpp ****     return MemoryAllocator::getInstance().mem_alloc(size);;
  29              		.loc 1 6 5
  30              		.loc 1 6 41 is_stmt 0
  31 0018 97000000 		call	_ZN15MemoryAllocator11getInstanceEv
  31      E7800000 
  32              	.LVL1:
  33              		.loc 1 6 52
  34 0020 93850400 		mv	a1,s1
  35 0024 97000000 		call	_ZN15MemoryAllocator9mem_allocEm
  35      E7800000 
  36              	.LVL2:
  37              		.loc 1 6 59 is_stmt 1
   7:src/c_syscall.cpp **** }
  38              		.loc 1 7 1 is_stmt 0
  39 002c 83308101 		ld	ra,24(sp)
  40              		.cfi_restore 1
  41 0030 03340101 		ld	s0,16(sp)
  42              		.cfi_restore 8
  43              		.cfi_def_cfa 2, 32
  44 0034 83348100 		ld	s1,8(sp)
  45              		.cfi_restore 9
  46              	.LVL3:
  47 0038 13010102 		addi	sp,sp,32
  48              		.cfi_def_cfa_offset 0
  49 003c 67800000 		jr	ra
GAS LISTING /tmp/ccO2svE7.s 			page 2


  50              		.cfi_endproc
  51              	.LFE3:
  53              		.align	2
  54              		.globl	_Z8mem_freePv
  56              	_Z8mem_freePv:
  57              	.LFB4:
   8:src/c_syscall.cpp **** 
   9:src/c_syscall.cpp **** int mem_free(void* addr){
  58              		.loc 1 9 25 is_stmt 1
  59              		.cfi_startproc
  60              	.LVL4:
  61 0040 130101FF 		addi	sp,sp,-16
  62              		.cfi_def_cfa_offset 16
  63 0044 23348100 		sd	s0,8(sp)
  64              		.cfi_offset 8, -8
  65 0048 13040101 		addi	s0,sp,16
  66              		.cfi_def_cfa 8, 0
  10:src/c_syscall.cpp ****     return 0;
  67              		.loc 1 10 5
  11:src/c_syscall.cpp **** }...
  68              		.loc 1 11 1 is_stmt 0
  69 004c 13050000 		li	a0,0
  70              	.LVL5:
  71 0050 03348100 		ld	s0,8(sp)
  72              		.cfi_restore 8
  73              		.cfi_def_cfa 2, 16
  74 0054 13010101 		addi	sp,sp,16
  75              		.cfi_def_cfa_offset 0
  76 0058 67800000 		jr	ra
  77              		.cfi_endproc
  78              	.LFE4:
  80              	.Letext0:
  81              		.file 2 "src/../h/../lib/hw.h"
  82              		.file 3 "src/../h/MemoryAllocator.hpp"
GAS LISTING /tmp/ccO2svE7.s 			page 3

