GAS LISTING /tmp/ccCryeBd.s 			page 1


   1              		.file	"exceptionHandler.cpp"
   2              		.option pic
   3              		.option norelax
   4              		.text
   5              	.Ltext0:
   6              		.section	.rodata.str1.8,"aMS",@progbits,1
   7              		.align	3
   8              	.LC0:
   9 0000 766F6964 		.string	"void exceptionHandler()"
   9      20657863 
   9      65707469 
   9      6F6E4861 
   9      6E646C65 
  10              		.align	3
  11              	.LC1:
  12 0018 7372632F 		.string	"src/exceptionHandler.cpp"
  12      65786365 
  12      7074696F 
  12      6E48616E 
  12      646C6572 
  13 0031 00000000 		.align	3
  13      000000
  14              	.LC2:
  15 0038 66616C73 		.string	"false"
  15      6500
  16              		.text
  17              		.align	2
  18              		.globl	exceptionHandler
  20              	exceptionHandler:
  21              	.LFB1:
  22              		.file 1 "src/exceptionHandler.cpp"
   1:src/exceptionHandler.cpp **** /**
   2:src/exceptionHandler.cpp ****  * @file trap.cpp
   3:src/exceptionHandler.cpp ****  * @author stcksmsh (vukicevickosta@gmail.com)
   4:src/exceptionHandler.cpp ****  * @brief implementation of the trap method
   5:src/exceptionHandler.cpp ****  * @version 0.1
   6:src/exceptionHandler.cpp ****  * @date 2023-12-31
   7:src/exceptionHandler.cpp ****  * 
   8:src/exceptionHandler.cpp ****  * @copyright Copyright (c) 2023
   9:src/exceptionHandler.cpp ****  * 
  10:src/exceptionHandler.cpp ****  */
  11:src/exceptionHandler.cpp **** 
  12:src/exceptionHandler.cpp **** #include "heapManager.h"
  13:src/exceptionHandler.cpp **** #include "console.h"
  14:src/exceptionHandler.cpp **** #include "thread.h"
  15:src/exceptionHandler.cpp **** #include "sem.h"
  16:src/exceptionHandler.cpp **** #include "timer.h"
  17:src/exceptionHandler.cpp **** #include "assert.h"
  18:src/exceptionHandler.cpp **** 
  19:src/exceptionHandler.cpp **** 
  20:src/exceptionHandler.cpp **** extern "C" void exceptionHandler(){
  23              		.loc 1 20 35
  24              		.cfi_startproc
  25 0000 130101FC 		addi	sp,sp,-64
  26              		.cfi_def_cfa_offset 64
  27 0004 233C1102 		sd	ra,56(sp)
  28 0008 23388102 		sd	s0,48(sp)
GAS LISTING /tmp/ccCryeBd.s 			page 2


  29 000c 23349102 		sd	s1,40(sp)
  30 0010 23302103 		sd	s2,32(sp)
  31 0014 233C3101 		sd	s3,24(sp)
  32 0018 23384101 		sd	s4,16(sp)
  33 001c 23345101 		sd	s5,8(sp)
  34              		.cfi_offset 1, -8
  35              		.cfi_offset 8, -16
  36              		.cfi_offset 9, -24
  37              		.cfi_offset 18, -32
  38              		.cfi_offset 19, -40
  39              		.cfi_offset 20, -48
  40              		.cfi_offset 21, -56
  41 0020 13040104 		addi	s0,sp,64
  42              		.cfi_def_cfa 8, 0
  21:src/exceptionHandler.cpp ****     uint64 scause;
  43              		.loc 1 21 5
  22:src/exceptionHandler.cpp ****     __asm__ volatile("csrr %0, scause" : "=r"(scause));
  44              		.loc 1 22 5
  45              		.loc 1 22 55 is_stmt 0
  46              	#APP
  47              	# 22 "src/exceptionHandler.cpp" 1
  23              	
  48              		csrr a4, scause
  49              	# 0 "" 2
  50              	.LVL0:
  24:src/exceptionHandler.cpp ****     uint64 sstatus;
  51              		.loc 1 24 5 is_stmt 1
  25:src/exceptionHandler.cpp ****     __asm__ volatile("csrr %0, sstatus" : "=r"(sstatus));
  52              		.loc 1 25 5
  53              		.loc 1 25 57 is_stmt 0
  54              	# 25 "src/exceptionHandler.cpp" 1
  26              	
  55              		csrr s2, sstatus
  56              	# 0 "" 2
  57              	.LVL1:
  27:src/exceptionHandler.cpp ****     uint64 sepc;
  58              		.loc 1 27 5 is_stmt 1
  28:src/exceptionHandler.cpp ****     __asm__ volatile("csrr %0, sepc" : "=r"(sepc));
  59              		.loc 1 28 5
  60              		.loc 1 28 51 is_stmt 0
  61              	# 28 "src/exceptionHandler.cpp" 1
  29              	
  62              		csrr s1, sepc
  63              	# 0 "" 2
  64              	.LVL2:
  30:src/exceptionHandler.cpp ****     uint64 a0 = 0;
  65              		.loc 1 30 5 is_stmt 1
  31:src/exceptionHandler.cpp ****     __asm__ volatile("mv %0, a0" : "=r"(a0));
  66              		.loc 1 31 5
  67              		.loc 1 31 45 is_stmt 0
  68              	# 31 "src/exceptionHandler.cpp" 1
  32              	
  69              		mv a5, a0
  70              	# 0 "" 2
  71              	.LVL3:
  33:src/exceptionHandler.cpp ****     uint64 a1, a2, a3, a4;
  72              		.loc 1 33 5 is_stmt 1
GAS LISTING /tmp/ccCryeBd.s 			page 3


  34:src/exceptionHandler.cpp ****     __asm__ volatile("mv %0, a1" : "=r"(a1));
  73              		.loc 1 34 5
  74              		.loc 1 34 45 is_stmt 0
  75              	# 34 "src/exceptionHandler.cpp" 1
  35              	    __asm__ volatile("mv %0, a2" : "=r"(a2));
  76              		mv s3, a1
  77              	# 0 "" 2
  78              	.LVL4:
  79              		.loc 1 35 5 is_stmt 1
  80              		.loc 1 35 45 is_stmt 0
  81              	# 35 "src/exceptionHandler.cpp" 1
  36              	    __asm__ volatile("mv %0, a3" : "=r"(a3));
  82              		mv s4, a2
  83              	# 0 "" 2
  84              	.LVL5:
  85              		.loc 1 36 5 is_stmt 1
  86              		.loc 1 36 45 is_stmt 0
  87              	# 36 "src/exceptionHandler.cpp" 1
  37              	    __asm__ volatile("mv %0, a4" : "=r"(a4));
  88              		mv s5, a3
  89              	# 0 "" 2
  90              	.LVL6:
  91              		.loc 1 37 5 is_stmt 1
  92              		.loc 1 37 45 is_stmt 0
  93              	# 37 "src/exceptionHandler.cpp" 1
  38              	
  94              		mv a3, a4
  95              	# 0 "" 2
  96              	.LVL7:
  39:src/exceptionHandler.cpp ****     uint64 returnVal = 0;
  97              		.loc 1 39 5 is_stmt 1
  40:src/exceptionHandler.cpp ****     if(scause == 0x0000000000000009UL || scause == 0x0000000000000008UL){   /// check if the except
  98              		.loc 1 40 5
  99              	#NO_APP
 100              	.LBB17:
 101              		.loc 1 40 39 is_stmt 0
 102 0044 130687FF 		addi	a2,a4,-8
 103              		.loc 1 40 5
 104 0048 93061000 		li	a3,1
 105 004c 63FEC616 		bleu	a2,a3,.L30
 106              	.LBE17:
  41:src/exceptionHandler.cpp ****         switch(a0){
  42:src/exceptionHandler.cpp ****             case 0x1: /// mem_alloc
  43:src/exceptionHandler.cpp ****                 returnVal = uint64(HeapManager::getInstance().heapAllocate(a1));
  44:src/exceptionHandler.cpp ****                 break;
  45:src/exceptionHandler.cpp ****             case 0x2: /// mem_free
  46:src/exceptionHandler.cpp ****                 returnVal = HeapManager::getInstance().heapFree((void*)a1);
  47:src/exceptionHandler.cpp ****                 break;
  48:src/exceptionHandler.cpp ****             case 0x11: /// thread_create
  49:src/exceptionHandler.cpp ****                 returnVal = _thread::create((thread_t*)a1, (void(*)(void*))a2, (void*)a3, (void*)((
  50:src/exceptionHandler.cpp ****                 // returnVal = _thread::create((thread_t*)a1, (void(*)(void*))a2, (void*)a3, (void*
  51:src/exceptionHandler.cpp ****                 break;
  52:src/exceptionHandler.cpp ****             case 0x12: /// thread_exit
  53:src/exceptionHandler.cpp ****                 returnVal = _thread::currentThread->exit();
  54:src/exceptionHandler.cpp ****                 break;
  55:src/exceptionHandler.cpp ****             case 0x13: /// thread_dispatch
  56:src/exceptionHandler.cpp ****                 _thread::dispatch();
GAS LISTING /tmp/ccCryeBd.s 			page 4


  57:src/exceptionHandler.cpp ****                 break;
  58:src/exceptionHandler.cpp ****             case 0x14: /// thread_join
  59:src/exceptionHandler.cpp ****                 _thread::currentThread->join((thread_t)a1);
  60:src/exceptionHandler.cpp ****                 break;
  61:src/exceptionHandler.cpp ****             case 0x21: /// sem_open
  62:src/exceptionHandler.cpp ****                 _sem::open((sem_t*)a1, unsigned(a2));
  63:src/exceptionHandler.cpp ****                 break;
  64:src/exceptionHandler.cpp ****             case 0x22: /// sem_close
  65:src/exceptionHandler.cpp ****                 _sem::close((sem_t)a1);
  66:src/exceptionHandler.cpp ****                 break;
  67:src/exceptionHandler.cpp ****             case 0x23: /// sem_wait
  68:src/exceptionHandler.cpp ****                 _sem::wait((sem_t)a1);
  69:src/exceptionHandler.cpp ****                 break;
  70:src/exceptionHandler.cpp ****             case 0x24: /// sem_signal
  71:src/exceptionHandler.cpp ****                 _sem::signal((sem_t)a1);
  72:src/exceptionHandler.cpp ****                 break;
  73:src/exceptionHandler.cpp ****             case 0x31: /// time_sleep
  74:src/exceptionHandler.cpp ****                 returnVal = Timer::getInstance().sleep(a1);
  75:src/exceptionHandler.cpp ****                 break;
  76:src/exceptionHandler.cpp ****             case 0x41:
  77:src/exceptionHandler.cpp ****                 returnVal = __getc();
  78:src/exceptionHandler.cpp ****                 break;
  79:src/exceptionHandler.cpp ****             case 0x42:
  80:src/exceptionHandler.cpp ****                 __putc(a1);
  81:src/exceptionHandler.cpp ****                 break;
  82:src/exceptionHandler.cpp ****         }
  83:src/exceptionHandler.cpp ****         __asm__ volatile("mv a0, %0" : : "r"(returnVal));
  84:src/exceptionHandler.cpp ****         __asm__ volatile("csrw sepc, %0" :: "r"(sepc+4));
  85:src/exceptionHandler.cpp ****         __asm__ volatile("csrw sstatus, %0" :: "r"(sstatus));
  86:src/exceptionHandler.cpp ****         __asm__ volatile("csrc sip, 0x2");
  87:src/exceptionHandler.cpp ****     }
  88:src/exceptionHandler.cpp ****     else if (scause == 0x0000000000000005UL){   // illegal read operation
 107              		.loc 1 88 10 is_stmt 1
 108              	.LBB39:
 109              	.LBB18:
 110 0050 93075000 		li	a5,5
 111              	.LVL8:
 112 0054 630AF730 		beq	a4,a5,.L31
 113              	.LBE18:
 114              	.LBE39:
  89:src/exceptionHandler.cpp ****         __putc('\n');
  90:src/exceptionHandler.cpp ****         __putc('E');
  91:src/exceptionHandler.cpp ****         __putc('r');
  92:src/exceptionHandler.cpp ****         __putc('r');
  93:src/exceptionHandler.cpp ****         __putc('o');
  94:src/exceptionHandler.cpp ****         __putc('r');
  95:src/exceptionHandler.cpp ****         __putc(':');
  96:src/exceptionHandler.cpp ****         __putc(' ');
  97:src/exceptionHandler.cpp ****         __putc('i');
  98:src/exceptionHandler.cpp ****         __putc('l');
  99:src/exceptionHandler.cpp ****         __putc('l');
 100:src/exceptionHandler.cpp ****         __putc('e');
 101:src/exceptionHandler.cpp ****         __putc('g');
 102:src/exceptionHandler.cpp ****         __putc('a');
 103:src/exceptionHandler.cpp ****         __putc('l');
 104:src/exceptionHandler.cpp ****         __putc(' ');
 105:src/exceptionHandler.cpp ****         __putc('r');
GAS LISTING /tmp/ccCryeBd.s 			page 5


 106:src/exceptionHandler.cpp ****         __putc('e');
 107:src/exceptionHandler.cpp ****         __putc('a');
 108:src/exceptionHandler.cpp ****         __putc('d');
 109:src/exceptionHandler.cpp ****         __putc('!');
 110:src/exceptionHandler.cpp ****         uint64 pc;
 111:src/exceptionHandler.cpp ****         __asm__ volatile("csrr %0, sepc" : "=r"(pc));
 112:src/exceptionHandler.cpp ****         __putc('\n');
 113:src/exceptionHandler.cpp ****         __putc('P');
 114:src/exceptionHandler.cpp ****         __putc('C');
 115:src/exceptionHandler.cpp ****         __putc(':');
 116:src/exceptionHandler.cpp ****         __putc(' ');
 117:src/exceptionHandler.cpp ****         __putc('0');
 118:src/exceptionHandler.cpp ****         __putc('x');
 119:src/exceptionHandler.cpp ****         for(int i = 15; i >= 0; i--){
 120:src/exceptionHandler.cpp ****             uint64 tmp = (pc >> (i * 4)) & 0xF;
 121:src/exceptionHandler.cpp ****             if(tmp < 10){
 122:src/exceptionHandler.cpp ****                 __putc('0' + tmp);
 123:src/exceptionHandler.cpp ****             }else{
 124:src/exceptionHandler.cpp ****                 __putc('A' + tmp - 10);
 125:src/exceptionHandler.cpp ****             }
 126:src/exceptionHandler.cpp ****         }
 127:src/exceptionHandler.cpp ****         assert(false);
 128:src/exceptionHandler.cpp ****     }
 129:src/exceptionHandler.cpp ****     else if (scause == 0x0000000000000007UL){   // illegal write operation
 115              		.loc 1 129 10
 116              	.LBB40:
 117              	.LBB31:
 118              	.LBB19:
 119 0058 93077000 		li	a5,7
 120 005c 631EF71A 		bne	a4,a5,.L1
 121              	.LBB20:
 130:src/exceptionHandler.cpp ****         __putc('\n');
 122              		.loc 1 130 9
 123              		.loc 1 130 15 is_stmt 0
 124 0060 1305A000 		li	a0,10
 125 0064 97000000 		call	__putc@plt
 125      E7800000 
 126              	.LVL9:
 131:src/exceptionHandler.cpp ****         __putc('E');
 127              		.loc 1 131 9 is_stmt 1
 128              		.loc 1 131 15 is_stmt 0
 129 006c 13055004 		li	a0,69
 130 0070 97000000 		call	__putc@plt
 130      E7800000 
 131              	.LVL10:
 132:src/exceptionHandler.cpp ****         __putc('r');
 132              		.loc 1 132 9 is_stmt 1
 133              		.loc 1 132 15 is_stmt 0
 134 0078 13052007 		li	a0,114
 135 007c 97000000 		call	__putc@plt
 135      E7800000 
 136              	.LVL11:
 133:src/exceptionHandler.cpp ****         __putc('r');
 137              		.loc 1 133 9 is_stmt 1
 138              		.loc 1 133 15 is_stmt 0
 139 0084 13052007 		li	a0,114
 140 0088 97000000 		call	__putc@plt
GAS LISTING /tmp/ccCryeBd.s 			page 6


 140      E7800000 
 141              	.LVL12:
 134:src/exceptionHandler.cpp ****         __putc('o');
 142              		.loc 1 134 9 is_stmt 1
 143              		.loc 1 134 15 is_stmt 0
 144 0090 1305F006 		li	a0,111
 145 0094 97000000 		call	__putc@plt
 145      E7800000 
 146              	.LVL13:
 135:src/exceptionHandler.cpp ****         __putc('r');
 147              		.loc 1 135 9 is_stmt 1
 148              		.loc 1 135 15 is_stmt 0
 149 009c 13052007 		li	a0,114
 150 00a0 97000000 		call	__putc@plt
 150      E7800000 
 151              	.LVL14:
 136:src/exceptionHandler.cpp ****         __putc(':');
 152              		.loc 1 136 9 is_stmt 1
 153              		.loc 1 136 15 is_stmt 0
 154 00a8 1305A003 		li	a0,58
 155 00ac 97000000 		call	__putc@plt
 155      E7800000 
 156              	.LVL15:
 137:src/exceptionHandler.cpp ****         __putc(' ');
 157              		.loc 1 137 9 is_stmt 1
 158              		.loc 1 137 15 is_stmt 0
 159 00b4 13050002 		li	a0,32
 160 00b8 97000000 		call	__putc@plt
 160      E7800000 
 161              	.LVL16:
 138:src/exceptionHandler.cpp ****         __putc('i');
 162              		.loc 1 138 9 is_stmt 1
 163              		.loc 1 138 15 is_stmt 0
 164 00c0 13059006 		li	a0,105
 165 00c4 97000000 		call	__putc@plt
 165      E7800000 
 166              	.LVL17:
 139:src/exceptionHandler.cpp ****         __putc('l');
 167              		.loc 1 139 9 is_stmt 1
 168              		.loc 1 139 15 is_stmt 0
 169 00cc 1305C006 		li	a0,108
 170 00d0 97000000 		call	__putc@plt
 170      E7800000 
 171              	.LVL18:
 140:src/exceptionHandler.cpp ****         __putc('l');
 172              		.loc 1 140 9 is_stmt 1
 173              		.loc 1 140 15 is_stmt 0
 174 00d8 1305C006 		li	a0,108
 175 00dc 97000000 		call	__putc@plt
 175      E7800000 
 176              	.LVL19:
 141:src/exceptionHandler.cpp ****         __putc('e');
 177              		.loc 1 141 9 is_stmt 1
 178              		.loc 1 141 15 is_stmt 0
 179 00e4 13055006 		li	a0,101
 180 00e8 97000000 		call	__putc@plt
 180      E7800000 
GAS LISTING /tmp/ccCryeBd.s 			page 7


 181              	.LVL20:
 142:src/exceptionHandler.cpp ****         __putc('g');
 182              		.loc 1 142 9 is_stmt 1
 183              		.loc 1 142 15 is_stmt 0
 184 00f0 13057006 		li	a0,103
 185 00f4 97000000 		call	__putc@plt
 185      E7800000 
 186              	.LVL21:
 143:src/exceptionHandler.cpp ****         __putc('a');
 187              		.loc 1 143 9 is_stmt 1
 188              		.loc 1 143 15 is_stmt 0
 189 00fc 13051006 		li	a0,97
 190 0100 97000000 		call	__putc@plt
 190      E7800000 
 191              	.LVL22:
 144:src/exceptionHandler.cpp ****         __putc('l');
 192              		.loc 1 144 9 is_stmt 1
 193              		.loc 1 144 15 is_stmt 0
 194 0108 1305C006 		li	a0,108
 195 010c 97000000 		call	__putc@plt
 195      E7800000 
 196              	.LVL23:
 145:src/exceptionHandler.cpp ****         __putc(' ');
 197              		.loc 1 145 9 is_stmt 1
 198              		.loc 1 145 15 is_stmt 0
 199 0114 13050002 		li	a0,32
 200 0118 97000000 		call	__putc@plt
 200      E7800000 
 201              	.LVL24:
 146:src/exceptionHandler.cpp ****         __putc('w');
 202              		.loc 1 146 9 is_stmt 1
 203              		.loc 1 146 15 is_stmt 0
 204 0120 13057007 		li	a0,119
 205 0124 97000000 		call	__putc@plt
 205      E7800000 
 206              	.LVL25:
 147:src/exceptionHandler.cpp ****         __putc('r');
 207              		.loc 1 147 9 is_stmt 1
 208              		.loc 1 147 15 is_stmt 0
 209 012c 13052007 		li	a0,114
 210 0130 97000000 		call	__putc@plt
 210      E7800000 
 211              	.LVL26:
 148:src/exceptionHandler.cpp ****         __putc('i');
 212              		.loc 1 148 9 is_stmt 1
 213              		.loc 1 148 15 is_stmt 0
 214 0138 13059006 		li	a0,105
 215 013c 97000000 		call	__putc@plt
 215      E7800000 
 216              	.LVL27:
 149:src/exceptionHandler.cpp ****         __putc('t');
 217              		.loc 1 149 9 is_stmt 1
 218              		.loc 1 149 15 is_stmt 0
 219 0144 13054007 		li	a0,116
 220 0148 97000000 		call	__putc@plt
 220      E7800000 
 221              	.LVL28:
GAS LISTING /tmp/ccCryeBd.s 			page 8


 150:src/exceptionHandler.cpp ****         __putc('e');
 222              		.loc 1 150 9 is_stmt 1
 223              		.loc 1 150 15 is_stmt 0
 224 0150 13055006 		li	a0,101
 225 0154 97000000 		call	__putc@plt
 225      E7800000 
 226              	.LVL29:
 151:src/exceptionHandler.cpp ****         __putc('!');
 227              		.loc 1 151 9 is_stmt 1
 228              		.loc 1 151 15 is_stmt 0
 229 015c 13051002 		li	a0,33
 230 0160 97000000 		call	__putc@plt
 230      E7800000 
 231              	.LVL30:
 152:src/exceptionHandler.cpp ****         uint64 pc;
 232              		.loc 1 152 9 is_stmt 1
 153:src/exceptionHandler.cpp ****         __asm__ volatile("csrr %0, sepc" : "=r"(pc));
 233              		.loc 1 153 9
 234              		.loc 1 153 53 is_stmt 0
 235              	#APP
 236              	# 153 "src/exceptionHandler.cpp" 1
 154              	        __putc('\n');
 237              		csrr s2, sepc
 238              	# 0 "" 2
 239              	.LVL31:
 240              		.loc 1 154 9 is_stmt 1
 241              		.loc 1 154 15 is_stmt 0
 242              	#NO_APP
 243 016c 1305A000 		li	a0,10
 244 0170 97000000 		call	__putc@plt
 244      E7800000 
 245              	.LVL32:
 155:src/exceptionHandler.cpp ****         __putc('P');
 246              		.loc 1 155 9 is_stmt 1
 247              		.loc 1 155 15 is_stmt 0
 248 0178 13050005 		li	a0,80
 249 017c 97000000 		call	__putc@plt
 249      E7800000 
 250              	.LVL33:
 156:src/exceptionHandler.cpp ****         __putc('C');
 251              		.loc 1 156 9 is_stmt 1
 252              		.loc 1 156 15 is_stmt 0
 253 0184 13053004 		li	a0,67
 254 0188 97000000 		call	__putc@plt
 254      E7800000 
 255              	.LVL34:
 157:src/exceptionHandler.cpp ****         __putc(':');
 256              		.loc 1 157 9 is_stmt 1
 257              		.loc 1 157 15 is_stmt 0
 258 0190 1305A003 		li	a0,58
 259 0194 97000000 		call	__putc@plt
 259      E7800000 
 260              	.LVL35:
 158:src/exceptionHandler.cpp ****         __putc(' ');
 261              		.loc 1 158 9 is_stmt 1
 262              		.loc 1 158 15 is_stmt 0
 263 019c 13050002 		li	a0,32
GAS LISTING /tmp/ccCryeBd.s 			page 9


 264 01a0 97000000 		call	__putc@plt
 264      E7800000 
 265              	.LVL36:
 159:src/exceptionHandler.cpp ****         __putc('0');
 266              		.loc 1 159 9 is_stmt 1
 267              		.loc 1 159 15 is_stmt 0
 268 01a8 13050003 		li	a0,48
 269 01ac 97000000 		call	__putc@plt
 269      E7800000 
 270              	.LVL37:
 160:src/exceptionHandler.cpp ****         __putc('x');
 271              		.loc 1 160 9 is_stmt 1
 272              		.loc 1 160 15 is_stmt 0
 273 01b4 13058007 		li	a0,120
 274 01b8 97000000 		call	__putc@plt
 274      E7800000 
 275              	.LVL38:
 161:src/exceptionHandler.cpp ****         for(int i = 15; i >= 0; i--){
 276              		.loc 1 161 9 is_stmt 1
 277              	.LBB21:
 278              		.loc 1 161 17 is_stmt 0
 279 01c0 9304F000 		li	s1,15
 280              	.LVL39:
 281 01c4 6F000037 		j	.L27
 282              	.LVL40:
 283              	.L30:
 284              	.LBE21:
 285              	.LBE20:
 286              	.LBE19:
 287              	.LBE31:
  41:src/exceptionHandler.cpp ****             case 0x1: /// mem_alloc
 288              		.loc 1 41 9 is_stmt 1
 289 01c8 13072004 		li	a4,66
 290              	.LVL41:
 291 01cc 636AF718 		bgtu	a5,a4,.L28
 292 01d0 93972700 		slli	a5,a5,2
 293              	.LVL42:
 294 01d4 17070000 		lla	a4,.L5
 294      13070700 
 295 01dc B387E700 		add	a5,a5,a4
 296 01e0 83A70700 		lw	a5,0(a5)
 297 01e4 B387E700 		add	a5,a5,a4
 298 01e8 67800700 		jr	a5
 299              		.section	.rodata
 300              		.align	2
 301              		.align	2
 302              	.L5:
 303 0000 00000000 		.word	.L28-.L5
 304 0004 00000000 		.word	.L17-.L5
 305 0008 00000000 		.word	.L16-.L5
 306 000c 00000000 		.word	.L28-.L5
 307 0010 00000000 		.word	.L28-.L5
 308 0014 00000000 		.word	.L28-.L5
 309 0018 00000000 		.word	.L28-.L5
 310 001c 00000000 		.word	.L28-.L5
 311 0020 00000000 		.word	.L28-.L5
 312 0024 00000000 		.word	.L28-.L5
GAS LISTING /tmp/ccCryeBd.s 			page 10


 313 0028 00000000 		.word	.L28-.L5
 314 002c 00000000 		.word	.L28-.L5
 315 0030 00000000 		.word	.L28-.L5
 316 0034 00000000 		.word	.L28-.L5
 317 0038 00000000 		.word	.L28-.L5
 318 003c 00000000 		.word	.L28-.L5
 319 0040 00000000 		.word	.L28-.L5
 320 0044 00000000 		.word	.L15-.L5
 321 0048 00000000 		.word	.L14-.L5
 322 004c 00000000 		.word	.L13-.L5
 323 0050 00000000 		.word	.L12-.L5
 324 0054 00000000 		.word	.L28-.L5
 325 0058 00000000 		.word	.L28-.L5
 326 005c 00000000 		.word	.L28-.L5
 327 0060 00000000 		.word	.L28-.L5
 328 0064 00000000 		.word	.L28-.L5
 329 0068 00000000 		.word	.L28-.L5
 330 006c 00000000 		.word	.L28-.L5
 331 0070 00000000 		.word	.L28-.L5
 332 0074 00000000 		.word	.L28-.L5
 333 0078 00000000 		.word	.L28-.L5
 334 007c 00000000 		.word	.L28-.L5
 335 0080 00000000 		.word	.L28-.L5
 336 0084 00000000 		.word	.L11-.L5
 337 0088 00000000 		.word	.L10-.L5
 338 008c 00000000 		.word	.L9-.L5
 339 0090 00000000 		.word	.L8-.L5
 340 0094 00000000 		.word	.L28-.L5
 341 0098 00000000 		.word	.L28-.L5
 342 009c 00000000 		.word	.L28-.L5
 343 00a0 00000000 		.word	.L28-.L5
 344 00a4 00000000 		.word	.L28-.L5
 345 00a8 00000000 		.word	.L28-.L5
 346 00ac 00000000 		.word	.L28-.L5
 347 00b0 00000000 		.word	.L28-.L5
 348 00b4 00000000 		.word	.L28-.L5
 349 00b8 00000000 		.word	.L28-.L5
 350 00bc 00000000 		.word	.L28-.L5
 351 00c0 00000000 		.word	.L28-.L5
 352 00c4 00000000 		.word	.L7-.L5
 353 00c8 00000000 		.word	.L28-.L5
 354 00cc 00000000 		.word	.L28-.L5
 355 00d0 00000000 		.word	.L28-.L5
 356 00d4 00000000 		.word	.L28-.L5
 357 00d8 00000000 		.word	.L28-.L5
 358 00dc 00000000 		.word	.L28-.L5
 359 00e0 00000000 		.word	.L28-.L5
 360 00e4 00000000 		.word	.L28-.L5
 361 00e8 00000000 		.word	.L28-.L5
 362 00ec 00000000 		.word	.L28-.L5
 363 00f0 00000000 		.word	.L28-.L5
 364 00f4 00000000 		.word	.L28-.L5
 365 00f8 00000000 		.word	.L28-.L5
 366 00fc 00000000 		.word	.L28-.L5
 367 0100 00000000 		.word	.L28-.L5
 368 0104 00000000 		.word	.L6-.L5
 369 0108 00000000 		.word	.L4-.L5
GAS LISTING /tmp/ccCryeBd.s 			page 11


 370              		.text
 371              	.L17:
  42:src/exceptionHandler.cpp ****                 returnVal = uint64(HeapManager::getInstance().heapAllocate(a1));
 372              		.loc 1 42 13
  43:src/exceptionHandler.cpp ****                 break;
 373              		.loc 1 43 17
 374              	.LBB32:
 375              	.LBB33:
 376              		.file 2 "./h/heapManager.h"
   1:./h/heapManager.h **** /**
   2:./h/heapManager.h ****  * @file heapAllocator.h
   3:./h/heapManager.h ****  * @author stcksmsh (stcksmsh@gmail.com)
   4:./h/heapManager.h ****  * @brief class for heap management, used in MemoryManager
   5:./h/heapManager.h ****  * @version 0.1
   6:./h/heapManager.h ****  * @date 2023-12-16
   7:./h/heapManager.h ****  * 
   8:./h/heapManager.h ****  * @copyright Copyright (c) 2023
   9:./h/heapManager.h ****  * 
  10:./h/heapManager.h ****  */
  11:./h/heapManager.h **** #ifndef HEAPMANAGER_H
  12:./h/heapManager.h **** #define HEAPMANAGER_H
  13:./h/heapManager.h **** 
  14:./h/heapManager.h **** #include "types.h"
  15:./h/heapManager.h **** #include "attributes.h"
  16:./h/heapManager.h **** 
  17:./h/heapManager.h **** class HeapManager{
  18:./h/heapManager.h **** 
  19:./h/heapManager.h **** public:
  20:./h/heapManager.h ****     HeapManager();
  21:./h/heapManager.h **** 
  22:./h/heapManager.h ****     ~HeapManager();
  23:./h/heapManager.h **** 
  24:./h/heapManager.h ****     /// @brief initialize the heap
  25:./h/heapManager.h ****     /// @param nStart start address of the heap
  26:./h/heapManager.h ****     /// @param nEnd end address of the heap
  27:./h/heapManager.h ****     void init(uintptr_t nStart, size_t nEnd);
  28:./h/heapManager.h **** 
  29:./h/heapManager.h ****     /// @brief get the amount of free memory in the heap
  30:./h/heapManager.h ****     /// @return number of free blocks in the heap
  31:./h/heapManager.h ****     size_t getHeapFreeMemory();
  32:./h/heapManager.h **** 
  33:./h/heapManager.h ****     /// @brief allocates memory from the heap in blocks
  34:./h/heapManager.h ****     /// @param nSize number of blocks to allocate
  35:./h/heapManager.h ****     /// @return pointer to the allocated memory
  36:./h/heapManager.h ****     void* heapAllocate(size_t nSize);
  37:./h/heapManager.h **** 
  38:./h/heapManager.h ****     /// @brief frees memory from the heap
  39:./h/heapManager.h ****     /// @param pAddress address of the memory to free
  40:./h/heapManager.h ****     /// @return 0 if successful, -1 otherwise
  41:./h/heapManager.h ****     int heapFree(void* pAddress);
  42:./h/heapManager.h **** 
  43:./h/heapManager.h ****     /// @brief returns the singleton instance
  44:./h/heapManager.h ****     static HeapManager& getInstance(){
  45:./h/heapManager.h ****         return *instance;
 377              		.loc 2 45 9
 378              	.LBE33:
 379              	.LBE32:
GAS LISTING /tmp/ccCryeBd.s 			page 12


  43:src/exceptionHandler.cpp ****                 break;
 380              		.loc 1 43 75 is_stmt 0
 381 01ec 93850900 		mv	a1,s3
 382 01f0 97070000 		la	a5,_ZN11HeapManager8instanceE
 382      83B70700 
 383 01f8 03B50700 		ld	a0,0(a5)
 384 01fc 97000000 		call	_ZN11HeapManager12heapAllocateEm@plt
 384      E7800000 
 385              	.LVL43:
  44:src/exceptionHandler.cpp ****             case 0x2: /// mem_free
 386              		.loc 1 44 17 is_stmt 1
 387              	.L3:
  83:src/exceptionHandler.cpp ****         __asm__ volatile("csrw sepc, %0" :: "r"(sepc+4));
 388              		.loc 1 83 9
  83:src/exceptionHandler.cpp ****         __asm__ volatile("csrw sepc, %0" :: "r"(sepc+4));
 389              		.loc 1 83 57 is_stmt 0
 390              	#APP
 391              	# 83 "src/exceptionHandler.cpp" 1
  84:src/exceptionHandler.cpp ****         __asm__ volatile("csrw sstatus, %0" :: "r"(sstatus));
 392              		mv a0, a0
 393              	# 0 "" 2
 394              		.loc 1 84 9 is_stmt 1
  84:src/exceptionHandler.cpp ****         __asm__ volatile("csrw sstatus, %0" :: "r"(sstatus));
 395              		.loc 1 84 53 is_stmt 0
 396              	#NO_APP
 397 0208 93844400 		addi	s1,s1,4
 398              	.LVL44:
  84:src/exceptionHandler.cpp ****         __asm__ volatile("csrw sstatus, %0" :: "r"(sstatus));
 399              		.loc 1 84 57
 400              	#APP
 401              	# 84 "src/exceptionHandler.cpp" 1
  85:src/exceptionHandler.cpp ****         __asm__ volatile("csrc sip, 0x2");
 402              		csrw sepc, s1
 403              	# 0 "" 2
 404              		.loc 1 85 9 is_stmt 1
  85:src/exceptionHandler.cpp ****         __asm__ volatile("csrc sip, 0x2");
 405              		.loc 1 85 61 is_stmt 0
 406              	# 85 "src/exceptionHandler.cpp" 1
  86:src/exceptionHandler.cpp ****     }
 407              		csrw sstatus, s2
 408              	# 0 "" 2
 409              		.loc 1 86 9 is_stmt 1
  86:src/exceptionHandler.cpp ****     }
 410              		.loc 1 86 42 is_stmt 0
 411              	# 86 "src/exceptionHandler.cpp" 1
 412              		csrc sip, 0x2
 413              	# 0 "" 2
 414              	.LVL45:
 415              	#NO_APP
 416              	.L1:
 417              	.LBE40:
 162:src/exceptionHandler.cpp ****             uint64 tmp = (pc >> (i * 4)) & 0xF;
 163:src/exceptionHandler.cpp ****             if(tmp < 10){
 164:src/exceptionHandler.cpp ****                 __putc('0' + tmp);
 165:src/exceptionHandler.cpp ****             }else{
 166:src/exceptionHandler.cpp ****                 __putc('A' + tmp - 10);
 167:src/exceptionHandler.cpp ****             }
GAS LISTING /tmp/ccCryeBd.s 			page 13


 168:src/exceptionHandler.cpp ****         }        
 169:src/exceptionHandler.cpp ****         assert(false);
 170:src/exceptionHandler.cpp ****     }
 171:src/exceptionHandler.cpp ****     // else if(scause == 0x8000000000000001UL){    /// timer
 172:src/exceptionHandler.cpp ****     //     Timer::getInstance().tick();
 173:src/exceptionHandler.cpp ****     //     __asm__ volatile("csrw sepc, %0" :: "r"(sepc));
 174:src/exceptionHandler.cpp ****     //     __asm__ volatile("csrw sstatus, %0" :: "r"(sstatus));
 175:src/exceptionHandler.cpp ****     //     __asm__ volatile("csrc sip, 0x2");
 176:src/exceptionHandler.cpp ****     // }
 177:src/exceptionHandler.cpp **** }...
 418              		.loc 1 177 1
 419 0218 83308103 		ld	ra,56(sp)
 420              		.cfi_remember_state
 421              		.cfi_restore 1
 422 021c 03340103 		ld	s0,48(sp)
 423              		.cfi_restore 8
 424              		.cfi_def_cfa 2, 64
 425 0220 83348102 		ld	s1,40(sp)
 426              		.cfi_restore 9
 427 0224 03390102 		ld	s2,32(sp)
 428              		.cfi_restore 18
 429 0228 83398101 		ld	s3,24(sp)
 430              		.cfi_restore 19
 431              	.LVL46:
 432 022c 033A0101 		ld	s4,16(sp)
 433              		.cfi_restore 20
 434              	.LVL47:
 435 0230 833A8100 		ld	s5,8(sp)
 436              		.cfi_restore 21
 437              	.LVL48:
 438 0234 13010104 		addi	sp,sp,64
 439              		.cfi_def_cfa_offset 0
 440 0238 67800000 		jr	ra
 441              	.LVL49:
 442              	.L16:
 443              		.cfi_restore_state
 444              	.LBB41:
  45:src/exceptionHandler.cpp ****             case 0x2: /// mem_free
 445              		.loc 1 45 13 is_stmt 1
  46:src/exceptionHandler.cpp ****                 returnVal = HeapManager::getInstance().heapFree((void*)a1);
 446              		.loc 1 46 17
 447              	.LBB34:
 448              	.LBB35:
 449              		.loc 2 45 9
 450              	.LBE35:
 451              	.LBE34:
  46:src/exceptionHandler.cpp ****                 returnVal = HeapManager::getInstance().heapFree((void*)a1);
 452              		.loc 1 46 64 is_stmt 0
 453 023c 93850900 		mv	a1,s3
 454 0240 97070000 		la	a5,_ZN11HeapManager8instanceE
 454      83B70700 
 455 0248 03B50700 		ld	a0,0(a5)
 456 024c 97000000 		call	_ZN11HeapManager8heapFreeEPv@plt
 456      E7800000 
 457              	.LVL50:
  47:src/exceptionHandler.cpp ****                 break;
 458              		.loc 1 47 17 is_stmt 1
GAS LISTING /tmp/ccCryeBd.s 			page 14


 459 0254 6FF01FFB 		j	.L3
 460              	.LVL51:
 461              	.L15:
  48:src/exceptionHandler.cpp ****             case 0x11: /// thread_create
 462              		.loc 1 48 13
  49:src/exceptionHandler.cpp ****                 returnVal = _thread::create((thread_t*)a1, (void(*)(void*))a2, (void*)a3, (void*)((
 463              		.loc 1 49 17
 464              	.LBB36:
 465              	.LBB37:
 466              		.loc 2 45 9
 467              	.LBE37:
 468              	.LBE36:
  49:src/exceptionHandler.cpp ****                 returnVal = _thread::create((thread_t*)a1, (void(*)(void*))a2, (void*)a3, (void*)((
 469              		.loc 1 49 146 is_stmt 0
 470 0258 93050004 		li	a1,64
 471 025c 97070000 		la	a5,_ZN11HeapManager8instanceE
 471      83B70700 
 472 0264 03B50700 		ld	a0,0(a5)
 473 0268 97000000 		call	_ZN11HeapManager12heapAllocateEm@plt
 473      E7800000 
 474              	.LVL52:
  49:src/exceptionHandler.cpp ****                 returnVal = _thread::create((thread_t*)a1, (void(*)(void*))a2, (void*)a3, (void*)((
 475              		.loc 1 49 44
 476 0270 13071000 		li	a4,1
 477 0274 B7170000 		li	a5,4096
 478 0278 9387F7FF 		addi	a5,a5,-1
 479 027c B306F500 		add	a3,a0,a5
 480 0280 13860A00 		mv	a2,s5
 481 0284 93050A00 		mv	a1,s4
 482 0288 13850900 		mv	a0,s3
 483 028c 97000000 		call	_ZN7_thread6createEPPS_PFvPvES2_S2_b@plt
 483      E7800000 
 484              	.LVL53:
  51:src/exceptionHandler.cpp ****                 break;
 485              		.loc 1 51 17 is_stmt 1
 486 0294 6FF01FF7 		j	.L3
 487              	.LVL54:
 488              	.L14:
  52:src/exceptionHandler.cpp ****             case 0x12: /// thread_exit
 489              		.loc 1 52 13
  53:src/exceptionHandler.cpp ****                 returnVal = _thread::currentThread->exit();
 490              		.loc 1 53 17
  53:src/exceptionHandler.cpp ****                 returnVal = _thread::currentThread->exit();
 491              		.loc 1 53 57 is_stmt 0
 492 0298 97000000 		call	_ZN7_thread4exitEv@plt
 492      E7800000 
 493              	.LVL55:
  54:src/exceptionHandler.cpp ****                 break;
 494              		.loc 1 54 17 is_stmt 1
 495 02a0 6FF05FF6 		j	.L3
 496              	.LVL56:
 497              	.L13:
  55:src/exceptionHandler.cpp ****             case 0x13: /// thread_dispatch
 498              		.loc 1 55 13
  56:src/exceptionHandler.cpp ****                 _thread::dispatch();
 499              		.loc 1 56 17
  56:src/exceptionHandler.cpp ****                 _thread::dispatch();
GAS LISTING /tmp/ccCryeBd.s 			page 15


 500              		.loc 1 56 34 is_stmt 0
 501 02a4 97000000 		call	_ZN7_thread8dispatchEv@plt
 501      E7800000 
 502              	.LVL57:
  57:src/exceptionHandler.cpp ****                 break;
 503              		.loc 1 57 17 is_stmt 1
 504              	.LBE41:
  39:src/exceptionHandler.cpp ****     uint64 returnVal = 0;
 505              		.loc 1 39 12 is_stmt 0
 506 02ac 13050000 		li	a0,0
 507              	.LBB42:
  57:src/exceptionHandler.cpp ****                 break;
 508              		.loc 1 57 17
 509 02b0 6FF05FF5 		j	.L3
 510              	.LVL58:
 511              	.L12:
  58:src/exceptionHandler.cpp ****             case 0x14: /// thread_join
 512              		.loc 1 58 13 is_stmt 1
  59:src/exceptionHandler.cpp ****                 _thread::currentThread->join((thread_t)a1);
 513              		.loc 1 59 17
  59:src/exceptionHandler.cpp ****                 _thread::currentThread->join((thread_t)a1);
 514              		.loc 1 59 45 is_stmt 0
 515 02b4 93850900 		mv	a1,s3
 516 02b8 97070000 		la	a5,_ZN7_thread13currentThreadE
 516      83B70700 
 517 02c0 03B50700 		ld	a0,0(a5)
 518 02c4 97000000 		call	_ZN7_thread4joinEPS_@plt
 518      E7800000 
 519              	.LVL59:
  60:src/exceptionHandler.cpp ****                 break;
 520              		.loc 1 60 17 is_stmt 1
 521              	.LBE42:
  39:src/exceptionHandler.cpp ****     uint64 returnVal = 0;
 522              		.loc 1 39 12 is_stmt 0
 523 02cc 13050000 		li	a0,0
 524              	.LBB43:
  60:src/exceptionHandler.cpp ****                 break;
 525              		.loc 1 60 17
 526 02d0 6FF05FF3 		j	.L3
 527              	.LVL60:
 528              	.L11:
  61:src/exceptionHandler.cpp ****             case 0x21: /// sem_open
 529              		.loc 1 61 13 is_stmt 1
  62:src/exceptionHandler.cpp ****                 _sem::open((sem_t*)a1, unsigned(a2));
 530              		.loc 1 62 17
  62:src/exceptionHandler.cpp ****                 _sem::open((sem_t*)a1, unsigned(a2));
 531              		.loc 1 62 27 is_stmt 0
 532 02d4 9B050A00 		sext.w	a1,s4
 533 02d8 13850900 		mv	a0,s3
 534 02dc 97000000 		call	_ZN4_sem4openEPPS_j@plt
 534      E7800000 
 535              	.LVL61:
  63:src/exceptionHandler.cpp ****                 break;
 536              		.loc 1 63 17 is_stmt 1
 537              	.LBE43:
  39:src/exceptionHandler.cpp ****     uint64 returnVal = 0;
 538              		.loc 1 39 12 is_stmt 0
GAS LISTING /tmp/ccCryeBd.s 			page 16


 539 02e4 13050000 		li	a0,0
 540              	.LBB44:
  63:src/exceptionHandler.cpp ****                 break;
 541              		.loc 1 63 17
 542 02e8 6FF0DFF1 		j	.L3
 543              	.LVL62:
 544              	.L10:
  64:src/exceptionHandler.cpp ****             case 0x22: /// sem_close
 545              		.loc 1 64 13 is_stmt 1
  65:src/exceptionHandler.cpp ****                 _sem::close((sem_t)a1);
 546              		.loc 1 65 17
  65:src/exceptionHandler.cpp ****                 _sem::close((sem_t)a1);
 547              		.loc 1 65 28 is_stmt 0
 548 02ec 13850900 		mv	a0,s3
 549 02f0 97000000 		call	_ZN4_sem5closeEPS_@plt
 549      E7800000 
 550              	.LVL63:
  66:src/exceptionHandler.cpp ****                 break;
 551              		.loc 1 66 17 is_stmt 1
 552              	.LBE44:
  39:src/exceptionHandler.cpp ****     uint64 returnVal = 0;
 553              		.loc 1 39 12 is_stmt 0
 554 02f8 13050000 		li	a0,0
 555              	.LBB45:
  66:src/exceptionHandler.cpp ****                 break;
 556              		.loc 1 66 17
 557 02fc 6FF09FF0 		j	.L3
 558              	.LVL64:
 559              	.L9:
  67:src/exceptionHandler.cpp ****             case 0x23: /// sem_wait
 560              		.loc 1 67 13 is_stmt 1
  68:src/exceptionHandler.cpp ****                 _sem::wait((sem_t)a1);
 561              		.loc 1 68 17
  68:src/exceptionHandler.cpp ****                 _sem::wait((sem_t)a1);
 562              		.loc 1 68 27 is_stmt 0
 563 0300 13850900 		mv	a0,s3
 564 0304 97000000 		call	_ZN4_sem4waitEPS_@plt
 564      E7800000 
 565              	.LVL65:
  69:src/exceptionHandler.cpp ****                 break;
 566              		.loc 1 69 17 is_stmt 1
 567              	.LBE45:
  39:src/exceptionHandler.cpp ****     uint64 returnVal = 0;
 568              		.loc 1 39 12 is_stmt 0
 569 030c 13050000 		li	a0,0
 570              	.LBB46:
  69:src/exceptionHandler.cpp ****                 break;
 571              		.loc 1 69 17
 572 0310 6FF05FEF 		j	.L3
 573              	.LVL66:
 574              	.L8:
  70:src/exceptionHandler.cpp ****             case 0x24: /// sem_signal
 575              		.loc 1 70 13 is_stmt 1
  71:src/exceptionHandler.cpp ****                 _sem::signal((sem_t)a1);
 576              		.loc 1 71 17
  71:src/exceptionHandler.cpp ****                 _sem::signal((sem_t)a1);
 577              		.loc 1 71 29 is_stmt 0
GAS LISTING /tmp/ccCryeBd.s 			page 17


 578 0314 13850900 		mv	a0,s3
 579 0318 97000000 		call	_ZN4_sem6signalEPS_@plt
 579      E7800000 
 580              	.LVL67:
  72:src/exceptionHandler.cpp ****                 break;
 581              		.loc 1 72 17 is_stmt 1
 582              	.LBE46:
  39:src/exceptionHandler.cpp ****     uint64 returnVal = 0;
 583              		.loc 1 39 12 is_stmt 0
 584 0320 13050000 		li	a0,0
 585              	.LBB47:
  72:src/exceptionHandler.cpp ****                 break;
 586              		.loc 1 72 17
 587 0324 6FF01FEE 		j	.L3
 588              	.LVL68:
 589              	.L7:
  73:src/exceptionHandler.cpp ****             case 0x31: /// time_sleep
 590              		.loc 1 73 13 is_stmt 1
  74:src/exceptionHandler.cpp ****                 returnVal = Timer::getInstance().sleep(a1);
 591              		.loc 1 74 17
  74:src/exceptionHandler.cpp ****                 returnVal = Timer::getInstance().sleep(a1);
 592              		.loc 1 74 48 is_stmt 0
 593 0328 97000000 		call	_ZN5Timer11getInstanceEv@plt
 593      E7800000 
 594              	.LVL69:
  74:src/exceptionHandler.cpp ****                 returnVal = Timer::getInstance().sleep(a1);
 595              		.loc 1 74 55
 596 0330 93850900 		mv	a1,s3
 597 0334 97000000 		call	_ZN5Timer5sleepEm@plt
 597      E7800000 
 598              	.LVL70:
  75:src/exceptionHandler.cpp ****                 break;
 599              		.loc 1 75 17 is_stmt 1
 600 033c 6FF09FEC 		j	.L3
 601              	.LVL71:
 602              	.L6:
  76:src/exceptionHandler.cpp ****             case 0x41:
 603              		.loc 1 76 13
  77:src/exceptionHandler.cpp ****                 returnVal = __getc();
 604              		.loc 1 77 17
  77:src/exceptionHandler.cpp ****                 returnVal = __getc();
 605              		.loc 1 77 35 is_stmt 0
 606 0340 97000000 		call	__getc@plt
 606      E7800000 
 607              	.LVL72:
  78:src/exceptionHandler.cpp ****                 break;
 608              		.loc 1 78 17 is_stmt 1
 609 0348 6FF0DFEB 		j	.L3
 610              	.LVL73:
 611              	.L4:
  79:src/exceptionHandler.cpp ****             case 0x42:
 612              		.loc 1 79 13
  80:src/exceptionHandler.cpp ****                 __putc(a1);
 613              		.loc 1 80 17
  80:src/exceptionHandler.cpp ****                 __putc(a1);
 614              		.loc 1 80 23 is_stmt 0
 615 034c 13F5F90F 		andi	a0,s3,0xff
GAS LISTING /tmp/ccCryeBd.s 			page 18


 616 0350 97000000 		call	__putc@plt
 616      E7800000 
 617              	.LVL74:
  81:src/exceptionHandler.cpp ****                 break;
 618              		.loc 1 81 17 is_stmt 1
 619              	.LBE47:
  39:src/exceptionHandler.cpp ****     uint64 returnVal = 0;
 620              		.loc 1 39 12 is_stmt 0
 621 0358 13050000 		li	a0,0
 622              	.LBB48:
  81:src/exceptionHandler.cpp ****                 break;
 623              		.loc 1 81 17
 624 035c 6FF09FEA 		j	.L3
 625              	.LVL75:
 626              	.L28:
  40:src/exceptionHandler.cpp ****     if(scause == 0x0000000000000009UL || scause == 0x0000000000000008UL){   /// check if the except
 627              		.loc 1 40 5
 628 0360 13050000 		li	a0,0
 629 0364 6FF01FEA 		j	.L3
 630              	.LVL76:
 631              	.L31:
 632              	.LBB38:
 633              	.LBB26:
  89:src/exceptionHandler.cpp ****         __putc('\n');
 634              		.loc 1 89 9 is_stmt 1
  89:src/exceptionHandler.cpp ****         __putc('\n');
 635              		.loc 1 89 15 is_stmt 0
 636 0368 1305A000 		li	a0,10
 637 036c 97000000 		call	__putc@plt
 637      E7800000 
 638              	.LVL77:
  90:src/exceptionHandler.cpp ****         __putc('E');
 639              		.loc 1 90 9 is_stmt 1
  90:src/exceptionHandler.cpp ****         __putc('E');
 640              		.loc 1 90 15 is_stmt 0
 641 0374 13055004 		li	a0,69
 642 0378 97000000 		call	__putc@plt
 642      E7800000 
 643              	.LVL78:
  91:src/exceptionHandler.cpp ****         __putc('r');
 644              		.loc 1 91 9 is_stmt 1
  91:src/exceptionHandler.cpp ****         __putc('r');
 645              		.loc 1 91 15 is_stmt 0
 646 0380 13052007 		li	a0,114
 647 0384 97000000 		call	__putc@plt
 647      E7800000 
 648              	.LVL79:
  92:src/exceptionHandler.cpp ****         __putc('r');
 649              		.loc 1 92 9 is_stmt 1
  92:src/exceptionHandler.cpp ****         __putc('r');
 650              		.loc 1 92 15 is_stmt 0
 651 038c 13052007 		li	a0,114
 652 0390 97000000 		call	__putc@plt
 652      E7800000 
 653              	.LVL80:
  93:src/exceptionHandler.cpp ****         __putc('o');
 654              		.loc 1 93 9 is_stmt 1
GAS LISTING /tmp/ccCryeBd.s 			page 19


  93:src/exceptionHandler.cpp ****         __putc('o');
 655              		.loc 1 93 15 is_stmt 0
 656 0398 1305F006 		li	a0,111
 657 039c 97000000 		call	__putc@plt
 657      E7800000 
 658              	.LVL81:
  94:src/exceptionHandler.cpp ****         __putc('r');
 659              		.loc 1 94 9 is_stmt 1
  94:src/exceptionHandler.cpp ****         __putc('r');
 660              		.loc 1 94 15 is_stmt 0
 661 03a4 13052007 		li	a0,114
 662 03a8 97000000 		call	__putc@plt
 662      E7800000 
 663              	.LVL82:
  95:src/exceptionHandler.cpp ****         __putc(':');
 664              		.loc 1 95 9 is_stmt 1
  95:src/exceptionHandler.cpp ****         __putc(':');
 665              		.loc 1 95 15 is_stmt 0
 666 03b0 1305A003 		li	a0,58
 667 03b4 97000000 		call	__putc@plt
 667      E7800000 
 668              	.LVL83:
  96:src/exceptionHandler.cpp ****         __putc(' ');
 669              		.loc 1 96 9 is_stmt 1
  96:src/exceptionHandler.cpp ****         __putc(' ');
 670              		.loc 1 96 15 is_stmt 0
 671 03bc 13050002 		li	a0,32
 672 03c0 97000000 		call	__putc@plt
 672      E7800000 
 673              	.LVL84:
  97:src/exceptionHandler.cpp ****         __putc('i');
 674              		.loc 1 97 9 is_stmt 1
  97:src/exceptionHandler.cpp ****         __putc('i');
 675              		.loc 1 97 15 is_stmt 0
 676 03c8 13059006 		li	a0,105
 677 03cc 97000000 		call	__putc@plt
 677      E7800000 
 678              	.LVL85:
  98:src/exceptionHandler.cpp ****         __putc('l');
 679              		.loc 1 98 9 is_stmt 1
  98:src/exceptionHandler.cpp ****         __putc('l');
 680              		.loc 1 98 15 is_stmt 0
 681 03d4 1305C006 		li	a0,108
 682 03d8 97000000 		call	__putc@plt
 682      E7800000 
 683              	.LVL86:
  99:src/exceptionHandler.cpp ****         __putc('l');
 684              		.loc 1 99 9 is_stmt 1
  99:src/exceptionHandler.cpp ****         __putc('l');
 685              		.loc 1 99 15 is_stmt 0
 686 03e0 1305C006 		li	a0,108
 687 03e4 97000000 		call	__putc@plt
 687      E7800000 
 688              	.LVL87:
 100:src/exceptionHandler.cpp ****         __putc('e');
 689              		.loc 1 100 9 is_stmt 1
 100:src/exceptionHandler.cpp ****         __putc('e');
GAS LISTING /tmp/ccCryeBd.s 			page 20


 690              		.loc 1 100 15 is_stmt 0
 691 03ec 13055006 		li	a0,101
 692 03f0 97000000 		call	__putc@plt
 692      E7800000 
 693              	.LVL88:
 101:src/exceptionHandler.cpp ****         __putc('g');
 694              		.loc 1 101 9 is_stmt 1
 101:src/exceptionHandler.cpp ****         __putc('g');
 695              		.loc 1 101 15 is_stmt 0
 696 03f8 13057006 		li	a0,103
 697 03fc 97000000 		call	__putc@plt
 697      E7800000 
 698              	.LVL89:
 102:src/exceptionHandler.cpp ****         __putc('a');
 699              		.loc 1 102 9 is_stmt 1
 102:src/exceptionHandler.cpp ****         __putc('a');
 700              		.loc 1 102 15 is_stmt 0
 701 0404 13051006 		li	a0,97
 702 0408 97000000 		call	__putc@plt
 702      E7800000 
 703              	.LVL90:
 103:src/exceptionHandler.cpp ****         __putc('l');
 704              		.loc 1 103 9 is_stmt 1
 103:src/exceptionHandler.cpp ****         __putc('l');
 705              		.loc 1 103 15 is_stmt 0
 706 0410 1305C006 		li	a0,108
 707 0414 97000000 		call	__putc@plt
 707      E7800000 
 708              	.LVL91:
 104:src/exceptionHandler.cpp ****         __putc(' ');
 709              		.loc 1 104 9 is_stmt 1
 104:src/exceptionHandler.cpp ****         __putc(' ');
 710              		.loc 1 104 15 is_stmt 0
 711 041c 13050002 		li	a0,32
 712 0420 97000000 		call	__putc@plt
 712      E7800000 
 713              	.LVL92:
 105:src/exceptionHandler.cpp ****         __putc('r');
 714              		.loc 1 105 9 is_stmt 1
 105:src/exceptionHandler.cpp ****         __putc('r');
 715              		.loc 1 105 15 is_stmt 0
 716 0428 13052007 		li	a0,114
 717 042c 97000000 		call	__putc@plt
 717      E7800000 
 718              	.LVL93:
 106:src/exceptionHandler.cpp ****         __putc('e');
 719              		.loc 1 106 9 is_stmt 1
 106:src/exceptionHandler.cpp ****         __putc('e');
 720              		.loc 1 106 15 is_stmt 0
 721 0434 13055006 		li	a0,101
 722 0438 97000000 		call	__putc@plt
 722      E7800000 
 723              	.LVL94:
 107:src/exceptionHandler.cpp ****         __putc('a');
 724              		.loc 1 107 9 is_stmt 1
 107:src/exceptionHandler.cpp ****         __putc('a');
 725              		.loc 1 107 15 is_stmt 0
GAS LISTING /tmp/ccCryeBd.s 			page 21


 726 0440 13051006 		li	a0,97
 727 0444 97000000 		call	__putc@plt
 727      E7800000 
 728              	.LVL95:
 108:src/exceptionHandler.cpp ****         __putc('d');
 729              		.loc 1 108 9 is_stmt 1
 108:src/exceptionHandler.cpp ****         __putc('d');
 730              		.loc 1 108 15 is_stmt 0
 731 044c 13054006 		li	a0,100
 732 0450 97000000 		call	__putc@plt
 732      E7800000 
 733              	.LVL96:
 109:src/exceptionHandler.cpp ****         __putc('!');
 734              		.loc 1 109 9 is_stmt 1
 109:src/exceptionHandler.cpp ****         __putc('!');
 735              		.loc 1 109 15 is_stmt 0
 736 0458 13051002 		li	a0,33
 737 045c 97000000 		call	__putc@plt
 737      E7800000 
 738              	.LVL97:
 110:src/exceptionHandler.cpp ****         uint64 pc;
 739              		.loc 1 110 9 is_stmt 1
 111:src/exceptionHandler.cpp ****         __asm__ volatile("csrr %0, sepc" : "=r"(pc));
 740              		.loc 1 111 9
 111:src/exceptionHandler.cpp ****         __asm__ volatile("csrr %0, sepc" : "=r"(pc));
 741              		.loc 1 111 53 is_stmt 0
 742              	#APP
 743              	# 111 "src/exceptionHandler.cpp" 1
 744              		csrr s2, sepc
 745              	# 0 "" 2
 746              	.LVL98:
 112:src/exceptionHandler.cpp ****         __putc('\n');
 747              		.loc 1 112 9 is_stmt 1
 112:src/exceptionHandler.cpp ****         __putc('\n');
 748              		.loc 1 112 15 is_stmt 0
 749              	#NO_APP
 750 0468 1305A000 		li	a0,10
 751 046c 97000000 		call	__putc@plt
 751      E7800000 
 752              	.LVL99:
 113:src/exceptionHandler.cpp ****         __putc('P');
 753              		.loc 1 113 9 is_stmt 1
 113:src/exceptionHandler.cpp ****         __putc('P');
 754              		.loc 1 113 15 is_stmt 0
 755 0474 13050005 		li	a0,80
 756 0478 97000000 		call	__putc@plt
 756      E7800000 
 757              	.LVL100:
 114:src/exceptionHandler.cpp ****         __putc('C');
 758              		.loc 1 114 9 is_stmt 1
 114:src/exceptionHandler.cpp ****         __putc('C');
 759              		.loc 1 114 15 is_stmt 0
 760 0480 13053004 		li	a0,67
 761 0484 97000000 		call	__putc@plt
 761      E7800000 
 762              	.LVL101:
 115:src/exceptionHandler.cpp ****         __putc(':');
GAS LISTING /tmp/ccCryeBd.s 			page 22


 763              		.loc 1 115 9 is_stmt 1
 115:src/exceptionHandler.cpp ****         __putc(':');
 764              		.loc 1 115 15 is_stmt 0
 765 048c 1305A003 		li	a0,58
 766 0490 97000000 		call	__putc@plt
 766      E7800000 
 767              	.LVL102:
 116:src/exceptionHandler.cpp ****         __putc(' ');
 768              		.loc 1 116 9 is_stmt 1
 116:src/exceptionHandler.cpp ****         __putc(' ');
 769              		.loc 1 116 15 is_stmt 0
 770 0498 13050002 		li	a0,32
 771 049c 97000000 		call	__putc@plt
 771      E7800000 
 772              	.LVL103:
 117:src/exceptionHandler.cpp ****         __putc('0');
 773              		.loc 1 117 9 is_stmt 1
 117:src/exceptionHandler.cpp ****         __putc('0');
 774              		.loc 1 117 15 is_stmt 0
 775 04a4 13050003 		li	a0,48
 776 04a8 97000000 		call	__putc@plt
 776      E7800000 
 777              	.LVL104:
 118:src/exceptionHandler.cpp ****         __putc('x');
 778              		.loc 1 118 9 is_stmt 1
 118:src/exceptionHandler.cpp ****         __putc('x');
 779              		.loc 1 118 15 is_stmt 0
 780 04b0 13058007 		li	a0,120
 781 04b4 97000000 		call	__putc@plt
 781      E7800000 
 782              	.LVL105:
 119:src/exceptionHandler.cpp ****         for(int i = 15; i >= 0; i--){
 783              		.loc 1 119 9 is_stmt 1
 784              	.LBB27:
 119:src/exceptionHandler.cpp ****         for(int i = 15; i >= 0; i--){
 785              		.loc 1 119 17 is_stmt 0
 786 04bc 9304F000 		li	s1,15
 787              	.LVL106:
 788 04c0 6F004001 		j	.L23
 789              	.LVL107:
 790              	.L21:
 791              	.LBB28:
 124:src/exceptionHandler.cpp ****                 __putc('A' + tmp - 10);
 792              		.loc 1 124 17 is_stmt 1
 124:src/exceptionHandler.cpp ****                 __putc('A' + tmp - 10);
 793              		.loc 1 124 23 is_stmt 0
 794 04c4 13057503 		addi	a0,a0,55
 795              	.LVL108:
 796 04c8 97000000 		call	__putc@plt
 796      E7800000 
 797              	.LVL109:
 798              	.L22:
 799              	.LBE28:
 119:src/exceptionHandler.cpp ****         for(int i = 15; i >= 0; i--){
 800              		.loc 1 119 9 is_stmt 1 discriminator 2
 801 04d0 9B84F4FF 		addiw	s1,s1,-1
 802              	.LVL110:
GAS LISTING /tmp/ccCryeBd.s 			page 23


 803              	.L23:
 119:src/exceptionHandler.cpp ****         for(int i = 15; i >= 0; i--){
 804              		.loc 1 119 27 discriminator 1
 805 04d4 63C40402 		bltz	s1,.L20
 806              	.LBB29:
 120:src/exceptionHandler.cpp ****             uint64 tmp = (pc >> (i * 4)) & 0xF;
 807              		.loc 1 120 13
 120:src/exceptionHandler.cpp ****             uint64 tmp = (pc >> (i * 4)) & 0xF;
 808              		.loc 1 120 36 is_stmt 0
 809 04d8 1B952400 		slliw	a0,s1,2
 120:src/exceptionHandler.cpp ****             uint64 tmp = (pc >> (i * 4)) & 0xF;
 810              		.loc 1 120 30
 811 04dc 3355A900 		srl	a0,s2,a0
 120:src/exceptionHandler.cpp ****             uint64 tmp = (pc >> (i * 4)) & 0xF;
 812              		.loc 1 120 20
 813 04e0 1375F500 		andi	a0,a0,15
 814              	.LVL111:
 121:src/exceptionHandler.cpp ****             if(tmp < 10){
 815              		.loc 1 121 13 is_stmt 1
 816 04e4 93079000 		li	a5,9
 817 04e8 E3EEA7FC 		bgtu	a0,a5,.L21
 122:src/exceptionHandler.cpp ****                 __putc('0' + tmp);
 818              		.loc 1 122 17
 122:src/exceptionHandler.cpp ****                 __putc('0' + tmp);
 819              		.loc 1 122 23 is_stmt 0
 820 04ec 13050503 		addi	a0,a0,48
 821              	.LVL112:
 822 04f0 97000000 		call	__putc@plt
 822      E7800000 
 823              	.LVL113:
 824 04f8 6FF09FFD 		j	.L22
 825              	.LVL114:
 826              	.L20:
 827              	.LBE29:
 828              	.LBE27:
 127:src/exceptionHandler.cpp ****         assert(false);
 829              		.loc 1 127 9 is_stmt 1
 127:src/exceptionHandler.cpp ****         assert(false);
 830              		.loc 1 127 9
 831 04fc 97060000 		lla	a3,.LC0
 831      93860600 
 832 0504 1306F007 		li	a2,127
 833 0508 97050000 		lla	a1,.LC1
 833      93850500 
 834 0510 17050000 		lla	a0,.LC2
 834      13050500 
 835 0518 97000000 		call	_Z13assert_failedPKcS0_jS0_@plt
 835      E7800000 
 836              	.LVL115:
 127:src/exceptionHandler.cpp ****         assert(false);
 837              		.loc 1 127 22
 838              	.LBE26:
 839 0520 6FF09FCF 		j	.L1
 840              	.LVL116:
 841              	.L25:
 842              	.LBB30:
 843              	.LBB25:
GAS LISTING /tmp/ccCryeBd.s 			page 24


 844              	.LBB24:
 845              	.LBB22:
 166:src/exceptionHandler.cpp ****                 __putc('A' + tmp - 10);
 846              		.loc 1 166 17
 166:src/exceptionHandler.cpp ****                 __putc('A' + tmp - 10);
 847              		.loc 1 166 23 is_stmt 0
 848 0524 13057503 		addi	a0,a0,55
 849              	.LVL117:
 850 0528 97000000 		call	__putc@plt
 850      E7800000 
 851              	.LVL118:
 852              	.L26:
 853              	.LBE22:
 161:src/exceptionHandler.cpp ****         for(int i = 15; i >= 0; i--){
 854              		.loc 1 161 9 is_stmt 1 discriminator 2
 855 0530 9B84F4FF 		addiw	s1,s1,-1
 856              	.LVL119:
 857              	.L27:
 161:src/exceptionHandler.cpp ****         for(int i = 15; i >= 0; i--){
 858              		.loc 1 161 27 discriminator 1
 859 0534 63C40402 		bltz	s1,.L24
 860              	.LBB23:
 162:src/exceptionHandler.cpp ****             uint64 tmp = (pc >> (i * 4)) & 0xF;
 861              		.loc 1 162 13
 162:src/exceptionHandler.cpp ****             uint64 tmp = (pc >> (i * 4)) & 0xF;
 862              		.loc 1 162 36 is_stmt 0
 863 0538 1B952400 		slliw	a0,s1,2
 162:src/exceptionHandler.cpp ****             uint64 tmp = (pc >> (i * 4)) & 0xF;
 864              		.loc 1 162 30
 865 053c 3355A900 		srl	a0,s2,a0
 162:src/exceptionHandler.cpp ****             uint64 tmp = (pc >> (i * 4)) & 0xF;
 866              		.loc 1 162 20
 867 0540 1375F500 		andi	a0,a0,15
 868              	.LVL120:
 163:src/exceptionHandler.cpp ****             if(tmp < 10){
 869              		.loc 1 163 13 is_stmt 1
 870 0544 93079000 		li	a5,9
 871 0548 E3EEA7FC 		bgtu	a0,a5,.L25
 164:src/exceptionHandler.cpp ****                 __putc('0' + tmp);
 872              		.loc 1 164 17
 164:src/exceptionHandler.cpp ****                 __putc('0' + tmp);
 873              		.loc 1 164 23 is_stmt 0
 874 054c 13050503 		addi	a0,a0,48
 875              	.LVL121:
 876 0550 97000000 		call	__putc@plt
 876      E7800000 
 877              	.LVL122:
 878 0558 6FF09FFD 		j	.L26
 879              	.LVL123:
 880              	.L24:
 881              	.LBE23:
 882              	.LBE24:
 169:src/exceptionHandler.cpp ****         assert(false);
 883              		.loc 1 169 9 is_stmt 1
 169:src/exceptionHandler.cpp ****         assert(false);
 884              		.loc 1 169 9
 885 055c 97060000 		lla	a3,.LC0
GAS LISTING /tmp/ccCryeBd.s 			page 25


 885      93860600 
 886 0564 1306900A 		li	a2,169
 887 0568 97050000 		lla	a1,.LC1
 887      93850500 
 888 0570 17050000 		lla	a0,.LC2
 888      13050500 
 889 0578 97000000 		call	_Z13assert_failedPKcS0_jS0_@plt
 889      E7800000 
 890              	.LVL124:
 169:src/exceptionHandler.cpp ****         assert(false);
 891              		.loc 1 169 22
 892              	.LBE25:
 893              	.LBE30:
 894              	.LBE38:
 895              	.LBE48:
 896              		.loc 1 177 1 is_stmt 0
 897 0580 6FF09FC9 		j	.L1
 898              		.cfi_endproc
 899              	.LFE1:
 901              	.Letext0:
 902              		.file 3 "./lib/hw.h"
 903              		.file 4 "./h/types.h"
 904              		.file 5 "./h/thread.h"
 905              		.file 6 "./h/sem.h"
 906              		.file 7 "./h/timer.h"
 907              		.file 8 "./lib/console.h"
 908              		.file 9 "./h/assert.h"
GAS LISTING /tmp/ccCryeBd.s 			page 26

