GAS LISTING /tmp/ccp2ZdEC.s 			page 1


   1              		.file	"heapManager.cpp"
   2              		.option pic
   3              		.option norelax
   4              		.text
   5              	.Ltext0:
   6              		.section	.rodata.str1.8,"aMS",@progbits,1
   7              		.align	3
   8              	.LC0:
   9 0000 7372632F 		.string	"src/heapManager.cpp"
   9      68656170 
   9      4D616E61 
   9      6765722E 
   9      63707000 
  10              		.text
  11              		.align	2
  12              		.globl	_ZN11HeapManagerC2Ev
  14              	_ZN11HeapManagerC2Ev:
  15              	.LFB2:
  16              		.file 1 "src/heapManager.cpp"
   1:src/heapManager.cpp **** /**
   2:src/heapManager.cpp ****  * @file HeapManager.cpp
   3:src/heapManager.cpp ****  * @author stcksmsh (stcksmsh@gmail.com)
   4:src/heapManager.cpp ****  * @brief implementation of the HeapManager class
   5:src/heapManager.cpp ****  * @version 0.1
   6:src/heapManager.cpp ****  * @date 2023-12-16
   7:src/heapManager.cpp ****  * 
   8:src/heapManager.cpp ****  * @copyright Copyright (c) 2023
   9:src/heapManager.cpp ****  * 
  10:src/heapManager.cpp ****  */
  11:src/heapManager.cpp **** #include "assert.h"
  12:src/heapManager.cpp **** #include "heapManager.h"
  13:src/heapManager.cpp **** #include "hw.h"
  14:src/heapManager.cpp **** 
  15:src/heapManager.cpp **** HeapManager* HeapManager::instance = 0;
  16:src/heapManager.cpp **** 
  17:src/heapManager.cpp **** HeapManager::HeapManager(){
  17              		.loc 1 17 1
  18              		.cfi_startproc
  19              	.LVL0:
  20 0000 130101FE 		addi	sp,sp,-32
  21              		.cfi_def_cfa_offset 32
  22 0004 233C1100 		sd	ra,24(sp)
  23 0008 23388100 		sd	s0,16(sp)
  24 000c 23349100 		sd	s1,8(sp)
  25              		.cfi_offset 1, -8
  26              		.cfi_offset 8, -16
  27              		.cfi_offset 9, -24
  28 0010 13040102 		addi	s0,sp,32
  29              		.cfi_def_cfa 8, 0
  30 0014 93040500 		mv	s1,a0
  31              	.LBB2:
  18:src/heapManager.cpp ****     assert(instance == 0);
  32              		.loc 1 18 5
  33 0018 97070000 		ld	a5,.LANCHOR0
  33      83B70700 
  34 0020 63900702 		bnez	a5,.L4
  35              	.LVL1:
GAS LISTING /tmp/ccp2ZdEC.s 			page 2


  36              	.L2:
  37              		.loc 1 18 26 discriminator 3
  19:src/heapManager.cpp ****     instance = this;
  38              		.loc 1 19 5 discriminator 3
  39              		.loc 1 19 14 is_stmt 0 discriminator 3
  40 0024 97070000 		sd	s1,.LANCHOR0,a5
  40      23B09700 
  41              	.LBE2:
  20:src/heapManager.cpp **** }
  42              		.loc 1 20 1 discriminator 3
  43 002c 83308101 		ld	ra,24(sp)
  44              		.cfi_remember_state
  45              		.cfi_restore 1
  46 0030 03340101 		ld	s0,16(sp)
  47              		.cfi_restore 8
  48              		.cfi_def_cfa 2, 32
  49 0034 83348100 		ld	s1,8(sp)
  50              		.cfi_restore 9
  51              	.LVL2:
  52 0038 13010102 		addi	sp,sp,32
  53              		.cfi_def_cfa_offset 0
  54 003c 67800000 		jr	ra
  55              	.LVL3:
  56              	.L4:
  57              		.cfi_restore_state
  58              	.LBB3:
  18:src/heapManager.cpp ****     assert(instance == 0);
  59              		.loc 1 18 5 is_stmt 1 discriminator 1
  60 0040 93052001 		li	a1,18
  61 0044 17050000 		lla	a0,.LC0
  61      13050500 
  62 004c 97000000 		call	_Z13assert_failedPKci@plt
  62      E7800000 
  63              	.LVL4:
  64 0054 6FF01FFD 		j	.L2
  65              	.LBE3:
  66              		.cfi_endproc
  67              	.LFE2:
  69              		.globl	_ZN11HeapManagerC1Ev
  70              		.set	_ZN11HeapManagerC1Ev,_ZN11HeapManagerC2Ev
  71              		.align	2
  72              		.globl	_ZN11HeapManagerD2Ev
  74              	_ZN11HeapManagerD2Ev:
  75              	.LFB5:
  21:src/heapManager.cpp **** 
  22:src/heapManager.cpp **** HeapManager::~HeapManager(){
  76              		.loc 1 22 1
  77              		.cfi_startproc
  78              	.LVL5:
  79 0058 130101FF 		addi	sp,sp,-16
  80              		.cfi_def_cfa_offset 16
  81 005c 23348100 		sd	s0,8(sp)
  82              		.cfi_offset 8, -8
  83 0060 13040101 		addi	s0,sp,16
  84              		.cfi_def_cfa 8, 0
  23:src/heapManager.cpp ****     
  24:src/heapManager.cpp **** }
GAS LISTING /tmp/ccp2ZdEC.s 			page 3


  85              		.loc 1 24 1 is_stmt 0
  86 0064 03348100 		ld	s0,8(sp)
  87              		.cfi_restore 8
  88              		.cfi_def_cfa 2, 16
  89 0068 13010101 		addi	sp,sp,16
  90              		.cfi_def_cfa_offset 0
  91 006c 67800000 		jr	ra
  92              		.cfi_endproc
  93              	.LFE5:
  95              		.globl	_ZN11HeapManagerD1Ev
  96              		.set	_ZN11HeapManagerD1Ev,_ZN11HeapManagerD2Ev
  97              		.align	2
  98              		.globl	_ZN11HeapManager4initEmm
 100              	_ZN11HeapManager4initEmm:
 101              	.LFB7:
  25:src/heapManager.cpp **** 
  26:src/heapManager.cpp **** void HeapManager::init(uintptr_t nStart, size_t nEnd){
 102              		.loc 1 26 54 is_stmt 1
 103              		.cfi_startproc
 104              	.LVL6:
 105 0070 130101FD 		addi	sp,sp,-48
 106              		.cfi_def_cfa_offset 48
 107 0074 23341102 		sd	ra,40(sp)
 108 0078 23308102 		sd	s0,32(sp)
 109 007c 233C9100 		sd	s1,24(sp)
 110 0080 23382101 		sd	s2,16(sp)
 111 0084 23343101 		sd	s3,8(sp)
 112              		.cfi_offset 1, -8
 113              		.cfi_offset 8, -16
 114              		.cfi_offset 9, -24
 115              		.cfi_offset 18, -32
 116              		.cfi_offset 19, -40
 117 0088 13040103 		addi	s0,sp,48
 118              		.cfi_def_cfa 8, 0
 119 008c 13090500 		mv	s2,a0
 120 0090 93890500 		mv	s3,a1
  27:src/heapManager.cpp ****     assert(nEnd - nStart > MEM_BLOCK_SIZE);
 121              		.loc 1 27 5
 122 0094 B304B640 		sub	s1,a2,a1
 123 0098 93B71404 		sltiu	a5,s1,65
 124 009c 639C070C 		bnez	a5,.L10
 125              	.LVL7:
 126              	.L8:
 127              		.loc 1 27 43 discriminator 3
  28:src/heapManager.cpp ****     m_pHead = reinterpret_cast<HeapFreeSectionHeader*>(nStart);
 128              		.loc 1 28 5 discriminator 3
 129              		.loc 1 28 13 is_stmt 0 discriminator 3
 130 00a0 23303901 		sd	s3,0(s2)
  29:src/heapManager.cpp ****     m_pHead->u32Magic = HEAP_BLOCK_MAGIC;
 131              		.loc 1 29 5 is_stmt 1 discriminator 3
 132              		.loc 1 29 23 is_stmt 0 discriminator 3
 133 00a4 9307E0FD 		li	a5,-34
 134 00a8 238CF900 		sb	a5,24(s3)
 135 00ac 130700FC 		li	a4,-64
 136 00b0 A38CE900 		sb	a4,25(s3)
 137 00b4 1307D0FA 		li	a4,-83
 138 00b8 238DE900 		sb	a4,26(s3)
GAS LISTING /tmp/ccp2ZdEC.s 			page 4


 139 00bc A38DF900 		sb	a5,27(s3)
  30:src/heapManager.cpp ****     /// -1 because we need to store the header while keeping alignment
  31:src/heapManager.cpp ****     m_pHead->nSize = (nEnd - nStart) / MEM_BLOCK_SIZE - 1;
 140              		.loc 1 31 5 is_stmt 1 discriminator 3
 141              		.loc 1 31 38 is_stmt 0 discriminator 3
 142 00c0 13D66400 		srli	a2,s1,6
 143              		.loc 1 31 5 discriminator 3
 144 00c4 83370900 		ld	a5,0(s2)
 145              		.loc 1 31 55 discriminator 3
 146 00c8 1306F6FF 		addi	a2,a2,-1
 147              		.loc 1 31 20 discriminator 3
 148 00cc 2388C700 		sb	a2,16(a5)
 149 00d0 13578600 		srli	a4,a2,8
 150 00d4 A388E700 		sb	a4,17(a5)
 151 00d8 13570601 		srli	a4,a2,16
 152 00dc 2389E700 		sb	a4,18(a5)
 153 00e0 1B578601 		srliw	a4,a2,24
 154 00e4 A389E700 		sb	a4,19(a5)
 155 00e8 13570602 		srli	a4,a2,32
 156 00ec 238AE700 		sb	a4,20(a5)
 157 00f0 13578602 		srli	a4,a2,40
 158 00f4 A38AE700 		sb	a4,21(a5)
 159 00f8 13570603 		srli	a4,a2,48
 160 00fc 238BE700 		sb	a4,22(a5)
 161 0100 13568603 		srli	a2,a2,56
 162 0104 A38BC700 		sb	a2,23(a5)
  32:src/heapManager.cpp ****     m_pHead->pNext = 0;
 163              		.loc 1 32 5 is_stmt 1 discriminator 3
 164 0108 83370900 		ld	a5,0(s2)
 165              		.loc 1 32 20 is_stmt 0 discriminator 3
 166 010c 23800700 		sb	zero,0(a5)
 167 0110 A3800700 		sb	zero,1(a5)
 168 0114 23810700 		sb	zero,2(a5)
 169 0118 A3810700 		sb	zero,3(a5)
 170 011c 23820700 		sb	zero,4(a5)
 171 0120 A3820700 		sb	zero,5(a5)
 172 0124 23830700 		sb	zero,6(a5)
 173 0128 A3830700 		sb	zero,7(a5)
  33:src/heapManager.cpp ****     m_pHead->pPrev = 0;
 174              		.loc 1 33 5 is_stmt 1 discriminator 3
 175 012c 83370900 		ld	a5,0(s2)
 176              		.loc 1 33 20 is_stmt 0 discriminator 3
 177 0130 23840700 		sb	zero,8(a5)
 178 0134 A3840700 		sb	zero,9(a5)
 179 0138 23850700 		sb	zero,10(a5)
 180 013c A3850700 		sb	zero,11(a5)
 181 0140 23860700 		sb	zero,12(a5)
 182 0144 A3860700 		sb	zero,13(a5)
 183 0148 23870700 		sb	zero,14(a5)
 184 014c A3870700 		sb	zero,15(a5)
  34:src/heapManager.cpp ****     m_pTail = m_pHead;
 185              		.loc 1 34 5 is_stmt 1 discriminator 3
 186              		.loc 1 34 15 is_stmt 0 discriminator 3
 187 0150 83370900 		ld	a5,0(s2)
 188              		.loc 1 34 13 discriminator 3
 189 0154 2334F900 		sd	a5,8(s2)
  35:src/heapManager.cpp **** }
GAS LISTING /tmp/ccp2ZdEC.s 			page 5


 190              		.loc 1 35 1 discriminator 3
 191 0158 83308102 		ld	ra,40(sp)
 192              		.cfi_remember_state
 193              		.cfi_restore 1
 194 015c 03340102 		ld	s0,32(sp)
 195              		.cfi_restore 8
 196              		.cfi_def_cfa 2, 48
 197 0160 83348101 		ld	s1,24(sp)
 198              		.cfi_restore 9
 199 0164 03390101 		ld	s2,16(sp)
 200              		.cfi_restore 18
 201              	.LVL8:
 202 0168 83398100 		ld	s3,8(sp)
 203              		.cfi_restore 19
 204              	.LVL9:
 205 016c 13010103 		addi	sp,sp,48
 206              		.cfi_def_cfa_offset 0
 207 0170 67800000 		jr	ra
 208              	.LVL10:
 209              	.L10:
 210              		.cfi_restore_state
  27:src/heapManager.cpp ****     m_pHead = reinterpret_cast<HeapFreeSectionHeader*>(nStart);
 211              		.loc 1 27 5 is_stmt 1 discriminator 1
 212 0174 9305B001 		li	a1,27
 213              	.LVL11:
 214 0178 17050000 		lla	a0,.LC0
 214      13050500 
 215              	.LVL12:
 216 0180 97000000 		call	_Z13assert_failedPKci@plt
 216      E7800000 
 217              	.LVL13:
 218 0188 6FF09FF1 		j	.L8
 219              		.cfi_endproc
 220              	.LFE7:
 222              		.align	2
 223              		.globl	_ZN11HeapManager17getHeapFreeMemoryEv
 225              	_ZN11HeapManager17getHeapFreeMemoryEv:
 226              	.LFB8:
  36:src/heapManager.cpp **** 
  37:src/heapManager.cpp **** size_t HeapManager::getHeapFreeMemory(){
 227              		.loc 1 37 40
 228              		.cfi_startproc
 229              	.LVL14:
 230 018c 130101FE 		addi	sp,sp,-32
 231              		.cfi_def_cfa_offset 32
 232 0190 233C1100 		sd	ra,24(sp)
 233 0194 23388100 		sd	s0,16(sp)
 234 0198 23349100 		sd	s1,8(sp)
 235 019c 23302101 		sd	s2,0(sp)
 236              		.cfi_offset 1, -8
 237              		.cfi_offset 8, -16
 238              		.cfi_offset 9, -24
 239              		.cfi_offset 18, -32
 240 01a0 13040102 		addi	s0,sp,32
 241              		.cfi_def_cfa 8, 0
  38:src/heapManager.cpp ****     size_t nFreeMemory = 0;
 242              		.loc 1 38 5
GAS LISTING /tmp/ccp2ZdEC.s 			page 6


 243              	.LVL15:
  39:src/heapManager.cpp ****     HeapFreeSectionHeader* pCurrent = m_pHead;
 244              		.loc 1 39 5
 245              		.loc 1 39 28 is_stmt 0
 246 01a4 83340500 		ld	s1,0(a0)
 247              	.LVL16:
  38:src/heapManager.cpp ****     size_t nFreeMemory = 0;
 248              		.loc 1 38 12
 249 01a8 13090000 		li	s2,0
 250 01ac 6F00800B 		j	.L14
 251              	.LVL17:
 252              	.L13:
  40:src/heapManager.cpp ****     while(pCurrent != 0){
  41:src/heapManager.cpp ****         assert(pCurrent->u32Magic == HEAP_BLOCK_MAGIC);
 253              		.loc 1 41 55 is_stmt 1 discriminator 3
  42:src/heapManager.cpp ****         nFreeMemory += pCurrent->nSize;
 254              		.loc 1 42 9 discriminator 3
 255              		.loc 1 42 34 is_stmt 0 discriminator 3
 256 01b0 83C70401 		lbu	a5,16(s1)
 257 01b4 03C71401 		lbu	a4,17(s1)
 258 01b8 13178700 		slli	a4,a4,8
 259 01bc 3367F700 		or	a4,a4,a5
 260 01c0 83C72401 		lbu	a5,18(s1)
 261 01c4 93970701 		slli	a5,a5,16
 262 01c8 33E7E700 		or	a4,a5,a4
 263 01cc 83C73401 		lbu	a5,19(s1)
 264 01d0 93978701 		slli	a5,a5,24
 265 01d4 B3E7E700 		or	a5,a5,a4
 266 01d8 03C74401 		lbu	a4,20(s1)
 267 01dc 13170702 		slli	a4,a4,32
 268 01e0 B367F700 		or	a5,a4,a5
 269 01e4 03C75401 		lbu	a4,21(s1)
 270 01e8 13178702 		slli	a4,a4,40
 271 01ec 3367F700 		or	a4,a4,a5
 272 01f0 83C76401 		lbu	a5,22(s1)
 273 01f4 93970703 		slli	a5,a5,48
 274 01f8 33E7E700 		or	a4,a5,a4
 275 01fc 83C77401 		lbu	a5,23(s1)
 276 0200 93978703 		slli	a5,a5,56
 277 0204 B3E7E700 		or	a5,a5,a4
 278              		.loc 1 42 21 discriminator 3
 279 0208 3309F900 		add	s2,s2,a5
 280              	.LVL18:
  43:src/heapManager.cpp ****         pCurrent = pCurrent->pNext;
 281              		.loc 1 43 9 is_stmt 1 discriminator 3
 282              		.loc 1 43 18 is_stmt 0 discriminator 3
 283 020c 03C70400 		lbu	a4,0(s1)
 284 0210 83C71400 		lbu	a5,1(s1)
 285 0214 93978700 		slli	a5,a5,8
 286 0218 33E7E700 		or	a4,a5,a4
 287 021c 83C72400 		lbu	a5,2(s1)
 288 0220 93970701 		slli	a5,a5,16
 289 0224 B3E7E700 		or	a5,a5,a4
 290 0228 03C73400 		lbu	a4,3(s1)
 291 022c 13178701 		slli	a4,a4,24
 292 0230 B367F700 		or	a5,a4,a5
 293 0234 03C74400 		lbu	a4,4(s1)
GAS LISTING /tmp/ccp2ZdEC.s 			page 7


 294 0238 13170702 		slli	a4,a4,32
 295 023c 3367F700 		or	a4,a4,a5
 296 0240 83C75400 		lbu	a5,5(s1)
 297 0244 93978702 		slli	a5,a5,40
 298 0248 33E7E700 		or	a4,a5,a4
 299 024c 83C76400 		lbu	a5,6(s1)
 300 0250 93970703 		slli	a5,a5,48
 301 0254 B3E7E700 		or	a5,a5,a4
 302 0258 83C47400 		lbu	s1,7(s1)
 303              	.LVL19:
 304 025c 93948403 		slli	s1,s1,56
 305 0260 B3E4F400 		or	s1,s1,a5
 306              	.LVL20:
 307              	.L14:
  40:src/heapManager.cpp ****     while(pCurrent != 0){
 308              		.loc 1 40 5 is_stmt 1
  40:src/heapManager.cpp ****     while(pCurrent != 0){
 309              		.loc 1 40 20
 310 0264 638A0404 		beqz	s1,.L11
  41:src/heapManager.cpp ****         nFreeMemory += pCurrent->nSize;
 311              		.loc 1 41 9
 312 0268 83C78401 		lbu	a5,24(s1)
 313 026c 03C79401 		lbu	a4,25(s1)
 314 0270 13178700 		slli	a4,a4,8
 315 0274 3367F700 		or	a4,a4,a5
 316 0278 83C7A401 		lbu	a5,26(s1)
 317 027c 93970701 		slli	a5,a5,16
 318 0280 33E7E700 		or	a4,a5,a4
 319 0284 83C7B401 		lbu	a5,27(s1)
 320 0288 93978701 		slli	a5,a5,24
 321 028c B3E7E700 		or	a5,a5,a4
 322 0290 9B870700 		sext.w	a5,a5
 323 0294 37C7ADDE 		li	a4,-559038464
 324 0298 1307E70D 		addi	a4,a4,222
 325 029c E38AE7F0 		beq	a5,a4,.L13
  41:src/heapManager.cpp ****         nFreeMemory += pCurrent->nSize;
 326              		.loc 1 41 9 discriminator 1
 327 02a0 93059002 		li	a1,41
 328 02a4 17050000 		lla	a0,.LC0
 328      13050500 
 329 02ac 97000000 		call	_Z13assert_failedPKci@plt
 329      E7800000 
 330              	.LVL21:
 331 02b4 6FF0DFEF 		j	.L13
 332              	.L11:
  44:src/heapManager.cpp ****     }
  45:src/heapManager.cpp ****     return nFreeMemory;
  46:src/heapManager.cpp **** }
 333              		.loc 1 46 1 is_stmt 0
 334 02b8 13050900 		mv	a0,s2
 335 02bc 83308101 		ld	ra,24(sp)
 336              		.cfi_restore 1
 337 02c0 03340101 		ld	s0,16(sp)
 338              		.cfi_restore 8
 339              		.cfi_def_cfa 2, 32
 340 02c4 83348100 		ld	s1,8(sp)
 341              		.cfi_restore 9
GAS LISTING /tmp/ccp2ZdEC.s 			page 8


 342              	.LVL22:
 343 02c8 03390100 		ld	s2,0(sp)
 344              		.cfi_restore 18
 345              	.LVL23:
 346 02cc 13010102 		addi	sp,sp,32
 347              		.cfi_def_cfa_offset 0
 348 02d0 67800000 		jr	ra
 349              		.cfi_endproc
 350              	.LFE8:
 352              		.align	2
 353              		.globl	_ZN11HeapManager12heapAllocateEm
 355              	_ZN11HeapManager12heapAllocateEm:
 356              	.LFB9:
  47:src/heapManager.cpp **** 
  48:src/heapManager.cpp **** void* HeapManager::heapAllocate(size_t nSize){
 357              		.loc 1 48 46 is_stmt 1
 358              		.cfi_startproc
 359              	.LVL24:
 360 02d4 130101FD 		addi	sp,sp,-48
 361              		.cfi_def_cfa_offset 48
 362 02d8 23341102 		sd	ra,40(sp)
 363 02dc 23308102 		sd	s0,32(sp)
 364 02e0 233C9100 		sd	s1,24(sp)
 365 02e4 23382101 		sd	s2,16(sp)
 366 02e8 23343101 		sd	s3,8(sp)
 367              		.cfi_offset 1, -8
 368              		.cfi_offset 8, -16
 369              		.cfi_offset 9, -24
 370              		.cfi_offset 18, -32
 371              		.cfi_offset 19, -40
 372 02ec 13040103 		addi	s0,sp,48
 373              		.cfi_def_cfa 8, 0
 374 02f0 93090500 		mv	s3,a0
 375 02f4 13890500 		mv	s2,a1
  49:src/heapManager.cpp ****     HeapFreeSectionHeader* pCurrent = m_pHead;
 376              		.loc 1 49 5
 377              		.loc 1 49 28 is_stmt 0
 378 02f8 83340500 		ld	s1,0(a0)
 379              	.LVL25:
 380 02fc 6F00800B 		j	.L26
 381              	.LVL26:
 382              	.L18:
 383              	.LBB4:
  50:src/heapManager.cpp ****     while(pCurrent != 0){
  51:src/heapManager.cpp ****         assert(pCurrent->u32Magic == HEAP_BLOCK_MAGIC);
 384              		.loc 1 51 55 is_stmt 1 discriminator 3
  52:src/heapManager.cpp ****         if(pCurrent->nSize >= nSize){
 385              		.loc 1 52 9 discriminator 3
 386              	.LBB5:
 387              		.loc 1 52 22 is_stmt 0 discriminator 3
 388 0300 83C70401 		lbu	a5,16(s1)
 389 0304 03C71401 		lbu	a4,17(s1)
 390 0308 13178700 		slli	a4,a4,8
 391 030c 3367F700 		or	a4,a4,a5
 392 0310 83C72401 		lbu	a5,18(s1)
 393 0314 93970701 		slli	a5,a5,16
 394 0318 33E7E700 		or	a4,a5,a4
GAS LISTING /tmp/ccp2ZdEC.s 			page 9


 395 031c 83C73401 		lbu	a5,19(s1)
 396 0320 93978701 		slli	a5,a5,24
 397 0324 B3E7E700 		or	a5,a5,a4
 398 0328 03C74401 		lbu	a4,20(s1)
 399 032c 13170702 		slli	a4,a4,32
 400 0330 B367F700 		or	a5,a4,a5
 401 0334 03C75401 		lbu	a4,21(s1)
 402 0338 13178702 		slli	a4,a4,40
 403 033c 3367F700 		or	a4,a4,a5
 404 0340 83C76401 		lbu	a5,22(s1)
 405 0344 93970703 		slli	a5,a5,48
 406 0348 33E7E700 		or	a4,a5,a4
 407 034c 83C77401 		lbu	a5,23(s1)
 408 0350 93978703 		slli	a5,a5,56
 409 0354 B3E7E700 		or	a5,a5,a4
 410              		.loc 1 52 9 discriminator 3
 411 0358 63F8270B 		bgeu	a5,s2,.L28
 412              	.LBE5:
  53:src/heapManager.cpp ****             /// + 1 because we need to store the header, and we don't want to split the block to ke
  54:src/heapManager.cpp ****             if(pCurrent->nSize > nSize + 1){
  55:src/heapManager.cpp ****                 HeapFreeSectionHeader* pNew = reinterpret_cast<HeapFreeSectionHeader*>(reinterpret_
  56:src/heapManager.cpp ****                 pNew->u32Magic = HEAP_BLOCK_MAGIC;
  57:src/heapManager.cpp ****                 pNew->nSize = pCurrent->nSize - nSize - 1;
  58:src/heapManager.cpp ****                 pNew->pNext = pCurrent->pNext;
  59:src/heapManager.cpp ****                 pNew->pPrev = pCurrent;
  60:src/heapManager.cpp ****                 if(pCurrent->pNext != 0){
  61:src/heapManager.cpp ****                     pCurrent->pNext->pPrev = pNew;
  62:src/heapManager.cpp ****                 }
  63:src/heapManager.cpp ****                 pCurrent->pNext = pNew;
  64:src/heapManager.cpp ****                 pCurrent->nSize = nSize;
  65:src/heapManager.cpp ****             }
  66:src/heapManager.cpp ****             if(pCurrent == m_pHead){
  67:src/heapManager.cpp ****                 m_pHead = pCurrent->pNext;
  68:src/heapManager.cpp ****             }
  69:src/heapManager.cpp ****             if(pCurrent == m_pTail){
  70:src/heapManager.cpp ****                 m_pTail = pCurrent->pPrev;
  71:src/heapManager.cpp ****             }
  72:src/heapManager.cpp ****             if(pCurrent->pPrev != 0){
  73:src/heapManager.cpp ****                 pCurrent->pPrev->pNext = pCurrent->pNext;
  74:src/heapManager.cpp ****             }
  75:src/heapManager.cpp ****             if(pCurrent->pNext != 0){
  76:src/heapManager.cpp ****                 pCurrent->pNext->pPrev = pCurrent->pPrev;
  77:src/heapManager.cpp ****             }
  78:src/heapManager.cpp ****             return reinterpret_cast<void*>(reinterpret_cast<uintptr_t>(pCurrent) + MEM_BLOCK_SIZE);
  79:src/heapManager.cpp ****         }
  80:src/heapManager.cpp ****         pCurrent = pCurrent->pNext;
 413              		.loc 1 80 9 is_stmt 1
 414              		.loc 1 80 18 is_stmt 0
 415 035c 03C70400 		lbu	a4,0(s1)
 416 0360 83C71400 		lbu	a5,1(s1)
 417 0364 93978700 		slli	a5,a5,8
 418 0368 33E7E700 		or	a4,a5,a4
 419 036c 83C72400 		lbu	a5,2(s1)
 420 0370 93970701 		slli	a5,a5,16
 421 0374 B3E7E700 		or	a5,a5,a4
 422 0378 03C73400 		lbu	a4,3(s1)
 423 037c 13178701 		slli	a4,a4,24
GAS LISTING /tmp/ccp2ZdEC.s 			page 10


 424 0380 B367F700 		or	a5,a4,a5
 425 0384 03C74400 		lbu	a4,4(s1)
 426 0388 13170702 		slli	a4,a4,32
 427 038c 3367F700 		or	a4,a4,a5
 428 0390 83C75400 		lbu	a5,5(s1)
 429 0394 93978702 		slli	a5,a5,40
 430 0398 33E7E700 		or	a4,a5,a4
 431 039c 83C76400 		lbu	a5,6(s1)
 432 03a0 93970703 		slli	a5,a5,48
 433 03a4 B3E7E700 		or	a5,a5,a4
 434 03a8 83C47400 		lbu	s1,7(s1)
 435              	.LVL27:
 436 03ac 93948403 		slli	s1,s1,56
 437 03b0 B3E4F400 		or	s1,s1,a5
 438              	.LVL28:
 439              	.L26:
 440              	.LBE4:
  50:src/heapManager.cpp ****         assert(pCurrent->u32Magic == HEAP_BLOCK_MAGIC);
 441              		.loc 1 50 5 is_stmt 1
  50:src/heapManager.cpp ****         assert(pCurrent->u32Magic == HEAP_BLOCK_MAGIC);
 442              		.loc 1 50 20
 443 03b4 6388044E 		beqz	s1,.L16
 444              	.LBB12:
  51:src/heapManager.cpp ****         if(pCurrent->nSize >= nSize){
 445              		.loc 1 51 9
 446 03b8 83C78401 		lbu	a5,24(s1)
 447 03bc 03C79401 		lbu	a4,25(s1)
 448 03c0 13178700 		slli	a4,a4,8
 449 03c4 3367F700 		or	a4,a4,a5
 450 03c8 83C7A401 		lbu	a5,26(s1)
 451 03cc 93970701 		slli	a5,a5,16
 452 03d0 33E7E700 		or	a4,a5,a4
 453 03d4 83C7B401 		lbu	a5,27(s1)
 454 03d8 93978701 		slli	a5,a5,24
 455 03dc B3E7E700 		or	a5,a5,a4
 456 03e0 9B870700 		sext.w	a5,a5
 457 03e4 37C7ADDE 		li	a4,-559038464
 458 03e8 1307E70D 		addi	a4,a4,222
 459 03ec E38AE7F0 		beq	a5,a4,.L18
  51:src/heapManager.cpp ****         if(pCurrent->nSize >= nSize){
 460              		.loc 1 51 9 discriminator 1
 461 03f0 93053003 		li	a1,51
 462 03f4 17050000 		lla	a0,.LC0
 462      13050500 
 463 03fc 97000000 		call	_Z13assert_failedPKci@plt
 463      E7800000 
 464              	.LVL29:
 465 0404 6FF0DFEF 		j	.L18
 466              	.L28:
 467              	.LBB10:
 468              	.LBB6:
  54:src/heapManager.cpp ****                 HeapFreeSectionHeader* pNew = reinterpret_cast<HeapFreeSectionHeader*>(reinterpret_
 469              		.loc 1 54 13
 470              	.LBB7:
  54:src/heapManager.cpp ****                 HeapFreeSectionHeader* pNew = reinterpret_cast<HeapFreeSectionHeader*>(reinterpret_
 471              		.loc 1 54 40 is_stmt 0
 472 0408 13071900 		addi	a4,s2,1
GAS LISTING /tmp/ccp2ZdEC.s 			page 11


  54:src/heapManager.cpp ****                 HeapFreeSectionHeader* pNew = reinterpret_cast<HeapFreeSectionHeader*>(reinterpret_
 473              		.loc 1 54 13
 474 040c 6372F72A 		bleu	a5,a4,.L20
 475              	.LBB8:
  55:src/heapManager.cpp ****                 pNew->u32Magic = HEAP_BLOCK_MAGIC;
 476              		.loc 1 55 17 is_stmt 1
  55:src/heapManager.cpp ****                 pNew->u32Magic = HEAP_BLOCK_MAGIC;
 477              		.loc 1 55 140 is_stmt 0
 478 0410 93176700 		slli	a5,a4,6
  55:src/heapManager.cpp ****                 pNew->u32Magic = HEAP_BLOCK_MAGIC;
 479              		.loc 1 55 126
 480 0414 B387F400 		add	a5,s1,a5
 481              	.LVL30:
  56:src/heapManager.cpp ****                 pNew->nSize = pCurrent->nSize - nSize - 1;
 482              		.loc 1 56 17 is_stmt 1
  56:src/heapManager.cpp ****                 pNew->nSize = pCurrent->nSize - nSize - 1;
 483              		.loc 1 56 32 is_stmt 0
 484 0418 1307E0FD 		li	a4,-34
 485 041c 238CE700 		sb	a4,24(a5)
 486 0420 930600FC 		li	a3,-64
 487 0424 A38CD700 		sb	a3,25(a5)
 488 0428 9306D0FA 		li	a3,-83
 489 042c 238DD700 		sb	a3,26(a5)
 490 0430 A38DE700 		sb	a4,27(a5)
  57:src/heapManager.cpp ****                 pNew->pNext = pCurrent->pNext;
 491              		.loc 1 57 17 is_stmt 1
  57:src/heapManager.cpp ****                 pNew->pNext = pCurrent->pNext;
 492              		.loc 1 57 41 is_stmt 0
 493 0434 03C70401 		lbu	a4,16(s1)
 494 0438 83C61401 		lbu	a3,17(s1)
 495 043c 93968600 		slli	a3,a3,8
 496 0440 B3E6E600 		or	a3,a3,a4
 497 0444 03C72401 		lbu	a4,18(s1)
 498 0448 13170701 		slli	a4,a4,16
 499 044c B366D700 		or	a3,a4,a3
 500 0450 03C73401 		lbu	a4,19(s1)
 501 0454 13178701 		slli	a4,a4,24
 502 0458 3367D700 		or	a4,a4,a3
 503 045c 83C64401 		lbu	a3,20(s1)
 504 0460 93960602 		slli	a3,a3,32
 505 0464 33E7E600 		or	a4,a3,a4
 506 0468 83C65401 		lbu	a3,21(s1)
 507 046c 93968602 		slli	a3,a3,40
 508 0470 B3E6E600 		or	a3,a3,a4
 509 0474 03C76401 		lbu	a4,22(s1)
 510 0478 13170703 		slli	a4,a4,48
 511 047c B366D700 		or	a3,a4,a3
 512 0480 03C77401 		lbu	a4,23(s1)
 513 0484 13178703 		slli	a4,a4,56
 514 0488 3367D700 		or	a4,a4,a3
  57:src/heapManager.cpp ****                 pNew->pNext = pCurrent->pNext;
 515              		.loc 1 57 47
 516 048c 33072741 		sub	a4,a4,s2
  57:src/heapManager.cpp ****                 pNew->pNext = pCurrent->pNext;
 517              		.loc 1 57 55
 518 0490 1307F7FF 		addi	a4,a4,-1
  57:src/heapManager.cpp ****                 pNew->pNext = pCurrent->pNext;
GAS LISTING /tmp/ccp2ZdEC.s 			page 12


 519              		.loc 1 57 29
 520 0494 2388E700 		sb	a4,16(a5)
 521 0498 93568700 		srli	a3,a4,8
 522 049c A388D700 		sb	a3,17(a5)
 523 04a0 93560701 		srli	a3,a4,16
 524 04a4 2389D700 		sb	a3,18(a5)
 525 04a8 9B568701 		srliw	a3,a4,24
 526 04ac A389D700 		sb	a3,19(a5)
 527 04b0 93560702 		srli	a3,a4,32
 528 04b4 238AD700 		sb	a3,20(a5)
 529 04b8 93568702 		srli	a3,a4,40
 530 04bc A38AD700 		sb	a3,21(a5)
 531 04c0 93560703 		srli	a3,a4,48
 532 04c4 238BD700 		sb	a3,22(a5)
 533 04c8 13578703 		srli	a4,a4,56
 534 04cc A38BE700 		sb	a4,23(a5)
  58:src/heapManager.cpp ****                 pNew->pPrev = pCurrent;
 535              		.loc 1 58 17 is_stmt 1
  58:src/heapManager.cpp ****                 pNew->pPrev = pCurrent;
 536              		.loc 1 58 41 is_stmt 0
 537 04d0 03C70400 		lbu	a4,0(s1)
 538 04d4 83C61400 		lbu	a3,1(s1)
 539 04d8 93968600 		slli	a3,a3,8
 540 04dc 33E7E600 		or	a4,a3,a4
 541 04e0 83C62400 		lbu	a3,2(s1)
 542 04e4 93960601 		slli	a3,a3,16
 543 04e8 B3E6E600 		or	a3,a3,a4
 544 04ec 03C73400 		lbu	a4,3(s1)
 545 04f0 13178701 		slli	a4,a4,24
 546 04f4 B366D700 		or	a3,a4,a3
 547 04f8 03C74400 		lbu	a4,4(s1)
 548 04fc 13170702 		slli	a4,a4,32
 549 0500 3367D700 		or	a4,a4,a3
 550 0504 83C65400 		lbu	a3,5(s1)
 551 0508 93968602 		slli	a3,a3,40
 552 050c 33E7E600 		or	a4,a3,a4
 553 0510 83C66400 		lbu	a3,6(s1)
 554 0514 93960603 		slli	a3,a3,48
 555 0518 B3E6E600 		or	a3,a3,a4
 556 051c 03C77400 		lbu	a4,7(s1)
 557 0520 13178703 		slli	a4,a4,56
 558 0524 3367D700 		or	a4,a4,a3
  58:src/heapManager.cpp ****                 pNew->pPrev = pCurrent;
 559              		.loc 1 58 29
 560 0528 2380D700 		sb	a3,0(a5)
 561 052c 93568700 		srli	a3,a4,8
 562 0530 A380D700 		sb	a3,1(a5)
 563 0534 93560701 		srli	a3,a4,16
 564 0538 2381D700 		sb	a3,2(a5)
 565 053c 9B568701 		srliw	a3,a4,24
 566 0540 A381D700 		sb	a3,3(a5)
 567 0544 93560702 		srli	a3,a4,32
 568 0548 2382D700 		sb	a3,4(a5)
 569 054c 93568702 		srli	a3,a4,40
 570 0550 A382D700 		sb	a3,5(a5)
 571 0554 93560703 		srli	a3,a4,48
 572 0558 2383D700 		sb	a3,6(a5)
GAS LISTING /tmp/ccp2ZdEC.s 			page 13


 573 055c 13578703 		srli	a4,a4,56
 574 0560 A383E700 		sb	a4,7(a5)
  59:src/heapManager.cpp ****                 if(pCurrent->pNext != 0){
 575              		.loc 1 59 17 is_stmt 1
  59:src/heapManager.cpp ****                 if(pCurrent->pNext != 0){
 576              		.loc 1 59 29 is_stmt 0
 577 0564 23849700 		sb	s1,8(a5)
 578 0568 13D78400 		srli	a4,s1,8
 579 056c A384E700 		sb	a4,9(a5)
 580 0570 13D70401 		srli	a4,s1,16
 581 0574 2385E700 		sb	a4,10(a5)
 582 0578 1BD78401 		srliw	a4,s1,24
 583 057c A385E700 		sb	a4,11(a5)
 584 0580 13D70402 		srli	a4,s1,32
 585 0584 2386E700 		sb	a4,12(a5)
 586 0588 13D78402 		srli	a4,s1,40
 587 058c A386E700 		sb	a4,13(a5)
 588 0590 13D70403 		srli	a4,s1,48
 589 0594 2387E700 		sb	a4,14(a5)
 590 0598 13D78403 		srli	a4,s1,56
 591 059c A387E700 		sb	a4,15(a5)
  60:src/heapManager.cpp ****                     pCurrent->pNext->pPrev = pNew;
 592              		.loc 1 60 17 is_stmt 1
  60:src/heapManager.cpp ****                     pCurrent->pNext->pPrev = pNew;
 593              		.loc 1 60 30 is_stmt 0
 594 05a0 03C70400 		lbu	a4,0(s1)
 595 05a4 83C61400 		lbu	a3,1(s1)
 596 05a8 93968600 		slli	a3,a3,8
 597 05ac B3E6E600 		or	a3,a3,a4
 598 05b0 03C72400 		lbu	a4,2(s1)
 599 05b4 13170701 		slli	a4,a4,16
 600 05b8 B366D700 		or	a3,a4,a3
 601 05bc 03C73400 		lbu	a4,3(s1)
 602 05c0 13178701 		slli	a4,a4,24
 603 05c4 3367D700 		or	a4,a4,a3
 604 05c8 83C64400 		lbu	a3,4(s1)
 605 05cc 93960602 		slli	a3,a3,32
 606 05d0 33E7E600 		or	a4,a3,a4
 607 05d4 83C65400 		lbu	a3,5(s1)
 608 05d8 93968602 		slli	a3,a3,40
 609 05dc B3E6E600 		or	a3,a3,a4
 610 05e0 03C76400 		lbu	a4,6(s1)
 611 05e4 13170703 		slli	a4,a4,48
 612 05e8 B366D700 		or	a3,a4,a3
 613 05ec 03C77400 		lbu	a4,7(s1)
 614 05f0 13178703 		slli	a4,a4,56
 615 05f4 3367D700 		or	a4,a4,a3
  60:src/heapManager.cpp ****                     pCurrent->pNext->pPrev = pNew;
 616              		.loc 1 60 17
 617 05f8 63000704 		beqz	a4,.L21
  61:src/heapManager.cpp ****                 }
 618              		.loc 1 61 21 is_stmt 1
  61:src/heapManager.cpp ****                 }
 619              		.loc 1 61 44 is_stmt 0
 620 05fc 2304F700 		sb	a5,8(a4)
 621 0600 93D68700 		srli	a3,a5,8
 622 0604 A304D700 		sb	a3,9(a4)
GAS LISTING /tmp/ccp2ZdEC.s 			page 14


 623 0608 93D60701 		srli	a3,a5,16
 624 060c 2305D700 		sb	a3,10(a4)
 625 0610 9BD68701 		srliw	a3,a5,24
 626 0614 A305D700 		sb	a3,11(a4)
 627 0618 93D60702 		srli	a3,a5,32
 628 061c 2306D700 		sb	a3,12(a4)
 629 0620 93D68702 		srli	a3,a5,40
 630 0624 A306D700 		sb	a3,13(a4)
 631 0628 93D60703 		srli	a3,a5,48
 632 062c 2307D700 		sb	a3,14(a4)
 633 0630 93D68703 		srli	a3,a5,56
 634 0634 A307D700 		sb	a3,15(a4)
 635              	.L21:
  63:src/heapManager.cpp ****                 pCurrent->nSize = nSize;
 636              		.loc 1 63 17 is_stmt 1
  63:src/heapManager.cpp ****                 pCurrent->nSize = nSize;
 637              		.loc 1 63 33 is_stmt 0
 638 0638 2380F400 		sb	a5,0(s1)
 639 063c 13D78700 		srli	a4,a5,8
 640 0640 A380E400 		sb	a4,1(s1)
 641 0644 13D70701 		srli	a4,a5,16
 642 0648 2381E400 		sb	a4,2(s1)
 643 064c 1BD78701 		srliw	a4,a5,24
 644 0650 A381E400 		sb	a4,3(s1)
 645 0654 13D70702 		srli	a4,a5,32
 646 0658 2382E400 		sb	a4,4(s1)
 647 065c 13D78702 		srli	a4,a5,40
 648 0660 A382E400 		sb	a4,5(s1)
 649 0664 13D70703 		srli	a4,a5,48
 650 0668 2383E400 		sb	a4,6(s1)
 651 066c 93D78703 		srli	a5,a5,56
 652              	.LVL31:
 653 0670 A383F400 		sb	a5,7(s1)
  64:src/heapManager.cpp ****             }
 654              		.loc 1 64 17 is_stmt 1
  64:src/heapManager.cpp ****             }
 655              		.loc 1 64 33 is_stmt 0
 656 0674 23882401 		sb	s2,16(s1)
 657 0678 93578900 		srli	a5,s2,8
 658 067c A388F400 		sb	a5,17(s1)
 659 0680 93570901 		srli	a5,s2,16
 660 0684 2389F400 		sb	a5,18(s1)
 661 0688 9B578901 		srliw	a5,s2,24
 662 068c A389F400 		sb	a5,19(s1)
 663 0690 93570902 		srli	a5,s2,32
 664 0694 238AF400 		sb	a5,20(s1)
 665 0698 93578902 		srli	a5,s2,40
 666 069c A38AF400 		sb	a5,21(s1)
 667 06a0 93570903 		srli	a5,s2,48
 668 06a4 238BF400 		sb	a5,22(s1)
 669 06a8 13598903 		srli	s2,s2,56
 670              	.LVL32:
 671 06ac A38B2401 		sb	s2,23(s1)
 672              	.LVL33:
 673              	.L20:
 674              	.LBE8:
 675              	.LBE7:
GAS LISTING /tmp/ccp2ZdEC.s 			page 15


  66:src/heapManager.cpp ****                 m_pHead = pCurrent->pNext;
 676              		.loc 1 66 13 is_stmt 1
  66:src/heapManager.cpp ****                 m_pHead = pCurrent->pNext;
 677              		.loc 1 66 28 is_stmt 0
 678 06b0 83B70900 		ld	a5,0(s3)
  66:src/heapManager.cpp ****                 m_pHead = pCurrent->pNext;
 679              		.loc 1 66 13
 680 06b4 63889720 		beq	a5,s1,.L29
 681              	.L22:
  69:src/heapManager.cpp ****                 m_pTail = pCurrent->pPrev;
 682              		.loc 1 69 13 is_stmt 1
  69:src/heapManager.cpp ****                 m_pTail = pCurrent->pPrev;
 683              		.loc 1 69 28 is_stmt 0
 684 06b8 83B78900 		ld	a5,8(s3)
  69:src/heapManager.cpp ****                 m_pTail = pCurrent->pPrev;
 685              		.loc 1 69 13
 686 06bc 63849726 		beq	a5,s1,.L30
 687              	.L23:
  72:src/heapManager.cpp ****                 pCurrent->pPrev->pNext = pCurrent->pNext;
 688              		.loc 1 72 13 is_stmt 1
  72:src/heapManager.cpp ****                 pCurrent->pPrev->pNext = pCurrent->pNext;
 689              		.loc 1 72 26 is_stmt 0
 690 06c0 83C78400 		lbu	a5,8(s1)
 691 06c4 03C79400 		lbu	a4,9(s1)
 692 06c8 13178700 		slli	a4,a4,8
 693 06cc 3367F700 		or	a4,a4,a5
 694 06d0 83C7A400 		lbu	a5,10(s1)
 695 06d4 93970701 		slli	a5,a5,16
 696 06d8 33E7E700 		or	a4,a5,a4
 697 06dc 83C7B400 		lbu	a5,11(s1)
 698 06e0 93978701 		slli	a5,a5,24
 699 06e4 B3E7E700 		or	a5,a5,a4
 700 06e8 03C7C400 		lbu	a4,12(s1)
 701 06ec 13170702 		slli	a4,a4,32
 702 06f0 B367F700 		or	a5,a4,a5
 703 06f4 03C7D400 		lbu	a4,13(s1)
 704 06f8 13178702 		slli	a4,a4,40
 705 06fc 3367F700 		or	a4,a4,a5
 706 0700 83C7E400 		lbu	a5,14(s1)
 707 0704 93970703 		slli	a5,a5,48
 708 0708 33E7E700 		or	a4,a5,a4
 709 070c 83C7F400 		lbu	a5,15(s1)
 710 0710 93978703 		slli	a5,a5,56
 711 0714 B3E7E700 		or	a5,a5,a4
  72:src/heapManager.cpp ****                 pCurrent->pPrev->pNext = pCurrent->pNext;
 712              		.loc 1 72 13
 713 0718 638C0708 		beqz	a5,.L24
  73:src/heapManager.cpp ****             }
 714              		.loc 1 73 17 is_stmt 1
  73:src/heapManager.cpp ****             }
 715              		.loc 1 73 52 is_stmt 0
 716 071c 03C70400 		lbu	a4,0(s1)
 717 0720 83C61400 		lbu	a3,1(s1)
 718 0724 93968600 		slli	a3,a3,8
 719 0728 33E7E600 		or	a4,a3,a4
 720 072c 83C62400 		lbu	a3,2(s1)
 721 0730 93960601 		slli	a3,a3,16
GAS LISTING /tmp/ccp2ZdEC.s 			page 16


 722 0734 B3E6E600 		or	a3,a3,a4
 723 0738 03C73400 		lbu	a4,3(s1)
 724 073c 13178701 		slli	a4,a4,24
 725 0740 B366D700 		or	a3,a4,a3
 726 0744 03C74400 		lbu	a4,4(s1)
 727 0748 13170702 		slli	a4,a4,32
 728 074c 3367D700 		or	a4,a4,a3
 729 0750 83C65400 		lbu	a3,5(s1)
 730 0754 93968602 		slli	a3,a3,40
 731 0758 33E7E600 		or	a4,a3,a4
 732 075c 83C66400 		lbu	a3,6(s1)
 733 0760 93960603 		slli	a3,a3,48
 734 0764 B3E6E600 		or	a3,a3,a4
 735 0768 03C77400 		lbu	a4,7(s1)
 736 076c 13178703 		slli	a4,a4,56
 737 0770 3367D700 		or	a4,a4,a3
  73:src/heapManager.cpp ****             }
 738              		.loc 1 73 40
 739 0774 2380D700 		sb	a3,0(a5)
 740 0778 93568700 		srli	a3,a4,8
 741 077c A380D700 		sb	a3,1(a5)
 742 0780 93560701 		srli	a3,a4,16
 743 0784 2381D700 		sb	a3,2(a5)
 744 0788 9B568701 		srliw	a3,a4,24
 745 078c A381D700 		sb	a3,3(a5)
 746 0790 93560702 		srli	a3,a4,32
 747 0794 2382D700 		sb	a3,4(a5)
 748 0798 93568702 		srli	a3,a4,40
 749 079c A382D700 		sb	a3,5(a5)
 750 07a0 93560703 		srli	a3,a4,48
 751 07a4 2383D700 		sb	a3,6(a5)
 752 07a8 13578703 		srli	a4,a4,56
 753 07ac A383E700 		sb	a4,7(a5)
 754              	.L24:
  75:src/heapManager.cpp ****                 pCurrent->pNext->pPrev = pCurrent->pPrev;
 755              		.loc 1 75 13 is_stmt 1
  75:src/heapManager.cpp ****                 pCurrent->pNext->pPrev = pCurrent->pPrev;
 756              		.loc 1 75 26 is_stmt 0
 757 07b0 83C70400 		lbu	a5,0(s1)
 758 07b4 03C71400 		lbu	a4,1(s1)
 759 07b8 13178700 		slli	a4,a4,8
 760 07bc 3367F700 		or	a4,a4,a5
 761 07c0 83C72400 		lbu	a5,2(s1)
 762 07c4 93970701 		slli	a5,a5,16
 763 07c8 33E7E700 		or	a4,a5,a4
 764 07cc 83C73400 		lbu	a5,3(s1)
 765 07d0 93978701 		slli	a5,a5,24
 766 07d4 B3E7E700 		or	a5,a5,a4
 767 07d8 03C74400 		lbu	a4,4(s1)
 768 07dc 13170702 		slli	a4,a4,32
 769 07e0 B367F700 		or	a5,a4,a5
 770 07e4 03C75400 		lbu	a4,5(s1)
 771 07e8 13178702 		slli	a4,a4,40
 772 07ec 3367F700 		or	a4,a4,a5
 773 07f0 83C76400 		lbu	a5,6(s1)
 774 07f4 93970703 		slli	a5,a5,48
 775 07f8 33E7E700 		or	a4,a5,a4
GAS LISTING /tmp/ccp2ZdEC.s 			page 17


 776 07fc 83C77400 		lbu	a5,7(s1)
 777 0800 93978703 		slli	a5,a5,56
 778 0804 B3E7E700 		or	a5,a5,a4
  75:src/heapManager.cpp ****                 pCurrent->pNext->pPrev = pCurrent->pPrev;
 779              		.loc 1 75 13
 780 0808 638C0708 		beqz	a5,.L25
  76:src/heapManager.cpp ****             }
 781              		.loc 1 76 17 is_stmt 1
  76:src/heapManager.cpp ****             }
 782              		.loc 1 76 52 is_stmt 0
 783 080c 03C78400 		lbu	a4,8(s1)
 784 0810 83C69400 		lbu	a3,9(s1)
 785 0814 93968600 		slli	a3,a3,8
 786 0818 33E7E600 		or	a4,a3,a4
 787 081c 83C6A400 		lbu	a3,10(s1)
 788 0820 93960601 		slli	a3,a3,16
 789 0824 B3E6E600 		or	a3,a3,a4
 790 0828 03C7B400 		lbu	a4,11(s1)
 791 082c 13178701 		slli	a4,a4,24
 792 0830 B366D700 		or	a3,a4,a3
 793 0834 03C7C400 		lbu	a4,12(s1)
 794 0838 13170702 		slli	a4,a4,32
 795 083c 3367D700 		or	a4,a4,a3
 796 0840 83C6D400 		lbu	a3,13(s1)
 797 0844 93968602 		slli	a3,a3,40
 798 0848 33E7E600 		or	a4,a3,a4
 799 084c 83C6E400 		lbu	a3,14(s1)
 800 0850 93960603 		slli	a3,a3,48
 801 0854 B3E6E600 		or	a3,a3,a4
 802 0858 03C7F400 		lbu	a4,15(s1)
 803 085c 13178703 		slli	a4,a4,56
 804 0860 3367D700 		or	a4,a4,a3
  76:src/heapManager.cpp ****             }
 805              		.loc 1 76 40
 806 0864 2384D700 		sb	a3,8(a5)
 807 0868 93568700 		srli	a3,a4,8
 808 086c A384D700 		sb	a3,9(a5)
 809 0870 93560701 		srli	a3,a4,16
 810 0874 2385D700 		sb	a3,10(a5)
 811 0878 9B568701 		srliw	a3,a4,24
 812 087c A385D700 		sb	a3,11(a5)
 813 0880 93560702 		srli	a3,a4,32
 814 0884 2386D700 		sb	a3,12(a5)
 815 0888 93568702 		srli	a3,a4,40
 816 088c A386D700 		sb	a3,13(a5)
 817 0890 93560703 		srli	a3,a4,48
 818 0894 2387D700 		sb	a3,14(a5)
 819 0898 13578703 		srli	a4,a4,56
 820 089c A387E700 		sb	a4,15(a5)
 821              	.L25:
  78:src/heapManager.cpp ****         }
 822              		.loc 1 78 13 is_stmt 1
  78:src/heapManager.cpp ****         }
 823              		.loc 1 78 82 is_stmt 0
 824 08a0 93840404 		addi	s1,s1,64
 825              	.LVL34:
 826              	.L16:
GAS LISTING /tmp/ccp2ZdEC.s 			page 18


 827              	.LBE6:
 828              	.LBE10:
 829              	.LBE12:
  81:src/heapManager.cpp ****     }
  82:src/heapManager.cpp ****     return 0;
  83:src/heapManager.cpp **** }
 830              		.loc 1 83 1
 831 08a4 13850400 		mv	a0,s1
 832 08a8 83308102 		ld	ra,40(sp)
 833              		.cfi_remember_state
 834              		.cfi_restore 1
 835 08ac 03340102 		ld	s0,32(sp)
 836              		.cfi_restore 8
 837              		.cfi_def_cfa 2, 48
 838 08b0 83348101 		ld	s1,24(sp)
 839              		.cfi_restore 9
 840 08b4 03390101 		ld	s2,16(sp)
 841              		.cfi_restore 18
 842 08b8 83398100 		ld	s3,8(sp)
 843              		.cfi_restore 19
 844              	.LVL35:
 845 08bc 13010103 		addi	sp,sp,48
 846              		.cfi_def_cfa_offset 0
 847 08c0 67800000 		jr	ra
 848              	.LVL36:
 849              	.L29:
 850              		.cfi_restore_state
 851              	.LBB13:
 852              	.LBB11:
 853              	.LBB9:
  67:src/heapManager.cpp ****             }
 854              		.loc 1 67 17 is_stmt 1
  67:src/heapManager.cpp ****             }
 855              		.loc 1 67 37 is_stmt 0
 856 08c4 03C70400 		lbu	a4,0(s1)
 857 08c8 83C71400 		lbu	a5,1(s1)
 858 08cc 93978700 		slli	a5,a5,8
 859 08d0 B3E7E700 		or	a5,a5,a4
 860 08d4 03C72400 		lbu	a4,2(s1)
 861 08d8 13170701 		slli	a4,a4,16
 862 08dc 3367F700 		or	a4,a4,a5
 863 08e0 83C73400 		lbu	a5,3(s1)
 864 08e4 93978701 		slli	a5,a5,24
 865 08e8 33E7E700 		or	a4,a5,a4
 866 08ec 83C74400 		lbu	a5,4(s1)
 867 08f0 93970702 		slli	a5,a5,32
 868 08f4 B3E7E700 		or	a5,a5,a4
 869 08f8 03C75400 		lbu	a4,5(s1)
 870 08fc 13178702 		slli	a4,a4,40
 871 0900 3367F700 		or	a4,a4,a5
 872 0904 83C76400 		lbu	a5,6(s1)
 873 0908 93970703 		slli	a5,a5,48
 874 090c 33E7E700 		or	a4,a5,a4
 875 0910 83C77400 		lbu	a5,7(s1)
 876 0914 93978703 		slli	a5,a5,56
 877 0918 B3E7E700 		or	a5,a5,a4
  67:src/heapManager.cpp ****             }
GAS LISTING /tmp/ccp2ZdEC.s 			page 19


 878              		.loc 1 67 25
 879 091c 23B0F900 		sd	a5,0(s3)
 880 0920 6FF09FD9 		j	.L22
 881              	.L30:
  70:src/heapManager.cpp ****             }
 882              		.loc 1 70 17 is_stmt 1
  70:src/heapManager.cpp ****             }
 883              		.loc 1 70 37 is_stmt 0
 884 0924 03C78400 		lbu	a4,8(s1)
 885 0928 83C79400 		lbu	a5,9(s1)
 886 092c 93978700 		slli	a5,a5,8
 887 0930 B3E7E700 		or	a5,a5,a4
 888 0934 03C7A400 		lbu	a4,10(s1)
 889 0938 13170701 		slli	a4,a4,16
 890 093c 3367F700 		or	a4,a4,a5
 891 0940 83C7B400 		lbu	a5,11(s1)
 892 0944 93978701 		slli	a5,a5,24
 893 0948 33E7E700 		or	a4,a5,a4
 894 094c 83C7C400 		lbu	a5,12(s1)
 895 0950 93970702 		slli	a5,a5,32
 896 0954 B3E7E700 		or	a5,a5,a4
 897 0958 03C7D400 		lbu	a4,13(s1)
 898 095c 13178702 		slli	a4,a4,40
 899 0960 3367F700 		or	a4,a4,a5
 900 0964 83C7E400 		lbu	a5,14(s1)
 901 0968 93970703 		slli	a5,a5,48
 902 096c 33E7E700 		or	a4,a5,a4
 903 0970 83C7F400 		lbu	a5,15(s1)
 904 0974 93978703 		slli	a5,a5,56
 905 0978 B3E7E700 		or	a5,a5,a4
  70:src/heapManager.cpp ****             }
 906              		.loc 1 70 25
 907 097c 23B4F900 		sd	a5,8(s3)
 908 0980 6FF01FD4 		j	.L23
 909              	.LBE9:
 910              	.LBE11:
 911              	.LBE13:
 912              		.cfi_endproc
 913              	.LFE9:
 915              		.align	2
 916              		.globl	_ZN11HeapManager8heapFreeEPv
 918              	_ZN11HeapManager8heapFreeEPv:
 919              	.LFB10:
  84:src/heapManager.cpp **** 
  85:src/heapManager.cpp **** int HeapManager::heapFree(void* pAddress){
 920              		.loc 1 85 42 is_stmt 1
 921              		.cfi_startproc
 922              	.LVL37:
 923 0984 130101FC 		addi	sp,sp,-64
 924              		.cfi_def_cfa_offset 64
 925 0988 233C1102 		sd	ra,56(sp)
 926 098c 23388102 		sd	s0,48(sp)
 927 0990 23349102 		sd	s1,40(sp)
 928 0994 23302103 		sd	s2,32(sp)
 929 0998 233C3101 		sd	s3,24(sp)
 930 099c 23384101 		sd	s4,16(sp)
 931 09a0 23345101 		sd	s5,8(sp)
GAS LISTING /tmp/ccp2ZdEC.s 			page 20


 932              		.cfi_offset 1, -8
 933              		.cfi_offset 8, -16
 934              		.cfi_offset 9, -24
 935              		.cfi_offset 18, -32
 936              		.cfi_offset 19, -40
 937              		.cfi_offset 20, -48
 938              		.cfi_offset 21, -56
 939 09a4 13040104 		addi	s0,sp,64
 940              		.cfi_def_cfa 8, 0
 941 09a8 930A0500 		mv	s5,a0
 942 09ac 138A0500 		mv	s4,a1
  86:src/heapManager.cpp ****     HeapFreeSectionHeader* pFree = reinterpret_cast<HeapFreeSectionHeader*>(reinterpret_cast<uintpt
 943              		.loc 1 86 5
 944              		.loc 1 86 115 is_stmt 0
 945 09b0 138905FC 		addi	s2,a1,-64
 946              		.loc 1 86 28
 947 09b4 93090900 		mv	s3,s2
 948              	.LVL38:
  87:src/heapManager.cpp ****     assert(pFree->u32Magic == HEAP_BLOCK_MAGIC);
 949              		.loc 1 87 5 is_stmt 1
 950 09b8 83478901 		lbu	a5,24(s2)
 951 09bc 03479901 		lbu	a4,25(s2)
 952 09c0 13178700 		slli	a4,a4,8
 953 09c4 3367F700 		or	a4,a4,a5
 954 09c8 8347A901 		lbu	a5,26(s2)
 955 09cc 93970701 		slli	a5,a5,16
 956 09d0 33E7E700 		or	a4,a5,a4
 957 09d4 8347B901 		lbu	a5,27(s2)
 958 09d8 93978701 		slli	a5,a5,24
 959 09dc B3E7E700 		or	a5,a5,a4
 960 09e0 9B870700 		sext.w	a5,a5
 961 09e4 37C7ADDE 		li	a4,-559038464
 962 09e8 1307E70D 		addi	a4,a4,222
 963 09ec 6396E700 		bne	a5,a4,.L47
 964              	.LVL39:
 965              	.L32:
 966              		.loc 1 87 48 discriminator 3
  88:src/heapManager.cpp ****     HeapFreeSectionHeader* pInsert = m_pHead;
 967              		.loc 1 88 5 discriminator 3
 968              		.loc 1 88 28 is_stmt 0 discriminator 3
 969 09f0 83B40A00 		ld	s1,0(s5)
 970              	.LVL40:
 971 09f4 6F004007 		j	.L35
 972              	.LVL41:
 973              	.L47:
  87:src/heapManager.cpp ****     assert(pFree->u32Magic == HEAP_BLOCK_MAGIC);
 974              		.loc 1 87 5 is_stmt 1 discriminator 1
 975 09f8 93057005 		li	a1,87
 976              	.LVL42:
 977 09fc 17050000 		lla	a0,.LC0
 977      13050500 
 978              	.LVL43:
 979 0a04 97000000 		call	_Z13assert_failedPKci@plt
 979      E7800000 
 980              	.LVL44:
 981 0a0c 6FF05FFE 		j	.L32
 982              	.LVL45:
GAS LISTING /tmp/ccp2ZdEC.s 			page 21


 983              	.L34:
  89:src/heapManager.cpp ****     while(pInsert != 0 && pInsert < pFree){
  90:src/heapManager.cpp ****         assert(pInsert->u32Magic == HEAP_BLOCK_MAGIC);
 984              		.loc 1 90 54 discriminator 3
  91:src/heapManager.cpp ****         pInsert = pInsert->pNext;
 985              		.loc 1 91 9 discriminator 3
 986              		.loc 1 91 17 is_stmt 0 discriminator 3
 987 0a10 03C70400 		lbu	a4,0(s1)
 988 0a14 83C71400 		lbu	a5,1(s1)
 989 0a18 93978700 		slli	a5,a5,8
 990 0a1c 33E7E700 		or	a4,a5,a4
 991 0a20 83C72400 		lbu	a5,2(s1)
 992 0a24 93970701 		slli	a5,a5,16
 993 0a28 B3E7E700 		or	a5,a5,a4
 994 0a2c 03C73400 		lbu	a4,3(s1)
 995 0a30 13178701 		slli	a4,a4,24
 996 0a34 B367F700 		or	a5,a4,a5
 997 0a38 03C74400 		lbu	a4,4(s1)
 998 0a3c 13170702 		slli	a4,a4,32
 999 0a40 3367F700 		or	a4,a4,a5
 1000 0a44 83C75400 		lbu	a5,5(s1)
 1001 0a48 93978702 		slli	a5,a5,40
 1002 0a4c 33E7E700 		or	a4,a5,a4
 1003 0a50 83C76400 		lbu	a5,6(s1)
 1004 0a54 93970703 		slli	a5,a5,48
 1005 0a58 B3E7E700 		or	a5,a5,a4
 1006 0a5c 83C47400 		lbu	s1,7(s1)
 1007              	.LVL46:
 1008 0a60 93948403 		slli	s1,s1,56
 1009 0a64 B3E4F400 		or	s1,s1,a5
 1010              	.LVL47:
 1011              	.L35:
  89:src/heapManager.cpp ****     while(pInsert != 0 && pInsert < pFree){
 1012              		.loc 1 89 5 is_stmt 1
  89:src/heapManager.cpp ****     while(pInsert != 0 && pInsert < pFree){
 1013              		.loc 1 89 24
 1014 0a68 638C0404 		beqz	s1,.L33
  89:src/heapManager.cpp ****     while(pInsert != 0 && pInsert < pFree){
 1015              		.loc 1 89 24 is_stmt 0 discriminator 1
 1016 0a6c 63FA3405 		bgeu	s1,s3,.L33
  90:src/heapManager.cpp ****         pInsert = pInsert->pNext;
 1017              		.loc 1 90 9 is_stmt 1
 1018 0a70 83C78401 		lbu	a5,24(s1)
 1019 0a74 03C79401 		lbu	a4,25(s1)
 1020 0a78 13178700 		slli	a4,a4,8
 1021 0a7c 3367F700 		or	a4,a4,a5
 1022 0a80 83C7A401 		lbu	a5,26(s1)
 1023 0a84 93970701 		slli	a5,a5,16
 1024 0a88 33E7E700 		or	a4,a5,a4
 1025 0a8c 83C7B401 		lbu	a5,27(s1)
 1026 0a90 93978701 		slli	a5,a5,24
 1027 0a94 B3E7E700 		or	a5,a5,a4
 1028 0a98 9B870700 		sext.w	a5,a5
 1029 0a9c 37C7ADDE 		li	a4,-559038464
 1030 0aa0 1307E70D 		addi	a4,a4,222
 1031 0aa4 E386E7F6 		beq	a5,a4,.L34
  90:src/heapManager.cpp ****         pInsert = pInsert->pNext;
GAS LISTING /tmp/ccp2ZdEC.s 			page 22


 1032              		.loc 1 90 9 discriminator 1
 1033 0aa8 9305A005 		li	a1,90
 1034 0aac 17050000 		lla	a0,.LC0
 1034      13050500 
 1035 0ab4 97000000 		call	_Z13assert_failedPKci@plt
 1035      E7800000 
 1036              	.LVL48:
 1037 0abc 6FF05FF5 		j	.L34
 1038              	.L33:
  92:src/heapManager.cpp ****     }
  93:src/heapManager.cpp ****     if(pInsert == 0){
 1039              		.loc 1 93 5
 1040 0ac0 63880440 		beqz	s1,.L48
  94:src/heapManager.cpp ****         pFree->pPrev = m_pTail;
  95:src/heapManager.cpp ****         pFree->pNext = 0;
  96:src/heapManager.cpp ****         m_pTail->pNext = pFree;
  97:src/heapManager.cpp ****         m_pTail = pFree;
  98:src/heapManager.cpp ****     }else{
  99:src/heapManager.cpp ****         pFree->pPrev = pInsert->pPrev;
 1041              		.loc 1 99 9
 1042              		.loc 1 99 33 is_stmt 0
 1043 0ac4 83C78400 		lbu	a5,8(s1)
 1044 0ac8 03C79400 		lbu	a4,9(s1)
 1045 0acc 13178700 		slli	a4,a4,8
 1046 0ad0 B367F700 		or	a5,a4,a5
 1047 0ad4 03C7A400 		lbu	a4,10(s1)
 1048 0ad8 13170701 		slli	a4,a4,16
 1049 0adc 3367F700 		or	a4,a4,a5
 1050 0ae0 83C7B400 		lbu	a5,11(s1)
 1051 0ae4 93978701 		slli	a5,a5,24
 1052 0ae8 33E7E700 		or	a4,a5,a4
 1053 0aec 83C7C400 		lbu	a5,12(s1)
 1054 0af0 93970702 		slli	a5,a5,32
 1055 0af4 B3E7E700 		or	a5,a5,a4
 1056 0af8 03C7D400 		lbu	a4,13(s1)
 1057 0afc 13178702 		slli	a4,a4,40
 1058 0b00 B367F700 		or	a5,a4,a5
 1059 0b04 03C7E400 		lbu	a4,14(s1)
 1060 0b08 13170703 		slli	a4,a4,48
 1061 0b0c 3367F700 		or	a4,a4,a5
 1062 0b10 83C7F400 		lbu	a5,15(s1)
 1063 0b14 93978703 		slli	a5,a5,56
 1064 0b18 B3E7E700 		or	a5,a5,a4
 1065              		.loc 1 99 22
 1066 0b1c 2304E900 		sb	a4,8(s2)
 1067 0b20 13D78700 		srli	a4,a5,8
 1068 0b24 A304E900 		sb	a4,9(s2)
 1069 0b28 13D70701 		srli	a4,a5,16
 1070 0b2c 2305E900 		sb	a4,10(s2)
 1071 0b30 1BD78701 		srliw	a4,a5,24
 1072 0b34 A305E900 		sb	a4,11(s2)
 1073 0b38 13D70702 		srli	a4,a5,32
 1074 0b3c 2306E900 		sb	a4,12(s2)
 1075 0b40 13D78702 		srli	a4,a5,40
 1076 0b44 A306E900 		sb	a4,13(s2)
 1077 0b48 13D70703 		srli	a4,a5,48
 1078 0b4c 2307E900 		sb	a4,14(s2)
GAS LISTING /tmp/ccp2ZdEC.s 			page 23


 1079 0b50 93D78703 		srli	a5,a5,56
 1080 0b54 A307F900 		sb	a5,15(s2)
 100:src/heapManager.cpp ****         pFree->pNext = pInsert;
 1081              		.loc 1 100 9 is_stmt 1
 1082              		.loc 1 100 22 is_stmt 0
 1083 0b58 23009AFC 		sb	s1,-64(s4)
 1084 0b5c 93D78400 		srli	a5,s1,8
 1085 0b60 A300F900 		sb	a5,1(s2)
 1086 0b64 93D70401 		srli	a5,s1,16
 1087 0b68 2301F900 		sb	a5,2(s2)
 1088 0b6c 9BD78401 		srliw	a5,s1,24
 1089 0b70 A301F900 		sb	a5,3(s2)
 1090 0b74 93D70402 		srli	a5,s1,32
 1091 0b78 2302F900 		sb	a5,4(s2)
 1092 0b7c 93D78402 		srli	a5,s1,40
 1093 0b80 A302F900 		sb	a5,5(s2)
 1094 0b84 93D70403 		srli	a5,s1,48
 1095 0b88 2303F900 		sb	a5,6(s2)
 1096 0b8c 93D78403 		srli	a5,s1,56
 1097 0b90 A303F900 		sb	a5,7(s2)
 101:src/heapManager.cpp ****         if(pInsert->pPrev != 0){
 1098              		.loc 1 101 9 is_stmt 1
 1099              		.loc 1 101 21 is_stmt 0
 1100 0b94 83C78400 		lbu	a5,8(s1)
 1101 0b98 03C79400 		lbu	a4,9(s1)
 1102 0b9c 13178700 		slli	a4,a4,8
 1103 0ba0 3367F700 		or	a4,a4,a5
 1104 0ba4 83C7A400 		lbu	a5,10(s1)
 1105 0ba8 93970701 		slli	a5,a5,16
 1106 0bac 33E7E700 		or	a4,a5,a4
 1107 0bb0 83C7B400 		lbu	a5,11(s1)
 1108 0bb4 93978701 		slli	a5,a5,24
 1109 0bb8 B3E7E700 		or	a5,a5,a4
 1110 0bbc 03C7C400 		lbu	a4,12(s1)
 1111 0bc0 13170702 		slli	a4,a4,32
 1112 0bc4 B367F700 		or	a5,a4,a5
 1113 0bc8 03C7D400 		lbu	a4,13(s1)
 1114 0bcc 13178702 		slli	a4,a4,40
 1115 0bd0 3367F700 		or	a4,a4,a5
 1116 0bd4 83C7E400 		lbu	a5,14(s1)
 1117 0bd8 93970703 		slli	a5,a5,48
 1118 0bdc 33E7E700 		or	a4,a5,a4
 1119 0be0 83C7F400 		lbu	a5,15(s1)
 1120 0be4 93978703 		slli	a5,a5,56
 1121 0be8 B3E7E700 		or	a5,a5,a4
 1122              		.loc 1 101 9
 1123 0bec 63800704 		beqz	a5,.L38
 102:src/heapManager.cpp ****             pInsert->pPrev->pNext = pFree;
 1124              		.loc 1 102 13 is_stmt 1
 1125              		.loc 1 102 35 is_stmt 0
 1126 0bf0 23802701 		sb	s2,0(a5)
 1127 0bf4 13578900 		srli	a4,s2,8
 1128 0bf8 A380E700 		sb	a4,1(a5)
 1129 0bfc 13570901 		srli	a4,s2,16
 1130 0c00 2381E700 		sb	a4,2(a5)
 1131 0c04 1B578901 		srliw	a4,s2,24
 1132 0c08 A381E700 		sb	a4,3(a5)
GAS LISTING /tmp/ccp2ZdEC.s 			page 24


 1133 0c0c 13570902 		srli	a4,s2,32
 1134 0c10 2382E700 		sb	a4,4(a5)
 1135 0c14 13578902 		srli	a4,s2,40
 1136 0c18 A382E700 		sb	a4,5(a5)
 1137 0c1c 13570903 		srli	a4,s2,48
 1138 0c20 2383E700 		sb	a4,6(a5)
 1139 0c24 13578903 		srli	a4,s2,56
 1140 0c28 A383E700 		sb	a4,7(a5)
 1141              	.L38:
 103:src/heapManager.cpp ****         }
 104:src/heapManager.cpp ****         pInsert->pPrev = pFree;
 1142              		.loc 1 104 9 is_stmt 1
 1143              		.loc 1 104 24 is_stmt 0
 1144 0c2c 23842401 		sb	s2,8(s1)
 1145 0c30 93578900 		srli	a5,s2,8
 1146 0c34 A384F400 		sb	a5,9(s1)
 1147 0c38 93570901 		srli	a5,s2,16
 1148 0c3c 2385F400 		sb	a5,10(s1)
 1149 0c40 9B578901 		srliw	a5,s2,24
 1150 0c44 A385F400 		sb	a5,11(s1)
 1151 0c48 93570902 		srli	a5,s2,32
 1152 0c4c 2386F400 		sb	a5,12(s1)
 1153 0c50 93578902 		srli	a5,s2,40
 1154 0c54 A386F400 		sb	a5,13(s1)
 1155 0c58 93570903 		srli	a5,s2,48
 1156 0c5c 2387F400 		sb	a5,14(s1)
 1157 0c60 93578903 		srli	a5,s2,56
 1158 0c64 A387F400 		sb	a5,15(s1)
 1159              	.L37:
 105:src/heapManager.cpp ****     }
 106:src/heapManager.cpp ****     if(!pFree->pPrev){
 1160              		.loc 1 106 5 is_stmt 1
 1161              		.loc 1 106 16 is_stmt 0
 1162 0c68 83478900 		lbu	a5,8(s2)
 1163 0c6c 03479900 		lbu	a4,9(s2)
 1164 0c70 13178700 		slli	a4,a4,8
 1165 0c74 3367F700 		or	a4,a4,a5
 1166 0c78 8347A900 		lbu	a5,10(s2)
 1167 0c7c 93970701 		slli	a5,a5,16
 1168 0c80 33E7E700 		or	a4,a5,a4
 1169 0c84 8347B900 		lbu	a5,11(s2)
 1170 0c88 93978701 		slli	a5,a5,24
 1171 0c8c B3E7E700 		or	a5,a5,a4
 1172 0c90 0347C900 		lbu	a4,12(s2)
 1173 0c94 13170702 		slli	a4,a4,32
 1174 0c98 B367F700 		or	a5,a4,a5
 1175 0c9c 0347D900 		lbu	a4,13(s2)
 1176 0ca0 13178702 		slli	a4,a4,40
 1177 0ca4 3367F700 		or	a4,a4,a5
 1178 0ca8 8347E900 		lbu	a5,14(s2)
 1179 0cac 93970703 		slli	a5,a5,48
 1180 0cb0 33E7E700 		or	a4,a5,a4
 1181 0cb4 8347F900 		lbu	a5,15(s2)
 1182 0cb8 93978703 		slli	a5,a5,56
 1183 0cbc B3E7E700 		or	a5,a5,a4
 1184              		.loc 1 106 5
 1185 0cc0 638C072A 		beqz	a5,.L49
GAS LISTING /tmp/ccp2ZdEC.s 			page 25


 1186              	.L39:
 107:src/heapManager.cpp ****         m_pHead = pFree;
 108:src/heapManager.cpp ****     }
 109:src/heapManager.cpp ****     if(!pFree->pNext){
 1187              		.loc 1 109 5 is_stmt 1
 1188              		.loc 1 109 16 is_stmt 0
 1189 0cc4 83470AFC 		lbu	a5,-64(s4)
 1190 0cc8 03471900 		lbu	a4,1(s2)
 1191 0ccc 13178700 		slli	a4,a4,8
 1192 0cd0 3367F700 		or	a4,a4,a5
 1193 0cd4 83472900 		lbu	a5,2(s2)
 1194 0cd8 93970701 		slli	a5,a5,16
 1195 0cdc 33E7E700 		or	a4,a5,a4
 1196 0ce0 83473900 		lbu	a5,3(s2)
 1197 0ce4 93978701 		slli	a5,a5,24
 1198 0ce8 B3E7E700 		or	a5,a5,a4
 1199 0cec 03474900 		lbu	a4,4(s2)
 1200 0cf0 13170702 		slli	a4,a4,32
 1201 0cf4 B367F700 		or	a5,a4,a5
 1202 0cf8 03475900 		lbu	a4,5(s2)
 1203 0cfc 13178702 		slli	a4,a4,40
 1204 0d00 3367F700 		or	a4,a4,a5
 1205 0d04 83476900 		lbu	a5,6(s2)
 1206 0d08 93970703 		slli	a5,a5,48
 1207 0d0c 33E7E700 		or	a4,a5,a4
 1208 0d10 83477900 		lbu	a5,7(s2)
 1209 0d14 93978703 		slli	a5,a5,56
 1210 0d18 B3E7E700 		or	a5,a5,a4
 1211              		.loc 1 109 5
 1212 0d1c 63820726 		beqz	a5,.L50
 1213              	.L40:
 110:src/heapManager.cpp ****         m_pTail = pFree;
 111:src/heapManager.cpp ****     }
 112:src/heapManager.cpp **** 
 113:src/heapManager.cpp ****     /// merge with previous block if possible
 114:src/heapManager.cpp ****     if(pFree->pPrev != 0 && reinterpret_cast<uintptr_t>(pFree->pPrev) + (pFree->pPrev->nSize + 1) *
 1214              		.loc 1 114 5 is_stmt 1
 1215              		.loc 1 114 15 is_stmt 0
 1216 0d20 83478900 		lbu	a5,8(s2)
 1217 0d24 03479900 		lbu	a4,9(s2)
 1218 0d28 13178700 		slli	a4,a4,8
 1219 0d2c 3367F700 		or	a4,a4,a5
 1220 0d30 8347A900 		lbu	a5,10(s2)
 1221 0d34 93970701 		slli	a5,a5,16
 1222 0d38 33E7E700 		or	a4,a5,a4
 1223 0d3c 8347B900 		lbu	a5,11(s2)
 1224 0d40 93978701 		slli	a5,a5,24
 1225 0d44 B3E7E700 		or	a5,a5,a4
 1226 0d48 0347C900 		lbu	a4,12(s2)
 1227 0d4c 13170702 		slli	a4,a4,32
 1228 0d50 B367F700 		or	a5,a4,a5
 1229 0d54 0347D900 		lbu	a4,13(s2)
 1230 0d58 13178702 		slli	a4,a4,40
 1231 0d5c 3367F700 		or	a4,a4,a5
 1232 0d60 8347E900 		lbu	a5,14(s2)
 1233 0d64 93970703 		slli	a5,a5,48
 1234 0d68 33E7E700 		or	a4,a5,a4
GAS LISTING /tmp/ccp2ZdEC.s 			page 26


 1235 0d6c 8347F900 		lbu	a5,15(s2)
 1236 0d70 93978703 		slli	a5,a5,56
 1237 0d74 B3E7E700 		or	a5,a5,a4
 1238              		.loc 1 114 5
 1239 0d78 63860706 		beqz	a5,.L41
 1240              		.loc 1 114 88 discriminator 1
 1241 0d7c 03C70701 		lbu	a4,16(a5)
 1242 0d80 83C61701 		lbu	a3,17(a5)
 1243 0d84 93968600 		slli	a3,a3,8
 1244 0d88 B3E6E600 		or	a3,a3,a4
 1245 0d8c 03C72701 		lbu	a4,18(a5)
 1246 0d90 13170701 		slli	a4,a4,16
 1247 0d94 B366D700 		or	a3,a4,a3
 1248 0d98 03C73701 		lbu	a4,19(a5)
 1249 0d9c 13178701 		slli	a4,a4,24
 1250 0da0 3367D700 		or	a4,a4,a3
 1251 0da4 83C64701 		lbu	a3,20(a5)
 1252 0da8 93960602 		slli	a3,a3,32
 1253 0dac 33E7E600 		or	a4,a3,a4
 1254 0db0 83C65701 		lbu	a3,21(a5)
 1255 0db4 93968602 		slli	a3,a3,40
 1256 0db8 B3E6E600 		or	a3,a3,a4
 1257 0dbc 03C76701 		lbu	a4,22(a5)
 1258 0dc0 13170703 		slli	a4,a4,48
 1259 0dc4 B366D700 		or	a3,a4,a3
 1260 0dc8 03C77701 		lbu	a4,23(a5)
 1261 0dcc 13178703 		slli	a4,a4,56
 1262 0dd0 3367D700 		or	a4,a4,a3
 1263              		.loc 1 114 94 discriminator 1
 1264 0dd4 93061700 		addi	a3,a4,1
 1265              		.loc 1 114 99 discriminator 1
 1266 0dd8 93966600 		slli	a3,a3,6
 1267              		.loc 1 114 71 discriminator 1
 1268 0ddc B386D700 		add	a3,a5,a3
 1269              		.loc 1 114 26 discriminator 1
 1270 0de0 6304D91A 		beq	s2,a3,.L51
 1271              	.LVL49:
 1272              	.L41:
 115:src/heapManager.cpp ****         pFree->pPrev->nSize += pFree->nSize + 1;
 116:src/heapManager.cpp ****         pFree->pPrev->pNext = pFree->pNext;
 117:src/heapManager.cpp ****         if(pFree->pNext != 0){
 118:src/heapManager.cpp ****             pFree->pNext->pPrev = pFree->pPrev;
 119:src/heapManager.cpp ****         }else{
 120:src/heapManager.cpp ****             m_pTail = pFree->pPrev;
 121:src/heapManager.cpp ****         }
 122:src/heapManager.cpp ****         pFree = pFree->pPrev;
 123:src/heapManager.cpp ****     }
 124:src/heapManager.cpp ****     /// merge with next block if possible
 125:src/heapManager.cpp ****     if(pFree->pNext != 0 && reinterpret_cast<uintptr_t>(pFree) + (pFree->nSize + 1) * MEM_BLOCK_SIZ
 1273              		.loc 1 125 5 is_stmt 1
 1274              		.loc 1 125 15 is_stmt 0
 1275 0de4 83C70900 		lbu	a5,0(s3)
 1276 0de8 03C71900 		lbu	a4,1(s3)
 1277 0dec 13178700 		slli	a4,a4,8
 1278 0df0 3367F700 		or	a4,a4,a5
 1279 0df4 83C72900 		lbu	a5,2(s3)
 1280 0df8 93970701 		slli	a5,a5,16
GAS LISTING /tmp/ccp2ZdEC.s 			page 27


 1281 0dfc 33E7E700 		or	a4,a5,a4
 1282 0e00 83C73900 		lbu	a5,3(s3)
 1283 0e04 93978701 		slli	a5,a5,24
 1284 0e08 B3E7E700 		or	a5,a5,a4
 1285 0e0c 03C74900 		lbu	a4,4(s3)
 1286 0e10 13170702 		slli	a4,a4,32
 1287 0e14 B367F700 		or	a5,a4,a5
 1288 0e18 03C75900 		lbu	a4,5(s3)
 1289 0e1c 13178702 		slli	a4,a4,40
 1290 0e20 3367F700 		or	a4,a4,a5
 1291 0e24 83C76900 		lbu	a5,6(s3)
 1292 0e28 93970703 		slli	a5,a5,48
 1293 0e2c 33E7E700 		or	a4,a5,a4
 1294 0e30 83C77900 		lbu	a5,7(s3)
 1295 0e34 93978703 		slli	a5,a5,56
 1296 0e38 B3E7E700 		or	a5,a5,a4
 1297              		.loc 1 125 5
 1298 0e3c 63860706 		beqz	a5,.L44
 1299              		.loc 1 125 74 discriminator 1
 1300 0e40 03C70901 		lbu	a4,16(s3)
 1301 0e44 83C61901 		lbu	a3,17(s3)
 1302 0e48 93968600 		slli	a3,a3,8
 1303 0e4c B3E6E600 		or	a3,a3,a4
 1304 0e50 03C72901 		lbu	a4,18(s3)
 1305 0e54 13170701 		slli	a4,a4,16
 1306 0e58 B366D700 		or	a3,a4,a3
 1307 0e5c 03C73901 		lbu	a4,19(s3)
 1308 0e60 13178701 		slli	a4,a4,24
 1309 0e64 3367D700 		or	a4,a4,a3
 1310 0e68 83C64901 		lbu	a3,20(s3)
 1311 0e6c 93960602 		slli	a3,a3,32
 1312 0e70 33E7E600 		or	a4,a3,a4
 1313 0e74 83C65901 		lbu	a3,21(s3)
 1314 0e78 93968602 		slli	a3,a3,40
 1315 0e7c B3E6E600 		or	a3,a3,a4
 1316 0e80 03C76901 		lbu	a4,22(s3)
 1317 0e84 13170703 		slli	a4,a4,48
 1318 0e88 B366D700 		or	a3,a4,a3
 1319 0e8c 03C77901 		lbu	a4,23(s3)
 1320 0e90 13178703 		slli	a4,a4,56
 1321 0e94 3367D700 		or	a4,a4,a3
 1322              		.loc 1 125 80 discriminator 1
 1323 0e98 93061700 		addi	a3,a4,1
 1324              		.loc 1 125 85 discriminator 1
 1325 0e9c 93966600 		slli	a3,a3,6
 1326              		.loc 1 125 64 discriminator 1
 1327 0ea0 B386D900 		add	a3,s3,a3
 1328              		.loc 1 125 26 discriminator 1
 1329 0ea4 638CF640 		beq	a3,a5,.L52
 1330              	.LVL50:
 1331              	.L44:
 126:src/heapManager.cpp ****         pFree->nSize += pFree->pNext->nSize + 1;
 127:src/heapManager.cpp ****         pFree->pNext = pFree->pNext->pNext;
 128:src/heapManager.cpp ****         if(pFree->pNext != 0){
 129:src/heapManager.cpp ****             pFree->pNext->pPrev = pFree;
 130:src/heapManager.cpp ****         }else{
 131:src/heapManager.cpp ****             m_pTail = pFree;
GAS LISTING /tmp/ccp2ZdEC.s 			page 28


 132:src/heapManager.cpp ****         }
 133:src/heapManager.cpp ****     }
 134:src/heapManager.cpp ****     return 0;
 1332              		.loc 1 134 5 is_stmt 1
 135:src/heapManager.cpp **** }
 1333              		.loc 1 135 1 is_stmt 0
 1334 0ea8 13050000 		li	a0,0
 1335 0eac 83308103 		ld	ra,56(sp)
 1336              		.cfi_remember_state
 1337              		.cfi_restore 1
 1338 0eb0 03340103 		ld	s0,48(sp)
 1339              		.cfi_restore 8
 1340              		.cfi_def_cfa 2, 64
 1341 0eb4 83348102 		ld	s1,40(sp)
 1342              		.cfi_restore 9
 1343              	.LVL51:
 1344 0eb8 03390102 		ld	s2,32(sp)
 1345              		.cfi_restore 18
 1346 0ebc 83398101 		ld	s3,24(sp)
 1347              		.cfi_restore 19
 1348 0ec0 033A0101 		ld	s4,16(sp)
 1349              		.cfi_restore 20
 1350              	.LVL52:
 1351 0ec4 833A8100 		ld	s5,8(sp)
 1352              		.cfi_restore 21
 1353              	.LVL53:
 1354 0ec8 13010104 		addi	sp,sp,64
 1355              		.cfi_def_cfa_offset 0
 1356 0ecc 67800000 		jr	ra
 1357              	.LVL54:
 1358              	.L48:
 1359              		.cfi_restore_state
  94:src/heapManager.cpp ****         pFree->pNext = 0;
 1360              		.loc 1 94 9 is_stmt 1
  94:src/heapManager.cpp ****         pFree->pNext = 0;
 1361              		.loc 1 94 24 is_stmt 0
 1362 0ed0 83B78A00 		ld	a5,8(s5)
  94:src/heapManager.cpp ****         pFree->pNext = 0;
 1363              		.loc 1 94 22
 1364 0ed4 2304F900 		sb	a5,8(s2)
 1365 0ed8 13D78700 		srli	a4,a5,8
 1366 0edc A304E900 		sb	a4,9(s2)
 1367 0ee0 13D70701 		srli	a4,a5,16
 1368 0ee4 2305E900 		sb	a4,10(s2)
 1369 0ee8 1BD78701 		srliw	a4,a5,24
 1370 0eec A305E900 		sb	a4,11(s2)
 1371 0ef0 13D70702 		srli	a4,a5,32
 1372 0ef4 2306E900 		sb	a4,12(s2)
 1373 0ef8 13D78702 		srli	a4,a5,40
 1374 0efc A306E900 		sb	a4,13(s2)
 1375 0f00 13D70703 		srli	a4,a5,48
 1376 0f04 2307E900 		sb	a4,14(s2)
 1377 0f08 93D78703 		srli	a5,a5,56
 1378 0f0c A307F900 		sb	a5,15(s2)
  95:src/heapManager.cpp ****         m_pTail->pNext = pFree;
 1379              		.loc 1 95 9 is_stmt 1
  95:src/heapManager.cpp ****         m_pTail->pNext = pFree;
GAS LISTING /tmp/ccp2ZdEC.s 			page 29


 1380              		.loc 1 95 22 is_stmt 0
 1381 0f10 23000AFC 		sb	zero,-64(s4)
 1382 0f14 A3000900 		sb	zero,1(s2)
 1383 0f18 23010900 		sb	zero,2(s2)
 1384 0f1c A3010900 		sb	zero,3(s2)
 1385 0f20 23020900 		sb	zero,4(s2)
 1386 0f24 A3020900 		sb	zero,5(s2)
 1387 0f28 23030900 		sb	zero,6(s2)
 1388 0f2c A3030900 		sb	zero,7(s2)
  96:src/heapManager.cpp ****         m_pTail = pFree;
 1389              		.loc 1 96 9 is_stmt 1
 1390 0f30 83B78A00 		ld	a5,8(s5)
  96:src/heapManager.cpp ****         m_pTail = pFree;
 1391              		.loc 1 96 24 is_stmt 0
 1392 0f34 23802701 		sb	s2,0(a5)
 1393 0f38 13578900 		srli	a4,s2,8
 1394 0f3c A380E700 		sb	a4,1(a5)
 1395 0f40 13570901 		srli	a4,s2,16
 1396 0f44 2381E700 		sb	a4,2(a5)
 1397 0f48 1B578901 		srliw	a4,s2,24
 1398 0f4c A381E700 		sb	a4,3(a5)
 1399 0f50 13570902 		srli	a4,s2,32
 1400 0f54 2382E700 		sb	a4,4(a5)
 1401 0f58 13578902 		srli	a4,s2,40
 1402 0f5c A382E700 		sb	a4,5(a5)
 1403 0f60 13570903 		srli	a4,s2,48
 1404 0f64 2383E700 		sb	a4,6(a5)
 1405 0f68 13578903 		srli	a4,s2,56
 1406 0f6c A383E700 		sb	a4,7(a5)
  97:src/heapManager.cpp ****     }else{
 1407              		.loc 1 97 9 is_stmt 1
  97:src/heapManager.cpp ****     }else{
 1408              		.loc 1 97 17 is_stmt 0
 1409 0f70 23B42A01 		sd	s2,8(s5)
 1410 0f74 6FF05FCF 		j	.L37
 1411              	.L49:
 107:src/heapManager.cpp ****     }
 1412              		.loc 1 107 9 is_stmt 1
 107:src/heapManager.cpp ****     }
 1413              		.loc 1 107 17 is_stmt 0
 1414 0f78 23B02A01 		sd	s2,0(s5)
 1415 0f7c 6FF09FD4 		j	.L39
 1416              	.L50:
 110:src/heapManager.cpp ****     }
 1417              		.loc 1 110 9 is_stmt 1
 110:src/heapManager.cpp ****     }
 1418              		.loc 1 110 17 is_stmt 0
 1419 0f80 23B42A01 		sd	s2,8(s5)
 1420 0f84 6FF0DFD9 		j	.L40
 1421              	.L51:
 115:src/heapManager.cpp ****         pFree->pPrev->pNext = pFree->pNext;
 1422              		.loc 1 115 9 is_stmt 1
 115:src/heapManager.cpp ****         pFree->pPrev->pNext = pFree->pNext;
 1423              		.loc 1 115 39 is_stmt 0
 1424 0f88 83460901 		lbu	a3,16(s2)
 1425 0f8c 03461901 		lbu	a2,17(s2)
 1426 0f90 13168600 		slli	a2,a2,8
GAS LISTING /tmp/ccp2ZdEC.s 			page 30


 1427 0f94 3366D600 		or	a2,a2,a3
 1428 0f98 83462901 		lbu	a3,18(s2)
 1429 0f9c 93960601 		slli	a3,a3,16
 1430 0fa0 33E6C600 		or	a2,a3,a2
 1431 0fa4 83463901 		lbu	a3,19(s2)
 1432 0fa8 93968601 		slli	a3,a3,24
 1433 0fac B3E6C600 		or	a3,a3,a2
 1434 0fb0 03464901 		lbu	a2,20(s2)
 1435 0fb4 13160602 		slli	a2,a2,32
 1436 0fb8 B366D600 		or	a3,a2,a3
 1437 0fbc 03465901 		lbu	a2,21(s2)
 1438 0fc0 13168602 		slli	a2,a2,40
 1439 0fc4 3366D600 		or	a2,a2,a3
 1440 0fc8 83466901 		lbu	a3,22(s2)
 1441 0fcc 93960603 		slli	a3,a3,48
 1442 0fd0 33E6C600 		or	a2,a3,a2
 1443 0fd4 83467901 		lbu	a3,23(s2)
 1444 0fd8 93968603 		slli	a3,a3,56
 1445 0fdc B3E6C600 		or	a3,a3,a2
 115:src/heapManager.cpp ****         pFree->pPrev->pNext = pFree->pNext;
 1446              		.loc 1 115 29
 1447 0fe0 3307D700 		add	a4,a4,a3
 1448 0fe4 13071700 		addi	a4,a4,1
 1449 0fe8 2388E700 		sb	a4,16(a5)
 1450 0fec 93568700 		srli	a3,a4,8
 1451 0ff0 A388D700 		sb	a3,17(a5)
 1452 0ff4 93560701 		srli	a3,a4,16
 1453 0ff8 2389D700 		sb	a3,18(a5)
 1454 0ffc 9B568701 		srliw	a3,a4,24
 1455 1000 A389D700 		sb	a3,19(a5)
 1456 1004 93560702 		srli	a3,a4,32
 1457 1008 238AD700 		sb	a3,20(a5)
 1458 100c 93568702 		srli	a3,a4,40
 1459 1010 A38AD700 		sb	a3,21(a5)
 1460 1014 93560703 		srli	a3,a4,48
 1461 1018 238BD700 		sb	a3,22(a5)
 1462 101c 13578703 		srli	a4,a4,56
 1463 1020 A38BE700 		sb	a4,23(a5)
 116:src/heapManager.cpp ****         if(pFree->pNext != 0){
 1464              		.loc 1 116 9 is_stmt 1
 116:src/heapManager.cpp ****         if(pFree->pNext != 0){
 1465              		.loc 1 116 16 is_stmt 0
 1466 1024 03478900 		lbu	a4,8(s2)
 1467 1028 83479900 		lbu	a5,9(s2)
 1468 102c 93978700 		slli	a5,a5,8
 1469 1030 B3E7E700 		or	a5,a5,a4
 1470 1034 0347A900 		lbu	a4,10(s2)
 1471 1038 13170701 		slli	a4,a4,16
 1472 103c B367F700 		or	a5,a4,a5
 1473 1040 0347B900 		lbu	a4,11(s2)
 1474 1044 13178701 		slli	a4,a4,24
 1475 1048 3367F700 		or	a4,a4,a5
 1476 104c 8347C900 		lbu	a5,12(s2)
 1477 1050 93970702 		slli	a5,a5,32
 1478 1054 33E7E700 		or	a4,a5,a4
 1479 1058 8347D900 		lbu	a5,13(s2)
 1480 105c 93978702 		slli	a5,a5,40
GAS LISTING /tmp/ccp2ZdEC.s 			page 31


 1481 1060 B3E7E700 		or	a5,a5,a4
 1482 1064 0347E900 		lbu	a4,14(s2)
 1483 1068 13170703 		slli	a4,a4,48
 1484 106c B367F700 		or	a5,a4,a5
 1485 1070 0347F900 		lbu	a4,15(s2)
 1486 1074 13178703 		slli	a4,a4,56
 1487 1078 3367F700 		or	a4,a4,a5
 116:src/heapManager.cpp ****         if(pFree->pNext != 0){
 1488              		.loc 1 116 38
 1489 107c 83470AFC 		lbu	a5,-64(s4)
 1490 1080 83461900 		lbu	a3,1(s2)
 1491 1084 93968600 		slli	a3,a3,8
 1492 1088 B3E7F600 		or	a5,a3,a5
 1493 108c 83462900 		lbu	a3,2(s2)
 1494 1090 93960601 		slli	a3,a3,16
 1495 1094 B3E6F600 		or	a3,a3,a5
 1496 1098 83473900 		lbu	a5,3(s2)
 1497 109c 93978701 		slli	a5,a5,24
 1498 10a0 B3E6D700 		or	a3,a5,a3
 1499 10a4 83474900 		lbu	a5,4(s2)
 1500 10a8 93970702 		slli	a5,a5,32
 1501 10ac B3E7D700 		or	a5,a5,a3
 1502 10b0 83465900 		lbu	a3,5(s2)
 1503 10b4 93968602 		slli	a3,a3,40
 1504 10b8 B3E7F600 		or	a5,a3,a5
 1505 10bc 83466900 		lbu	a3,6(s2)
 1506 10c0 93960603 		slli	a3,a3,48
 1507 10c4 B3E6F600 		or	a3,a3,a5
 1508 10c8 83477900 		lbu	a5,7(s2)
 1509 10cc 93978703 		slli	a5,a5,56
 1510 10d0 B3E7D700 		or	a5,a5,a3
 116:src/heapManager.cpp ****         if(pFree->pNext != 0){
 1511              		.loc 1 116 29
 1512 10d4 2300D700 		sb	a3,0(a4)
 1513 10d8 93D68700 		srli	a3,a5,8
 1514 10dc A300D700 		sb	a3,1(a4)
 1515 10e0 93D60701 		srli	a3,a5,16
 1516 10e4 2301D700 		sb	a3,2(a4)
 1517 10e8 9BD68701 		srliw	a3,a5,24
 1518 10ec A301D700 		sb	a3,3(a4)
 1519 10f0 93D60702 		srli	a3,a5,32
 1520 10f4 2302D700 		sb	a3,4(a4)
 1521 10f8 93D68702 		srli	a3,a5,40
 1522 10fc A302D700 		sb	a3,5(a4)
 1523 1100 93D60703 		srli	a3,a5,48
 1524 1104 2303D700 		sb	a3,6(a4)
 1525 1108 93D78703 		srli	a5,a5,56
 1526 110c A303F700 		sb	a5,7(a4)
 117:src/heapManager.cpp ****             pFree->pNext->pPrev = pFree->pPrev;
 1527              		.loc 1 117 9 is_stmt 1
 117:src/heapManager.cpp ****             pFree->pNext->pPrev = pFree->pPrev;
 1528              		.loc 1 117 19 is_stmt 0
 1529 1110 83470AFC 		lbu	a5,-64(s4)
 1530 1114 03471900 		lbu	a4,1(s2)
 1531 1118 13178700 		slli	a4,a4,8
 1532 111c 3367F700 		or	a4,a4,a5
 1533 1120 83472900 		lbu	a5,2(s2)
GAS LISTING /tmp/ccp2ZdEC.s 			page 32


 1534 1124 93970701 		slli	a5,a5,16
 1535 1128 33E7E700 		or	a4,a5,a4
 1536 112c 83473900 		lbu	a5,3(s2)
 1537 1130 93978701 		slli	a5,a5,24
 1538 1134 B3E7E700 		or	a5,a5,a4
 1539 1138 03474900 		lbu	a4,4(s2)
 1540 113c 13170702 		slli	a4,a4,32
 1541 1140 B367F700 		or	a5,a4,a5
 1542 1144 03475900 		lbu	a4,5(s2)
 1543 1148 13178702 		slli	a4,a4,40
 1544 114c 3367F700 		or	a4,a4,a5
 1545 1150 83476900 		lbu	a5,6(s2)
 1546 1154 93970703 		slli	a5,a5,48
 1547 1158 33E7E700 		or	a4,a5,a4
 1548 115c 83477900 		lbu	a5,7(s2)
 1549 1160 93978703 		slli	a5,a5,56
 1550 1164 B3E7E700 		or	a5,a5,a4
 117:src/heapManager.cpp ****             pFree->pNext->pPrev = pFree->pPrev;
 1551              		.loc 1 117 9
 1552 1168 638A070E 		beqz	a5,.L42
 118:src/heapManager.cpp ****         }else{
 1553              		.loc 1 118 13 is_stmt 1
 118:src/heapManager.cpp ****         }else{
 1554              		.loc 1 118 42 is_stmt 0
 1555 116c 03478900 		lbu	a4,8(s2)
 1556 1170 83469900 		lbu	a3,9(s2)
 1557 1174 93968600 		slli	a3,a3,8
 1558 1178 33E7E600 		or	a4,a3,a4
 1559 117c 8346A900 		lbu	a3,10(s2)
 1560 1180 93960601 		slli	a3,a3,16
 1561 1184 B3E6E600 		or	a3,a3,a4
 1562 1188 0347B900 		lbu	a4,11(s2)
 1563 118c 13178701 		slli	a4,a4,24
 1564 1190 B366D700 		or	a3,a4,a3
 1565 1194 0347C900 		lbu	a4,12(s2)
 1566 1198 13170702 		slli	a4,a4,32
 1567 119c 3367D700 		or	a4,a4,a3
 1568 11a0 8346D900 		lbu	a3,13(s2)
 1569 11a4 93968602 		slli	a3,a3,40
 1570 11a8 33E7E600 		or	a4,a3,a4
 1571 11ac 8346E900 		lbu	a3,14(s2)
 1572 11b0 93960603 		slli	a3,a3,48
 1573 11b4 B3E6E600 		or	a3,a3,a4
 1574 11b8 0347F900 		lbu	a4,15(s2)
 1575 11bc 13178703 		slli	a4,a4,56
 1576 11c0 3367D700 		or	a4,a4,a3
 118:src/heapManager.cpp ****         }else{
 1577              		.loc 1 118 33
 1578 11c4 2384D700 		sb	a3,8(a5)
 1579 11c8 93568700 		srli	a3,a4,8
 1580 11cc A384D700 		sb	a3,9(a5)
 1581 11d0 93560701 		srli	a3,a4,16
 1582 11d4 2385D700 		sb	a3,10(a5)
 1583 11d8 9B568701 		srliw	a3,a4,24
 1584 11dc A385D700 		sb	a3,11(a5)
 1585 11e0 93560702 		srli	a3,a4,32
 1586 11e4 2386D700 		sb	a3,12(a5)
GAS LISTING /tmp/ccp2ZdEC.s 			page 33


 1587 11e8 93568702 		srli	a3,a4,40
 1588 11ec A386D700 		sb	a3,13(a5)
 1589 11f0 93560703 		srli	a3,a4,48
 1590 11f4 2387D700 		sb	a3,14(a5)
 1591 11f8 13578703 		srli	a4,a4,56
 1592 11fc A387E700 		sb	a4,15(a5)
 1593              	.L43:
 122:src/heapManager.cpp ****     }
 1594              		.loc 1 122 9 is_stmt 1
 122:src/heapManager.cpp ****     }
 1595              		.loc 1 122 15 is_stmt 0
 1596 1200 83498900 		lbu	s3,8(s2)
 1597 1204 83479900 		lbu	a5,9(s2)
 1598 1208 93978700 		slli	a5,a5,8
 1599 120c B3E73701 		or	a5,a5,s3
 1600 1210 8349A900 		lbu	s3,10(s2)
 1601 1214 93990901 		slli	s3,s3,16
 1602 1218 B3E7F900 		or	a5,s3,a5
 1603 121c 8349B900 		lbu	s3,11(s2)
 1604 1220 93998901 		slli	s3,s3,24
 1605 1224 B3E9F900 		or	s3,s3,a5
 1606 1228 8347C900 		lbu	a5,12(s2)
 1607 122c 93970702 		slli	a5,a5,32
 1608 1230 B3E93701 		or	s3,a5,s3
 1609 1234 8347D900 		lbu	a5,13(s2)
 1610 1238 93978702 		slli	a5,a5,40
 1611 123c B3E73701 		or	a5,a5,s3
 1612 1240 8349E900 		lbu	s3,14(s2)
 1613 1244 93990903 		slli	s3,s3,48
 1614 1248 B3E7F900 		or	a5,s3,a5
 1615 124c 8349F900 		lbu	s3,15(s2)
 1616 1250 93998903 		slli	s3,s3,56
 1617 1254 B3E9F900 		or	s3,s3,a5
 1618              	.LVL55:
 1619 1258 6FF0DFB8 		j	.L41
 1620              	.LVL56:
 1621              	.L42:
 120:src/heapManager.cpp ****         }
 1622              		.loc 1 120 13 is_stmt 1
 120:src/heapManager.cpp ****         }
 1623              		.loc 1 120 30 is_stmt 0
 1624 125c 03478900 		lbu	a4,8(s2)
 1625 1260 83479900 		lbu	a5,9(s2)
 1626 1264 93978700 		slli	a5,a5,8
 1627 1268 B3E7E700 		or	a5,a5,a4
 1628 126c 0347A900 		lbu	a4,10(s2)
 1629 1270 13170701 		slli	a4,a4,16
 1630 1274 3367F700 		or	a4,a4,a5
 1631 1278 8347B900 		lbu	a5,11(s2)
 1632 127c 93978701 		slli	a5,a5,24
 1633 1280 33E7E700 		or	a4,a5,a4
 1634 1284 8347C900 		lbu	a5,12(s2)
 1635 1288 93970702 		slli	a5,a5,32
 1636 128c B3E7E700 		or	a5,a5,a4
 1637 1290 0347D900 		lbu	a4,13(s2)
 1638 1294 13178702 		slli	a4,a4,40
 1639 1298 3367F700 		or	a4,a4,a5
GAS LISTING /tmp/ccp2ZdEC.s 			page 34


 1640 129c 8347E900 		lbu	a5,14(s2)
 1641 12a0 93970703 		slli	a5,a5,48
 1642 12a4 33E7E700 		or	a4,a5,a4
 1643 12a8 8347F900 		lbu	a5,15(s2)
 1644 12ac 93978703 		slli	a5,a5,56
 1645 12b0 B3E7E700 		or	a5,a5,a4
 120:src/heapManager.cpp ****         }
 1646              		.loc 1 120 21
 1647 12b4 23B4FA00 		sd	a5,8(s5)
 1648 12b8 6FF09FF4 		j	.L43
 1649              	.LVL57:
 1650              	.L52:
 126:src/heapManager.cpp ****         pFree->pNext = pFree->pNext->pNext;
 1651              		.loc 1 126 9 is_stmt 1
 126:src/heapManager.cpp ****         pFree->pNext = pFree->pNext->pNext;
 1652              		.loc 1 126 39 is_stmt 0
 1653 12bc 83C60701 		lbu	a3,16(a5)
 1654 12c0 03C61701 		lbu	a2,17(a5)
 1655 12c4 13168600 		slli	a2,a2,8
 1656 12c8 3366D600 		or	a2,a2,a3
 1657 12cc 83C62701 		lbu	a3,18(a5)
 1658 12d0 93960601 		slli	a3,a3,16
 1659 12d4 33E6C600 		or	a2,a3,a2
 1660 12d8 83C63701 		lbu	a3,19(a5)
 1661 12dc 93968601 		slli	a3,a3,24
 1662 12e0 B3E6C600 		or	a3,a3,a2
 1663 12e4 03C64701 		lbu	a2,20(a5)
 1664 12e8 13160602 		slli	a2,a2,32
 1665 12ec B366D600 		or	a3,a2,a3
 1666 12f0 03C65701 		lbu	a2,21(a5)
 1667 12f4 13168602 		slli	a2,a2,40
 1668 12f8 3366D600 		or	a2,a2,a3
 1669 12fc 83C66701 		lbu	a3,22(a5)
 1670 1300 93960603 		slli	a3,a3,48
 1671 1304 33E6C600 		or	a2,a3,a2
 1672 1308 83C67701 		lbu	a3,23(a5)
 1673 130c 93968603 		slli	a3,a3,56
 1674 1310 B3E6C600 		or	a3,a3,a2
 126:src/heapManager.cpp ****         pFree->pNext = pFree->pNext->pNext;
 1675              		.loc 1 126 22
 1676 1314 3307D700 		add	a4,a4,a3
 1677 1318 13071700 		addi	a4,a4,1
 1678 131c 2388E900 		sb	a4,16(s3)
 1679 1320 93568700 		srli	a3,a4,8
 1680 1324 A388D900 		sb	a3,17(s3)
 1681 1328 93560701 		srli	a3,a4,16
 1682 132c 2389D900 		sb	a3,18(s3)
 1683 1330 9B568701 		srliw	a3,a4,24
 1684 1334 A389D900 		sb	a3,19(s3)
 1685 1338 93560702 		srli	a3,a4,32
 1686 133c 238AD900 		sb	a3,20(s3)
 1687 1340 93568702 		srli	a3,a4,40
 1688 1344 A38AD900 		sb	a3,21(s3)
 1689 1348 93560703 		srli	a3,a4,48
 1690 134c 238BD900 		sb	a3,22(s3)
 1691 1350 13578703 		srli	a4,a4,56
 1692 1354 A38BE900 		sb	a4,23(s3)
GAS LISTING /tmp/ccp2ZdEC.s 			page 35


 127:src/heapManager.cpp ****         if(pFree->pNext != 0){
 1693              		.loc 1 127 9 is_stmt 1
 127:src/heapManager.cpp ****         if(pFree->pNext != 0){
 1694              		.loc 1 127 38 is_stmt 0
 1695 1358 83C60700 		lbu	a3,0(a5)
 1696 135c 03C71700 		lbu	a4,1(a5)
 1697 1360 13178700 		slli	a4,a4,8
 1698 1364 B366D700 		or	a3,a4,a3
 1699 1368 03C72700 		lbu	a4,2(a5)
 1700 136c 13170701 		slli	a4,a4,16
 1701 1370 3367D700 		or	a4,a4,a3
 1702 1374 83C63700 		lbu	a3,3(a5)
 1703 1378 93968601 		slli	a3,a3,24
 1704 137c 33E7E600 		or	a4,a3,a4
 1705 1380 83C64700 		lbu	a3,4(a5)
 1706 1384 93960602 		slli	a3,a3,32
 1707 1388 B3E6E600 		or	a3,a3,a4
 1708 138c 03C75700 		lbu	a4,5(a5)
 1709 1390 13178702 		slli	a4,a4,40
 1710 1394 B366D700 		or	a3,a4,a3
 1711 1398 03C76700 		lbu	a4,6(a5)
 1712 139c 13170703 		slli	a4,a4,48
 1713 13a0 3367D700 		or	a4,a4,a3
 1714 13a4 83C77700 		lbu	a5,7(a5)
 1715 13a8 93978703 		slli	a5,a5,56
 1716 13ac B3E7E700 		or	a5,a5,a4
 127:src/heapManager.cpp ****         if(pFree->pNext != 0){
 1717              		.loc 1 127 22
 1718 13b0 2380E900 		sb	a4,0(s3)
 1719 13b4 13D78700 		srli	a4,a5,8
 1720 13b8 A380E900 		sb	a4,1(s3)
 1721 13bc 13D70701 		srli	a4,a5,16
 1722 13c0 2381E900 		sb	a4,2(s3)
 1723 13c4 1BD78701 		srliw	a4,a5,24
 1724 13c8 A381E900 		sb	a4,3(s3)
 1725 13cc 13D70702 		srli	a4,a5,32
 1726 13d0 2382E900 		sb	a4,4(s3)
 1727 13d4 13D78702 		srli	a4,a5,40
 1728 13d8 A382E900 		sb	a4,5(s3)
 1729 13dc 13D70703 		srli	a4,a5,48
 1730 13e0 2383E900 		sb	a4,6(s3)
 1731 13e4 13D78703 		srli	a4,a5,56
 1732 13e8 A383E900 		sb	a4,7(s3)
 128:src/heapManager.cpp ****             pFree->pNext->pPrev = pFree;
 1733              		.loc 1 128 9 is_stmt 1
 1734 13ec 63820704 		beqz	a5,.L45
 129:src/heapManager.cpp ****         }else{
 1735              		.loc 1 129 13
 129:src/heapManager.cpp ****         }else{
 1736              		.loc 1 129 33 is_stmt 0
 1737 13f0 23843701 		sb	s3,8(a5)
 1738 13f4 13D78900 		srli	a4,s3,8
 1739 13f8 A384E700 		sb	a4,9(a5)
 1740 13fc 13D70901 		srli	a4,s3,16
 1741 1400 2385E700 		sb	a4,10(a5)
 1742 1404 1BD78901 		srliw	a4,s3,24
 1743 1408 A385E700 		sb	a4,11(a5)
GAS LISTING /tmp/ccp2ZdEC.s 			page 36


 1744 140c 13D70902 		srli	a4,s3,32
 1745 1410 2386E700 		sb	a4,12(a5)
 1746 1414 13D78902 		srli	a4,s3,40
 1747 1418 A386E700 		sb	a4,13(a5)
 1748 141c 13D70903 		srli	a4,s3,48
 1749 1420 2387E700 		sb	a4,14(a5)
 1750 1424 93D98903 		srli	s3,s3,56
 1751              	.LVL58:
 1752 1428 A3873701 		sb	s3,15(a5)
 1753 142c 6FF0DFA7 		j	.L44
 1754              	.LVL59:
 1755              	.L45:
 131:src/heapManager.cpp ****         }
 1756              		.loc 1 131 13 is_stmt 1
 131:src/heapManager.cpp ****         }
 1757              		.loc 1 131 21 is_stmt 0
 1758 1430 23B43A01 		sd	s3,8(s5)
 1759 1434 6FF05FA7 		j	.L44
 1760              		.cfi_endproc
 1761              	.LFE10:
 1763              		.globl	_ZN11HeapManager8instanceE
 1764              		.bss
 1765              		.align	3
 1766              		.set	.LANCHOR0,. + 0
 1769              	_ZN11HeapManager8instanceE:
 1770 0000 00000000 		.zero	8
 1770      00000000 
 1771              		.text
 1772              	.Letext0:
 1773              		.file 2 "./lib/hw.h"
 1774              		.file 3 "./h/types.h"
 1775              		.file 4 "./h/heapManager.h"
 1776              		.file 5 "./h/assert.h"
GAS LISTING /tmp/ccp2ZdEC.s 			page 37


DEFINED SYMBOLS
                            *ABS*:0000000000000000 heapManager.cpp
     /tmp/ccp2ZdEC.s:14     .text:0000000000000000 _ZN11HeapManagerC2Ev
     /tmp/ccp2ZdEC.s:18     .text:0000000000000000 .L0 
     /tmp/ccp2ZdEC.s:20     .text:0000000000000000 .L0 
     /tmp/ccp2ZdEC.s:21     .text:0000000000000004 .L0 
     /tmp/ccp2ZdEC.s:25     .text:0000000000000010 .L0 
     /tmp/ccp2ZdEC.s:26     .text:0000000000000010 .L0 
     /tmp/ccp2ZdEC.s:27     .text:0000000000000010 .L0 
     /tmp/ccp2ZdEC.s:29     .text:0000000000000014 .L0 
     /tmp/ccp2ZdEC.s:33     .text:0000000000000018 .L0 
     /tmp/ccp2ZdEC.s:38     .text:0000000000000024 .L0 
     /tmp/ccp2ZdEC.s:39     .text:0000000000000024 .L0 
     /tmp/ccp2ZdEC.s:40     .text:0000000000000024 .L0 
     /tmp/ccp2ZdEC.s:43     .text:000000000000002c .L0 
     /tmp/ccp2ZdEC.s:44     .text:0000000000000030 .L0 
     /tmp/ccp2ZdEC.s:45     .text:0000000000000030 .L0 
     /tmp/ccp2ZdEC.s:47     .text:0000000000000034 .L0 
     /tmp/ccp2ZdEC.s:48     .text:0000000000000034 .L0 
     /tmp/ccp2ZdEC.s:50     .text:0000000000000038 .L0 
     /tmp/ccp2ZdEC.s:53     .text:000000000000003c .L0 
     /tmp/ccp2ZdEC.s:57     .text:0000000000000040 .L0 
     /tmp/ccp2ZdEC.s:60     .text:0000000000000040 .L0 
     /tmp/ccp2ZdEC.s:66     .text:0000000000000058 .L0 
     /tmp/ccp2ZdEC.s:14     .text:0000000000000000 _ZN11HeapManagerC1Ev
     /tmp/ccp2ZdEC.s:74     .text:0000000000000058 _ZN11HeapManagerD2Ev
     /tmp/ccp2ZdEC.s:77     .text:0000000000000058 .L0 
     /tmp/ccp2ZdEC.s:79     .text:0000000000000058 .L0 
     /tmp/ccp2ZdEC.s:80     .text:000000000000005c .L0 
     /tmp/ccp2ZdEC.s:82     .text:0000000000000060 .L0 
     /tmp/ccp2ZdEC.s:84     .text:0000000000000064 .L0 
     /tmp/ccp2ZdEC.s:86     .text:0000000000000064 .L0 
     /tmp/ccp2ZdEC.s:87     .text:0000000000000068 .L0 
     /tmp/ccp2ZdEC.s:88     .text:0000000000000068 .L0 
     /tmp/ccp2ZdEC.s:90     .text:000000000000006c .L0 
     /tmp/ccp2ZdEC.s:92     .text:0000000000000070 .L0 
     /tmp/ccp2ZdEC.s:74     .text:0000000000000058 _ZN11HeapManagerD1Ev
     /tmp/ccp2ZdEC.s:100    .text:0000000000000070 _ZN11HeapManager4initEmm
     /tmp/ccp2ZdEC.s:103    .text:0000000000000070 .L0 
     /tmp/ccp2ZdEC.s:105    .text:0000000000000070 .L0 
     /tmp/ccp2ZdEC.s:106    .text:0000000000000074 .L0 
     /tmp/ccp2ZdEC.s:112    .text:0000000000000088 .L0 
     /tmp/ccp2ZdEC.s:113    .text:0000000000000088 .L0 
     /tmp/ccp2ZdEC.s:114    .text:0000000000000088 .L0 
     /tmp/ccp2ZdEC.s:115    .text:0000000000000088 .L0 
     /tmp/ccp2ZdEC.s:116    .text:0000000000000088 .L0 
     /tmp/ccp2ZdEC.s:118    .text:000000000000008c .L0 
     /tmp/ccp2ZdEC.s:122    .text:0000000000000094 .L0 
     /tmp/ccp2ZdEC.s:128    .text:00000000000000a0 .L0 
     /tmp/ccp2ZdEC.s:129    .text:00000000000000a0 .L0 
     /tmp/ccp2ZdEC.s:130    .text:00000000000000a0 .L0 
     /tmp/ccp2ZdEC.s:132    .text:00000000000000a4 .L0 
     /tmp/ccp2ZdEC.s:133    .text:00000000000000a4 .L0 
     /tmp/ccp2ZdEC.s:141    .text:00000000000000c0 .L0 
     /tmp/ccp2ZdEC.s:142    .text:00000000000000c0 .L0 
     /tmp/ccp2ZdEC.s:144    .text:00000000000000c4 .L0 
     /tmp/ccp2ZdEC.s:146    .text:00000000000000c8 .L0 
GAS LISTING /tmp/ccp2ZdEC.s 			page 38


     /tmp/ccp2ZdEC.s:148    .text:00000000000000cc .L0 
     /tmp/ccp2ZdEC.s:164    .text:0000000000000108 .L0 
     /tmp/ccp2ZdEC.s:166    .text:000000000000010c .L0 
     /tmp/ccp2ZdEC.s:175    .text:000000000000012c .L0 
     /tmp/ccp2ZdEC.s:177    .text:0000000000000130 .L0 
     /tmp/ccp2ZdEC.s:186    .text:0000000000000150 .L0 
     /tmp/ccp2ZdEC.s:187    .text:0000000000000150 .L0 
     /tmp/ccp2ZdEC.s:189    .text:0000000000000154 .L0 
     /tmp/ccp2ZdEC.s:191    .text:0000000000000158 .L0 
     /tmp/ccp2ZdEC.s:192    .text:000000000000015c .L0 
     /tmp/ccp2ZdEC.s:193    .text:000000000000015c .L0 
     /tmp/ccp2ZdEC.s:195    .text:0000000000000160 .L0 
     /tmp/ccp2ZdEC.s:196    .text:0000000000000160 .L0 
     /tmp/ccp2ZdEC.s:198    .text:0000000000000164 .L0 
     /tmp/ccp2ZdEC.s:200    .text:0000000000000168 .L0 
     /tmp/ccp2ZdEC.s:203    .text:000000000000016c .L0 
     /tmp/ccp2ZdEC.s:206    .text:0000000000000170 .L0 
     /tmp/ccp2ZdEC.s:210    .text:0000000000000174 .L0 
     /tmp/ccp2ZdEC.s:212    .text:0000000000000174 .L0 
     /tmp/ccp2ZdEC.s:219    .text:000000000000018c .L0 
     /tmp/ccp2ZdEC.s:225    .text:000000000000018c _ZN11HeapManager17getHeapFreeMemoryEv
     /tmp/ccp2ZdEC.s:228    .text:000000000000018c .L0 
     /tmp/ccp2ZdEC.s:230    .text:000000000000018c .L0 
     /tmp/ccp2ZdEC.s:231    .text:0000000000000190 .L0 
     /tmp/ccp2ZdEC.s:236    .text:00000000000001a0 .L0 
     /tmp/ccp2ZdEC.s:237    .text:00000000000001a0 .L0 
     /tmp/ccp2ZdEC.s:238    .text:00000000000001a0 .L0 
     /tmp/ccp2ZdEC.s:239    .text:00000000000001a0 .L0 
     /tmp/ccp2ZdEC.s:241    .text:00000000000001a4 .L0 
     /tmp/ccp2ZdEC.s:244    .text:00000000000001a4 .L0 
     /tmp/ccp2ZdEC.s:245    .text:00000000000001a4 .L0 
     /tmp/ccp2ZdEC.s:246    .text:00000000000001a4 .L0 
     /tmp/ccp2ZdEC.s:249    .text:00000000000001a8 .L0 
     /tmp/ccp2ZdEC.s:254    .text:00000000000001b0 .L0 
     /tmp/ccp2ZdEC.s:255    .text:00000000000001b0 .L0 
     /tmp/ccp2ZdEC.s:256    .text:00000000000001b0 .L0 
     /tmp/ccp2ZdEC.s:279    .text:0000000000000208 .L0 
     /tmp/ccp2ZdEC.s:282    .text:000000000000020c .L0 
     /tmp/ccp2ZdEC.s:283    .text:000000000000020c .L0 
     /tmp/ccp2ZdEC.s:309    .text:0000000000000264 .L0 
     /tmp/ccp2ZdEC.s:310    .text:0000000000000264 .L0 
     /tmp/ccp2ZdEC.s:312    .text:0000000000000268 .L0 
     /tmp/ccp2ZdEC.s:327    .text:00000000000002a0 .L0 
     /tmp/ccp2ZdEC.s:334    .text:00000000000002b8 .L0 
     /tmp/ccp2ZdEC.s:336    .text:00000000000002c0 .L0 
     /tmp/ccp2ZdEC.s:338    .text:00000000000002c4 .L0 
     /tmp/ccp2ZdEC.s:339    .text:00000000000002c4 .L0 
     /tmp/ccp2ZdEC.s:341    .text:00000000000002c8 .L0 
     /tmp/ccp2ZdEC.s:344    .text:00000000000002cc .L0 
     /tmp/ccp2ZdEC.s:347    .text:00000000000002d0 .L0 
     /tmp/ccp2ZdEC.s:349    .text:00000000000002d4 .L0 
     /tmp/ccp2ZdEC.s:355    .text:00000000000002d4 _ZN11HeapManager12heapAllocateEm
     /tmp/ccp2ZdEC.s:358    .text:00000000000002d4 .L0 
     /tmp/ccp2ZdEC.s:360    .text:00000000000002d4 .L0 
     /tmp/ccp2ZdEC.s:361    .text:00000000000002d8 .L0 
     /tmp/ccp2ZdEC.s:367    .text:00000000000002ec .L0 
     /tmp/ccp2ZdEC.s:368    .text:00000000000002ec .L0 
GAS LISTING /tmp/ccp2ZdEC.s 			page 39


     /tmp/ccp2ZdEC.s:369    .text:00000000000002ec .L0 
     /tmp/ccp2ZdEC.s:370    .text:00000000000002ec .L0 
     /tmp/ccp2ZdEC.s:371    .text:00000000000002ec .L0 
     /tmp/ccp2ZdEC.s:373    .text:00000000000002f0 .L0 
     /tmp/ccp2ZdEC.s:377    .text:00000000000002f8 .L0 
     /tmp/ccp2ZdEC.s:378    .text:00000000000002f8 .L0 
     /tmp/ccp2ZdEC.s:385    .text:0000000000000300 .L0 
     /tmp/ccp2ZdEC.s:387    .text:0000000000000300 .L0 
     /tmp/ccp2ZdEC.s:388    .text:0000000000000300 .L0 
     /tmp/ccp2ZdEC.s:411    .text:0000000000000358 .L0 
     /tmp/ccp2ZdEC.s:414    .text:000000000000035c .L0 
     /tmp/ccp2ZdEC.s:415    .text:000000000000035c .L0 
     /tmp/ccp2ZdEC.s:442    .text:00000000000003b4 .L0 
     /tmp/ccp2ZdEC.s:443    .text:00000000000003b4 .L0 
     /tmp/ccp2ZdEC.s:446    .text:00000000000003b8 .L0 
     /tmp/ccp2ZdEC.s:461    .text:00000000000003f0 .L0 
     /tmp/ccp2ZdEC.s:471    .text:0000000000000408 .L0 
     /tmp/ccp2ZdEC.s:472    .text:0000000000000408 .L0 
     /tmp/ccp2ZdEC.s:474    .text:000000000000040c .L0 
     /tmp/ccp2ZdEC.s:477    .text:0000000000000410 .L0 
     /tmp/ccp2ZdEC.s:478    .text:0000000000000410 .L0 
     /tmp/ccp2ZdEC.s:480    .text:0000000000000414 .L0 
     /tmp/ccp2ZdEC.s:483    .text:0000000000000418 .L0 
     /tmp/ccp2ZdEC.s:484    .text:0000000000000418 .L0 
     /tmp/ccp2ZdEC.s:492    .text:0000000000000434 .L0 
     /tmp/ccp2ZdEC.s:493    .text:0000000000000434 .L0 
     /tmp/ccp2ZdEC.s:516    .text:000000000000048c .L0 
     /tmp/ccp2ZdEC.s:518    .text:0000000000000490 .L0 
     /tmp/ccp2ZdEC.s:520    .text:0000000000000494 .L0 
     /tmp/ccp2ZdEC.s:536    .text:00000000000004d0 .L0 
     /tmp/ccp2ZdEC.s:537    .text:00000000000004d0 .L0 
     /tmp/ccp2ZdEC.s:560    .text:0000000000000528 .L0 
     /tmp/ccp2ZdEC.s:576    .text:0000000000000564 .L0 
     /tmp/ccp2ZdEC.s:577    .text:0000000000000564 .L0 
     /tmp/ccp2ZdEC.s:593    .text:00000000000005a0 .L0 
     /tmp/ccp2ZdEC.s:594    .text:00000000000005a0 .L0 
     /tmp/ccp2ZdEC.s:617    .text:00000000000005f8 .L0 
     /tmp/ccp2ZdEC.s:619    .text:00000000000005fc .L0 
     /tmp/ccp2ZdEC.s:620    .text:00000000000005fc .L0 
     /tmp/ccp2ZdEC.s:637    .text:0000000000000638 .L0 
     /tmp/ccp2ZdEC.s:638    .text:0000000000000638 .L0 
     /tmp/ccp2ZdEC.s:655    .text:0000000000000674 .L0 
     /tmp/ccp2ZdEC.s:656    .text:0000000000000674 .L0 
     /tmp/ccp2ZdEC.s:677    .text:00000000000006b0 .L0 
     /tmp/ccp2ZdEC.s:678    .text:00000000000006b0 .L0 
     /tmp/ccp2ZdEC.s:680    .text:00000000000006b4 .L0 
     /tmp/ccp2ZdEC.s:683    .text:00000000000006b8 .L0 
     /tmp/ccp2ZdEC.s:684    .text:00000000000006b8 .L0 
     /tmp/ccp2ZdEC.s:686    .text:00000000000006bc .L0 
     /tmp/ccp2ZdEC.s:689    .text:00000000000006c0 .L0 
     /tmp/ccp2ZdEC.s:690    .text:00000000000006c0 .L0 
     /tmp/ccp2ZdEC.s:713    .text:0000000000000718 .L0 
     /tmp/ccp2ZdEC.s:715    .text:000000000000071c .L0 
     /tmp/ccp2ZdEC.s:716    .text:000000000000071c .L0 
     /tmp/ccp2ZdEC.s:739    .text:0000000000000774 .L0 
     /tmp/ccp2ZdEC.s:756    .text:00000000000007b0 .L0 
     /tmp/ccp2ZdEC.s:757    .text:00000000000007b0 .L0 
GAS LISTING /tmp/ccp2ZdEC.s 			page 40


     /tmp/ccp2ZdEC.s:780    .text:0000000000000808 .L0 
     /tmp/ccp2ZdEC.s:782    .text:000000000000080c .L0 
     /tmp/ccp2ZdEC.s:783    .text:000000000000080c .L0 
     /tmp/ccp2ZdEC.s:806    .text:0000000000000864 .L0 
     /tmp/ccp2ZdEC.s:823    .text:00000000000008a0 .L0 
     /tmp/ccp2ZdEC.s:824    .text:00000000000008a0 .L0 
     /tmp/ccp2ZdEC.s:831    .text:00000000000008a4 .L0 
     /tmp/ccp2ZdEC.s:833    .text:00000000000008ac .L0 
     /tmp/ccp2ZdEC.s:834    .text:00000000000008ac .L0 
     /tmp/ccp2ZdEC.s:836    .text:00000000000008b0 .L0 
     /tmp/ccp2ZdEC.s:837    .text:00000000000008b0 .L0 
     /tmp/ccp2ZdEC.s:839    .text:00000000000008b4 .L0 
     /tmp/ccp2ZdEC.s:841    .text:00000000000008b8 .L0 
     /tmp/ccp2ZdEC.s:843    .text:00000000000008bc .L0 
     /tmp/ccp2ZdEC.s:846    .text:00000000000008c0 .L0 
     /tmp/ccp2ZdEC.s:850    .text:00000000000008c4 .L0 
     /tmp/ccp2ZdEC.s:855    .text:00000000000008c4 .L0 
     /tmp/ccp2ZdEC.s:856    .text:00000000000008c4 .L0 
     /tmp/ccp2ZdEC.s:879    .text:000000000000091c .L0 
     /tmp/ccp2ZdEC.s:883    .text:0000000000000924 .L0 
     /tmp/ccp2ZdEC.s:884    .text:0000000000000924 .L0 
     /tmp/ccp2ZdEC.s:907    .text:000000000000097c .L0 
     /tmp/ccp2ZdEC.s:912    .text:0000000000000984 .L0 
     /tmp/ccp2ZdEC.s:918    .text:0000000000000984 _ZN11HeapManager8heapFreeEPv
     /tmp/ccp2ZdEC.s:921    .text:0000000000000984 .L0 
     /tmp/ccp2ZdEC.s:923    .text:0000000000000984 .L0 
     /tmp/ccp2ZdEC.s:924    .text:0000000000000988 .L0 
     /tmp/ccp2ZdEC.s:932    .text:00000000000009a4 .L0 
     /tmp/ccp2ZdEC.s:933    .text:00000000000009a4 .L0 
     /tmp/ccp2ZdEC.s:934    .text:00000000000009a4 .L0 
     /tmp/ccp2ZdEC.s:935    .text:00000000000009a4 .L0 
     /tmp/ccp2ZdEC.s:936    .text:00000000000009a4 .L0 
     /tmp/ccp2ZdEC.s:937    .text:00000000000009a4 .L0 
     /tmp/ccp2ZdEC.s:938    .text:00000000000009a4 .L0 
     /tmp/ccp2ZdEC.s:940    .text:00000000000009a8 .L0 
     /tmp/ccp2ZdEC.s:944    .text:00000000000009b0 .L0 
     /tmp/ccp2ZdEC.s:945    .text:00000000000009b0 .L0 
     /tmp/ccp2ZdEC.s:947    .text:00000000000009b4 .L0 
     /tmp/ccp2ZdEC.s:950    .text:00000000000009b8 .L0 
     /tmp/ccp2ZdEC.s:967    .text:00000000000009f0 .L0 
     /tmp/ccp2ZdEC.s:968    .text:00000000000009f0 .L0 
     /tmp/ccp2ZdEC.s:969    .text:00000000000009f0 .L0 
     /tmp/ccp2ZdEC.s:975    .text:00000000000009f8 .L0 
     /tmp/ccp2ZdEC.s:985    .text:0000000000000a10 .L0 
     /tmp/ccp2ZdEC.s:986    .text:0000000000000a10 .L0 
     /tmp/ccp2ZdEC.s:987    .text:0000000000000a10 .L0 
     /tmp/ccp2ZdEC.s:1013   .text:0000000000000a68 .L0 
     /tmp/ccp2ZdEC.s:1014   .text:0000000000000a68 .L0 
     /tmp/ccp2ZdEC.s:1016   .text:0000000000000a6c .L0 
     /tmp/ccp2ZdEC.s:1018   .text:0000000000000a70 .L0 
     /tmp/ccp2ZdEC.s:1033   .text:0000000000000aa8 .L0 
     /tmp/ccp2ZdEC.s:1040   .text:0000000000000ac0 .L0 
     /tmp/ccp2ZdEC.s:1042   .text:0000000000000ac4 .L0 
     /tmp/ccp2ZdEC.s:1043   .text:0000000000000ac4 .L0 
     /tmp/ccp2ZdEC.s:1066   .text:0000000000000b1c .L0 
     /tmp/ccp2ZdEC.s:1082   .text:0000000000000b58 .L0 
     /tmp/ccp2ZdEC.s:1083   .text:0000000000000b58 .L0 
GAS LISTING /tmp/ccp2ZdEC.s 			page 41


     /tmp/ccp2ZdEC.s:1099   .text:0000000000000b94 .L0 
     /tmp/ccp2ZdEC.s:1100   .text:0000000000000b94 .L0 
     /tmp/ccp2ZdEC.s:1123   .text:0000000000000bec .L0 
     /tmp/ccp2ZdEC.s:1125   .text:0000000000000bf0 .L0 
     /tmp/ccp2ZdEC.s:1126   .text:0000000000000bf0 .L0 
     /tmp/ccp2ZdEC.s:1143   .text:0000000000000c2c .L0 
     /tmp/ccp2ZdEC.s:1144   .text:0000000000000c2c .L0 
     /tmp/ccp2ZdEC.s:1161   .text:0000000000000c68 .L0 
     /tmp/ccp2ZdEC.s:1162   .text:0000000000000c68 .L0 
     /tmp/ccp2ZdEC.s:1185   .text:0000000000000cc0 .L0 
     /tmp/ccp2ZdEC.s:1188   .text:0000000000000cc4 .L0 
     /tmp/ccp2ZdEC.s:1189   .text:0000000000000cc4 .L0 
     /tmp/ccp2ZdEC.s:1212   .text:0000000000000d1c .L0 
     /tmp/ccp2ZdEC.s:1215   .text:0000000000000d20 .L0 
     /tmp/ccp2ZdEC.s:1216   .text:0000000000000d20 .L0 
     /tmp/ccp2ZdEC.s:1239   .text:0000000000000d78 .L0 
     /tmp/ccp2ZdEC.s:1241   .text:0000000000000d7c .L0 
     /tmp/ccp2ZdEC.s:1264   .text:0000000000000dd4 .L0 
     /tmp/ccp2ZdEC.s:1266   .text:0000000000000dd8 .L0 
     /tmp/ccp2ZdEC.s:1268   .text:0000000000000ddc .L0 
     /tmp/ccp2ZdEC.s:1270   .text:0000000000000de0 .L0 
     /tmp/ccp2ZdEC.s:1274   .text:0000000000000de4 .L0 
     /tmp/ccp2ZdEC.s:1275   .text:0000000000000de4 .L0 
     /tmp/ccp2ZdEC.s:1298   .text:0000000000000e3c .L0 
     /tmp/ccp2ZdEC.s:1300   .text:0000000000000e40 .L0 
     /tmp/ccp2ZdEC.s:1323   .text:0000000000000e98 .L0 
     /tmp/ccp2ZdEC.s:1325   .text:0000000000000e9c .L0 
     /tmp/ccp2ZdEC.s:1327   .text:0000000000000ea0 .L0 
     /tmp/ccp2ZdEC.s:1329   .text:0000000000000ea4 .L0 
     /tmp/ccp2ZdEC.s:1333   .text:0000000000000ea8 .L0 
     /tmp/ccp2ZdEC.s:1334   .text:0000000000000ea8 .L0 
     /tmp/ccp2ZdEC.s:1336   .text:0000000000000eb0 .L0 
     /tmp/ccp2ZdEC.s:1337   .text:0000000000000eb0 .L0 
     /tmp/ccp2ZdEC.s:1339   .text:0000000000000eb4 .L0 
     /tmp/ccp2ZdEC.s:1340   .text:0000000000000eb4 .L0 
     /tmp/ccp2ZdEC.s:1342   .text:0000000000000eb8 .L0 
     /tmp/ccp2ZdEC.s:1345   .text:0000000000000ebc .L0 
     /tmp/ccp2ZdEC.s:1347   .text:0000000000000ec0 .L0 
     /tmp/ccp2ZdEC.s:1349   .text:0000000000000ec4 .L0 
     /tmp/ccp2ZdEC.s:1352   .text:0000000000000ec8 .L0 
     /tmp/ccp2ZdEC.s:1355   .text:0000000000000ecc .L0 
     /tmp/ccp2ZdEC.s:1359   .text:0000000000000ed0 .L0 
     /tmp/ccp2ZdEC.s:1361   .text:0000000000000ed0 .L0 
     /tmp/ccp2ZdEC.s:1362   .text:0000000000000ed0 .L0 
     /tmp/ccp2ZdEC.s:1364   .text:0000000000000ed4 .L0 
     /tmp/ccp2ZdEC.s:1380   .text:0000000000000f10 .L0 
     /tmp/ccp2ZdEC.s:1381   .text:0000000000000f10 .L0 
     /tmp/ccp2ZdEC.s:1390   .text:0000000000000f30 .L0 
     /tmp/ccp2ZdEC.s:1392   .text:0000000000000f34 .L0 
     /tmp/ccp2ZdEC.s:1408   .text:0000000000000f70 .L0 
     /tmp/ccp2ZdEC.s:1409   .text:0000000000000f70 .L0 
     /tmp/ccp2ZdEC.s:1413   .text:0000000000000f78 .L0 
     /tmp/ccp2ZdEC.s:1414   .text:0000000000000f78 .L0 
     /tmp/ccp2ZdEC.s:1418   .text:0000000000000f80 .L0 
     /tmp/ccp2ZdEC.s:1419   .text:0000000000000f80 .L0 
     /tmp/ccp2ZdEC.s:1423   .text:0000000000000f88 .L0 
     /tmp/ccp2ZdEC.s:1424   .text:0000000000000f88 .L0 
GAS LISTING /tmp/ccp2ZdEC.s 			page 42


     /tmp/ccp2ZdEC.s:1447   .text:0000000000000fe0 .L0 
     /tmp/ccp2ZdEC.s:1465   .text:0000000000001024 .L0 
     /tmp/ccp2ZdEC.s:1466   .text:0000000000001024 .L0 
     /tmp/ccp2ZdEC.s:1489   .text:000000000000107c .L0 
     /tmp/ccp2ZdEC.s:1512   .text:00000000000010d4 .L0 
     /tmp/ccp2ZdEC.s:1528   .text:0000000000001110 .L0 
     /tmp/ccp2ZdEC.s:1529   .text:0000000000001110 .L0 
     /tmp/ccp2ZdEC.s:1552   .text:0000000000001168 .L0 
     /tmp/ccp2ZdEC.s:1554   .text:000000000000116c .L0 
     /tmp/ccp2ZdEC.s:1555   .text:000000000000116c .L0 
     /tmp/ccp2ZdEC.s:1578   .text:00000000000011c4 .L0 
     /tmp/ccp2ZdEC.s:1595   .text:0000000000001200 .L0 
     /tmp/ccp2ZdEC.s:1596   .text:0000000000001200 .L0 
     /tmp/ccp2ZdEC.s:1623   .text:000000000000125c .L0 
     /tmp/ccp2ZdEC.s:1624   .text:000000000000125c .L0 
     /tmp/ccp2ZdEC.s:1647   .text:00000000000012b4 .L0 
     /tmp/ccp2ZdEC.s:1652   .text:00000000000012bc .L0 
     /tmp/ccp2ZdEC.s:1653   .text:00000000000012bc .L0 
     /tmp/ccp2ZdEC.s:1676   .text:0000000000001314 .L0 
     /tmp/ccp2ZdEC.s:1694   .text:0000000000001358 .L0 
     /tmp/ccp2ZdEC.s:1695   .text:0000000000001358 .L0 
     /tmp/ccp2ZdEC.s:1718   .text:00000000000013b0 .L0 
     /tmp/ccp2ZdEC.s:1734   .text:00000000000013ec .L0 
     /tmp/ccp2ZdEC.s:1736   .text:00000000000013f0 .L0 
     /tmp/ccp2ZdEC.s:1737   .text:00000000000013f0 .L0 
     /tmp/ccp2ZdEC.s:1757   .text:0000000000001430 .L0 
     /tmp/ccp2ZdEC.s:1758   .text:0000000000001430 .L0 
     /tmp/ccp2ZdEC.s:1760   .text:0000000000001438 .L0 
     /tmp/ccp2ZdEC.s:1769   .bss:0000000000000000 _ZN11HeapManager8instanceE
     /tmp/ccp2ZdEC.s:1766   .bss:0000000000000000 .LANCHOR0
     /tmp/ccp2ZdEC.s:1777   .text:0000000000001438 .L0 
     /tmp/ccp2ZdEC.s:33     .text:0000000000000018 .L0 
     /tmp/ccp2ZdEC.s:40     .text:0000000000000024 .L0 
     /tmp/ccp2ZdEC.s:8      .rodata.str1.8:0000000000000000 .LC0
     /tmp/ccp2ZdEC.s:61     .text:0000000000000044 .L0 
     /tmp/ccp2ZdEC.s:214    .text:0000000000000178 .L0 
     /tmp/ccp2ZdEC.s:328    .text:00000000000002a4 .L0 
     /tmp/ccp2ZdEC.s:462    .text:00000000000003f4 .L0 
     /tmp/ccp2ZdEC.s:977    .text:00000000000009fc .L0 
     /tmp/ccp2ZdEC.s:1034   .text:0000000000000aac .L0 
     /tmp/ccp2ZdEC.s:56     .text:0000000000000040 .L4
     /tmp/ccp2ZdEC.s:36     .text:0000000000000024 .L2
     /tmp/ccp2ZdEC.s:209    .text:0000000000000174 .L10
     /tmp/ccp2ZdEC.s:126    .text:00000000000000a0 .L8
     /tmp/ccp2ZdEC.s:307    .text:0000000000000264 .L14
     /tmp/ccp2ZdEC.s:332    .text:00000000000002b8 .L11
     /tmp/ccp2ZdEC.s:252    .text:00000000000001b0 .L13
     /tmp/ccp2ZdEC.s:439    .text:00000000000003b4 .L26
     /tmp/ccp2ZdEC.s:466    .text:0000000000000408 .L28
     /tmp/ccp2ZdEC.s:826    .text:00000000000008a4 .L16
     /tmp/ccp2ZdEC.s:382    .text:0000000000000300 .L18
     /tmp/ccp2ZdEC.s:673    .text:00000000000006b0 .L20
     /tmp/ccp2ZdEC.s:635    .text:0000000000000638 .L21
     /tmp/ccp2ZdEC.s:849    .text:00000000000008c4 .L29
     /tmp/ccp2ZdEC.s:881    .text:0000000000000924 .L30
     /tmp/ccp2ZdEC.s:754    .text:00000000000007b0 .L24
     /tmp/ccp2ZdEC.s:821    .text:00000000000008a0 .L25
GAS LISTING /tmp/ccp2ZdEC.s 			page 43


     /tmp/ccp2ZdEC.s:681    .text:00000000000006b8 .L22
     /tmp/ccp2ZdEC.s:687    .text:00000000000006c0 .L23
     /tmp/ccp2ZdEC.s:973    .text:00000000000009f8 .L47
     /tmp/ccp2ZdEC.s:1011   .text:0000000000000a68 .L35
     /tmp/ccp2ZdEC.s:965    .text:00000000000009f0 .L32
     /tmp/ccp2ZdEC.s:1038   .text:0000000000000ac0 .L33
     /tmp/ccp2ZdEC.s:983    .text:0000000000000a10 .L34
     /tmp/ccp2ZdEC.s:1358   .text:0000000000000ed0 .L48
     /tmp/ccp2ZdEC.s:1141   .text:0000000000000c2c .L38
     /tmp/ccp2ZdEC.s:1411   .text:0000000000000f78 .L49
     /tmp/ccp2ZdEC.s:1416   .text:0000000000000f80 .L50
     /tmp/ccp2ZdEC.s:1272   .text:0000000000000de4 .L41
     /tmp/ccp2ZdEC.s:1421   .text:0000000000000f88 .L51
     /tmp/ccp2ZdEC.s:1331   .text:0000000000000ea8 .L44
     /tmp/ccp2ZdEC.s:1650   .text:00000000000012bc .L52
     /tmp/ccp2ZdEC.s:1159   .text:0000000000000c68 .L37
     /tmp/ccp2ZdEC.s:1186   .text:0000000000000cc4 .L39
     /tmp/ccp2ZdEC.s:1213   .text:0000000000000d20 .L40
     /tmp/ccp2ZdEC.s:1621   .text:000000000000125c .L42
     /tmp/ccp2ZdEC.s:1593   .text:0000000000001200 .L43
     /tmp/ccp2ZdEC.s:1755   .text:0000000000001430 .L45
     /tmp/ccp2ZdEC.s:2392   .debug_abbrev:0000000000000000 .Ldebug_abbrev0
     /tmp/ccp2ZdEC.s:3378   .debug_str:00000000000001f1 .LASF49
     /tmp/ccp2ZdEC.s:3348   .debug_str:00000000000000e5 .LASF50
     /tmp/ccp2ZdEC.s:3394   .debug_str:0000000000000301 .LASF51
     /tmp/ccp2ZdEC.s:5      .text:0000000000000000 .Ltext0
     /tmp/ccp2ZdEC.s:1772   .text:0000000000001438 .Letext0
     /tmp/ccp2ZdEC.s:3312   .debug_line:0000000000000000 .Ldebug_line0
     /tmp/ccp2ZdEC.s:3392   .debug_str:00000000000002f4 .LASF0
     /tmp/ccp2ZdEC.s:3370   .debug_str:00000000000001c1 .LASF1
     /tmp/ccp2ZdEC.s:3358   .debug_str:0000000000000148 .LASF2
     /tmp/ccp2ZdEC.s:3386   .debug_str:00000000000002d6 .LASF3
     /tmp/ccp2ZdEC.s:3330   .debug_str:0000000000000071 .LASF4
     /tmp/ccp2ZdEC.s:3368   .debug_str:00000000000001af .LASF5
     /tmp/ccp2ZdEC.s:3320   .debug_str:0000000000000034 .LASF6
     /tmp/ccp2ZdEC.s:3318   .debug_str:0000000000000021 .LASF7
     /tmp/ccp2ZdEC.s:3352   .debug_str:000000000000011a .LASF8
     /tmp/ccp2ZdEC.s:3396   .debug_str:000000000000030e .LASF9
     /tmp/ccp2ZdEC.s:3328   .debug_str:0000000000000063 .LASF10
     /tmp/ccp2ZdEC.s:3430   .debug_str:0000000000000407 .LASF11
     /tmp/ccp2ZdEC.s:3354   .debug_str:000000000000012d .LASF12
     /tmp/ccp2ZdEC.s:3420   .debug_str:00000000000003be .LASF13
     /tmp/ccp2ZdEC.s:3408   .debug_str:0000000000000371 .LASF14
     /tmp/ccp2ZdEC.s:3374   .debug_str:00000000000001dd .LASF15
     /tmp/ccp2ZdEC.s:3342   .debug_str:00000000000000a1 .LASF16
     /tmp/ccp2ZdEC.s:3402   .debug_str:000000000000033a .LASF17
     /tmp/ccp2ZdEC.s:3326   .debug_str:0000000000000059 .LASF18
     /tmp/ccp2ZdEC.s:3356   .debug_str:000000000000013c .LASF23
     /tmp/ccp2ZdEC.s:3360   .debug_str:0000000000000156 .LASF52
     /tmp/ccp2ZdEC.s:3314   .debug_str:0000000000000000 .LASF19
     /tmp/ccp2ZdEC.s:3426   .debug_str:00000000000003f4 .LASF20
     /tmp/ccp2ZdEC.s:3422   .debug_str:00000000000003ce .LASF21
     /tmp/ccp2ZdEC.s:3336   .debug_str:000000000000008a .LASF22
     /tmp/ccp2ZdEC.s:3406   .debug_str:000000000000035c .LASF25
     /tmp/ccp2ZdEC.s:3428   .debug_str:00000000000003fa .LASF24
     /tmp/ccp2ZdEC.s:3380   .debug_str:00000000000002b5 .LASF26
     /tmp/ccp2ZdEC.s:3340   .debug_str:000000000000009c .LASF27
GAS LISTING /tmp/ccp2ZdEC.s 			page 44


     /tmp/ccp2ZdEC.s:3346   .debug_str:00000000000000cc .LASF28
     /tmp/ccp2ZdEC.s:3324   .debug_str:0000000000000047 .LASF29
     /tmp/ccp2ZdEC.s:3366   .debug_str:0000000000000189 .LASF31
     /tmp/ccp2ZdEC.s:3334   .debug_str:000000000000007d .LASF30
     /tmp/ccp2ZdEC.s:3350   .debug_str:00000000000000f9 .LASF32
     /tmp/ccp2ZdEC.s:3338   .debug_str:0000000000000093 .LASF33
     /tmp/ccp2ZdEC.s:3418   .debug_str:00000000000003a1 .LASF34
     /tmp/ccp2ZdEC.s:3404   .debug_str:0000000000000350 .LASF53
     /tmp/ccp2ZdEC.s:3424   .debug_str:00000000000003d4 .LASF54
     /tmp/ccp2ZdEC.s:3364   .debug_str:0000000000000181 .LASF35
     /tmp/ccp2ZdEC.s:3414   .debug_str:000000000000038f .LASF36
     /tmp/ccp2ZdEC.s:3410   .debug_str:0000000000000381 .LASF55
     /tmp/ccp2ZdEC.s:3316   .debug_str:0000000000000006 .LASF56
     /tmp/ccp2ZdEC.s:919    .text:0000000000000984 .LFB10
     /tmp/ccp2ZdEC.s:1761   .text:0000000000001438 .LFE10
     /tmp/ccp2ZdEC.s:3332   .debug_str:0000000000000078 .LASF39
     /tmp/ccp2ZdEC.s:2964   .debug_loc:0000000000000000 .LLST11
     /tmp/ccp2ZdEC.s:3372   .debug_str:00000000000001d4 .LASF40
     /tmp/ccp2ZdEC.s:2994   .debug_loc:0000000000000085 .LLST12
     /tmp/ccp2ZdEC.s:3400   .debug_str:0000000000000334 .LASF37
     /tmp/ccp2ZdEC.s:3024   .debug_loc:000000000000010a .LLST13
     /tmp/ccp2ZdEC.s:3376   .debug_str:00000000000001e9 .LASF38
     /tmp/ccp2ZdEC.s:3055   .debug_loc:000000000000019f .LLST14
     /tmp/ccp2ZdEC.s:980    .text:0000000000000a0c .LVL44
     /tmp/ccp2ZdEC.s:1036   .text:0000000000000abc .LVL48
     /tmp/ccp2ZdEC.s:356    .text:00000000000002d4 .LFB9
     /tmp/ccp2ZdEC.s:913    .text:0000000000000984 .LFE9
     /tmp/ccp2ZdEC.s:3074   .debug_loc:00000000000001fb .LLST7
     /tmp/ccp2ZdEC.s:3096   .debug_loc:000000000000025a .LLST8
     /tmp/ccp2ZdEC.s:3390   .debug_str:00000000000002eb .LASF41
     /tmp/ccp2ZdEC.s:3114   .debug_loc:00000000000002a6 .LLST9
     /tmp/ccp2ZdEC.s:475    .text:0000000000000410 .LBB8
     /tmp/ccp2ZdEC.s:674    .text:00000000000006b0 .LBE8
     /tmp/ccp2ZdEC.s:3382   .debug_str:00000000000002ca .LASF42
     /tmp/ccp2ZdEC.s:3129   .debug_loc:00000000000002ef .LLST10
     /tmp/ccp2ZdEC.s:464    .text:0000000000000404 .LVL29
     /tmp/ccp2ZdEC.s:226    .text:000000000000018c .LFB8
     /tmp/ccp2ZdEC.s:350    .text:00000000000002d4 .LFE8
     /tmp/ccp2ZdEC.s:3161   .debug_loc:0000000000000349 .LLST4
     /tmp/ccp2ZdEC.s:3322   .debug_str:000000000000003b .LASF43
     /tmp/ccp2ZdEC.s:3175   .debug_loc:0000000000000382 .LLST5
     /tmp/ccp2ZdEC.s:3191   .debug_loc:00000000000003cc .LLST6
     /tmp/ccp2ZdEC.s:330    .text:00000000000002b4 .LVL21
     /tmp/ccp2ZdEC.s:101    .text:0000000000000070 .LFB7
     /tmp/ccp2ZdEC.s:220    .text:000000000000018c .LFE7
     /tmp/ccp2ZdEC.s:3202   .debug_loc:0000000000000402 .LLST1
     /tmp/ccp2ZdEC.s:3384   .debug_str:00000000000002cf .LASF44
     /tmp/ccp2ZdEC.s:3228   .debug_loc:0000000000000474 .LLST2
     /tmp/ccp2ZdEC.s:3412   .debug_str:000000000000038a .LASF45
     /tmp/ccp2ZdEC.s:3254   .debug_loc:00000000000004e6 .LLST3
     /tmp/ccp2ZdEC.s:217    .text:0000000000000188 .LVL13
     /tmp/ccp2ZdEC.s:3416   .debug_str:0000000000000397 .LASF46
     /tmp/ccp2ZdEC.s:3344   .debug_str:00000000000000b7 .LASF47
     /tmp/ccp2ZdEC.s:75     .text:0000000000000058 .LFB5
     /tmp/ccp2ZdEC.s:93     .text:0000000000000070 .LFE5
     /tmp/ccp2ZdEC.s:3362   .debug_str:000000000000016c .LASF48
     /tmp/ccp2ZdEC.s:15     .text:0000000000000000 .LFB2
GAS LISTING /tmp/ccp2ZdEC.s 			page 45


     /tmp/ccp2ZdEC.s:67     .text:0000000000000058 .LFE2
     /tmp/ccp2ZdEC.s:3279   .debug_loc:0000000000000548 .LLST0
     /tmp/ccp2ZdEC.s:63     .text:0000000000000054 .LVL4
     /tmp/ccp2ZdEC.s:3398   .debug_str:000000000000031e .LASF57
     /tmp/ccp2ZdEC.s:3388   .debug_str:00000000000002dd .LASF58
     /tmp/ccp2ZdEC.s:922    .text:0000000000000984 .LVL37
     /tmp/ccp2ZdEC.s:964    .text:00000000000009f0 .LVL39
     /tmp/ccp2ZdEC.s:972    .text:00000000000009f8 .LVL41
     /tmp/ccp2ZdEC.s:978    .text:0000000000000a04 .LVL43
     /tmp/ccp2ZdEC.s:1353   .text:0000000000000ec8 .LVL53
     /tmp/ccp2ZdEC.s:1357   .text:0000000000000ed0 .LVL54
     /tmp/ccp2ZdEC.s:976    .text:00000000000009fc .LVL42
     /tmp/ccp2ZdEC.s:1350   .text:0000000000000ec4 .LVL52
     /tmp/ccp2ZdEC.s:948    .text:00000000000009b8 .LVL38
     /tmp/ccp2ZdEC.s:1271   .text:0000000000000de4 .LVL49
     /tmp/ccp2ZdEC.s:1330   .text:0000000000000ea8 .LVL50
     /tmp/ccp2ZdEC.s:1618   .text:0000000000001258 .LVL55
     /tmp/ccp2ZdEC.s:1620   .text:000000000000125c .LVL56
     /tmp/ccp2ZdEC.s:1649   .text:00000000000012bc .LVL57
     /tmp/ccp2ZdEC.s:1751   .text:0000000000001428 .LVL58
     /tmp/ccp2ZdEC.s:1754   .text:0000000000001430 .LVL59
     /tmp/ccp2ZdEC.s:970    .text:00000000000009f4 .LVL40
     /tmp/ccp2ZdEC.s:982    .text:0000000000000a10 .LVL45
     /tmp/ccp2ZdEC.s:1007   .text:0000000000000a60 .LVL46
     /tmp/ccp2ZdEC.s:1010   .text:0000000000000a68 .LVL47
     /tmp/ccp2ZdEC.s:1343   .text:0000000000000eb8 .LVL51
     /tmp/ccp2ZdEC.s:359    .text:00000000000002d4 .LVL24
     /tmp/ccp2ZdEC.s:381    .text:0000000000000300 .LVL26
     /tmp/ccp2ZdEC.s:844    .text:00000000000008bc .LVL35
     /tmp/ccp2ZdEC.s:848    .text:00000000000008c4 .LVL36
     /tmp/ccp2ZdEC.s:670    .text:00000000000006ac .LVL32
     /tmp/ccp2ZdEC.s:379    .text:00000000000002fc .LVL25
     /tmp/ccp2ZdEC.s:435    .text:00000000000003ac .LVL27
     /tmp/ccp2ZdEC.s:438    .text:00000000000003b4 .LVL28
     /tmp/ccp2ZdEC.s:825    .text:00000000000008a4 .LVL34
     /tmp/ccp2ZdEC.s:481    .text:0000000000000418 .LVL30
     /tmp/ccp2ZdEC.s:652    .text:0000000000000670 .LVL31
     /tmp/ccp2ZdEC.s:672    .text:00000000000006b0 .LVL33
     /tmp/ccp2ZdEC.s:229    .text:000000000000018c .LVL14
     /tmp/ccp2ZdEC.s:251    .text:00000000000001b0 .LVL17
     /tmp/ccp2ZdEC.s:243    .text:00000000000001a4 .LVL15
     /tmp/ccp2ZdEC.s:345    .text:00000000000002cc .LVL23
     /tmp/ccp2ZdEC.s:247    .text:00000000000001a8 .LVL16
     /tmp/ccp2ZdEC.s:303    .text:000000000000025c .LVL19
     /tmp/ccp2ZdEC.s:306    .text:0000000000000264 .LVL20
     /tmp/ccp2ZdEC.s:342    .text:00000000000002c8 .LVL22
     /tmp/ccp2ZdEC.s:104    .text:0000000000000070 .LVL6
     /tmp/ccp2ZdEC.s:125    .text:00000000000000a0 .LVL7
     /tmp/ccp2ZdEC.s:201    .text:0000000000000168 .LVL8
     /tmp/ccp2ZdEC.s:208    .text:0000000000000174 .LVL10
     /tmp/ccp2ZdEC.s:215    .text:0000000000000180 .LVL12
     /tmp/ccp2ZdEC.s:204    .text:000000000000016c .LVL9
     /tmp/ccp2ZdEC.s:213    .text:0000000000000178 .LVL11
     /tmp/ccp2ZdEC.s:19     .text:0000000000000000 .LVL0
     /tmp/ccp2ZdEC.s:35     .text:0000000000000024 .LVL1
     /tmp/ccp2ZdEC.s:51     .text:0000000000000038 .LVL2
     /tmp/ccp2ZdEC.s:55     .text:0000000000000040 .LVL3
GAS LISTING /tmp/ccp2ZdEC.s 			page 46


     /tmp/ccp2ZdEC.s:1778   .debug_info:0000000000000000 .Ldebug_info0

UNDEFINED SYMBOLS
_Z13assert_failedPKci
