GAS LISTING /tmp/ccXoWEFI.s 			page 1


   1              		.file	"kernel.cpp"
   2              		.option pic
   3              		.option norelax
   4              		.text
   5              	.Ltext0:
   6              		.align	2
   7              		.globl	_Z8testFuncPv
   9              	_Z8testFuncPv:
  10              	.LFB8:
  11              		.file 1 "src/kernel.cpp"
   1:src/kernel.cpp **** /**
   2:src/kernel.cpp ****  * @file kernel.cpp
   3:src/kernel.cpp ****  * @author stcksmsh (vukicevickosta@gmail.com)
   4:src/kernel.cpp ****  * @brief implementation of the kernel class
   5:src/kernel.cpp ****  * @version 0.1
   6:src/kernel.cpp ****  * @date 2023-12-31
   7:src/kernel.cpp ****  * 
   8:src/kernel.cpp ****  * @copyright Copyright (c) 2023
   9:src/kernel.cpp ****  * 
  10:src/kernel.cpp ****  */
  11:src/kernel.cpp **** 
  12:src/kernel.cpp **** #include "kernel.h"
  13:src/kernel.cpp **** #include "types.h"
  14:src/kernel.cpp **** #include "assert.h"
  15:src/kernel.cpp **** #include "syscalls_c.h"
  16:src/kernel.cpp **** #include "thread.h"
  17:src/kernel.cpp **** #include "sem.h"
  18:src/kernel.cpp **** #include "sched.h"
  19:src/kernel.cpp **** 
  20:src/kernel.cpp **** extern "C" void trap();
  21:src/kernel.cpp **** 
  22:src/kernel.cpp **** void Kernel::initialise(){
  23:src/kernel.cpp ****     /// set the trap vector
  24:src/kernel.cpp ****     __asm__ volatile ("csrw stvec, %0" :: "r"(trap));
  25:src/kernel.cpp **** 
  26:src/kernel.cpp ****     /// change to user mode
  27:src/kernel.cpp **** 
  28:src/kernel.cpp ****     uint64 sstatus;
  29:src/kernel.cpp ****     /// get the current sstatus
  30:src/kernel.cpp ****     __asm__ volatile("csrr %0, sstatus" : "=r"(sstatus));
  31:src/kernel.cpp ****     /// set the SPP bit to 0
  32:src/kernel.cpp ****     sstatus &= ~(1 << 8);
  33:src/kernel.cpp ****     /// write the new sstatus
  34:src/kernel.cpp ****     __asm__ volatile("csrw sstatus, %0" :: "r"(sstatus));
  35:src/kernel.cpp ****     
  36:src/kernel.cpp ****     /// NOW WE ARE IN USER MODE
  37:src/kernel.cpp ****     
  38:src/kernel.cpp ****     /// initialise the heap manager
  39:src/kernel.cpp ****     heapManager.init((uintptr_t)HEAP_START_ADDR, (uintptr_t)HEAP_END_ADDR );
  40:src/kernel.cpp **** 
  41:src/kernel.cpp ****     return;
  42:src/kernel.cpp **** }
  43:src/kernel.cpp **** 
  44:src/kernel.cpp **** sem_t sem = nullptr;
  45:src/kernel.cpp **** 
  46:src/kernel.cpp **** void testFunc(void* arg){
  12              		.loc 1 46 25
GAS LISTING /tmp/ccXoWEFI.s 			page 2


  13              		.cfi_startproc
  14              	.LVL0:
  15 0000 130101FF 		addi	sp,sp,-16
  16              		.cfi_def_cfa_offset 16
  17 0004 23341100 		sd	ra,8(sp)
  18 0008 23308100 		sd	s0,0(sp)
  19              		.cfi_offset 1, -8
  20              		.cfi_offset 8, -16
  21 000c 13040101 		addi	s0,sp,16
  22              		.cfi_def_cfa 8, 0
  47:src/kernel.cpp ****     putc('t');
  23              		.loc 1 47 5
  24              		.loc 1 47 9 is_stmt 0
  25 0010 13054007 		li	a0,116
  26              	.LVL1:
  27 0014 97000000 		call	_Z4putcc@plt
  27      E7800000 
  28              	.LVL2:
  48:src/kernel.cpp ****     putc('e');
  29              		.loc 1 48 5 is_stmt 1
  30              		.loc 1 48 9 is_stmt 0
  31 001c 13055006 		li	a0,101
  32 0020 97000000 		call	_Z4putcc@plt
  32      E7800000 
  33              	.LVL3:
  49:src/kernel.cpp ****     putc('s');
  34              		.loc 1 49 5 is_stmt 1
  35              		.loc 1 49 9 is_stmt 0
  36 0028 13053007 		li	a0,115
  37 002c 97000000 		call	_Z4putcc@plt
  37      E7800000 
  38              	.LVL4:
  50:src/kernel.cpp ****     putc('t');
  39              		.loc 1 50 5 is_stmt 1
  40              		.loc 1 50 9 is_stmt 0
  41 0034 13054007 		li	a0,116
  42 0038 97000000 		call	_Z4putcc@plt
  42      E7800000 
  43              	.LVL5:
  51:src/kernel.cpp **** 
  52:src/kernel.cpp ****     sem_wait(sem);
  44              		.loc 1 52 5 is_stmt 1
  45              		.loc 1 52 13 is_stmt 0
  46 0040 17050000 		ld	a0,.LANCHOR0
  46      03350500 
  47 0048 97000000 		call	_Z8sem_waitP4_sem@plt
  47      E7800000 
  48              	.LVL6:
  53:src/kernel.cpp **** 
  54:src/kernel.cpp ****     putc(' ');
  49              		.loc 1 54 5 is_stmt 1
  50              		.loc 1 54 9 is_stmt 0
  51 0050 13050002 		li	a0,32
  52 0054 97000000 		call	_Z4putcc@plt
  52      E7800000 
  53              	.LVL7:
  55:src/kernel.cpp ****     putc('t');
GAS LISTING /tmp/ccXoWEFI.s 			page 3


  54              		.loc 1 55 5 is_stmt 1
  55              		.loc 1 55 9 is_stmt 0
  56 005c 13054007 		li	a0,116
  57 0060 97000000 		call	_Z4putcc@plt
  57      E7800000 
  58              	.LVL8:
  56:src/kernel.cpp ****     putc('h');
  59              		.loc 1 56 5 is_stmt 1
  60              		.loc 1 56 9 is_stmt 0
  61 0068 13058006 		li	a0,104
  62 006c 97000000 		call	_Z4putcc@plt
  62      E7800000 
  63              	.LVL9:
  57:src/kernel.cpp ****     putc('r');
  64              		.loc 1 57 5 is_stmt 1
  65              		.loc 1 57 9 is_stmt 0
  66 0074 13052007 		li	a0,114
  67 0078 97000000 		call	_Z4putcc@plt
  67      E7800000 
  68              	.LVL10:
  58:src/kernel.cpp ****     putc('e');
  69              		.loc 1 58 5 is_stmt 1
  70              		.loc 1 58 9 is_stmt 0
  71 0080 13055006 		li	a0,101
  72 0084 97000000 		call	_Z4putcc@plt
  72      E7800000 
  73              	.LVL11:
  59:src/kernel.cpp ****     putc('a');
  74              		.loc 1 59 5 is_stmt 1
  75              		.loc 1 59 9 is_stmt 0
  76 008c 13051006 		li	a0,97
  77 0090 97000000 		call	_Z4putcc@plt
  77      E7800000 
  78              	.LVL12:
  60:src/kernel.cpp ****     putc('d');
  79              		.loc 1 60 5 is_stmt 1
  80              		.loc 1 60 9 is_stmt 0
  81 0098 13054006 		li	a0,100
  82 009c 97000000 		call	_Z4putcc@plt
  82      E7800000 
  83              	.LVL13:
  61:src/kernel.cpp ****     putc('\n');
  84              		.loc 1 61 5 is_stmt 1
  85              		.loc 1 61 9 is_stmt 0
  86 00a4 1305A000 		li	a0,10
  87 00a8 97000000 		call	_Z4putcc@plt
  87      E7800000 
  88              	.LVL14:
  62:src/kernel.cpp **** }
  89              		.loc 1 62 1
  90 00b0 83308100 		ld	ra,8(sp)
  91              		.cfi_restore 1
  92 00b4 03340100 		ld	s0,0(sp)
  93              		.cfi_restore 8
  94              		.cfi_def_cfa 2, 16
  95 00b8 13010101 		addi	sp,sp,16
  96              		.cfi_def_cfa_offset 0
GAS LISTING /tmp/ccXoWEFI.s 			page 4


  97 00bc 67800000 		jr	ra
  98              		.cfi_endproc
  99              	.LFE8:
 101              		.align	2
 102              		.globl	_ZN6Kernel10initialiseEv
 104              	_ZN6Kernel10initialiseEv:
 105              	.LFB7:
  22:src/kernel.cpp ****     /// set the trap vector
 106              		.loc 1 22 26 is_stmt 1
 107              		.cfi_startproc
 108              	.LVL15:
 109 00c0 130101FF 		addi	sp,sp,-16
 110              		.cfi_def_cfa_offset 16
 111 00c4 23341100 		sd	ra,8(sp)
 112 00c8 23308100 		sd	s0,0(sp)
 113              		.cfi_offset 1, -8
 114              		.cfi_offset 8, -16
 115 00cc 13040101 		addi	s0,sp,16
 116              		.cfi_def_cfa 8, 0
  24:src/kernel.cpp **** 
 117              		.loc 1 24 5
  24:src/kernel.cpp **** 
 118              		.loc 1 24 53 is_stmt 0
 119 00d0 97070000 		la	a5,trap
 119      83B70700 
 120              	#APP
 121              	# 24 "src/kernel.cpp" 1
  28:src/kernel.cpp ****     /// get the current sstatus
 122              		csrw stvec, a5
 123              	# 0 "" 2
 124              		.loc 1 28 5 is_stmt 1
  30:src/kernel.cpp ****     /// set the SPP bit to 0
 125              		.loc 1 30 5
  30:src/kernel.cpp ****     /// set the SPP bit to 0
 126              		.loc 1 30 57 is_stmt 0
 127              	# 30 "src/kernel.cpp" 1
 128              		csrr a5, sstatus
 129              	# 0 "" 2
 130              	.LVL16:
  32:src/kernel.cpp ****     /// write the new sstatus
 131              		.loc 1 32 5 is_stmt 1
  32:src/kernel.cpp ****     /// write the new sstatus
 132              		.loc 1 32 13 is_stmt 0
 133              	#NO_APP
 134 00e0 93F7F7EF 		andi	a5,a5,-257
 135              	.LVL17:
  34:src/kernel.cpp ****     
 136              		.loc 1 34 5 is_stmt 1
  34:src/kernel.cpp ****     
 137              		.loc 1 34 57 is_stmt 0
 138              	#APP
 139              	# 34 "src/kernel.cpp" 1
  39:src/kernel.cpp **** 
 140              		csrw sstatus, a5
 141              	# 0 "" 2
 142              		.loc 1 39 5 is_stmt 1
  39:src/kernel.cpp **** 
GAS LISTING /tmp/ccXoWEFI.s 			page 5


 143              		.loc 1 39 21 is_stmt 0
 144              	#NO_APP
 145 00e8 97070000 		la	a5,HEAP_END_ADDR
 145      83B70700 
 146              	.LVL18:
 147 00f0 03B60700 		ld	a2,0(a5)
 148 00f4 97070000 		la	a5,HEAP_START_ADDR
 148      83B70700 
 149 00fc 83B50700 		ld	a1,0(a5)
 150 0100 97000000 		call	_ZN11HeapManager4initEmm@plt
 150      E7800000 
 151              	.LVL19:
  41:src/kernel.cpp **** }
 152              		.loc 1 41 5 is_stmt 1
  42:src/kernel.cpp **** 
 153              		.loc 1 42 1 is_stmt 0
 154 0108 83308100 		ld	ra,8(sp)
 155              		.cfi_restore 1
 156 010c 03340100 		ld	s0,0(sp)
 157              		.cfi_restore 8
 158              		.cfi_def_cfa 2, 16
 159 0110 13010101 		addi	sp,sp,16
 160              		.cfi_def_cfa_offset 0
 161 0114 67800000 		jr	ra
 162              		.cfi_endproc
 163              	.LFE7:
 165              		.align	2
 166              		.globl	_ZN6Kernel3runEv
 168              	_ZN6Kernel3runEv:
 169              	.LFB9:
  63:src/kernel.cpp **** 
  64:src/kernel.cpp **** Kernel::EXIT_CODE Kernel::run(){
 170              		.loc 1 64 32 is_stmt 1
 171              		.cfi_startproc
 172              	.LVL20:
 173 0118 130101FD 		addi	sp,sp,-48
 174              		.cfi_def_cfa_offset 48
 175 011c 23341102 		sd	ra,40(sp)
 176 0120 23308102 		sd	s0,32(sp)
 177 0124 233C9100 		sd	s1,24(sp)
 178              		.cfi_offset 1, -8
 179              		.cfi_offset 8, -16
 180              		.cfi_offset 9, -24
 181 0128 13040103 		addi	s0,sp,48
 182              		.cfi_def_cfa 8, 0
  65:src/kernel.cpp ****     
  66:src/kernel.cpp ****     thread_t t = (thread_t)mem_alloc(sizeof(_thread));
 183              		.loc 1 66 5
 184              		.loc 1 66 37 is_stmt 0
 185 012c 1305000B 		li	a0,176
 186              	.LVL21:
 187 0130 97000000 		call	_Z9mem_allocm@plt
 187      E7800000 
 188              	.LVL22:
 189              		.loc 1 66 53
 190 0138 233CA4FC 		sd	a0,-40(s0)
  67:src/kernel.cpp ****     
GAS LISTING /tmp/ccXoWEFI.s 			page 6


  68:src/kernel.cpp ****     // _thread::create(&t, nullptr, nullptr, nullptr, false);
  69:src/kernel.cpp ****     // _thread::currentThread = t;
  70:src/kernel.cpp **** 
  71:src/kernel.cpp ****     thread_create(&t, nullptr, nullptr);
 191              		.loc 1 71 5 is_stmt 1
 192              		.loc 1 71 18 is_stmt 0
 193 013c 13060000 		li	a2,0
 194 0140 93050000 		li	a1,0
 195 0144 130584FD 		addi	a0,s0,-40
 196 0148 97000000 		call	_Z13thread_createPP7_threadPFvPvES2_@plt
 196      E7800000 
 197              	.LVL23:
  72:src/kernel.cpp ****     _thread::currentThread = Scheduler::get();
 198              		.loc 1 72 5 is_stmt 1
 199              		.loc 1 72 44 is_stmt 0
 200 0150 97000000 		call	_ZN9Scheduler3getEv@plt
 200      E7800000 
 201              	.LVL24:
 202              		.loc 1 72 28
 203 0158 97070000 		la	a5,_ZN7_thread13currentThreadE
 203      83B70700 
 204 0160 23B0A700 		sd	a0,0(a5)
  73:src/kernel.cpp **** 
  74:src/kernel.cpp ****     thread_t test = (thread_t)mem_alloc(sizeof(_thread));
 205              		.loc 1 74 5 is_stmt 1
 206              		.loc 1 74 40 is_stmt 0
 207 0164 1305000B 		li	a0,176
 208 0168 97000000 		call	_Z9mem_allocm@plt
 208      E7800000 
 209              	.LVL25:
 210              		.loc 1 74 56
 211 0170 2338A4FC 		sd	a0,-48(s0)
  75:src/kernel.cpp ****     
  76:src/kernel.cpp ****     // _thread::create(&test, testFunc, nullptr, nullptr);
  77:src/kernel.cpp ****     thread_create(&test, testFunc, nullptr);
 212              		.loc 1 77 5 is_stmt 1
 213              		.loc 1 77 18 is_stmt 0
 214 0174 13060000 		li	a2,0
 215 0178 97050000 		lla	a1,_Z8testFuncPv
 215      93850500 
 216 0180 130504FD 		addi	a0,s0,-48
 217 0184 97000000 		call	_Z13thread_createPP7_threadPFvPvES2_@plt
 217      E7800000 
 218              	.LVL26:
  78:src/kernel.cpp **** 
  79:src/kernel.cpp ****     sem = (sem_t)mem_alloc(sizeof(_sem));
 219              		.loc 1 79 5 is_stmt 1
 220              		.loc 1 79 27 is_stmt 0
 221 018c 13058001 		li	a0,24
 222 0190 97000000 		call	_Z9mem_allocm@plt
 222      E7800000 
 223              	.LVL27:
 224              		.loc 1 79 9
 225 0198 97040000 		lla	s1,.LANCHOR0
 225      93840400 
 226 01a0 23B0A400 		sd	a0,0(s1)
  80:src/kernel.cpp ****     sem_open(&sem, 0);
GAS LISTING /tmp/ccXoWEFI.s 			page 7


 227              		.loc 1 80 5 is_stmt 1
 228              		.loc 1 80 13 is_stmt 0
 229 01a4 93050000 		li	a1,0
 230 01a8 13850400 		mv	a0,s1
 231 01ac 97000000 		call	_Z8sem_openPP4_semj@plt
 231      E7800000 
 232              	.LVL28:
  81:src/kernel.cpp **** 
  82:src/kernel.cpp **** 
  83:src/kernel.cpp ****     thread_dispatch();
 233              		.loc 1 83 5 is_stmt 1
 234              		.loc 1 83 20 is_stmt 0
 235 01b4 97000000 		call	_Z15thread_dispatchv@plt
 235      E7800000 
 236              	.LVL29:
  84:src/kernel.cpp ****     sem_signal(sem);
 237              		.loc 1 84 5 is_stmt 1
 238              		.loc 1 84 15 is_stmt 0
 239 01bc 03B50400 		ld	a0,0(s1)
 240 01c0 97000000 		call	_Z10sem_signalP4_sem@plt
 240      E7800000 
 241              	.LVL30:
  85:src/kernel.cpp ****     // do{
  86:src/kernel.cpp ****     //     _thread::dispatch();
  87:src/kernel.cpp ****     // }while(1);
  88:src/kernel.cpp **** 
  89:src/kernel.cpp ****     putc('m');
 242              		.loc 1 89 5 is_stmt 1
 243              		.loc 1 89 9 is_stmt 0
 244 01c8 1305D006 		li	a0,109
 245 01cc 97000000 		call	_Z4putcc@plt
 245      E7800000 
 246              	.LVL31:
  90:src/kernel.cpp ****     putc('a');
 247              		.loc 1 90 5 is_stmt 1
 248              		.loc 1 90 9 is_stmt 0
 249 01d4 13051006 		li	a0,97
 250 01d8 97000000 		call	_Z4putcc@plt
 250      E7800000 
 251              	.LVL32:
  91:src/kernel.cpp ****     putc('i');
 252              		.loc 1 91 5 is_stmt 1
 253              		.loc 1 91 9 is_stmt 0
 254 01e0 13059006 		li	a0,105
 255 01e4 97000000 		call	_Z4putcc@plt
 255      E7800000 
 256              	.LVL33:
  92:src/kernel.cpp ****     putc('n');
 257              		.loc 1 92 5 is_stmt 1
 258              		.loc 1 92 9 is_stmt 0
 259 01ec 1305E006 		li	a0,110
 260 01f0 97000000 		call	_Z4putcc@plt
 260      E7800000 
 261              	.LVL34:
  93:src/kernel.cpp ****     putc('\n');
 262              		.loc 1 93 5 is_stmt 1
 263              		.loc 1 93 9 is_stmt 0
GAS LISTING /tmp/ccXoWEFI.s 			page 8


 264 01f8 1305A000 		li	a0,10
 265 01fc 97000000 		call	_Z4putcc@plt
 265      E7800000 
 266              	.LVL35:
  94:src/kernel.cpp ****     
  95:src/kernel.cpp ****     thread_dispatch();
 267              		.loc 1 95 5 is_stmt 1
 268              		.loc 1 95 20 is_stmt 0
 269 0204 97000000 		call	_Z15thread_dispatchv@plt
 269      E7800000 
 270              	.LVL36:
  96:src/kernel.cpp **** 
  97:src/kernel.cpp ****     return EXIT_SUCCESS;
 271              		.loc 1 97 5 is_stmt 1
  98:src/kernel.cpp **** }...
 272              		.loc 1 98 1 is_stmt 0
 273 020c 13050000 		li	a0,0
 274 0210 83308102 		ld	ra,40(sp)
 275              		.cfi_restore 1
 276 0214 03340102 		ld	s0,32(sp)
 277              		.cfi_restore 8
 278              		.cfi_def_cfa 2, 48
 279 0218 83348101 		ld	s1,24(sp)
 280              		.cfi_restore 9
 281 021c 13010103 		addi	sp,sp,48
 282              		.cfi_def_cfa_offset 0
 283 0220 67800000 		jr	ra
 284              		.cfi_endproc
 285              	.LFE9:
 287              		.globl	sem
 288              		.bss
 289              		.align	3
 290              		.set	.LANCHOR0,. + 0
 293              	sem:
 294 0000 00000000 		.zero	8
 294      00000000 
 295              		.text
 296              	.Letext0:
 297              		.file 2 "./lib/hw.h"
 298              		.file 3 "./h/types.h"
 299              		.file 4 "./h/heapManager.h"
 300              		.file 5 "./h/sched.h"
 301              		.file 6 "./h/thread.h"
 302              		.file 7 "./h/kernel.h"
 303              		.file 8 "./h/syscalls_c.h"
 304              		.file 9 "./h/sem.h"
GAS LISTING /tmp/ccXoWEFI.s 			page 9


DEFINED SYMBOLS
                            *ABS*:0000000000000000 kernel.cpp
     /tmp/ccXoWEFI.s:9      .text:0000000000000000 _Z8testFuncPv
     /tmp/ccXoWEFI.s:13     .text:0000000000000000 .L0 
     /tmp/ccXoWEFI.s:15     .text:0000000000000000 .L0 
     /tmp/ccXoWEFI.s:16     .text:0000000000000004 .L0 
     /tmp/ccXoWEFI.s:19     .text:000000000000000c .L0 
     /tmp/ccXoWEFI.s:20     .text:000000000000000c .L0 
     /tmp/ccXoWEFI.s:22     .text:0000000000000010 .L0 
     /tmp/ccXoWEFI.s:24     .text:0000000000000010 .L0 
     /tmp/ccXoWEFI.s:25     .text:0000000000000010 .L0 
     /tmp/ccXoWEFI.s:30     .text:000000000000001c .L0 
     /tmp/ccXoWEFI.s:31     .text:000000000000001c .L0 
     /tmp/ccXoWEFI.s:35     .text:0000000000000028 .L0 
     /tmp/ccXoWEFI.s:36     .text:0000000000000028 .L0 
     /tmp/ccXoWEFI.s:40     .text:0000000000000034 .L0 
     /tmp/ccXoWEFI.s:41     .text:0000000000000034 .L0 
     /tmp/ccXoWEFI.s:45     .text:0000000000000040 .L0 
     /tmp/ccXoWEFI.s:46     .text:0000000000000040 .L0 
     /tmp/ccXoWEFI.s:50     .text:0000000000000050 .L0 
     /tmp/ccXoWEFI.s:51     .text:0000000000000050 .L0 
     /tmp/ccXoWEFI.s:55     .text:000000000000005c .L0 
     /tmp/ccXoWEFI.s:56     .text:000000000000005c .L0 
     /tmp/ccXoWEFI.s:60     .text:0000000000000068 .L0 
     /tmp/ccXoWEFI.s:61     .text:0000000000000068 .L0 
     /tmp/ccXoWEFI.s:65     .text:0000000000000074 .L0 
     /tmp/ccXoWEFI.s:66     .text:0000000000000074 .L0 
     /tmp/ccXoWEFI.s:70     .text:0000000000000080 .L0 
     /tmp/ccXoWEFI.s:71     .text:0000000000000080 .L0 
     /tmp/ccXoWEFI.s:75     .text:000000000000008c .L0 
     /tmp/ccXoWEFI.s:76     .text:000000000000008c .L0 
     /tmp/ccXoWEFI.s:80     .text:0000000000000098 .L0 
     /tmp/ccXoWEFI.s:81     .text:0000000000000098 .L0 
     /tmp/ccXoWEFI.s:85     .text:00000000000000a4 .L0 
     /tmp/ccXoWEFI.s:86     .text:00000000000000a4 .L0 
     /tmp/ccXoWEFI.s:90     .text:00000000000000b0 .L0 
     /tmp/ccXoWEFI.s:91     .text:00000000000000b4 .L0 
     /tmp/ccXoWEFI.s:93     .text:00000000000000b8 .L0 
     /tmp/ccXoWEFI.s:94     .text:00000000000000b8 .L0 
     /tmp/ccXoWEFI.s:96     .text:00000000000000bc .L0 
     /tmp/ccXoWEFI.s:98     .text:00000000000000c0 .L0 
     /tmp/ccXoWEFI.s:104    .text:00000000000000c0 _ZN6Kernel10initialiseEv
     /tmp/ccXoWEFI.s:107    .text:00000000000000c0 .L0 
     /tmp/ccXoWEFI.s:109    .text:00000000000000c0 .L0 
     /tmp/ccXoWEFI.s:110    .text:00000000000000c4 .L0 
     /tmp/ccXoWEFI.s:113    .text:00000000000000cc .L0 
     /tmp/ccXoWEFI.s:114    .text:00000000000000cc .L0 
     /tmp/ccXoWEFI.s:116    .text:00000000000000d0 .L0 
     /tmp/ccXoWEFI.s:118    .text:00000000000000d0 .L0 
     /tmp/ccXoWEFI.s:119    .text:00000000000000d0 .L0 
     /tmp/ccXoWEFI.s:125    .text:00000000000000dc .L0 
     /tmp/ccXoWEFI.s:126    .text:00000000000000dc .L0 
      src/kernel.cpp:30     .text:00000000000000dc .L0 
     /tmp/ccXoWEFI.s:132    .text:00000000000000e0 .L0 
     /tmp/ccXoWEFI.s:134    .text:00000000000000e0 .L0 
     /tmp/ccXoWEFI.s:137    .text:00000000000000e4 .L0 
      src/kernel.cpp:34     .text:00000000000000e4 .L0 
GAS LISTING /tmp/ccXoWEFI.s 			page 10


     /tmp/ccXoWEFI.s:143    .text:00000000000000e8 .L0 
     /tmp/ccXoWEFI.s:145    .text:00000000000000e8 .L0 
     /tmp/ccXoWEFI.s:153    .text:0000000000000108 .L0 
     /tmp/ccXoWEFI.s:154    .text:0000000000000108 .L0 
     /tmp/ccXoWEFI.s:155    .text:000000000000010c .L0 
     /tmp/ccXoWEFI.s:157    .text:0000000000000110 .L0 
     /tmp/ccXoWEFI.s:158    .text:0000000000000110 .L0 
     /tmp/ccXoWEFI.s:160    .text:0000000000000114 .L0 
     /tmp/ccXoWEFI.s:162    .text:0000000000000118 .L0 
     /tmp/ccXoWEFI.s:168    .text:0000000000000118 _ZN6Kernel3runEv
     /tmp/ccXoWEFI.s:171    .text:0000000000000118 .L0 
     /tmp/ccXoWEFI.s:173    .text:0000000000000118 .L0 
     /tmp/ccXoWEFI.s:174    .text:000000000000011c .L0 
     /tmp/ccXoWEFI.s:178    .text:0000000000000128 .L0 
     /tmp/ccXoWEFI.s:179    .text:0000000000000128 .L0 
     /tmp/ccXoWEFI.s:180    .text:0000000000000128 .L0 
     /tmp/ccXoWEFI.s:182    .text:000000000000012c .L0 
     /tmp/ccXoWEFI.s:184    .text:000000000000012c .L0 
     /tmp/ccXoWEFI.s:185    .text:000000000000012c .L0 
     /tmp/ccXoWEFI.s:190    .text:0000000000000138 .L0 
     /tmp/ccXoWEFI.s:192    .text:000000000000013c .L0 
     /tmp/ccXoWEFI.s:193    .text:000000000000013c .L0 
     /tmp/ccXoWEFI.s:199    .text:0000000000000150 .L0 
     /tmp/ccXoWEFI.s:200    .text:0000000000000150 .L0 
     /tmp/ccXoWEFI.s:203    .text:0000000000000158 .L0 
     /tmp/ccXoWEFI.s:206    .text:0000000000000164 .L0 
     /tmp/ccXoWEFI.s:207    .text:0000000000000164 .L0 
     /tmp/ccXoWEFI.s:211    .text:0000000000000170 .L0 
     /tmp/ccXoWEFI.s:213    .text:0000000000000174 .L0 
     /tmp/ccXoWEFI.s:214    .text:0000000000000174 .L0 
     /tmp/ccXoWEFI.s:220    .text:000000000000018c .L0 
     /tmp/ccXoWEFI.s:221    .text:000000000000018c .L0 
     /tmp/ccXoWEFI.s:225    .text:0000000000000198 .L0 
     /tmp/ccXoWEFI.s:228    .text:00000000000001a4 .L0 
     /tmp/ccXoWEFI.s:229    .text:00000000000001a4 .L0 
     /tmp/ccXoWEFI.s:234    .text:00000000000001b4 .L0 
     /tmp/ccXoWEFI.s:235    .text:00000000000001b4 .L0 
     /tmp/ccXoWEFI.s:238    .text:00000000000001bc .L0 
     /tmp/ccXoWEFI.s:239    .text:00000000000001bc .L0 
     /tmp/ccXoWEFI.s:243    .text:00000000000001c8 .L0 
     /tmp/ccXoWEFI.s:244    .text:00000000000001c8 .L0 
     /tmp/ccXoWEFI.s:248    .text:00000000000001d4 .L0 
     /tmp/ccXoWEFI.s:249    .text:00000000000001d4 .L0 
     /tmp/ccXoWEFI.s:253    .text:00000000000001e0 .L0 
     /tmp/ccXoWEFI.s:254    .text:00000000000001e0 .L0 
     /tmp/ccXoWEFI.s:258    .text:00000000000001ec .L0 
     /tmp/ccXoWEFI.s:259    .text:00000000000001ec .L0 
     /tmp/ccXoWEFI.s:263    .text:00000000000001f8 .L0 
     /tmp/ccXoWEFI.s:264    .text:00000000000001f8 .L0 
     /tmp/ccXoWEFI.s:268    .text:0000000000000204 .L0 
     /tmp/ccXoWEFI.s:269    .text:0000000000000204 .L0 
     /tmp/ccXoWEFI.s:272    .text:000000000000020c .L0 
     /tmp/ccXoWEFI.s:273    .text:000000000000020c .L0 
     /tmp/ccXoWEFI.s:275    .text:0000000000000214 .L0 
     /tmp/ccXoWEFI.s:277    .text:0000000000000218 .L0 
     /tmp/ccXoWEFI.s:278    .text:0000000000000218 .L0 
     /tmp/ccXoWEFI.s:280    .text:000000000000021c .L0 
GAS LISTING /tmp/ccXoWEFI.s 			page 11


     /tmp/ccXoWEFI.s:282    .text:0000000000000220 .L0 
     /tmp/ccXoWEFI.s:284    .text:0000000000000224 .L0 
     /tmp/ccXoWEFI.s:293    .bss:0000000000000000 sem
     /tmp/ccXoWEFI.s:290    .bss:0000000000000000 .LANCHOR0
     /tmp/ccXoWEFI.s:305    .text:0000000000000224 .L0 
     /tmp/ccXoWEFI.s:46     .text:0000000000000040 .L0 
     /tmp/ccXoWEFI.s:119    .text:00000000000000d0 .L0 
     /tmp/ccXoWEFI.s:145    .text:00000000000000e8 .L0 
     /tmp/ccXoWEFI.s:148    .text:00000000000000f4 .L0 
     /tmp/ccXoWEFI.s:203    .text:0000000000000158 .L0 
     /tmp/ccXoWEFI.s:215    .text:0000000000000178 .L0 
     /tmp/ccXoWEFI.s:225    .text:0000000000000198 .L0 
     /tmp/ccXoWEFI.s:1754   .debug_abbrev:0000000000000000 .Ldebug_abbrev0
     /tmp/ccXoWEFI.s:2905   .debug_str:00000000000005f5 .LASF124
     /tmp/ccXoWEFI.s:2705   .debug_str:00000000000000b9 .LASF125
     /tmp/ccXoWEFI.s:2697   .debug_str:000000000000008d .LASF126
     /tmp/ccXoWEFI.s:5      .text:0000000000000000 .Ltext0
     /tmp/ccXoWEFI.s:296    .text:0000000000000224 .Letext0
     /tmp/ccXoWEFI.s:2681   .debug_line:0000000000000000 .Ldebug_line0
     /tmp/ccXoWEFI.s:2839   .debug_str:0000000000000432 .LASF0
     /tmp/ccXoWEFI.s:2853   .debug_str:00000000000004b1 .LASF1
     /tmp/ccXoWEFI.s:2817   .debug_str:000000000000037a .LASF2
     /tmp/ccXoWEFI.s:2885   .debug_str:0000000000000576 .LASF3
     /tmp/ccXoWEFI.s:2791   .debug_str:00000000000002df .LASF4
     /tmp/ccXoWEFI.s:2889   .debug_str:0000000000000585 .LASF5
     /tmp/ccXoWEFI.s:2713   .debug_str:0000000000000107 .LASF6
     /tmp/ccXoWEFI.s:2749   .debug_str:00000000000001f5 .LASF7
     /tmp/ccXoWEFI.s:2857   .debug_str:00000000000004cf .LASF8
     /tmp/ccXoWEFI.s:2837   .debug_str:000000000000041f .LASF9
     /tmp/ccXoWEFI.s:2921   .debug_str:0000000000000724 .LASF10
     /tmp/ccXoWEFI.s:2775   .debug_str:0000000000000295 .LASF11
     /tmp/ccXoWEFI.s:2869   .debug_str:000000000000050b .LASF12
     /tmp/ccXoWEFI.s:2909   .debug_str:00000000000006c5 .LASF13
     /tmp/ccXoWEFI.s:2717   .debug_str:0000000000000117 .LASF14
     /tmp/ccXoWEFI.s:2691   .debug_str:0000000000000033 .LASF15
     /tmp/ccXoWEFI.s:2731   .debug_str:000000000000016d .LASF16
     /tmp/ccXoWEFI.s:2883   .debug_str:0000000000000560 .LASF17
     /tmp/ccXoWEFI.s:2741   .debug_str:00000000000001ac .LASF18
     /tmp/ccXoWEFI.s:2757   .debug_str:0000000000000236 .LASF19
     /tmp/ccXoWEFI.s:2841   .debug_str:000000000000043f .LASF24
     /tmp/ccXoWEFI.s:2813   .debug_str:000000000000035d .LASF40
     /tmp/ccXoWEFI.s:2781   .debug_str:00000000000002ba .LASF20
     /tmp/ccXoWEFI.s:2767   .debug_str:000000000000026b .LASF21
     /tmp/ccXoWEFI.s:2945   .debug_str:00000000000007ce .LASF22
     /tmp/ccXoWEFI.s:2917   .debug_str:0000000000000716 .LASF23
     /tmp/ccXoWEFI.s:2773   .debug_str:0000000000000280 .LASF26
     /tmp/ccXoWEFI.s:2683   .debug_str:0000000000000000 .LASF25
     /tmp/ccXoWEFI.s:2849   .debug_str:0000000000000468 .LASF27
     /tmp/ccXoWEFI.s:2861   .debug_str:00000000000004e9 .LASF28
     /tmp/ccXoWEFI.s:2805   .debug_str:0000000000000328 .LASF29
     /tmp/ccXoWEFI.s:2823   .debug_str:00000000000003b3 .LASF30
     /tmp/ccXoWEFI.s:2819   .debug_str:0000000000000388 .LASF32
     /tmp/ccXoWEFI.s:2765   .debug_str:000000000000025e .LASF31
     /tmp/ccXoWEFI.s:2913   .debug_str:00000000000006ed .LASF33
     /tmp/ccXoWEFI.s:2729   .debug_str:0000000000000164 .LASF34
     /tmp/ccXoWEFI.s:2707   .debug_str:00000000000000c8 .LASF35
     /tmp/ccXoWEFI.s:2907   .debug_str:00000000000006b9 .LASF72
GAS LISTING /tmp/ccXoWEFI.s 			page 12


     /tmp/ccXoWEFI.s:2747   .debug_str:00000000000001d5 .LASF74
     /tmp/ccXoWEFI.s:2699   .debug_str:000000000000009a .LASF36
     /tmp/ccXoWEFI.s:2895   .debug_str:00000000000005b8 .LASF37
     /tmp/ccXoWEFI.s:2847   .debug_str:000000000000045f .LASF57
     /tmp/ccXoWEFI.s:2801   .debug_str:0000000000000318 .LASF38
     /tmp/ccXoWEFI.s:2787   .debug_str:00000000000002d2 .LASF39
     /tmp/ccXoWEFI.s:2947   .debug_str:00000000000007d4 .LASF41
     /tmp/ccXoWEFI.s:2879   .debug_str:0000000000000553 .LASF42
     /tmp/ccXoWEFI.s:2825   .debug_str:00000000000003c5 .LASF43
     /tmp/ccXoWEFI.s:2859   .debug_str:00000000000004e2 .LASF44
     /tmp/ccXoWEFI.s:2953   .debug_str:00000000000007f7 .LASF45
     /tmp/ccXoWEFI.s:2951   .debug_str:00000000000007f0 .LASF46
     /tmp/ccXoWEFI.s:2695   .debug_str:0000000000000068 .LASF47
     /tmp/ccXoWEFI.s:2771   .debug_str:000000000000027b .LASF48
     /tmp/ccXoWEFI.s:2807   .debug_str:0000000000000341 .LASF49
     /tmp/ccXoWEFI.s:2929   .debug_str:000000000000076b .LASF50
     /tmp/ccXoWEFI.s:2843   .debug_str:000000000000044b .LASF127
     /tmp/ccXoWEFI.s:2899   .debug_str:00000000000005c8 .LASF128
     /tmp/ccXoWEFI.s:2891   .debug_str:0000000000000597 .LASF51
     /tmp/ccXoWEFI.s:2799   .debug_str:0000000000000303 .LASF52
     /tmp/ccXoWEFI.s:2751   .debug_str:00000000000001fc .LASF129
     /tmp/ccXoWEFI.s:2795   .debug_str:00000000000002ef .LASF53
     /tmp/ccXoWEFI.s:2957   .debug_str:0000000000000801 .LASF54
     /tmp/ccXoWEFI.s:2719   .debug_str:0000000000000127 .LASF55
     /tmp/ccXoWEFI.s:2709   .debug_str:00000000000000e5 .LASF56
     /tmp/ccXoWEFI.s:2923   .debug_str:0000000000000734 .LASF95
     /tmp/ccXoWEFI.s:2897   .debug_str:00000000000005c0 .LASF130
     /tmp/ccXoWEFI.s:2877   .debug_str:000000000000053d .LASF131
     /tmp/ccXoWEFI.s:2933   .debug_str:0000000000000784 .LASF58
     /tmp/ccXoWEFI.s:2903   .debug_str:00000000000005ec .LASF59
     /tmp/ccXoWEFI.s:2793   .debug_str:00000000000002e6 .LASF60
     /tmp/ccXoWEFI.s:2811   .debug_str:0000000000000352 .LASF61
     /tmp/ccXoWEFI.s:2815   .debug_str:0000000000000373 .LASF62
     /tmp/ccXoWEFI.s:2685   .debug_str:000000000000000d .LASF63
     /tmp/ccXoWEFI.s:2871   .debug_str:000000000000051a .LASF64
     /tmp/ccXoWEFI.s:2797   .debug_str:00000000000002fa .LASF65
     /tmp/ccXoWEFI.s:2785   .debug_str:00000000000002c9 .LASF66
     /tmp/ccXoWEFI.s:2863   .debug_str:00000000000004ee .LASF67
     /tmp/ccXoWEFI.s:2803   .debug_str:0000000000000321 .LASF68
     /tmp/ccXoWEFI.s:2735   .debug_str:0000000000000189 .LASF132
     /tmp/ccXoWEFI.s:2851   .debug_str:000000000000047d .LASF133
     /tmp/ccXoWEFI.s:2867   .debug_str:0000000000000501 .LASF69
     /tmp/ccXoWEFI.s:2845   .debug_str:0000000000000454 .LASF70
     /tmp/ccXoWEFI.s:2701   .debug_str:00000000000000a2 .LASF71
     /tmp/ccXoWEFI.s:2893   .debug_str:000000000000059c .LASF134
     /tmp/ccXoWEFI.s:2755   .debug_str:0000000000000222 .LASF135
     /tmp/ccXoWEFI.s:2887   .debug_str:000000000000057d .LASF73
     /tmp/ccXoWEFI.s:2753   .debug_str:000000000000020a .LASF75
     /tmp/ccXoWEFI.s:2743   .debug_str:00000000000001c2 .LASF76
     /tmp/ccXoWEFI.s:2821   .debug_str:00000000000003ae .LASF77
     /tmp/ccXoWEFI.s:2727   .debug_str:000000000000015a .LASF78
     /tmp/ccXoWEFI.s:2703   .debug_str:00000000000000b4 .LASF79
     /tmp/ccXoWEFI.s:2941   .debug_str:00000000000007bd .LASF80
     /tmp/ccXoWEFI.s:2943   .debug_str:00000000000007c4 .LASF136
     /tmp/ccXoWEFI.s:2949   .debug_str:00000000000007e3 .LASF81
     /tmp/ccXoWEFI.s:2901   .debug_str:00000000000005df .LASF82
     /tmp/ccXoWEFI.s:2759   .debug_str:0000000000000240 .LASF83
GAS LISTING /tmp/ccXoWEFI.s 			page 13


     /tmp/ccXoWEFI.s:2915   .debug_str:000000000000070e .LASF84
     /tmp/ccXoWEFI.s:2829   .debug_str:00000000000003d9 .LASF85
     /tmp/ccXoWEFI.s:2723   .debug_str:0000000000000143 .LASF137
     /tmp/ccXoWEFI.s:2855   .debug_str:00000000000004c4 .LASF86
     /tmp/ccXoWEFI.s:2911   .debug_str:00000000000006d4 .LASF87
     /tmp/ccXoWEFI.s:2809   .debug_str:0000000000000346 .LASF88
     /tmp/ccXoWEFI.s:2769   .debug_str:0000000000000271 .LASF89
     /tmp/ccXoWEFI.s:2761   .debug_str:000000000000024f .LASF90
     /tmp/ccXoWEFI.s:2789   .debug_str:00000000000002da .LASF91
     /tmp/ccXoWEFI.s:2833   .debug_str:00000000000003fb .LASF92
     /tmp/ccXoWEFI.s:2937   .debug_str:00000000000007a0 .LASF93
     /tmp/ccXoWEFI.s:2919   .debug_str:000000000000071f .LASF94
     /tmp/ccXoWEFI.s:2689   .debug_str:000000000000001f .LASF96
     /tmp/ccXoWEFI.s:2931   .debug_str:000000000000077e .LASF97
     /tmp/ccXoWEFI.s:2831   .debug_str:00000000000003e8 .LASF98
     /tmp/ccXoWEFI.s:2955   .debug_str:00000000000007fc .LASF99
     /tmp/ccXoWEFI.s:2835   .debug_str:000000000000040d .LASF100
     /tmp/ccXoWEFI.s:2739   .debug_str:00000000000001a5 .LASF101
     /tmp/ccXoWEFI.s:2927   .debug_str:0000000000000757 .LASF102
     /tmp/ccXoWEFI.s:2711   .debug_str:00000000000000fd .LASF103
     /tmp/ccXoWEFI.s:2865   .debug_str:00000000000004f7 .LASF104
     /tmp/ccXoWEFI.s:2725   .debug_str:0000000000000154 .LASF105
     /tmp/ccXoWEFI.s:169    .text:0000000000000118 .LFB9
     /tmp/ccXoWEFI.s:285    .text:0000000000000224 .LFE9
     /tmp/ccXoWEFI.s:2875   .debug_str:0000000000000538 .LASF109
     /tmp/ccXoWEFI.s:2619   .debug_loc:0000000000000000 .LLST3
     /tmp/ccXoWEFI.s:2881   .debug_str:000000000000055b .LASF106
     /tmp/ccXoWEFI.s:188    .text:0000000000000138 .LVL22
     /tmp/ccXoWEFI.s:197    .text:0000000000000150 .LVL23
     /tmp/ccXoWEFI.s:201    .text:0000000000000158 .LVL24
     /tmp/ccXoWEFI.s:209    .text:0000000000000170 .LVL25
     /tmp/ccXoWEFI.s:218    .text:000000000000018c .LVL26
     /tmp/ccXoWEFI.s:223    .text:0000000000000198 .LVL27
     /tmp/ccXoWEFI.s:232    .text:00000000000001b4 .LVL28
     /tmp/ccXoWEFI.s:236    .text:00000000000001bc .LVL29
     /tmp/ccXoWEFI.s:241    .text:00000000000001c8 .LVL30
     /tmp/ccXoWEFI.s:246    .text:00000000000001d4 .LVL31
     /tmp/ccXoWEFI.s:251    .text:00000000000001e0 .LVL32
     /tmp/ccXoWEFI.s:256    .text:00000000000001ec .LVL33
     /tmp/ccXoWEFI.s:261    .text:00000000000001f8 .LVL34
     /tmp/ccXoWEFI.s:266    .text:0000000000000204 .LVL35
     /tmp/ccXoWEFI.s:270    .text:000000000000020c .LVL36
     /tmp/ccXoWEFI.s:2715   .debug_str:000000000000010e .LASF107
     /tmp/ccXoWEFI.s:2745   .debug_str:00000000000001c7 .LASF108
     /tmp/ccXoWEFI.s:10     .text:0000000000000000 .LFB8
     /tmp/ccXoWEFI.s:99     .text:00000000000000c0 .LFE8
     /tmp/ccXoWEFI.s:2633   .debug_loc:0000000000000039 .LLST0
     /tmp/ccXoWEFI.s:28     .text:000000000000001c .LVL2
     /tmp/ccXoWEFI.s:33     .text:0000000000000028 .LVL3
     /tmp/ccXoWEFI.s:38     .text:0000000000000034 .LVL4
     /tmp/ccXoWEFI.s:43     .text:0000000000000040 .LVL5
     /tmp/ccXoWEFI.s:48     .text:0000000000000050 .LVL6
     /tmp/ccXoWEFI.s:53     .text:000000000000005c .LVL7
     /tmp/ccXoWEFI.s:58     .text:0000000000000068 .LVL8
     /tmp/ccXoWEFI.s:63     .text:0000000000000074 .LVL9
     /tmp/ccXoWEFI.s:68     .text:0000000000000080 .LVL10
     /tmp/ccXoWEFI.s:73     .text:000000000000008c .LVL11
GAS LISTING /tmp/ccXoWEFI.s 			page 14


     /tmp/ccXoWEFI.s:78     .text:0000000000000098 .LVL12
     /tmp/ccXoWEFI.s:83     .text:00000000000000a4 .LVL13
     /tmp/ccXoWEFI.s:88     .text:00000000000000b0 .LVL14
     /tmp/ccXoWEFI.s:105    .text:00000000000000c0 .LFB7
     /tmp/ccXoWEFI.s:163    .text:0000000000000118 .LFE7
     /tmp/ccXoWEFI.s:2647   .debug_loc:0000000000000072 .LLST1
     /tmp/ccXoWEFI.s:2661   .debug_loc:00000000000000ab .LLST2
     /tmp/ccXoWEFI.s:151    .text:0000000000000108 .LVL19
     /tmp/ccXoWEFI.s:2737   .debug_str:0000000000000197 .LASF110
     /tmp/ccXoWEFI.s:2687   .debug_str:0000000000000015 .LASF112
     /tmp/ccXoWEFI.s:2693   .debug_str:0000000000000043 .LASF111
     /tmp/ccXoWEFI.s:2779   .debug_str:00000000000002ac .LASF113
     /tmp/ccXoWEFI.s:2935   .debug_str:000000000000078c .LASF114
     /tmp/ccXoWEFI.s:2783   .debug_str:00000000000002c0 .LASF115
     /tmp/ccXoWEFI.s:2873   .debug_str:0000000000000523 .LASF116
     /tmp/ccXoWEFI.s:2733   .debug_str:0000000000000179 .LASF117
     /tmp/ccXoWEFI.s:2939   .debug_str:00000000000007a8 .LASF118
     /tmp/ccXoWEFI.s:2925   .debug_str:000000000000074c .LASF119
     /tmp/ccXoWEFI.s:2777   .debug_str:00000000000002a3 .LASF120
     /tmp/ccXoWEFI.s:2827   .debug_str:00000000000003d4 .LASF121
     /tmp/ccXoWEFI.s:2721   .debug_str:0000000000000131 .LASF122
     /tmp/ccXoWEFI.s:2763   .debug_str:0000000000000255 .LASF123
     /tmp/ccXoWEFI.s:172    .text:0000000000000118 .LVL20
     /tmp/ccXoWEFI.s:186    .text:0000000000000130 .LVL21
     /tmp/ccXoWEFI.s:14     .text:0000000000000000 .LVL0
     /tmp/ccXoWEFI.s:26     .text:0000000000000014 .LVL1
     /tmp/ccXoWEFI.s:108    .text:00000000000000c0 .LVL15
     /tmp/ccXoWEFI.s:130    .text:00000000000000e0 .LVL16
     /tmp/ccXoWEFI.s:146    .text:00000000000000f0 .LVL18
     /tmp/ccXoWEFI.s:306    .debug_info:0000000000000000 .Ldebug_info0

UNDEFINED SYMBOLS
_Z4putcc
_Z8sem_waitP4_sem
trap
HEAP_END_ADDR
HEAP_START_ADDR
_ZN11HeapManager4initEmm
_Z9mem_allocm
_Z13thread_createPP7_threadPFvPvES2_
_ZN9Scheduler3getEv
_ZN7_thread13currentThreadE
_Z8sem_openPP4_semj
_Z15thread_dispatchv
_Z10sem_signalP4_sem
