GAS LISTING /tmp/cch2EPX0.s 			page 1


   1              		.file	"kernel.cpp"
   2              		.option pic
   3              		.option norelax
   4              		.text
   5              	.Ltext0:
   6              		.align	2
   7              		.globl	_ZN6KernelC2Ev
   9              	_ZN6KernelC2Ev:
  10              	.LFB5:
  11              		.file 1 "src/kernel.cpp"
   1:src/kernel.cpp **** /**
   2:src/kernel.cpp ****  * @file kernel.cpp
   3:src/kernel.cpp ****  * @author stcksmsh (vukicevickosta@gmail.com)
   4:src/kernel.cpp ****  * @brief implementation of the kernel class
   5:src/kernel.cpp ****  * @version 0.1
   6:src/kernel.cpp ****  * @date 2023-12-31
   7:src/kernel.cpp ****  * 
   8:src/kernel.cpp ****  * @copyright Copyright (c) 2023
   9:src/kernel.cpp ****  * 
  10:src/kernel.cpp ****  */
  11:src/kernel.cpp **** 
  12:src/kernel.cpp **** #include "kernel.h"
  13:src/kernel.cpp **** #include "types.h"
  14:src/kernel.cpp **** #include "assert.h"
  15:src/kernel.cpp **** #include "syscalls_c.h"
  16:src/kernel.cpp **** #include "thread.h"
  17:src/kernel.cpp **** #include "sem.h"
  18:src/kernel.cpp **** #include "sched.h"
  19:src/kernel.cpp **** #include "usermain.h"
  20:src/kernel.cpp **** 
  21:src/kernel.cpp **** #include "console.h"
  22:src/kernel.cpp **** 
  23:src/kernel.cpp **** extern "C" void trap();
  24:src/kernel.cpp **** 
  25:src/kernel.cpp **** Kernel::Kernel(): heapManager(), scheduler(), timer(){}
  12              		.loc 1 25 1
  13              		.cfi_startproc
  14              		.cfi_personality 0x9b,DW.ref.__gxx_personality_v0
  15              		.cfi_lsda 0x1b,.LLSDA5
  16              	.LVL0:
  17 0000 130101FE 		addi	sp,sp,-32
  18              		.cfi_def_cfa_offset 32
  19 0004 233C1100 		sd	ra,24(sp)
  20 0008 23388100 		sd	s0,16(sp)
  21 000c 23349100 		sd	s1,8(sp)
  22 0010 23302101 		sd	s2,0(sp)
  23              		.cfi_offset 1, -8
  24              		.cfi_offset 8, -16
  25              		.cfi_offset 9, -24
  26              		.cfi_offset 18, -32
  27 0014 13040102 		addi	s0,sp,32
  28              		.cfi_def_cfa 8, 0
  29 0018 93040500 		mv	s1,a0
  30              	.LEHB0:
  31              	.LBB2:
  32              		.loc 1 25 53 is_stmt 0
  33 001c 97000000 		call	_ZN11HeapManagerC1Ev@plt
GAS LISTING /tmp/cch2EPX0.s 			page 2


  33      E7800000 
  34              	.LVL1:
  35              	.LEHE0:
  36 0024 13858400 		addi	a0,s1,8
  37              	.LEHB1:
  38 0028 97000000 		call	_ZN9SchedulerC1Ev@plt
  38      E7800000 
  39              	.LVL2:
  40              		.loc 1 25 53 discriminator 2
  41 0030 13858401 		addi	a0,s1,24
  42 0034 97000000 		call	_ZN5TimerC1Ev@plt
  42      E7800000 
  43              	.LVL3:
  44              	.LEHE1:
  45 003c 6F000002 		j	.L6
  46              	.L3:
  47 0040 13090500 		mv	s2,a0
  48              		.loc 1 25 53
  49 0044 13850400 		mv	a0,s1
  50 0048 97000000 		call	_ZN11HeapManagerD1Ev@plt
  50      E7800000 
  51              	.LVL4:
  52 0050 13050900 		mv	a0,s2
  53              	.LEHB2:
  54 0054 97000000 		call	_Unwind_Resume@plt
  54      E7800000 
  55              	.LVL5:
  56              	.LEHE2:
  57              	.L6:
  58              	.LBE2:
  59              		.loc 1 25 55
  60 005c 83308101 		ld	ra,24(sp)
  61              		.cfi_restore 1
  62 0060 03340101 		ld	s0,16(sp)
  63              		.cfi_restore 8
  64              		.cfi_def_cfa 2, 32
  65 0064 83348100 		ld	s1,8(sp)
  66              		.cfi_restore 9
  67              	.LVL6:
  68 0068 03390100 		ld	s2,0(sp)
  69              		.cfi_restore 18
  70 006c 13010102 		addi	sp,sp,32
  71              		.cfi_def_cfa_offset 0
  72 0070 67800000 		jr	ra
  73              		.cfi_endproc
  74              	.LFE5:
  75              		.globl	__gxx_personality_v0
  76              		.section	.gcc_except_table,"a",@progbits
  77              	.LLSDA5:
  78 0000 FF       		.byte	0xff
  79 0001 FF       		.byte	0xff
  80 0002 03       		.byte	0x3
  81 0003 27       		.byte	0x27
  82 0004 00000000 		.4byte	.LEHB0-.LFB5
  83 0008 00000000 		.4byte	.LEHE0-.LEHB0
  84 000c 00000000 		.4byte	0
  85 0010 00       		.byte	0
GAS LISTING /tmp/cch2EPX0.s 			page 3


  86 0011 00000000 		.4byte	.LEHB1-.LFB5
  87 0015 00000000 		.4byte	.LEHE1-.LEHB1
  88 0019 00000000 		.4byte	.L3-.LFB5
  89 001d 00       		.byte	0
  90 001e 00000000 		.4byte	.LEHB2-.LFB5
  91 0022 00000000 		.4byte	.LEHE2-.LEHB2
  92 0026 00000000 		.4byte	0
  93 002a 00       		.byte	0
  94              		.text
  96              		.globl	_ZN6KernelC1Ev
  97              		.set	_ZN6KernelC1Ev,_ZN6KernelC2Ev
  98              		.align	2
  99              		.globl	_ZN6Kernel10initialiseEv
 101              	_ZN6Kernel10initialiseEv:
 102              	.LFB7:
  26:src/kernel.cpp ****  
  27:src/kernel.cpp **** void Kernel::initialise(){
 103              		.loc 1 27 26 is_stmt 1
 104              		.cfi_startproc
 105              	.LVL7:
 106 0074 130101FF 		addi	sp,sp,-16
 107              		.cfi_def_cfa_offset 16
 108 0078 23341100 		sd	ra,8(sp)
 109 007c 23308100 		sd	s0,0(sp)
 110              		.cfi_offset 1, -8
 111              		.cfi_offset 8, -16
 112 0080 13040101 		addi	s0,sp,16
 113              		.cfi_def_cfa 8, 0
  28:src/kernel.cpp ****     /// set the trap vector
  29:src/kernel.cpp ****     __asm__ volatile ("csrw stvec, %0" :: "r"(trap));
 114              		.loc 1 29 5
 115              		.loc 1 29 53 is_stmt 0
 116 0084 97070000 		la	a5,trap
 116      83B70700 
 117              	#APP
 118              	# 29 "src/kernel.cpp" 1
  30              	
  31:src/kernel.cpp ****     
  32:src/kernel.cpp ****     /// initialise the heap manager
  33:src/kernel.cpp ****     heapManager.init((uintptr_t)HEAP_START_ADDR, (uintptr_t)HEAP_END_ADDR );
 119              		csrw stvec, a5
 120              	# 0 "" 2
 121              		.loc 1 33 5 is_stmt 1
 122              		.loc 1 33 21 is_stmt 0
 123              	#NO_APP
 124 0090 97070000 		la	a5,HEAP_END_ADDR
 124      83B70700 
 125 0098 03B60700 		ld	a2,0(a5)
 126 009c 97070000 		la	a5,HEAP_START_ADDR
 126      83B70700 
 127 00a4 83B50700 		ld	a1,0(a5)
 128 00a8 97000000 		call	_ZN11HeapManager4initEmm@plt
 128      E7800000 
 129              	.LVL8:
  34:src/kernel.cpp **** 
  35:src/kernel.cpp ****     return;
 130              		.loc 1 35 5 is_stmt 1
GAS LISTING /tmp/cch2EPX0.s 			page 4


  36:src/kernel.cpp **** }
 131              		.loc 1 36 1 is_stmt 0
 132 00b0 83308100 		ld	ra,8(sp)
 133              		.cfi_restore 1
 134 00b4 03340100 		ld	s0,0(sp)
 135              		.cfi_restore 8
 136              		.cfi_def_cfa 2, 16
 137 00b8 13010101 		addi	sp,sp,16
 138              		.cfi_def_cfa_offset 0
 139 00bc 67800000 		jr	ra
 140              		.cfi_endproc
 141              	.LFE7:
 143              		.align	2
 144              		.globl	_Z8testFuncPv
 146              	_Z8testFuncPv:
 147              	.LFB8:
  37:src/kernel.cpp **** 
  38:src/kernel.cpp **** // sem_t sem = 0;
  39:src/kernel.cpp **** 
  40:src/kernel.cpp **** void testFunc(void* arg){
 148              		.loc 1 40 25 is_stmt 1
 149              		.cfi_startproc
 150              	.LVL9:
 151 00c0 130101FF 		addi	sp,sp,-16
 152              		.cfi_def_cfa_offset 16
 153 00c4 23341100 		sd	ra,8(sp)
 154 00c8 23308100 		sd	s0,0(sp)
 155              		.cfi_offset 1, -8
 156              		.cfi_offset 8, -16
 157 00cc 13040101 		addi	s0,sp,16
 158              		.cfi_def_cfa 8, 0
  41:src/kernel.cpp ****     putc('t');
 159              		.loc 1 41 5
 160              		.loc 1 41 9 is_stmt 0
 161 00d0 13054007 		li	a0,116
 162              	.LVL10:
 163 00d4 97000000 		call	_Z4putcc@plt
 163      E7800000 
 164              	.LVL11:
  42:src/kernel.cpp ****     putc('e');
 165              		.loc 1 42 5 is_stmt 1
 166              		.loc 1 42 9 is_stmt 0
 167 00dc 13055006 		li	a0,101
 168 00e0 97000000 		call	_Z4putcc@plt
 168      E7800000 
 169              	.LVL12:
  43:src/kernel.cpp ****     putc('s');
 170              		.loc 1 43 5 is_stmt 1
 171              		.loc 1 43 9 is_stmt 0
 172 00e8 13053007 		li	a0,115
 173 00ec 97000000 		call	_Z4putcc@plt
 173      E7800000 
 174              	.LVL13:
  44:src/kernel.cpp ****     putc('t');
 175              		.loc 1 44 5 is_stmt 1
 176              		.loc 1 44 9 is_stmt 0
 177 00f4 13054007 		li	a0,116
GAS LISTING /tmp/cch2EPX0.s 			page 5


 178 00f8 97000000 		call	_Z4putcc@plt
 178      E7800000 
 179              	.LVL14:
  45:src/kernel.cpp **** 
  46:src/kernel.cpp ****     // sem_wait(sem);
  47:src/kernel.cpp ****     // thread_dispatch();
  48:src/kernel.cpp ****     // thread_dispatch();
  49:src/kernel.cpp ****     thread_dispatch();
 180              		.loc 1 49 5 is_stmt 1
 181              		.loc 1 49 20 is_stmt 0
 182 0100 97000000 		call	_Z15thread_dispatchv@plt
 182      E7800000 
 183              	.LVL15:
  50:src/kernel.cpp **** 
  51:src/kernel.cpp ****     // time_sleep(10);
  52:src/kernel.cpp ****     putc(' ');
 184              		.loc 1 52 5 is_stmt 1
 185              		.loc 1 52 9 is_stmt 0
 186 0108 13050002 		li	a0,32
 187 010c 97000000 		call	_Z4putcc@plt
 187      E7800000 
 188              	.LVL16:
  53:src/kernel.cpp **** 
  54:src/kernel.cpp ****     putc('t');
 189              		.loc 1 54 5 is_stmt 1
 190              		.loc 1 54 9 is_stmt 0
 191 0114 13054007 		li	a0,116
 192 0118 97000000 		call	_Z4putcc@plt
 192      E7800000 
 193              	.LVL17:
  55:src/kernel.cpp ****     putc('h');
 194              		.loc 1 55 5 is_stmt 1
 195              		.loc 1 55 9 is_stmt 0
 196 0120 13058006 		li	a0,104
 197 0124 97000000 		call	_Z4putcc@plt
 197      E7800000 
 198              	.LVL18:
  56:src/kernel.cpp ****     putc('r');
 199              		.loc 1 56 5 is_stmt 1
 200              		.loc 1 56 9 is_stmt 0
 201 012c 13052007 		li	a0,114
 202 0130 97000000 		call	_Z4putcc@plt
 202      E7800000 
 203              	.LVL19:
  57:src/kernel.cpp ****     putc('e');
 204              		.loc 1 57 5 is_stmt 1
 205              		.loc 1 57 9 is_stmt 0
 206 0138 13055006 		li	a0,101
 207 013c 97000000 		call	_Z4putcc@plt
 207      E7800000 
 208              	.LVL20:
  58:src/kernel.cpp ****     putc('a');
 209              		.loc 1 58 5 is_stmt 1
 210              		.loc 1 58 9 is_stmt 0
 211 0144 13051006 		li	a0,97
 212 0148 97000000 		call	_Z4putcc@plt
 212      E7800000 
GAS LISTING /tmp/cch2EPX0.s 			page 6


 213              	.LVL21:
  59:src/kernel.cpp ****     putc('d');
 214              		.loc 1 59 5 is_stmt 1
 215              		.loc 1 59 9 is_stmt 0
 216 0150 13054006 		li	a0,100
 217 0154 97000000 		call	_Z4putcc@plt
 217      E7800000 
 218              	.LVL22:
  60:src/kernel.cpp ****     putc('\n');
 219              		.loc 1 60 5 is_stmt 1
 220              		.loc 1 60 9 is_stmt 0
 221 015c 1305A000 		li	a0,10
 222 0160 97000000 		call	_Z4putcc@plt
 222      E7800000 
 223              	.LVL23:
  61:src/kernel.cpp **** }
 224              		.loc 1 61 1
 225 0168 83308100 		ld	ra,8(sp)
 226              		.cfi_restore 1
 227 016c 03340100 		ld	s0,0(sp)
 228              		.cfi_restore 8
 229              		.cfi_def_cfa 2, 16
 230 0170 13010101 		addi	sp,sp,16
 231              		.cfi_def_cfa_offset 0
 232 0174 67800000 		jr	ra
 233              		.cfi_endproc
 234              	.LFE8:
 236              		.align	2
 237              		.globl	_ZN6Kernel3runEv
 239              	_ZN6Kernel3runEv:
 240              	.LFB9:
  62:src/kernel.cpp **** 
  63:src/kernel.cpp **** Kernel::EXIT_CODE Kernel::run(){
 241              		.loc 1 63 32 is_stmt 1
 242              		.cfi_startproc
 243              	.LVL24:
 244 0178 130101FD 		addi	sp,sp,-48
 245              		.cfi_def_cfa_offset 48
 246 017c 23341102 		sd	ra,40(sp)
 247 0180 23308102 		sd	s0,32(sp)
 248 0184 233C9100 		sd	s1,24(sp)
 249 0188 23382101 		sd	s2,16(sp)
 250              		.cfi_offset 1, -8
 251              		.cfi_offset 8, -16
 252              		.cfi_offset 9, -24
 253              		.cfi_offset 18, -32
 254 018c 13040103 		addi	s0,sp,48
 255              		.cfi_def_cfa 8, 0
  64:src/kernel.cpp **** 
  65:src/kernel.cpp ****     thread_t t, test;
 256              		.loc 1 65 5
  66:src/kernel.cpp ****     
  67:src/kernel.cpp ****     thread_create(&t, 0, 0);
 257              		.loc 1 67 5
 258              		.loc 1 67 18 is_stmt 0
 259 0190 13060000 		li	a2,0
 260 0194 93050000 		li	a1,0
GAS LISTING /tmp/cch2EPX0.s 			page 7


 261 0198 130584FD 		addi	a0,s0,-40
 262              	.LVL25:
 263 019c 97000000 		call	_Z13thread_createPP7_threadPFvPvES2_@plt
 263      E7800000 
 264              	.LVL26:
  68:src/kernel.cpp ****     _thread::currentThread = Scheduler::get();
 265              		.loc 1 68 5 is_stmt 1
 266              		.loc 1 68 44 is_stmt 0
 267 01a4 97000000 		call	_ZN9Scheduler3getEv@plt
 267      E7800000 
 268              	.LVL27:
 269              		.loc 1 68 28
 270 01ac 97070000 		la	a5,_ZN7_thread13currentThreadE
 270      83B70700 
 271 01b4 23B0A700 		sd	a0,0(a5)
  69:src/kernel.cpp ****     
  70:src/kernel.cpp ****     /// change to user mode
  71:src/kernel.cpp ****     __asm__ volatile ("li a0, 0xff");
 272              		.loc 1 71 5 is_stmt 1
 273              		.loc 1 71 37 is_stmt 0
 274              	#APP
 275              	# 71 "src/kernel.cpp" 1
  72              	    __asm__ volatile ("ecall");
 276              		li a0, 0xff
 277              	# 0 "" 2
 278              		.loc 1 72 5 is_stmt 1
 279              		.loc 1 72 31 is_stmt 0
 280              	# 72 "src/kernel.cpp" 1
  73              	    
  74:src/kernel.cpp ****     putc('u');
 281              		ecall
 282              	# 0 "" 2
 283              		.loc 1 74 5 is_stmt 1
 284              		.loc 1 74 9 is_stmt 0
 285              	#NO_APP
 286 01c0 13055007 		li	a0,117
 287 01c4 97000000 		call	_Z4putcc@plt
 287      E7800000 
 288              	.LVL28:
  75:src/kernel.cpp ****     putc('s');
 289              		.loc 1 75 5 is_stmt 1
 290              		.loc 1 75 9 is_stmt 0
 291 01cc 13053007 		li	a0,115
 292 01d0 97000000 		call	_Z4putcc@plt
 292      E7800000 
 293              	.LVL29:
  76:src/kernel.cpp ****     putc('e');
 294              		.loc 1 76 5 is_stmt 1
 295              		.loc 1 76 9 is_stmt 0
 296 01d8 13055006 		li	a0,101
 297 01dc 97000000 		call	_Z4putcc@plt
 297      E7800000 
 298              	.LVL30:
  77:src/kernel.cpp ****     putc('r');
 299              		.loc 1 77 5 is_stmt 1
 300              		.loc 1 77 9 is_stmt 0
 301 01e4 13052007 		li	a0,114
GAS LISTING /tmp/cch2EPX0.s 			page 8


 302 01e8 97000000 		call	_Z4putcc@plt
 302      E7800000 
 303              	.LVL31:
  78:src/kernel.cpp ****     putc('\n');
 304              		.loc 1 78 5 is_stmt 1
 305              		.loc 1 78 9 is_stmt 0
 306 01f0 1305A000 		li	a0,10
 307 01f4 97000000 		call	_Z4putcc@plt
 307      E7800000 
 308              	.LVL32:
  79:src/kernel.cpp **** 
  80:src/kernel.cpp ****     
  81:src/kernel.cpp ****     /// NOW WE ARE IN USER MODE
  82:src/kernel.cpp ****     
  83:src/kernel.cpp ****     
  84:src/kernel.cpp ****     thread_create(&test, usermain, 0);
 309              		.loc 1 84 5 is_stmt 1
 310              		.loc 1 84 18 is_stmt 0
 311 01fc 13060000 		li	a2,0
 312 0200 97050000 		la	a1,_Z8usermainPv
 312      83B50500 
 313 0208 130504FD 		addi	a0,s0,-48
 314 020c 97000000 		call	_Z13thread_createPP7_threadPFvPvES2_@plt
 314      E7800000 
 315              	.LVL33:
  85:src/kernel.cpp ****     putc('k');
 316              		.loc 1 85 5 is_stmt 1
 317              		.loc 1 85 9 is_stmt 0
 318 0214 1305B006 		li	a0,107
 319 0218 97000000 		call	_Z4putcc@plt
 319      E7800000 
 320              	.LVL34:
  86:src/kernel.cpp ****     putc('e');
 321              		.loc 1 86 5 is_stmt 1
 322              		.loc 1 86 9 is_stmt 0
 323 0220 13055006 		li	a0,101
 324 0224 97000000 		call	_Z4putcc@plt
 324      E7800000 
 325              	.LVL35:
  87:src/kernel.cpp ****     putc('r');
 326              		.loc 1 87 5 is_stmt 1
 327              		.loc 1 87 9 is_stmt 0
 328 022c 13052007 		li	a0,114
 329 0230 97000000 		call	_Z4putcc@plt
 329      E7800000 
 330              	.LVL36:
  88:src/kernel.cpp ****     putc('n');
 331              		.loc 1 88 5 is_stmt 1
 332              		.loc 1 88 9 is_stmt 0
 333 0238 1305E006 		li	a0,110
 334 023c 97000000 		call	_Z4putcc@plt
 334      E7800000 
 335              	.LVL37:
  89:src/kernel.cpp ****     putc('e');
 336              		.loc 1 89 5 is_stmt 1
 337              		.loc 1 89 9 is_stmt 0
 338 0244 13055006 		li	a0,101
GAS LISTING /tmp/cch2EPX0.s 			page 9


 339 0248 97000000 		call	_Z4putcc@plt
 339      E7800000 
 340              	.LVL38:
  90:src/kernel.cpp ****     putc('l');
 341              		.loc 1 90 5 is_stmt 1
 342              		.loc 1 90 9 is_stmt 0
 343 0250 1305C006 		li	a0,108
 344 0254 97000000 		call	_Z4putcc@plt
 344      E7800000 
 345              	.LVL39:
  91:src/kernel.cpp ****     putc('\n');
 346              		.loc 1 91 5 is_stmt 1
 347              		.loc 1 91 9 is_stmt 0
 348 025c 1305A000 		li	a0,10
 349 0260 97000000 		call	_Z4putcc@plt
 349      E7800000 
 350              	.LVL40:
  92:src/kernel.cpp ****     int cnt = 0;
 351              		.loc 1 92 5 is_stmt 1
  93:src/kernel.cpp ****     time_sleep(25);
 352              		.loc 1 93 5
 353              		.loc 1 93 15 is_stmt 0
 354 0268 13059001 		li	a0,25
 355 026c 97000000 		call	_Z10time_sleepm@plt
 355      E7800000 
 356              	.LVL41:
  92:src/kernel.cpp ****     int cnt = 0;
 357              		.loc 1 92 9
 358 0274 93040000 		li	s1,0
 359 0278 6F000005 		j	.L12
 360              	.LVL42:
 361              	.L15:
  94:src/kernel.cpp ****     do{
  95:src/kernel.cpp ****         thread_dispatch();
  96:src/kernel.cpp ****         if(cnt ++ % 100 == 0){
  97:src/kernel.cpp ****             putc('\n');
 362              		.loc 1 97 13 is_stmt 1
 363              		.loc 1 97 17 is_stmt 0
 364 027c 1305A000 		li	a0,10
 365 0280 97000000 		call	_Z4putcc@plt
 365      E7800000 
 366              	.LVL43:
  98:src/kernel.cpp ****             putc('l');
 367              		.loc 1 98 13 is_stmt 1
 368              		.loc 1 98 17 is_stmt 0
 369 0288 1305C006 		li	a0,108
 370 028c 97000000 		call	_Z4putcc@plt
 370      E7800000 
 371              	.LVL44:
  99:src/kernel.cpp ****             putc('o');
 372              		.loc 1 99 13 is_stmt 1
 373              		.loc 1 99 17 is_stmt 0
 374 0294 1305F006 		li	a0,111
 375 0298 97000000 		call	_Z4putcc@plt
 375      E7800000 
 376              	.LVL45:
 100:src/kernel.cpp ****             putc('o');
GAS LISTING /tmp/cch2EPX0.s 			page 10


 377              		.loc 1 100 13 is_stmt 1
 378              		.loc 1 100 17 is_stmt 0
 379 02a0 1305F006 		li	a0,111
 380 02a4 97000000 		call	_Z4putcc@plt
 380      E7800000 
 381              	.LVL46:
 101:src/kernel.cpp ****             putc('p');
 382              		.loc 1 101 13 is_stmt 1
 383              		.loc 1 101 17 is_stmt 0
 384 02ac 13050007 		li	a0,112
 385 02b0 97000000 		call	_Z4putcc@plt
 385      E7800000 
 386              	.LVL47:
 102:src/kernel.cpp ****             putc('\n');
 387              		.loc 1 102 13 is_stmt 1
 388              		.loc 1 102 17 is_stmt 0
 389 02b8 1305A000 		li	a0,10
 390 02bc 97000000 		call	_Z4putcc@plt
 390      E7800000 
 391              	.LVL48:
 392              	.L13:
  63:src/kernel.cpp **** 
 393              		.loc 1 63 32
 394 02c4 93040900 		mv	s1,s2
 395              	.L12:
 396              	.LVL49:
  94:src/kernel.cpp ****         thread_dispatch();
 397              		.loc 1 94 5 is_stmt 1
  95:src/kernel.cpp ****         if(cnt ++ % 100 == 0){
 398              		.loc 1 95 9
  95:src/kernel.cpp ****         if(cnt ++ % 100 == 0){
 399              		.loc 1 95 24 is_stmt 0
 400 02c8 97000000 		call	_Z15thread_dispatchv@plt
 400      E7800000 
 401              	.LVL50:
  96:src/kernel.cpp ****             putc('\n');
 402              		.loc 1 96 9 is_stmt 1
  96:src/kernel.cpp ****             putc('\n');
 403              		.loc 1 96 16 is_stmt 0
 404 02d0 1B891400 		addiw	s2,s1,1
 405              	.LVL51:
  96:src/kernel.cpp ****             putc('\n');
 406              		.loc 1 96 19
 407 02d4 93074006 		li	a5,100
 408 02d8 BBE4F402 		remw	s1,s1,a5
 409              	.LVL52:
  96:src/kernel.cpp ****             putc('\n');
 410              		.loc 1 96 9
 411 02dc E39404FE 		bnez	s1,.L13
 412 02e0 6FF0DFF9 		j	.L15
 413              		.cfi_endproc
 414              	.LFE9:
 416              	.Letext0:
 417              		.file 2 "./lib/hw.h"
 418              		.file 3 "./h/types.h"
 419              		.file 4 "./h/heapManager.h"
 420              		.file 5 "./h/sched.h"
GAS LISTING /tmp/cch2EPX0.s 			page 11


 421              		.file 6 "./h/thread.h"
 422              		.file 7 "./h/timer.h"
 423              		.file 8 "./h/kernel.h"
 424              		.file 9 "./h/syscalls_c.h"
 3375              		.align	3
 3378              	DW.ref.__gxx_personality_v0:
 3379 0000 00000000 		.dword	__gxx_personality_v0
 3379      00000000 
 3380              		.ident	"GCC: (Ubuntu 9.4.0-1ubuntu1~20.04) 9.4.0"
 3381              		.section	.note.GNU-stack,"",@progbits
GAS LISTING /tmp/cch2EPX0.s 			page 12


DEFINED SYMBOLS
                            *ABS*:0000000000000000 kernel.cpp
     /tmp/cch2EPX0.s:9      .text:0000000000000000 _ZN6KernelC2Ev
     /tmp/cch2EPX0.s:13     .text:0000000000000000 .L0 
     /tmp/cch2EPX0.s:3378   .data.rel.local.DW.ref.__gxx_personality_v0:0000000000000000 DW.ref.__gxx_personality_v0
     /tmp/cch2EPX0.s:17     .text:0000000000000000 .L0 
     /tmp/cch2EPX0.s:18     .text:0000000000000004 .L0 
     /tmp/cch2EPX0.s:23     .text:0000000000000014 .L0 
     /tmp/cch2EPX0.s:24     .text:0000000000000014 .L0 
     /tmp/cch2EPX0.s:25     .text:0000000000000014 .L0 
     /tmp/cch2EPX0.s:26     .text:0000000000000014 .L0 
     /tmp/cch2EPX0.s:28     .text:0000000000000018 .L0 
     /tmp/cch2EPX0.s:33     .text:000000000000001c .L0 
     /tmp/cch2EPX0.s:41     .text:0000000000000030 .L0 
     /tmp/cch2EPX0.s:49     .text:0000000000000044 .L0 
     /tmp/cch2EPX0.s:60     .text:000000000000005c .L0 
     /tmp/cch2EPX0.s:61     .text:0000000000000060 .L0 
     /tmp/cch2EPX0.s:63     .text:0000000000000064 .L0 
     /tmp/cch2EPX0.s:64     .text:0000000000000064 .L0 
     /tmp/cch2EPX0.s:66     .text:0000000000000068 .L0 
     /tmp/cch2EPX0.s:69     .text:000000000000006c .L0 
     /tmp/cch2EPX0.s:71     .text:0000000000000070 .L0 
     /tmp/cch2EPX0.s:73     .text:0000000000000074 .L0 
     /tmp/cch2EPX0.s:9      .text:0000000000000000 _ZN6KernelC1Ev
     /tmp/cch2EPX0.s:101    .text:0000000000000074 _ZN6Kernel10initialiseEv
     /tmp/cch2EPX0.s:104    .text:0000000000000074 .L0 
     /tmp/cch2EPX0.s:106    .text:0000000000000074 .L0 
     /tmp/cch2EPX0.s:107    .text:0000000000000078 .L0 
     /tmp/cch2EPX0.s:110    .text:0000000000000080 .L0 
     /tmp/cch2EPX0.s:111    .text:0000000000000080 .L0 
     /tmp/cch2EPX0.s:113    .text:0000000000000084 .L0 
     /tmp/cch2EPX0.s:115    .text:0000000000000084 .L0 
     /tmp/cch2EPX0.s:116    .text:0000000000000084 .L0 
     /tmp/cch2EPX0.s:122    .text:0000000000000090 .L0 
     /tmp/cch2EPX0.s:124    .text:0000000000000090 .L0 
     /tmp/cch2EPX0.s:131    .text:00000000000000b0 .L0 
     /tmp/cch2EPX0.s:132    .text:00000000000000b0 .L0 
     /tmp/cch2EPX0.s:133    .text:00000000000000b4 .L0 
     /tmp/cch2EPX0.s:135    .text:00000000000000b8 .L0 
     /tmp/cch2EPX0.s:136    .text:00000000000000b8 .L0 
     /tmp/cch2EPX0.s:138    .text:00000000000000bc .L0 
     /tmp/cch2EPX0.s:140    .text:00000000000000c0 .L0 
     /tmp/cch2EPX0.s:146    .text:00000000000000c0 _Z8testFuncPv
     /tmp/cch2EPX0.s:149    .text:00000000000000c0 .L0 
     /tmp/cch2EPX0.s:151    .text:00000000000000c0 .L0 
     /tmp/cch2EPX0.s:152    .text:00000000000000c4 .L0 
     /tmp/cch2EPX0.s:155    .text:00000000000000cc .L0 
     /tmp/cch2EPX0.s:156    .text:00000000000000cc .L0 
     /tmp/cch2EPX0.s:158    .text:00000000000000d0 .L0 
     /tmp/cch2EPX0.s:160    .text:00000000000000d0 .L0 
     /tmp/cch2EPX0.s:161    .text:00000000000000d0 .L0 
     /tmp/cch2EPX0.s:166    .text:00000000000000dc .L0 
     /tmp/cch2EPX0.s:167    .text:00000000000000dc .L0 
     /tmp/cch2EPX0.s:171    .text:00000000000000e8 .L0 
     /tmp/cch2EPX0.s:172    .text:00000000000000e8 .L0 
     /tmp/cch2EPX0.s:176    .text:00000000000000f4 .L0 
     /tmp/cch2EPX0.s:177    .text:00000000000000f4 .L0 
GAS LISTING /tmp/cch2EPX0.s 			page 13


     /tmp/cch2EPX0.s:181    .text:0000000000000100 .L0 
     /tmp/cch2EPX0.s:182    .text:0000000000000100 .L0 
     /tmp/cch2EPX0.s:185    .text:0000000000000108 .L0 
     /tmp/cch2EPX0.s:186    .text:0000000000000108 .L0 
     /tmp/cch2EPX0.s:190    .text:0000000000000114 .L0 
     /tmp/cch2EPX0.s:191    .text:0000000000000114 .L0 
     /tmp/cch2EPX0.s:195    .text:0000000000000120 .L0 
     /tmp/cch2EPX0.s:196    .text:0000000000000120 .L0 
     /tmp/cch2EPX0.s:200    .text:000000000000012c .L0 
     /tmp/cch2EPX0.s:201    .text:000000000000012c .L0 
     /tmp/cch2EPX0.s:205    .text:0000000000000138 .L0 
     /tmp/cch2EPX0.s:206    .text:0000000000000138 .L0 
     /tmp/cch2EPX0.s:210    .text:0000000000000144 .L0 
     /tmp/cch2EPX0.s:211    .text:0000000000000144 .L0 
     /tmp/cch2EPX0.s:215    .text:0000000000000150 .L0 
     /tmp/cch2EPX0.s:216    .text:0000000000000150 .L0 
     /tmp/cch2EPX0.s:220    .text:000000000000015c .L0 
     /tmp/cch2EPX0.s:221    .text:000000000000015c .L0 
     /tmp/cch2EPX0.s:225    .text:0000000000000168 .L0 
     /tmp/cch2EPX0.s:226    .text:000000000000016c .L0 
     /tmp/cch2EPX0.s:228    .text:0000000000000170 .L0 
     /tmp/cch2EPX0.s:229    .text:0000000000000170 .L0 
     /tmp/cch2EPX0.s:231    .text:0000000000000174 .L0 
     /tmp/cch2EPX0.s:233    .text:0000000000000178 .L0 
     /tmp/cch2EPX0.s:239    .text:0000000000000178 _ZN6Kernel3runEv
     /tmp/cch2EPX0.s:242    .text:0000000000000178 .L0 
     /tmp/cch2EPX0.s:244    .text:0000000000000178 .L0 
     /tmp/cch2EPX0.s:245    .text:000000000000017c .L0 
     /tmp/cch2EPX0.s:250    .text:000000000000018c .L0 
     /tmp/cch2EPX0.s:251    .text:000000000000018c .L0 
     /tmp/cch2EPX0.s:252    .text:000000000000018c .L0 
     /tmp/cch2EPX0.s:253    .text:000000000000018c .L0 
     /tmp/cch2EPX0.s:255    .text:0000000000000190 .L0 
     /tmp/cch2EPX0.s:257    .text:0000000000000190 .L0 
     /tmp/cch2EPX0.s:258    .text:0000000000000190 .L0 
     /tmp/cch2EPX0.s:259    .text:0000000000000190 .L0 
     /tmp/cch2EPX0.s:266    .text:00000000000001a4 .L0 
     /tmp/cch2EPX0.s:267    .text:00000000000001a4 .L0 
     /tmp/cch2EPX0.s:270    .text:00000000000001ac .L0 
     /tmp/cch2EPX0.s:273    .text:00000000000001b8 .L0 
      src/kernel.cpp:71     .text:00000000000001b8 .L0 
     /tmp/cch2EPX0.s:279    .text:00000000000001bc .L0 
      src/kernel.cpp:72     .text:00000000000001bc .L0 
     /tmp/cch2EPX0.s:284    .text:00000000000001c0 .L0 
     /tmp/cch2EPX0.s:286    .text:00000000000001c0 .L0 
     /tmp/cch2EPX0.s:290    .text:00000000000001cc .L0 
     /tmp/cch2EPX0.s:291    .text:00000000000001cc .L0 
     /tmp/cch2EPX0.s:295    .text:00000000000001d8 .L0 
     /tmp/cch2EPX0.s:296    .text:00000000000001d8 .L0 
     /tmp/cch2EPX0.s:300    .text:00000000000001e4 .L0 
     /tmp/cch2EPX0.s:301    .text:00000000000001e4 .L0 
     /tmp/cch2EPX0.s:305    .text:00000000000001f0 .L0 
     /tmp/cch2EPX0.s:306    .text:00000000000001f0 .L0 
     /tmp/cch2EPX0.s:310    .text:00000000000001fc .L0 
     /tmp/cch2EPX0.s:311    .text:00000000000001fc .L0 
     /tmp/cch2EPX0.s:317    .text:0000000000000214 .L0 
     /tmp/cch2EPX0.s:318    .text:0000000000000214 .L0 
GAS LISTING /tmp/cch2EPX0.s 			page 14


     /tmp/cch2EPX0.s:322    .text:0000000000000220 .L0 
     /tmp/cch2EPX0.s:323    .text:0000000000000220 .L0 
     /tmp/cch2EPX0.s:327    .text:000000000000022c .L0 
     /tmp/cch2EPX0.s:328    .text:000000000000022c .L0 
     /tmp/cch2EPX0.s:332    .text:0000000000000238 .L0 
     /tmp/cch2EPX0.s:333    .text:0000000000000238 .L0 
     /tmp/cch2EPX0.s:337    .text:0000000000000244 .L0 
     /tmp/cch2EPX0.s:338    .text:0000000000000244 .L0 
     /tmp/cch2EPX0.s:342    .text:0000000000000250 .L0 
     /tmp/cch2EPX0.s:343    .text:0000000000000250 .L0 
     /tmp/cch2EPX0.s:347    .text:000000000000025c .L0 
     /tmp/cch2EPX0.s:348    .text:000000000000025c .L0 
     /tmp/cch2EPX0.s:352    .text:0000000000000268 .L0 
     /tmp/cch2EPX0.s:353    .text:0000000000000268 .L0 
     /tmp/cch2EPX0.s:354    .text:0000000000000268 .L0 
     /tmp/cch2EPX0.s:358    .text:0000000000000274 .L0 
     /tmp/cch2EPX0.s:363    .text:000000000000027c .L0 
     /tmp/cch2EPX0.s:364    .text:000000000000027c .L0 
     /tmp/cch2EPX0.s:368    .text:0000000000000288 .L0 
     /tmp/cch2EPX0.s:369    .text:0000000000000288 .L0 
     /tmp/cch2EPX0.s:373    .text:0000000000000294 .L0 
     /tmp/cch2EPX0.s:374    .text:0000000000000294 .L0 
     /tmp/cch2EPX0.s:378    .text:00000000000002a0 .L0 
     /tmp/cch2EPX0.s:379    .text:00000000000002a0 .L0 
     /tmp/cch2EPX0.s:383    .text:00000000000002ac .L0 
     /tmp/cch2EPX0.s:384    .text:00000000000002ac .L0 
     /tmp/cch2EPX0.s:388    .text:00000000000002b8 .L0 
     /tmp/cch2EPX0.s:389    .text:00000000000002b8 .L0 
     /tmp/cch2EPX0.s:394    .text:00000000000002c4 .L0 
     /tmp/cch2EPX0.s:398    .text:00000000000002c8 .L0 
     /tmp/cch2EPX0.s:399    .text:00000000000002c8 .L0 
     /tmp/cch2EPX0.s:400    .text:00000000000002c8 .L0 
     /tmp/cch2EPX0.s:403    .text:00000000000002d0 .L0 
     /tmp/cch2EPX0.s:404    .text:00000000000002d0 .L0 
     /tmp/cch2EPX0.s:407    .text:00000000000002d4 .L0 
     /tmp/cch2EPX0.s:411    .text:00000000000002dc .L0 
     /tmp/cch2EPX0.s:413    .text:00000000000002e4 .L0 
     /tmp/cch2EPX0.s:425    .text:00000000000002e4 .L0 
     /tmp/cch2EPX0.s:116    .text:0000000000000084 .L0 
     /tmp/cch2EPX0.s:124    .text:0000000000000090 .L0 
     /tmp/cch2EPX0.s:126    .text:000000000000009c .L0 
     /tmp/cch2EPX0.s:270    .text:00000000000001ac .L0 
     /tmp/cch2EPX0.s:312    .text:0000000000000200 .L0 
     /tmp/cch2EPX0.s:57     .text:000000000000005c .L6
     /tmp/cch2EPX0.s:395    .text:00000000000002c8 .L12
     /tmp/cch2EPX0.s:392    .text:00000000000002c4 .L13
     /tmp/cch2EPX0.s:361    .text:000000000000027c .L15
     /tmp/cch2EPX0.s:30     .text:000000000000001c .LEHB0
     /tmp/cch2EPX0.s:10     .text:0000000000000000 .LFB5
     /tmp/cch2EPX0.s:35     .text:0000000000000024 .LEHE0
     /tmp/cch2EPX0.s:37     .text:0000000000000028 .LEHB1
     /tmp/cch2EPX0.s:44     .text:000000000000003c .LEHE1
     /tmp/cch2EPX0.s:46     .text:0000000000000040 .L3
     /tmp/cch2EPX0.s:53     .text:0000000000000054 .LEHB2
     /tmp/cch2EPX0.s:56     .text:000000000000005c .LEHE2
     /tmp/cch2EPX0.s:2088   .debug_abbrev:0000000000000000 .Ldebug_abbrev0
     /tmp/cch2EPX0.s:3326   .debug_str:00000000000006b4 .LASF126
GAS LISTING /tmp/cch2EPX0.s 			page 15


     /tmp/cch2EPX0.s:3106   .debug_str:00000000000000b6 .LASF127
     /tmp/cch2EPX0.s:3256   .debug_str:00000000000004c0 .LASF128
     /tmp/cch2EPX0.s:5      .text:0000000000000000 .Ltext0
     /tmp/cch2EPX0.s:416    .text:00000000000002e4 .Letext0
     /tmp/cch2EPX0.s:3084   .debug_line:0000000000000000 .Ldebug_line0
     /tmp/cch2EPX0.s:3242   .debug_str:000000000000046e .LASF0
     /tmp/cch2EPX0.s:3262   .debug_str:0000000000000520 .LASF1
     /tmp/cch2EPX0.s:3224   .debug_str:00000000000003dd .LASF2
     /tmp/cch2EPX0.s:3304   .debug_str:0000000000000626 .LASF3
     /tmp/cch2EPX0.s:3188   .debug_str:00000000000002f5 .LASF4
     /tmp/cch2EPX0.s:3308   .debug_str:0000000000000635 .LASF5
     /tmp/cch2EPX0.s:3120   .debug_str:0000000000000137 .LASF6
     /tmp/cch2EPX0.s:3152   .debug_str:000000000000021b .LASF7
     /tmp/cch2EPX0.s:3268   .debug_str:0000000000000544 .LASF8
     /tmp/cch2EPX0.s:3240   .debug_str:000000000000045b .LASF9
     /tmp/cch2EPX0.s:3340   .debug_str:00000000000007de .LASF10
     /tmp/cch2EPX0.s:3172   .debug_str:000000000000029c .LASF11
     /tmp/cch2EPX0.s:3280   .debug_str:0000000000000589 .LASF12
     /tmp/cch2EPX0.s:3330   .debug_str:0000000000000784 .LASF13
     /tmp/cch2EPX0.s:3124   .debug_str:0000000000000147 .LASF14
     /tmp/cch2EPX0.s:3090   .debug_str:0000000000000015 .LASF15
     /tmp/cch2EPX0.s:3136   .debug_str:000000000000018f .LASF16
     /tmp/cch2EPX0.s:3300   .debug_str:0000000000000605 .LASF17
     /tmp/cch2EPX0.s:3144   .debug_str:00000000000001d2 .LASF18
     /tmp/cch2EPX0.s:3160   .debug_str:000000000000025c .LASF19
     /tmp/cch2EPX0.s:3244   .debug_str:000000000000047b .LASF24
     /tmp/cch2EPX0.s:3096   .debug_str:000000000000006f .LASF39
     /tmp/cch2EPX0.s:3178   .debug_str:00000000000002c1 .LASF20
     /tmp/cch2EPX0.s:3164   .debug_str:0000000000000272 .LASF21
     /tmp/cch2EPX0.s:3358   .debug_str:0000000000000850 .LASF22
     /tmp/cch2EPX0.s:3338   .debug_str:00000000000007d5 .LASF23
     /tmp/cch2EPX0.s:3170   .debug_str:0000000000000287 .LASF26
     /tmp/cch2EPX0.s:3086   .debug_str:0000000000000000 .LASF25
     /tmp/cch2EPX0.s:3254   .debug_str:00000000000004ab .LASF27
     /tmp/cch2EPX0.s:3272   .debug_str:000000000000055e .LASF28
     /tmp/cch2EPX0.s:3208   .debug_str:000000000000037d .LASF29
     /tmp/cch2EPX0.s:3232   .debug_str:0000000000000425 .LASF30
     /tmp/cch2EPX0.s:3228   .debug_str:00000000000003fa .LASF32
     /tmp/cch2EPX0.s:3220   .debug_str:00000000000003c9 .LASF31
     /tmp/cch2EPX0.s:3334   .debug_str:00000000000007ac .LASF33
     /tmp/cch2EPX0.s:3134   .debug_str:0000000000000186 .LASF34
     /tmp/cch2EPX0.s:3108   .debug_str:00000000000000c5 .LASF35
     /tmp/cch2EPX0.s:3328   .debug_str:0000000000000778 .LASF48
     /tmp/cch2EPX0.s:3150   .debug_str:00000000000001fb .LASF50
     /tmp/cch2EPX0.s:3098   .debug_str:0000000000000085 .LASF36
     /tmp/cch2EPX0.s:3250   .debug_str:000000000000049b .LASF60
     /tmp/cch2EPX0.s:3204   .debug_str:000000000000036d .LASF37
     /tmp/cch2EPX0.s:3186   .debug_str:00000000000002ed .LASF38
     /tmp/cch2EPX0.s:3360   .debug_str:0000000000000856 .LASF40
     /tmp/cch2EPX0.s:3292   .debug_str:00000000000005de .LASF41
     /tmp/cch2EPX0.s:3234   .debug_str:0000000000000437 .LASF42
     /tmp/cch2EPX0.s:3270   .debug_str:0000000000000557 .LASF43
     /tmp/cch2EPX0.s:3366   .debug_str:0000000000000887 .LASF44
     /tmp/cch2EPX0.s:3364   .debug_str:0000000000000880 .LASF45
     /tmp/cch2EPX0.s:3094   .debug_str:000000000000004a .LASF46
     /tmp/cch2EPX0.s:3168   .debug_str:0000000000000282 .LASF47
     /tmp/cch2EPX0.s:3214   .debug_str:00000000000003ad .LASF49
GAS LISTING /tmp/cch2EPX0.s 			page 16


     /tmp/cch2EPX0.s:3346   .debug_str:000000000000080b .LASF51
     /tmp/cch2EPX0.s:3246   .debug_str:0000000000000487 .LASF129
     /tmp/cch2EPX0.s:3320   .debug_str:0000000000000687 .LASF130
     /tmp/cch2EPX0.s:3312   .debug_str:000000000000064c .LASF52
     /tmp/cch2EPX0.s:3200   .debug_str:0000000000000339 .LASF53
     /tmp/cch2EPX0.s:3154   .debug_str:0000000000000222 .LASF131
     /tmp/cch2EPX0.s:3192   .debug_str:0000000000000305 .LASF54
     /tmp/cch2EPX0.s:3370   .debug_str:0000000000000892 .LASF55
     /tmp/cch2EPX0.s:3126   .debug_str:0000000000000157 .LASF56
     /tmp/cch2EPX0.s:3110   .debug_str:00000000000000e2 .LASF57
     /tmp/cch2EPX0.s:3162   .debug_str:0000000000000266 .LASF58
     /tmp/cch2EPX0.s:3362   .debug_str:0000000000000865 .LASF59
     /tmp/cch2EPX0.s:3342   .debug_str:00000000000007ee .LASF62
     /tmp/cch2EPX0.s:3318   .debug_str:000000000000067f .LASF132
     /tmp/cch2EPX0.s:3288   .debug_str:00000000000005bf .LASF133
     /tmp/cch2EPX0.s:3198   .debug_str:0000000000000332 .LASF61
     /tmp/cch2EPX0.s:3194   .debug_str:0000000000000310 .LASF63
     /tmp/cch2EPX0.s:3348   .debug_str:000000000000081e .LASF64
     /tmp/cch2EPX0.s:3324   .debug_str:00000000000006ab .LASF65
     /tmp/cch2EPX0.s:3286   .debug_str:00000000000005b6 .LASF66
     /tmp/cch2EPX0.s:3190   .debug_str:00000000000002fc .LASF67
     /tmp/cch2EPX0.s:3218   .debug_str:00000000000003be .LASF68
     /tmp/cch2EPX0.s:3222   .debug_str:00000000000003d6 .LASF69
     /tmp/cch2EPX0.s:3088   .debug_str:000000000000000d .LASF70
     /tmp/cch2EPX0.s:3282   .debug_str:0000000000000598 .LASF71
     /tmp/cch2EPX0.s:3290   .debug_str:00000000000005d5 .LASF72
     /tmp/cch2EPX0.s:3252   .debug_str:00000000000004a4 .LASF73
     /tmp/cch2EPX0.s:3184   .debug_str:00000000000002e4 .LASF74
     /tmp/cch2EPX0.s:3274   .debug_str:0000000000000563 .LASF75
     /tmp/cch2EPX0.s:3206   .debug_str:0000000000000376 .LASF76
     /tmp/cch2EPX0.s:3140   .debug_str:00000000000001ac .LASF134
     /tmp/cch2EPX0.s:3258   .debug_str:00000000000004dc .LASF135
     /tmp/cch2EPX0.s:3278   .debug_str:000000000000057f .LASF77
     /tmp/cch2EPX0.s:3248   .debug_str:0000000000000490 .LASF78
     /tmp/cch2EPX0.s:3100   .debug_str:000000000000008d .LASF79
     /tmp/cch2EPX0.s:3316   .debug_str:0000000000000663 .LASF136
     /tmp/cch2EPX0.s:3158   .debug_str:0000000000000248 .LASF137
     /tmp/cch2EPX0.s:3306   .debug_str:000000000000062d .LASF80
     /tmp/cch2EPX0.s:3156   .debug_str:0000000000000230 .LASF81
     /tmp/cch2EPX0.s:3118   .debug_str:000000000000012e .LASF82
     /tmp/cch2EPX0.s:3112   .debug_str:00000000000000fa .LASF83
     /tmp/cch2EPX0.s:3146   .debug_str:00000000000001e8 .LASF84
     /tmp/cch2EPX0.s:3230   .debug_str:0000000000000420 .LASF85
     /tmp/cch2EPX0.s:3132   .debug_str:000000000000017c .LASF86
     /tmp/cch2EPX0.s:3102   .debug_str:000000000000009f .LASF87
     /tmp/cch2EPX0.s:3276   .debug_str:000000000000056c .LASF88
     /tmp/cch2EPX0.s:3294   .debug_str:00000000000005e6 .LASF89
     /tmp/cch2EPX0.s:3236   .debug_str:0000000000000446 .LASF90
     /tmp/cch2EPX0.s:3352   .debug_str:000000000000082d .LASF91
     /tmp/cch2EPX0.s:3368   .debug_str:000000000000088c .LASF92
     /tmp/cch2EPX0.s:3104   .debug_str:00000000000000a4 .LASF93
     /tmp/cch2EPX0.s:3354   .debug_str:0000000000000846 .LASF94
     /tmp/cch2EPX0.s:3128   .debug_str:0000000000000161 .LASF95
     /tmp/cch2EPX0.s:3314   .debug_str:0000000000000651 .LASF96
     /tmp/cch2EPX0.s:3202   .debug_str:000000000000034e .LASF97
     /tmp/cch2EPX0.s:3114   .debug_str:0000000000000113 .LASF98
     /tmp/cch2EPX0.s:3350   .debug_str:0000000000000826 .LASF99
GAS LISTING /tmp/cch2EPX0.s 			page 17


     /tmp/cch2EPX0.s:3180   .debug_str:00000000000002c7 .LASF100
     /tmp/cch2EPX0.s:3196   .debug_str:0000000000000325 .LASF101
     /tmp/cch2EPX0.s:3344   .debug_str:0000000000000806 .LASF102
     /tmp/cch2EPX0.s:3212   .debug_str:00000000000003a6 .LASF103
     /tmp/cch2EPX0.s:3130   .debug_str:0000000000000172 .LASF138
     /tmp/cch2EPX0.s:3116   .debug_str:0000000000000121 .LASF104
     /tmp/cch2EPX0.s:3322   .debug_str:000000000000069e .LASF105
     /tmp/cch2EPX0.s:3298   .debug_str:00000000000005f6 .LASF106
     /tmp/cch2EPX0.s:3336   .debug_str:00000000000007cd .LASF107
     /tmp/cch2EPX0.s:3238   .debug_str:000000000000044c .LASF108
     /tmp/cch2EPX0.s:3138   .debug_str:000000000000019b .LASF139
     /tmp/cch2EPX0.s:3264   .debug_str:0000000000000533 .LASF109
     /tmp/cch2EPX0.s:3332   .debug_str:0000000000000793 .LASF110
     /tmp/cch2EPX0.s:3216   .debug_str:00000000000003b2 .LASF111
     /tmp/cch2EPX0.s:3166   .debug_str:0000000000000278 .LASF112
     /tmp/cch2EPX0.s:3266   .debug_str:000000000000053e .LASF113
     /tmp/cch2EPX0.s:240    .text:0000000000000178 .LFB9
     /tmp/cch2EPX0.s:414    .text:00000000000002e4 .LFE9
     /tmp/cch2EPX0.s:3356   .debug_str:000000000000084b .LASF117
     /tmp/cch2EPX0.s:2993   .debug_loc:0000000000000000 .LLST3
     /tmp/cch2EPX0.s:3296   .debug_str:00000000000005f1 .LASF114
     /tmp/cch2EPX0.s:3007   .debug_loc:0000000000000039 .LLST4
     /tmp/cch2EPX0.s:264    .text:00000000000001a4 .LVL26
     /tmp/cch2EPX0.s:268    .text:00000000000001ac .LVL27
     /tmp/cch2EPX0.s:288    .text:00000000000001cc .LVL28
     /tmp/cch2EPX0.s:293    .text:00000000000001d8 .LVL29
     /tmp/cch2EPX0.s:298    .text:00000000000001e4 .LVL30
     /tmp/cch2EPX0.s:303    .text:00000000000001f0 .LVL31
     /tmp/cch2EPX0.s:308    .text:00000000000001fc .LVL32
     /tmp/cch2EPX0.s:315    .text:0000000000000214 .LVL33
     /tmp/cch2EPX0.s:320    .text:0000000000000220 .LVL34
     /tmp/cch2EPX0.s:325    .text:000000000000022c .LVL35
     /tmp/cch2EPX0.s:330    .text:0000000000000238 .LVL36
     /tmp/cch2EPX0.s:335    .text:0000000000000244 .LVL37
     /tmp/cch2EPX0.s:340    .text:0000000000000250 .LVL38
     /tmp/cch2EPX0.s:345    .text:000000000000025c .LVL39
     /tmp/cch2EPX0.s:350    .text:0000000000000268 .LVL40
     /tmp/cch2EPX0.s:356    .text:0000000000000274 .LVL41
     /tmp/cch2EPX0.s:366    .text:0000000000000288 .LVL43
     /tmp/cch2EPX0.s:371    .text:0000000000000294 .LVL44
     /tmp/cch2EPX0.s:376    .text:00000000000002a0 .LVL45
     /tmp/cch2EPX0.s:381    .text:00000000000002ac .LVL46
     /tmp/cch2EPX0.s:386    .text:00000000000002b8 .LVL47
     /tmp/cch2EPX0.s:391    .text:00000000000002c4 .LVL48
     /tmp/cch2EPX0.s:401    .text:00000000000002d0 .LVL50
     /tmp/cch2EPX0.s:3122   .debug_str:000000000000013e .LASF115
     /tmp/cch2EPX0.s:3148   .debug_str:00000000000001ed .LASF116
     /tmp/cch2EPX0.s:147    .text:00000000000000c0 .LFB8
     /tmp/cch2EPX0.s:234    .text:0000000000000178 .LFE8
     /tmp/cch2EPX0.s:3025   .debug_loc:0000000000000085 .LLST2
     /tmp/cch2EPX0.s:164    .text:00000000000000dc .LVL11
     /tmp/cch2EPX0.s:169    .text:00000000000000e8 .LVL12
     /tmp/cch2EPX0.s:174    .text:00000000000000f4 .LVL13
     /tmp/cch2EPX0.s:179    .text:0000000000000100 .LVL14
     /tmp/cch2EPX0.s:183    .text:0000000000000108 .LVL15
     /tmp/cch2EPX0.s:188    .text:0000000000000114 .LVL16
     /tmp/cch2EPX0.s:193    .text:0000000000000120 .LVL17
GAS LISTING /tmp/cch2EPX0.s 			page 18


     /tmp/cch2EPX0.s:198    .text:000000000000012c .LVL18
     /tmp/cch2EPX0.s:203    .text:0000000000000138 .LVL19
     /tmp/cch2EPX0.s:208    .text:0000000000000144 .LVL20
     /tmp/cch2EPX0.s:213    .text:0000000000000150 .LVL21
     /tmp/cch2EPX0.s:218    .text:000000000000015c .LVL22
     /tmp/cch2EPX0.s:223    .text:0000000000000168 .LVL23
     /tmp/cch2EPX0.s:102    .text:0000000000000074 .LFB7
     /tmp/cch2EPX0.s:141    .text:00000000000000c0 .LFE7
     /tmp/cch2EPX0.s:3039   .debug_loc:00000000000000be .LLST1
     /tmp/cch2EPX0.s:129    .text:00000000000000b0 .LVL8
     /tmp/cch2EPX0.s:3226   .debug_str:00000000000003eb .LASF140
     /tmp/cch2EPX0.s:74     .text:0000000000000074 .LFE5
     /tmp/cch2EPX0.s:3053   .debug_loc:00000000000000f7 .LLST0
     /tmp/cch2EPX0.s:34     .text:0000000000000024 .LVL1
     /tmp/cch2EPX0.s:39     .text:0000000000000030 .LVL2
     /tmp/cch2EPX0.s:43     .text:000000000000003c .LVL3
     /tmp/cch2EPX0.s:51     .text:0000000000000050 .LVL4
     /tmp/cch2EPX0.s:55     .text:000000000000005c .LVL5
     /tmp/cch2EPX0.s:3092   .debug_str:0000000000000025 .LASF118
     /tmp/cch2EPX0.s:3176   .debug_str:00000000000002b3 .LASF120
     /tmp/cch2EPX0.s:3174   .debug_str:00000000000002aa .LASF119
     /tmp/cch2EPX0.s:3310   .debug_str:0000000000000647 .LASF121
     /tmp/cch2EPX0.s:3260   .debug_str:0000000000000510 .LASF122
     /tmp/cch2EPX0.s:3302   .debug_str:000000000000061b .LASF123
     /tmp/cch2EPX0.s:3284   .debug_str:00000000000005a1 .LASF124
     /tmp/cch2EPX0.s:3210   .debug_str:0000000000000396 .LASF125
     /tmp/cch2EPX0.s:3182   .debug_str:00000000000002d5 .LASF141
     /tmp/cch2EPX0.s:3142   .debug_str:00000000000001ba .LASF142
     /tmp/cch2EPX0.s:243    .text:0000000000000178 .LVL24
     /tmp/cch2EPX0.s:262    .text:000000000000019c .LVL25
     /tmp/cch2EPX0.s:360    .text:000000000000027c .LVL42
     /tmp/cch2EPX0.s:396    .text:00000000000002c8 .LVL49
     /tmp/cch2EPX0.s:405    .text:00000000000002d4 .LVL51
     /tmp/cch2EPX0.s:409    .text:00000000000002dc .LVL52
     /tmp/cch2EPX0.s:150    .text:00000000000000c0 .LVL9
     /tmp/cch2EPX0.s:162    .text:00000000000000d4 .LVL10
     /tmp/cch2EPX0.s:105    .text:0000000000000074 .LVL7
     /tmp/cch2EPX0.s:16     .text:0000000000000000 .LVL0
     /tmp/cch2EPX0.s:67     .text:0000000000000068 .LVL6
     /tmp/cch2EPX0.s:426    .debug_info:0000000000000000 .Ldebug_info0
     /tmp/cch2EPX0.s:77     .gcc_except_table:0000000000000000 .LLSDA5

UNDEFINED SYMBOLS
_ZN11HeapManagerC1Ev
_ZN9SchedulerC1Ev
_ZN5TimerC1Ev
_ZN11HeapManagerD1Ev
_Unwind_Resume
__gxx_personality_v0
trap
HEAP_END_ADDR
HEAP_START_ADDR
_ZN11HeapManager4initEmm
_Z4putcc
_Z15thread_dispatchv
_Z13thread_createPP7_threadPFvPvES2_
_ZN9Scheduler3getEv
GAS LISTING /tmp/cch2EPX0.s 			page 19


_ZN7_thread13currentThreadE
_Z8usermainPv
_Z10time_sleepm
