GAS LISTING /tmp/ccXIj4hi.s 			page 1


   1              		.file	"kernel.cpp"
   2              		.option pic
   3              		.option norelax
   4              		.text
   5              	.Ltext0:
   6              		.align	2
   7              		.globl	_Z8testFuncPv
   9              	_Z8testFuncPv:
  10              	.LFB8:
  11              		.file 1 "src/kernel.cpp"
   1:src/kernel.cpp **** /**
   2:src/kernel.cpp ****  * @file kernel.cpp
   3:src/kernel.cpp ****  * @author stcksmsh (vukicevickosta@gmail.com)
   4:src/kernel.cpp ****  * @brief implementation of the kernel class
   5:src/kernel.cpp ****  * @version 0.1
   6:src/kernel.cpp ****  * @date 2023-12-31
   7:src/kernel.cpp ****  * 
   8:src/kernel.cpp ****  * @copyright Copyright (c) 2023
   9:src/kernel.cpp ****  * 
  10:src/kernel.cpp ****  */
  11:src/kernel.cpp **** 
  12:src/kernel.cpp **** #include "kernel.h"
  13:src/kernel.cpp **** #include "types.h"
  14:src/kernel.cpp **** #include "assert.h"
  15:src/kernel.cpp **** #include "syscalls_c.h"
  16:src/kernel.cpp **** #include "thread.h"
  17:src/kernel.cpp **** #include "sem.h"
  18:src/kernel.cpp **** #include "sched.h"
  19:src/kernel.cpp **** #include "timer.h"
  20:src/kernel.cpp **** 
  21:src/kernel.cpp **** extern "C" void trap();
  22:src/kernel.cpp **** 
  23:src/kernel.cpp **** Kernel::Kernel(): heapManager(), scheduler(), timer(){}
  24:src/kernel.cpp ****  
  25:src/kernel.cpp **** 
  26:src/kernel.cpp **** void Kernel::initialise(){
  27:src/kernel.cpp ****     /// set the trap vector
  28:src/kernel.cpp ****     __asm__ volatile ("csrw stvec, %0" :: "r"(trap));
  29:src/kernel.cpp **** 
  30:src/kernel.cpp ****     /// change to user mode
  31:src/kernel.cpp **** 
  32:src/kernel.cpp ****     uint64 sstatus;
  33:src/kernel.cpp ****     /// get the current sstatus
  34:src/kernel.cpp ****     __asm__ volatile("csrr %0, sstatus" : "=r"(sstatus));
  35:src/kernel.cpp ****     /// set the SPP bit to 0
  36:src/kernel.cpp ****     sstatus &= ~(1 << 8);
  37:src/kernel.cpp ****     /// write the new sstatus
  38:src/kernel.cpp ****     __asm__ volatile("csrw sstatus, %0" :: "r"(sstatus));
  39:src/kernel.cpp ****     
  40:src/kernel.cpp ****     /// NOW WE ARE IN USER MODE
  41:src/kernel.cpp ****     
  42:src/kernel.cpp ****     /// initialise the heap manager
  43:src/kernel.cpp ****     heapManager.init((uintptr_t)HEAP_START_ADDR, (uintptr_t)HEAP_END_ADDR );
  44:src/kernel.cpp **** 
  45:src/kernel.cpp ****     return;
  46:src/kernel.cpp **** }
  47:src/kernel.cpp **** 
GAS LISTING /tmp/ccXIj4hi.s 			page 2


  48:src/kernel.cpp **** // sem_t sem = nullptr;
  49:src/kernel.cpp **** 
  50:src/kernel.cpp **** void testFunc(void* arg){
  12              		.loc 1 50 25
  13              		.cfi_startproc
  14              	.LVL0:
  15 0000 130101FF 		addi	sp,sp,-16
  16              		.cfi_def_cfa_offset 16
  17 0004 23341100 		sd	ra,8(sp)
  18 0008 23308100 		sd	s0,0(sp)
  19              		.cfi_offset 1, -8
  20              		.cfi_offset 8, -16
  21 000c 13040101 		addi	s0,sp,16
  22              		.cfi_def_cfa 8, 0
  51:src/kernel.cpp ****     putc('t');
  23              		.loc 1 51 5
  24              		.loc 1 51 9 is_stmt 0
  25 0010 13054007 		li	a0,116
  26              	.LVL1:
  27 0014 97000000 		call	_Z4putcc@plt
  27      E7800000 
  28              	.LVL2:
  52:src/kernel.cpp ****     putc('e');
  29              		.loc 1 52 5 is_stmt 1
  30              		.loc 1 52 9 is_stmt 0
  31 001c 13055006 		li	a0,101
  32 0020 97000000 		call	_Z4putcc@plt
  32      E7800000 
  33              	.LVL3:
  53:src/kernel.cpp ****     putc('s');
  34              		.loc 1 53 5 is_stmt 1
  35              		.loc 1 53 9 is_stmt 0
  36 0028 13053007 		li	a0,115
  37 002c 97000000 		call	_Z4putcc@plt
  37      E7800000 
  38              	.LVL4:
  54:src/kernel.cpp ****     putc('t');
  39              		.loc 1 54 5 is_stmt 1
  40              		.loc 1 54 9 is_stmt 0
  41 0034 13054007 		li	a0,116
  42 0038 97000000 		call	_Z4putcc@plt
  42      E7800000 
  43              	.LVL5:
  55:src/kernel.cpp **** 
  56:src/kernel.cpp ****     // sem_wait(sem);
  57:src/kernel.cpp ****     // thread_dispatch();
  58:src/kernel.cpp ****     // thread_dispatch();
  59:src/kernel.cpp ****     // thread_dispatch();
  60:src/kernel.cpp **** 
  61:src/kernel.cpp ****     putc(' ');
  44              		.loc 1 61 5 is_stmt 1
  45              		.loc 1 61 9 is_stmt 0
  46 0040 13050002 		li	a0,32
  47 0044 97000000 		call	_Z4putcc@plt
  47      E7800000 
  48              	.LVL6:
  62:src/kernel.cpp ****     // time_sleep(100);
GAS LISTING /tmp/ccXIj4hi.s 			page 3


  63:src/kernel.cpp **** 
  64:src/kernel.cpp ****     putc('t');
  49              		.loc 1 64 5 is_stmt 1
  50              		.loc 1 64 9 is_stmt 0
  51 004c 13054007 		li	a0,116
  52 0050 97000000 		call	_Z4putcc@plt
  52      E7800000 
  53              	.LVL7:
  65:src/kernel.cpp ****     putc('h');
  54              		.loc 1 65 5 is_stmt 1
  55              		.loc 1 65 9 is_stmt 0
  56 0058 13058006 		li	a0,104
  57 005c 97000000 		call	_Z4putcc@plt
  57      E7800000 
  58              	.LVL8:
  66:src/kernel.cpp ****     putc('r');
  59              		.loc 1 66 5 is_stmt 1
  60              		.loc 1 66 9 is_stmt 0
  61 0064 13052007 		li	a0,114
  62 0068 97000000 		call	_Z4putcc@plt
  62      E7800000 
  63              	.LVL9:
  67:src/kernel.cpp ****     putc('e');
  64              		.loc 1 67 5 is_stmt 1
  65              		.loc 1 67 9 is_stmt 0
  66 0070 13055006 		li	a0,101
  67 0074 97000000 		call	_Z4putcc@plt
  67      E7800000 
  68              	.LVL10:
  68:src/kernel.cpp ****     putc('a');
  69              		.loc 1 68 5 is_stmt 1
  70              		.loc 1 68 9 is_stmt 0
  71 007c 13051006 		li	a0,97
  72 0080 97000000 		call	_Z4putcc@plt
  72      E7800000 
  73              	.LVL11:
  69:src/kernel.cpp ****     putc('d');
  74              		.loc 1 69 5 is_stmt 1
  75              		.loc 1 69 9 is_stmt 0
  76 0088 13054006 		li	a0,100
  77 008c 97000000 		call	_Z4putcc@plt
  77      E7800000 
  78              	.LVL12:
  70:src/kernel.cpp ****     putc('\n');
  79              		.loc 1 70 5 is_stmt 1
  80              		.loc 1 70 9 is_stmt 0
  81 0094 1305A000 		li	a0,10
  82 0098 97000000 		call	_Z4putcc@plt
  82      E7800000 
  83              	.LVL13:
  71:src/kernel.cpp **** }
  84              		.loc 1 71 1
  85 00a0 83308100 		ld	ra,8(sp)
  86              		.cfi_restore 1
  87 00a4 03340100 		ld	s0,0(sp)
  88              		.cfi_restore 8
  89              		.cfi_def_cfa 2, 16
GAS LISTING /tmp/ccXIj4hi.s 			page 4


  90 00a8 13010101 		addi	sp,sp,16
  91              		.cfi_def_cfa_offset 0
  92 00ac 67800000 		jr	ra
  93              		.cfi_endproc
  94              	.LFE8:
  96              		.align	2
  97              		.globl	_ZN6KernelC2Ev
  99              	_ZN6KernelC2Ev:
 100              	.LFB5:
  23:src/kernel.cpp ****  
 101              		.loc 1 23 1 is_stmt 1
 102              		.cfi_startproc
 103              		.cfi_personality 0x9b,DW.ref.__gxx_personality_v0
 104              		.cfi_lsda 0x1b,.LLSDA5
 105              	.LVL14:
 106 00b0 130101FE 		addi	sp,sp,-32
 107              		.cfi_def_cfa_offset 32
 108 00b4 233C1100 		sd	ra,24(sp)
 109 00b8 23388100 		sd	s0,16(sp)
 110 00bc 23349100 		sd	s1,8(sp)
 111 00c0 23302101 		sd	s2,0(sp)
 112              		.cfi_offset 1, -8
 113              		.cfi_offset 8, -16
 114              		.cfi_offset 9, -24
 115              		.cfi_offset 18, -32
 116 00c4 13040102 		addi	s0,sp,32
 117              		.cfi_def_cfa 8, 0
 118 00c8 93040500 		mv	s1,a0
 119              	.LEHB0:
 120              	.LBB2:
  23:src/kernel.cpp ****  
 121              		.loc 1 23 53 is_stmt 0
 122 00cc 97000000 		call	_ZN11HeapManagerC1Ev@plt
 122      E7800000 
 123              	.LVL15:
 124              	.LEHE0:
 125 00d4 13850401 		addi	a0,s1,16
 126              	.LEHB1:
 127 00d8 97000000 		call	_ZN9SchedulerC1Ev@plt
 127      E7800000 
 128              	.LVL16:
  23:src/kernel.cpp ****  
 129              		.loc 1 23 53 discriminator 2
 130 00e0 13850402 		addi	a0,s1,32
 131 00e4 97000000 		call	_ZN5TimerC1Ev@plt
 131      E7800000 
 132              	.LVL17:
 133              	.LEHE1:
 134 00ec 6F000002 		j	.L8
 135              	.L5:
 136 00f0 13090500 		mv	s2,a0
  23:src/kernel.cpp ****  
 137              		.loc 1 23 53
 138 00f4 13850400 		mv	a0,s1
 139 00f8 97000000 		call	_ZN11HeapManagerD1Ev@plt
 139      E7800000 
 140              	.LVL18:
GAS LISTING /tmp/ccXIj4hi.s 			page 5


 141 0100 13050900 		mv	a0,s2
 142              	.LEHB2:
 143 0104 97000000 		call	_Unwind_Resume@plt
 143      E7800000 
 144              	.LVL19:
 145              	.LEHE2:
 146              	.L8:
 147              	.LBE2:
  23:src/kernel.cpp ****  
 148              		.loc 1 23 55
 149 010c 83308101 		ld	ra,24(sp)
 150              		.cfi_restore 1
 151 0110 03340101 		ld	s0,16(sp)
 152              		.cfi_restore 8
 153              		.cfi_def_cfa 2, 32
 154 0114 83348100 		ld	s1,8(sp)
 155              		.cfi_restore 9
 156              	.LVL20:
 157 0118 03390100 		ld	s2,0(sp)
 158              		.cfi_restore 18
 159 011c 13010102 		addi	sp,sp,32
 160              		.cfi_def_cfa_offset 0
 161 0120 67800000 		jr	ra
 162              		.cfi_endproc
 163              	.LFE5:
 164              		.globl	__gxx_personality_v0
 165              		.section	.gcc_except_table,"a",@progbits
 166              	.LLSDA5:
 167 0000 FF       		.byte	0xff
 168 0001 FF       		.byte	0xff
 169 0002 03       		.byte	0x3
 170 0003 27       		.byte	0x27
 171 0004 00000000 		.4byte	.LEHB0-.LFB5
 172 0008 00000000 		.4byte	.LEHE0-.LEHB0
 173 000c 00000000 		.4byte	0
 174 0010 00       		.byte	0
 175 0011 00000000 		.4byte	.LEHB1-.LFB5
 176 0015 00000000 		.4byte	.LEHE1-.LEHB1
 177 0019 00000000 		.4byte	.L5-.LFB5
 178 001d 00       		.byte	0
 179 001e 00000000 		.4byte	.LEHB2-.LFB5
 180 0022 00000000 		.4byte	.LEHE2-.LEHB2
 181 0026 00000000 		.4byte	0
 182 002a 00       		.byte	0
 183              		.text
 185              		.globl	_ZN6KernelC1Ev
 186              		.set	_ZN6KernelC1Ev,_ZN6KernelC2Ev
 187              		.align	2
 188              		.globl	_ZN6Kernel10initialiseEv
 190              	_ZN6Kernel10initialiseEv:
 191              	.LFB7:
  26:src/kernel.cpp ****     /// set the trap vector
 192              		.loc 1 26 26 is_stmt 1
 193              		.cfi_startproc
 194              	.LVL21:
 195 0124 130101FF 		addi	sp,sp,-16
 196              		.cfi_def_cfa_offset 16
GAS LISTING /tmp/ccXIj4hi.s 			page 6


 197 0128 23341100 		sd	ra,8(sp)
 198 012c 23308100 		sd	s0,0(sp)
 199              		.cfi_offset 1, -8
 200              		.cfi_offset 8, -16
 201 0130 13040101 		addi	s0,sp,16
 202              		.cfi_def_cfa 8, 0
  28:src/kernel.cpp **** 
 203              		.loc 1 28 5
  28:src/kernel.cpp **** 
 204              		.loc 1 28 53 is_stmt 0
 205 0134 97070000 		la	a5,trap
 205      83B70700 
 206              	#APP
 207              	# 28 "src/kernel.cpp" 1
  32:src/kernel.cpp ****     /// get the current sstatus
 208              		csrw stvec, a5
 209              	# 0 "" 2
 210              		.loc 1 32 5 is_stmt 1
  34:src/kernel.cpp ****     /// set the SPP bit to 0
 211              		.loc 1 34 5
  34:src/kernel.cpp ****     /// set the SPP bit to 0
 212              		.loc 1 34 57 is_stmt 0
 213              	# 34 "src/kernel.cpp" 1
 214              		csrr a5, sstatus
 215              	# 0 "" 2
 216              	.LVL22:
  36:src/kernel.cpp ****     /// write the new sstatus
 217              		.loc 1 36 5 is_stmt 1
  36:src/kernel.cpp ****     /// write the new sstatus
 218              		.loc 1 36 13 is_stmt 0
 219              	#NO_APP
 220 0144 93F7F7EF 		andi	a5,a5,-257
 221              	.LVL23:
  38:src/kernel.cpp ****     
 222              		.loc 1 38 5 is_stmt 1
  38:src/kernel.cpp ****     
 223              		.loc 1 38 57 is_stmt 0
 224              	#APP
 225              	# 38 "src/kernel.cpp" 1
  43:src/kernel.cpp **** 
 226              		csrw sstatus, a5
 227              	# 0 "" 2
 228              		.loc 1 43 5 is_stmt 1
  43:src/kernel.cpp **** 
 229              		.loc 1 43 21 is_stmt 0
 230              	#NO_APP
 231 014c 97070000 		la	a5,HEAP_END_ADDR
 231      83B70700 
 232              	.LVL24:
 233 0154 03B60700 		ld	a2,0(a5)
 234 0158 97070000 		la	a5,HEAP_START_ADDR
 234      83B70700 
 235 0160 83B50700 		ld	a1,0(a5)
 236 0164 97000000 		call	_ZN11HeapManager4initEmm@plt
 236      E7800000 
 237              	.LVL25:
  45:src/kernel.cpp **** }
GAS LISTING /tmp/ccXIj4hi.s 			page 7


 238              		.loc 1 45 5 is_stmt 1
  46:src/kernel.cpp **** 
 239              		.loc 1 46 1 is_stmt 0
 240 016c 83308100 		ld	ra,8(sp)
 241              		.cfi_restore 1
 242 0170 03340100 		ld	s0,0(sp)
 243              		.cfi_restore 8
 244              		.cfi_def_cfa 2, 16
 245 0174 13010101 		addi	sp,sp,16
 246              		.cfi_def_cfa_offset 0
 247 0178 67800000 		jr	ra
 248              		.cfi_endproc
 249              	.LFE7:
 251              		.align	2
 252              		.globl	_ZN6Kernel3runEv
 254              	_ZN6Kernel3runEv:
 255              	.LFB9:
  72:src/kernel.cpp **** 
  73:src/kernel.cpp **** Kernel::EXIT_CODE Kernel::run(){
 256              		.loc 1 73 32 is_stmt 1
 257              		.cfi_startproc
 258              	.LVL26:
 259 017c 130101FE 		addi	sp,sp,-32
 260              		.cfi_def_cfa_offset 32
 261 0180 233C1100 		sd	ra,24(sp)
 262 0184 23388100 		sd	s0,16(sp)
 263              		.cfi_offset 1, -8
 264              		.cfi_offset 8, -16
 265 0188 13040102 		addi	s0,sp,32
 266              		.cfi_def_cfa 8, 0
  74:src/kernel.cpp ****     
  75:src/kernel.cpp ****     thread_t t = (thread_t)mem_alloc(sizeof(_thread));
 267              		.loc 1 75 5
 268              		.loc 1 75 37 is_stmt 0
 269 018c 1305800B 		li	a0,184
 270              	.LVL27:
 271 0190 97000000 		call	_Z9mem_allocm@plt
 271      E7800000 
 272              	.LVL28:
 273              		.loc 1 75 53
 274 0198 2334A4FE 		sd	a0,-24(s0)
  76:src/kernel.cpp ****     
  77:src/kernel.cpp ****     // _thread::create(&t, nullptr, nullptr, nullptr, false);
  78:src/kernel.cpp ****     // _thread::currentThread = t;
  79:src/kernel.cpp **** 
  80:src/kernel.cpp ****     thread_create(&t, nullptr, nullptr);
 275              		.loc 1 80 5 is_stmt 1
 276              		.loc 1 80 18 is_stmt 0
 277 019c 13060000 		li	a2,0
 278 01a0 93050000 		li	a1,0
 279 01a4 130584FE 		addi	a0,s0,-24
 280 01a8 97000000 		call	_Z13thread_createPP7_threadPFvPvES2_@plt
 280      E7800000 
 281              	.LVL29:
  81:src/kernel.cpp ****     _thread::currentThread = Scheduler::get();
 282              		.loc 1 81 5 is_stmt 1
 283              		.loc 1 81 44 is_stmt 0
GAS LISTING /tmp/ccXIj4hi.s 			page 8


 284 01b0 97000000 		call	_ZN9Scheduler3getEv@plt
 284      E7800000 
 285              	.LVL30:
 286              		.loc 1 81 28
 287 01b8 97070000 		la	a5,_ZN7_thread13currentThreadE
 287      83B70700 
 288 01c0 23B0A700 		sd	a0,0(a5)
  82:src/kernel.cpp **** 
  83:src/kernel.cpp ****     thread_t test = (thread_t)mem_alloc(sizeof(_thread));
 289              		.loc 1 83 5 is_stmt 1
 290              		.loc 1 83 40 is_stmt 0
 291 01c4 1305800B 		li	a0,184
 292 01c8 97000000 		call	_Z9mem_allocm@plt
 292      E7800000 
 293              	.LVL31:
 294              		.loc 1 83 56
 295 01d0 2330A4FE 		sd	a0,-32(s0)
  84:src/kernel.cpp ****     
  85:src/kernel.cpp ****     // _thread::create(&test, testFunc, nullptr, nullptr);
  86:src/kernel.cpp ****     thread_create(&test, testFunc, nullptr);
 296              		.loc 1 86 5 is_stmt 1
 297              		.loc 1 86 18 is_stmt 0
 298 01d4 13060000 		li	a2,0
 299 01d8 97050000 		lla	a1,_Z8testFuncPv
 299      93850500 
 300 01e0 130504FE 		addi	a0,s0,-32
 301 01e4 97000000 		call	_Z13thread_createPP7_threadPFvPvES2_@plt
 301      E7800000 
 302              	.LVL32:
  87:src/kernel.cpp ****     // sem = (sem_t)mem_alloc(sizeof(_sem));
  88:src/kernel.cpp ****     // sem_open(&sem, 0);
  89:src/kernel.cpp **** 
  90:src/kernel.cpp **** 
  91:src/kernel.cpp ****     thread_join(test);
 303              		.loc 1 91 5 is_stmt 1
 304              		.loc 1 91 16 is_stmt 0
 305 01ec 033504FE 		ld	a0,-32(s0)
 306 01f0 97000000 		call	_Z11thread_joinP7_thread@plt
 306      E7800000 
 307              	.LVL33:
 308              	.L12:
  92:src/kernel.cpp ****     // int cnt = Scheduler::getCount();
  93:src/kernel.cpp ****     // do{
  94:src/kernel.cpp ****     //     putc('0' + cnt);
  95:src/kernel.cpp ****     //     cnt /= 10;
  96:src/kernel.cpp ****     // }while(cnt > 0);
  97:src/kernel.cpp **** 
  98:src/kernel.cpp ****     do{
 309              		.loc 1 98 5 is_stmt 1
  99:src/kernel.cpp ****         thread_dispatch();
 310              		.loc 1 99 9
 311              		.loc 1 99 24 is_stmt 0
 312 01f8 97000000 		call	_Z15thread_dispatchv@plt
 312      E7800000 
 313              	.LVL34:
 100:src/kernel.cpp ****     }while(!Scheduler::isEmpty());
 314              		.loc 1 100 12 is_stmt 1
GAS LISTING /tmp/ccXIj4hi.s 			page 9


 315              		.loc 1 100 31 is_stmt 0
 316 0200 97000000 		call	_ZN9Scheduler7isEmptyEv@plt
 316      E7800000 
 317              	.LVL35:
 318              		.loc 1 100 12
 319 0208 E30805FE 		beqz	a0,.L12
 101:src/kernel.cpp **** 
 102:src/kernel.cpp ****     putc('m');
 320              		.loc 1 102 5 is_stmt 1
 321              		.loc 1 102 9 is_stmt 0
 322 020c 1305D006 		li	a0,109
 323 0210 97000000 		call	_Z4putcc@plt
 323      E7800000 
 324              	.LVL36:
 103:src/kernel.cpp ****     putc('a');
 325              		.loc 1 103 5 is_stmt 1
 326              		.loc 1 103 9 is_stmt 0
 327 0218 13051006 		li	a0,97
 328 021c 97000000 		call	_Z4putcc@plt
 328      E7800000 
 329              	.LVL37:
 104:src/kernel.cpp ****     putc('i');
 330              		.loc 1 104 5 is_stmt 1
 331              		.loc 1 104 9 is_stmt 0
 332 0224 13059006 		li	a0,105
 333 0228 97000000 		call	_Z4putcc@plt
 333      E7800000 
 334              	.LVL38:
 105:src/kernel.cpp ****     putc('n');
 335              		.loc 1 105 5 is_stmt 1
 336              		.loc 1 105 9 is_stmt 0
 337 0230 1305E006 		li	a0,110
 338 0234 97000000 		call	_Z4putcc@plt
 338      E7800000 
 339              	.LVL39:
 106:src/kernel.cpp ****     putc('\n');
 340              		.loc 1 106 5 is_stmt 1
 341              		.loc 1 106 9 is_stmt 0
 342 023c 1305A000 		li	a0,10
 343 0240 97000000 		call	_Z4putcc@plt
 343      E7800000 
 344              	.LVL40:
 107:src/kernel.cpp ****     
 108:src/kernel.cpp ****     return EXIT_SUCCESS;
 345              		.loc 1 108 5 is_stmt 1
 109:src/kernel.cpp **** }...
 346              		.loc 1 109 1 is_stmt 0
 347 0248 13050000 		li	a0,0
 348 024c 83308101 		ld	ra,24(sp)
 349              		.cfi_restore 1
 350 0250 03340101 		ld	s0,16(sp)
 351              		.cfi_restore 8
 352              		.cfi_def_cfa 2, 32
 353 0254 13010102 		addi	sp,sp,32
 354              		.cfi_def_cfa_offset 0
 355 0258 67800000 		jr	ra
 356              		.cfi_endproc
GAS LISTING /tmp/ccXIj4hi.s 			page 10


 357              	.LFE9:
 359              	.Letext0:
 360              		.file 2 "./lib/hw.h"
 361              		.file 3 "./h/types.h"
 362              		.file 4 "./h/heapManager.h"
 363              		.file 5 "./h/sched.h"
 364              		.file 6 "./h/thread.h"
 365              		.file 7 "./h/timer.h"
 366              		.file 8 "./h/kernel.h"
 367              		.file 9 "./h/syscalls_c.h"
 3191              		.align	3
 3194              	DW.ref.__gxx_personality_v0:
 3195 0000 00000000 		.dword	__gxx_personality_v0
 3195      00000000 
 3196              		.ident	"GCC: (Ubuntu 9.4.0-1ubuntu1~20.04) 9.4.0"
 3197              		.section	.note.GNU-stack,"",@progbits
GAS LISTING /tmp/ccXIj4hi.s 			page 11

