GAS LISTING /tmp/ccRGI9d9.s 			page 1


   1              		.file	"kernel.cpp"
   2              		.option pic
   3              		.option norelax
   4              		.text
   5              	.Ltext0:
   6              		.align	2
   7              		.globl	_ZN6KernelC2Ev
   9              	_ZN6KernelC2Ev:
  10              	.LFB5:
  11              		.file 1 "src/kernel.cpp"
   1:src/kernel.cpp **** /**
   2:src/kernel.cpp ****  * @file kernel.cpp
   3:src/kernel.cpp ****  * @author stcksmsh (vukicevickosta@gmail.com)
   4:src/kernel.cpp ****  * @brief implementation of the kernel class
   5:src/kernel.cpp ****  * @version 0.1
   6:src/kernel.cpp ****  * @date 2023-12-31
   7:src/kernel.cpp ****  * 
   8:src/kernel.cpp ****  * @copyright Copyright (c) 2023
   9:src/kernel.cpp ****  * 
  10:src/kernel.cpp ****  */
  11:src/kernel.cpp **** 
  12:src/kernel.cpp **** #include "kernel.h"
  13:src/kernel.cpp **** #include "types.h"
  14:src/kernel.cpp **** #include "assert.h"
  15:src/kernel.cpp **** #include "syscalls_c.h"
  16:src/kernel.cpp **** #include "thread.h"
  17:src/kernel.cpp **** #include "sem.h"
  18:src/kernel.cpp **** #include "sched.h"
  19:src/kernel.cpp **** #include "usermain.h"
  20:src/kernel.cpp **** 
  21:src/kernel.cpp **** #include "console.h"
  22:src/kernel.cpp **** 
  23:src/kernel.cpp **** extern "C" void trap();
  24:src/kernel.cpp **** 
  25:src/kernel.cpp **** Kernel::Kernel(): heapManager(), scheduler(), timer(){}
  12              		.loc 1 25 1
  13              		.cfi_startproc
  14              		.cfi_personality 0x9b,DW.ref.__gxx_personality_v0
  15              		.cfi_lsda 0x1b,.LLSDA5
  16              	.LVL0:
  17 0000 130101FE 		addi	sp,sp,-32
  18              		.cfi_def_cfa_offset 32
  19 0004 233C1100 		sd	ra,24(sp)
  20 0008 23388100 		sd	s0,16(sp)
  21 000c 23349100 		sd	s1,8(sp)
  22 0010 23302101 		sd	s2,0(sp)
  23              		.cfi_offset 1, -8
  24              		.cfi_offset 8, -16
  25              		.cfi_offset 9, -24
  26              		.cfi_offset 18, -32
  27 0014 13040102 		addi	s0,sp,32
  28              		.cfi_def_cfa 8, 0
  29 0018 93040500 		mv	s1,a0
  30              	.LEHB0:
  31              	.LBB2:
  32              		.loc 1 25 53 is_stmt 0
  33 001c 97000000 		call	_ZN11HeapManagerC1Ev@plt
GAS LISTING /tmp/ccRGI9d9.s 			page 2


  33      E7800000 
  34              	.LVL1:
  35              	.LEHE0:
  36 0024 13858400 		addi	a0,s1,8
  37              	.LEHB1:
  38 0028 97000000 		call	_ZN9SchedulerC1Ev@plt
  38      E7800000 
  39              	.LVL2:
  40              		.loc 1 25 53 discriminator 2
  41 0030 13858401 		addi	a0,s1,24
  42 0034 97000000 		call	_ZN5TimerC1Ev@plt
  42      E7800000 
  43              	.LVL3:
  44              	.LEHE1:
  45 003c 6F000002 		j	.L6
  46              	.L3:
  47 0040 13090500 		mv	s2,a0
  48              		.loc 1 25 53
  49 0044 13850400 		mv	a0,s1
  50 0048 97000000 		call	_ZN11HeapManagerD1Ev@plt
  50      E7800000 
  51              	.LVL4:
  52 0050 13050900 		mv	a0,s2
  53              	.LEHB2:
  54 0054 97000000 		call	_Unwind_Resume@plt
  54      E7800000 
  55              	.LVL5:
  56              	.LEHE2:
  57              	.L6:
  58              	.LBE2:
  59              		.loc 1 25 55
  60 005c 83308101 		ld	ra,24(sp)
  61              		.cfi_restore 1
  62 0060 03340101 		ld	s0,16(sp)
  63              		.cfi_restore 8
  64              		.cfi_def_cfa 2, 32
  65 0064 83348100 		ld	s1,8(sp)
  66              		.cfi_restore 9
  67              	.LVL6:
  68 0068 03390100 		ld	s2,0(sp)
  69              		.cfi_restore 18
  70 006c 13010102 		addi	sp,sp,32
  71              		.cfi_def_cfa_offset 0
  72 0070 67800000 		jr	ra
  73              		.cfi_endproc
  74              	.LFE5:
  75              		.globl	__gxx_personality_v0
  76              		.section	.gcc_except_table,"a",@progbits
  77              	.LLSDA5:
  78 0000 FF       		.byte	0xff
  79 0001 FF       		.byte	0xff
  80 0002 03       		.byte	0x3
  81 0003 27       		.byte	0x27
  82 0004 00000000 		.4byte	.LEHB0-.LFB5
  83 0008 00000000 		.4byte	.LEHE0-.LEHB0
  84 000c 00000000 		.4byte	0
  85 0010 00       		.byte	0
GAS LISTING /tmp/ccRGI9d9.s 			page 3


  86 0011 00000000 		.4byte	.LEHB1-.LFB5
  87 0015 00000000 		.4byte	.LEHE1-.LEHB1
  88 0019 00000000 		.4byte	.L3-.LFB5
  89 001d 00       		.byte	0
  90 001e 00000000 		.4byte	.LEHB2-.LFB5
  91 0022 00000000 		.4byte	.LEHE2-.LEHB2
  92 0026 00000000 		.4byte	0
  93 002a 00       		.byte	0
  94              		.text
  96              		.globl	_ZN6KernelC1Ev
  97              		.set	_ZN6KernelC1Ev,_ZN6KernelC2Ev
  98              		.align	2
  99              		.globl	_ZN6Kernel10initialiseEv
 101              	_ZN6Kernel10initialiseEv:
 102              	.LFB7:
  26:src/kernel.cpp ****  
  27:src/kernel.cpp **** void Kernel::initialise(){
 103              		.loc 1 27 26 is_stmt 1
 104              		.cfi_startproc
 105              	.LVL7:
 106 0074 130101FF 		addi	sp,sp,-16
 107              		.cfi_def_cfa_offset 16
 108 0078 23341100 		sd	ra,8(sp)
 109 007c 23308100 		sd	s0,0(sp)
 110              		.cfi_offset 1, -8
 111              		.cfi_offset 8, -16
 112 0080 13040101 		addi	s0,sp,16
 113              		.cfi_def_cfa 8, 0
  28:src/kernel.cpp ****     /// set the trap vector
  29:src/kernel.cpp ****     __asm__ volatile ("csrw stvec, %0" :: "r"(trap));
 114              		.loc 1 29 5
 115              		.loc 1 29 53 is_stmt 0
 116 0084 97070000 		la	a5,trap
 116      83B70700 
 117              	#APP
 118              	# 29 "src/kernel.cpp" 1
  30              	
  31:src/kernel.cpp ****     
  32:src/kernel.cpp ****     /// initialise the heap manager
  33:src/kernel.cpp ****     heapManager.init((uintptr_t)HEAP_START_ADDR, (uintptr_t)HEAP_END_ADDR );
 119              		csrw stvec, a5
 120              	# 0 "" 2
 121              		.loc 1 33 5 is_stmt 1
 122              		.loc 1 33 21 is_stmt 0
 123              	#NO_APP
 124 0090 97070000 		la	a5,HEAP_END_ADDR
 124      83B70700 
 125 0098 03B60700 		ld	a2,0(a5)
 126 009c 97070000 		la	a5,HEAP_START_ADDR
 126      83B70700 
 127 00a4 83B50700 		ld	a1,0(a5)
 128 00a8 97000000 		call	_ZN11HeapManager4initEmm@plt
 128      E7800000 
 129              	.LVL8:
  34:src/kernel.cpp **** 
  35:src/kernel.cpp ****     return;
 130              		.loc 1 35 5 is_stmt 1
GAS LISTING /tmp/ccRGI9d9.s 			page 4


  36:src/kernel.cpp **** }
 131              		.loc 1 36 1 is_stmt 0
 132 00b0 83308100 		ld	ra,8(sp)
 133              		.cfi_restore 1
 134 00b4 03340100 		ld	s0,0(sp)
 135              		.cfi_restore 8
 136              		.cfi_def_cfa 2, 16
 137 00b8 13010101 		addi	sp,sp,16
 138              		.cfi_def_cfa_offset 0
 139 00bc 67800000 		jr	ra
 140              		.cfi_endproc
 141              	.LFE7:
 143              		.align	2
 144              		.globl	_Z8testFuncPv
 146              	_Z8testFuncPv:
 147              	.LFB8:
  37:src/kernel.cpp **** 
  38:src/kernel.cpp **** // sem_t sem = 0;
  39:src/kernel.cpp **** 
  40:src/kernel.cpp **** void testFunc(void* arg){
 148              		.loc 1 40 25 is_stmt 1
 149              		.cfi_startproc
 150              	.LVL9:
 151 00c0 130101FF 		addi	sp,sp,-16
 152              		.cfi_def_cfa_offset 16
 153 00c4 23341100 		sd	ra,8(sp)
 154 00c8 23308100 		sd	s0,0(sp)
 155              		.cfi_offset 1, -8
 156              		.cfi_offset 8, -16
 157 00cc 13040101 		addi	s0,sp,16
 158              		.cfi_def_cfa 8, 0
  41:src/kernel.cpp ****     putc('t');
 159              		.loc 1 41 5
 160              		.loc 1 41 9 is_stmt 0
 161 00d0 13054007 		li	a0,116
 162              	.LVL10:
 163 00d4 97000000 		call	_Z4putcc@plt
 163      E7800000 
 164              	.LVL11:
  42:src/kernel.cpp ****     putc('e');
 165              		.loc 1 42 5 is_stmt 1
 166              		.loc 1 42 9 is_stmt 0
 167 00dc 13055006 		li	a0,101
 168 00e0 97000000 		call	_Z4putcc@plt
 168      E7800000 
 169              	.LVL12:
  43:src/kernel.cpp ****     putc('s');
 170              		.loc 1 43 5 is_stmt 1
 171              		.loc 1 43 9 is_stmt 0
 172 00e8 13053007 		li	a0,115
 173 00ec 97000000 		call	_Z4putcc@plt
 173      E7800000 
 174              	.LVL13:
  44:src/kernel.cpp ****     putc('t');
 175              		.loc 1 44 5 is_stmt 1
 176              		.loc 1 44 9 is_stmt 0
 177 00f4 13054007 		li	a0,116
GAS LISTING /tmp/ccRGI9d9.s 			page 5


 178 00f8 97000000 		call	_Z4putcc@plt
 178      E7800000 
 179              	.LVL14:
  45:src/kernel.cpp **** 
  46:src/kernel.cpp ****     // sem_wait(sem);
  47:src/kernel.cpp ****     // thread_dispatch();
  48:src/kernel.cpp ****     // thread_dispatch();
  49:src/kernel.cpp ****     thread_dispatch();
 180              		.loc 1 49 5 is_stmt 1
 181              		.loc 1 49 20 is_stmt 0
 182 0100 97000000 		call	_Z15thread_dispatchv@plt
 182      E7800000 
 183              	.LVL15:
  50:src/kernel.cpp **** 
  51:src/kernel.cpp ****     // time_sleep(10);
  52:src/kernel.cpp ****     putc(' ');
 184              		.loc 1 52 5 is_stmt 1
 185              		.loc 1 52 9 is_stmt 0
 186 0108 13050002 		li	a0,32
 187 010c 97000000 		call	_Z4putcc@plt
 187      E7800000 
 188              	.LVL16:
  53:src/kernel.cpp **** 
  54:src/kernel.cpp ****     putc('t');
 189              		.loc 1 54 5 is_stmt 1
 190              		.loc 1 54 9 is_stmt 0
 191 0114 13054007 		li	a0,116
 192 0118 97000000 		call	_Z4putcc@plt
 192      E7800000 
 193              	.LVL17:
  55:src/kernel.cpp ****     putc('h');
 194              		.loc 1 55 5 is_stmt 1
 195              		.loc 1 55 9 is_stmt 0
 196 0120 13058006 		li	a0,104
 197 0124 97000000 		call	_Z4putcc@plt
 197      E7800000 
 198              	.LVL18:
  56:src/kernel.cpp ****     putc('r');
 199              		.loc 1 56 5 is_stmt 1
 200              		.loc 1 56 9 is_stmt 0
 201 012c 13052007 		li	a0,114
 202 0130 97000000 		call	_Z4putcc@plt
 202      E7800000 
 203              	.LVL19:
  57:src/kernel.cpp ****     putc('e');
 204              		.loc 1 57 5 is_stmt 1
 205              		.loc 1 57 9 is_stmt 0
 206 0138 13055006 		li	a0,101
 207 013c 97000000 		call	_Z4putcc@plt
 207      E7800000 
 208              	.LVL20:
  58:src/kernel.cpp ****     putc('a');
 209              		.loc 1 58 5 is_stmt 1
 210              		.loc 1 58 9 is_stmt 0
 211 0144 13051006 		li	a0,97
 212 0148 97000000 		call	_Z4putcc@plt
 212      E7800000 
GAS LISTING /tmp/ccRGI9d9.s 			page 6


 213              	.LVL21:
  59:src/kernel.cpp ****     putc('d');
 214              		.loc 1 59 5 is_stmt 1
 215              		.loc 1 59 9 is_stmt 0
 216 0150 13054006 		li	a0,100
 217 0154 97000000 		call	_Z4putcc@plt
 217      E7800000 
 218              	.LVL22:
  60:src/kernel.cpp ****     putc('\n');
 219              		.loc 1 60 5 is_stmt 1
 220              		.loc 1 60 9 is_stmt 0
 221 015c 1305A000 		li	a0,10
 222 0160 97000000 		call	_Z4putcc@plt
 222      E7800000 
 223              	.LVL23:
  61:src/kernel.cpp **** }
 224              		.loc 1 61 1
 225 0168 83308100 		ld	ra,8(sp)
 226              		.cfi_restore 1
 227 016c 03340100 		ld	s0,0(sp)
 228              		.cfi_restore 8
 229              		.cfi_def_cfa 2, 16
 230 0170 13010101 		addi	sp,sp,16
 231              		.cfi_def_cfa_offset 0
 232 0174 67800000 		jr	ra
 233              		.cfi_endproc
 234              	.LFE8:
 236              		.align	2
 237              		.globl	_ZN6Kernel3runEv
 239              	_ZN6Kernel3runEv:
 240              	.LFB9:
  62:src/kernel.cpp **** 
  63:src/kernel.cpp **** Kernel::EXIT_CODE Kernel::run(){
 241              		.loc 1 63 32 is_stmt 1
 242              		.cfi_startproc
 243              	.LVL24:
 244 0178 130101FE 		addi	sp,sp,-32
 245              		.cfi_def_cfa_offset 32
 246 017c 233C1100 		sd	ra,24(sp)
 247 0180 23388100 		sd	s0,16(sp)
 248              		.cfi_offset 1, -8
 249              		.cfi_offset 8, -16
 250 0184 13040102 		addi	s0,sp,32
 251              		.cfi_def_cfa 8, 0
  64:src/kernel.cpp **** 
  65:src/kernel.cpp ****     thread_t t, test;
 252              		.loc 1 65 5
  66:src/kernel.cpp ****     
  67:src/kernel.cpp ****     thread_create(&t, 0, 0);
 253              		.loc 1 67 5
 254              		.loc 1 67 18 is_stmt 0
 255 0188 13060000 		li	a2,0
 256 018c 93050000 		li	a1,0
 257 0190 130584FE 		addi	a0,s0,-24
 258              	.LVL25:
 259 0194 97000000 		call	_Z13thread_createPP7_threadPFvPvES2_@plt
 259      E7800000 
GAS LISTING /tmp/ccRGI9d9.s 			page 7


 260              	.LVL26:
  68:src/kernel.cpp ****     _thread::currentThread = Scheduler::get();
 261              		.loc 1 68 5 is_stmt 1
 262              		.loc 1 68 44 is_stmt 0
 263 019c 97000000 		call	_ZN9Scheduler3getEv@plt
 263      E7800000 
 264              	.LVL27:
 265              		.loc 1 68 28
 266 01a4 97070000 		la	a5,_ZN7_thread13currentThreadE
 266      83B70700 
 267 01ac 23B0A700 		sd	a0,0(a5)
  69:src/kernel.cpp ****     
  70:src/kernel.cpp ****     /// change to user mode
  71:src/kernel.cpp ****     __asm__ volatile ("li a0, 0xff");
 268              		.loc 1 71 5 is_stmt 1
 269              		.loc 1 71 37 is_stmt 0
 270              	#APP
 271              	# 71 "src/kernel.cpp" 1
  72              	    __asm__ volatile ("ecall");
 272              		li a0, 0xff
 273              	# 0 "" 2
 274              		.loc 1 72 5 is_stmt 1
 275              		.loc 1 72 31 is_stmt 0
 276              	# 72 "src/kernel.cpp" 1
  73              	    
  74:src/kernel.cpp ****     putc('u');
 277              		ecall
 278              	# 0 "" 2
 279              		.loc 1 74 5 is_stmt 1
 280              		.loc 1 74 9 is_stmt 0
 281              	#NO_APP
 282 01b8 13055007 		li	a0,117
 283 01bc 97000000 		call	_Z4putcc@plt
 283      E7800000 
 284              	.LVL28:
  75:src/kernel.cpp ****     putc('s');
 285              		.loc 1 75 5 is_stmt 1
 286              		.loc 1 75 9 is_stmt 0
 287 01c4 13053007 		li	a0,115
 288 01c8 97000000 		call	_Z4putcc@plt
 288      E7800000 
 289              	.LVL29:
  76:src/kernel.cpp ****     putc('e');
 290              		.loc 1 76 5 is_stmt 1
 291              		.loc 1 76 9 is_stmt 0
 292 01d0 13055006 		li	a0,101
 293 01d4 97000000 		call	_Z4putcc@plt
 293      E7800000 
 294              	.LVL30:
  77:src/kernel.cpp ****     putc('r');
 295              		.loc 1 77 5 is_stmt 1
 296              		.loc 1 77 9 is_stmt 0
 297 01dc 13052007 		li	a0,114
 298 01e0 97000000 		call	_Z4putcc@plt
 298      E7800000 
 299              	.LVL31:
  78:src/kernel.cpp ****     putc('\n');
GAS LISTING /tmp/ccRGI9d9.s 			page 8


 300              		.loc 1 78 5 is_stmt 1
 301              		.loc 1 78 9 is_stmt 0
 302 01e8 1305A000 		li	a0,10
 303 01ec 97000000 		call	_Z4putcc@plt
 303      E7800000 
 304              	.LVL32:
  79:src/kernel.cpp **** 
  80:src/kernel.cpp ****     
  81:src/kernel.cpp ****     /// NOW WE ARE IN USER MODE
  82:src/kernel.cpp ****     
  83:src/kernel.cpp ****     
  84:src/kernel.cpp ****     thread_create(&test, usermain, 0);
 305              		.loc 1 84 5 is_stmt 1
 306              		.loc 1 84 18 is_stmt 0
 307 01f4 13060000 		li	a2,0
 308 01f8 97050000 		la	a1,_Z8usermainPv
 308      83B50500 
 309 0200 130504FE 		addi	a0,s0,-32
 310 0204 97000000 		call	_Z13thread_createPP7_threadPFvPvES2_@plt
 310      E7800000 
 311              	.LVL33:
  85:src/kernel.cpp ****     putc('k');
 312              		.loc 1 85 5 is_stmt 1
 313              		.loc 1 85 9 is_stmt 0
 314 020c 1305B006 		li	a0,107
 315 0210 97000000 		call	_Z4putcc@plt
 315      E7800000 
 316              	.LVL34:
  86:src/kernel.cpp ****     putc('e');
 317              		.loc 1 86 5 is_stmt 1
 318              		.loc 1 86 9 is_stmt 0
 319 0218 13055006 		li	a0,101
 320 021c 97000000 		call	_Z4putcc@plt
 320      E7800000 
 321              	.LVL35:
  87:src/kernel.cpp ****     putc('r');
 322              		.loc 1 87 5 is_stmt 1
 323              		.loc 1 87 9 is_stmt 0
 324 0224 13052007 		li	a0,114
 325 0228 97000000 		call	_Z4putcc@plt
 325      E7800000 
 326              	.LVL36:
  88:src/kernel.cpp ****     putc('n');
 327              		.loc 1 88 5 is_stmt 1
 328              		.loc 1 88 9 is_stmt 0
 329 0230 1305E006 		li	a0,110
 330 0234 97000000 		call	_Z4putcc@plt
 330      E7800000 
 331              	.LVL37:
  89:src/kernel.cpp ****     putc('e');
 332              		.loc 1 89 5 is_stmt 1
 333              		.loc 1 89 9 is_stmt 0
 334 023c 13055006 		li	a0,101
 335 0240 97000000 		call	_Z4putcc@plt
 335      E7800000 
 336              	.LVL38:
  90:src/kernel.cpp ****     putc('l');
GAS LISTING /tmp/ccRGI9d9.s 			page 9


 337              		.loc 1 90 5 is_stmt 1
 338              		.loc 1 90 9 is_stmt 0
 339 0248 1305C006 		li	a0,108
 340 024c 97000000 		call	_Z4putcc@plt
 340      E7800000 
 341              	.LVL39:
  91:src/kernel.cpp ****     putc('\n');
 342              		.loc 1 91 5 is_stmt 1
 343              		.loc 1 91 9 is_stmt 0
 344 0254 1305A000 		li	a0,10
 345 0258 97000000 		call	_Z4putcc@plt
 345      E7800000 
 346              	.LVL40:
 347              	.L12:
  92:src/kernel.cpp ****     do{
 348              		.loc 1 92 5 is_stmt 1
  93:src/kernel.cpp ****         thread_dispatch();
 349              		.loc 1 93 9
 350              		.loc 1 93 24 is_stmt 0
 351 0260 97000000 		call	_Z15thread_dispatchv@plt
 351      E7800000 
 352              	.LVL41:
 353 0268 6FF09FFF 		j	.L12
 354              		.cfi_endproc
 355              	.LFE9:
 357              	.Letext0:
 358              		.file 2 "./lib/hw.h"
 359              		.file 3 "./h/types.h"
 360              		.file 4 "./h/heapManager.h"
 361              		.file 5 "./h/sched.h"
 362              		.file 6 "./h/thread.h"
 363              		.file 7 "./h/timer.h"
 364              		.file 8 "./h/kernel.h"
 365              		.file 9 "./h/syscalls_c.h"
 3190              		.align	3
 3193              	DW.ref.__gxx_personality_v0:
 3194 0000 00000000 		.dword	__gxx_personality_v0
 3194      00000000 
 3195              		.ident	"GCC: (Ubuntu 9.4.0-1ubuntu1~20.04) 9.4.0"
 3196              		.section	.note.GNU-stack,"",@progbits
GAS LISTING /tmp/ccRGI9d9.s 			page 10


DEFINED SYMBOLS
                            *ABS*:0000000000000000 kernel.cpp
     /tmp/ccRGI9d9.s:9      .text:0000000000000000 _ZN6KernelC2Ev
     /tmp/ccRGI9d9.s:13     .text:0000000000000000 .L0 
     /tmp/ccRGI9d9.s:3193   .data.rel.local.DW.ref.__gxx_personality_v0:0000000000000000 DW.ref.__gxx_personality_v0
     /tmp/ccRGI9d9.s:17     .text:0000000000000000 .L0 
     /tmp/ccRGI9d9.s:18     .text:0000000000000004 .L0 
     /tmp/ccRGI9d9.s:23     .text:0000000000000014 .L0 
     /tmp/ccRGI9d9.s:24     .text:0000000000000014 .L0 
     /tmp/ccRGI9d9.s:25     .text:0000000000000014 .L0 
     /tmp/ccRGI9d9.s:26     .text:0000000000000014 .L0 
     /tmp/ccRGI9d9.s:28     .text:0000000000000018 .L0 
     /tmp/ccRGI9d9.s:33     .text:000000000000001c .L0 
     /tmp/ccRGI9d9.s:41     .text:0000000000000030 .L0 
     /tmp/ccRGI9d9.s:49     .text:0000000000000044 .L0 
     /tmp/ccRGI9d9.s:60     .text:000000000000005c .L0 
     /tmp/ccRGI9d9.s:61     .text:0000000000000060 .L0 
     /tmp/ccRGI9d9.s:63     .text:0000000000000064 .L0 
     /tmp/ccRGI9d9.s:64     .text:0000000000000064 .L0 
     /tmp/ccRGI9d9.s:66     .text:0000000000000068 .L0 
     /tmp/ccRGI9d9.s:69     .text:000000000000006c .L0 
     /tmp/ccRGI9d9.s:71     .text:0000000000000070 .L0 
     /tmp/ccRGI9d9.s:73     .text:0000000000000074 .L0 
     /tmp/ccRGI9d9.s:9      .text:0000000000000000 _ZN6KernelC1Ev
     /tmp/ccRGI9d9.s:101    .text:0000000000000074 _ZN6Kernel10initialiseEv
     /tmp/ccRGI9d9.s:104    .text:0000000000000074 .L0 
     /tmp/ccRGI9d9.s:106    .text:0000000000000074 .L0 
     /tmp/ccRGI9d9.s:107    .text:0000000000000078 .L0 
     /tmp/ccRGI9d9.s:110    .text:0000000000000080 .L0 
     /tmp/ccRGI9d9.s:111    .text:0000000000000080 .L0 
     /tmp/ccRGI9d9.s:113    .text:0000000000000084 .L0 
     /tmp/ccRGI9d9.s:115    .text:0000000000000084 .L0 
     /tmp/ccRGI9d9.s:116    .text:0000000000000084 .L0 
     /tmp/ccRGI9d9.s:122    .text:0000000000000090 .L0 
     /tmp/ccRGI9d9.s:124    .text:0000000000000090 .L0 
     /tmp/ccRGI9d9.s:131    .text:00000000000000b0 .L0 
     /tmp/ccRGI9d9.s:132    .text:00000000000000b0 .L0 
     /tmp/ccRGI9d9.s:133    .text:00000000000000b4 .L0 
     /tmp/ccRGI9d9.s:135    .text:00000000000000b8 .L0 
     /tmp/ccRGI9d9.s:136    .text:00000000000000b8 .L0 
     /tmp/ccRGI9d9.s:138    .text:00000000000000bc .L0 
     /tmp/ccRGI9d9.s:140    .text:00000000000000c0 .L0 
     /tmp/ccRGI9d9.s:146    .text:00000000000000c0 _Z8testFuncPv
     /tmp/ccRGI9d9.s:149    .text:00000000000000c0 .L0 
     /tmp/ccRGI9d9.s:151    .text:00000000000000c0 .L0 
     /tmp/ccRGI9d9.s:152    .text:00000000000000c4 .L0 
     /tmp/ccRGI9d9.s:155    .text:00000000000000cc .L0 
     /tmp/ccRGI9d9.s:156    .text:00000000000000cc .L0 
     /tmp/ccRGI9d9.s:158    .text:00000000000000d0 .L0 
     /tmp/ccRGI9d9.s:160    .text:00000000000000d0 .L0 
     /tmp/ccRGI9d9.s:161    .text:00000000000000d0 .L0 
     /tmp/ccRGI9d9.s:166    .text:00000000000000dc .L0 
     /tmp/ccRGI9d9.s:167    .text:00000000000000dc .L0 
     /tmp/ccRGI9d9.s:171    .text:00000000000000e8 .L0 
     /tmp/ccRGI9d9.s:172    .text:00000000000000e8 .L0 
     /tmp/ccRGI9d9.s:176    .text:00000000000000f4 .L0 
     /tmp/ccRGI9d9.s:177    .text:00000000000000f4 .L0 
GAS LISTING /tmp/ccRGI9d9.s 			page 11


     /tmp/ccRGI9d9.s:181    .text:0000000000000100 .L0 
     /tmp/ccRGI9d9.s:182    .text:0000000000000100 .L0 
     /tmp/ccRGI9d9.s:185    .text:0000000000000108 .L0 
     /tmp/ccRGI9d9.s:186    .text:0000000000000108 .L0 
     /tmp/ccRGI9d9.s:190    .text:0000000000000114 .L0 
     /tmp/ccRGI9d9.s:191    .text:0000000000000114 .L0 
     /tmp/ccRGI9d9.s:195    .text:0000000000000120 .L0 
     /tmp/ccRGI9d9.s:196    .text:0000000000000120 .L0 
     /tmp/ccRGI9d9.s:200    .text:000000000000012c .L0 
     /tmp/ccRGI9d9.s:201    .text:000000000000012c .L0 
     /tmp/ccRGI9d9.s:205    .text:0000000000000138 .L0 
     /tmp/ccRGI9d9.s:206    .text:0000000000000138 .L0 
     /tmp/ccRGI9d9.s:210    .text:0000000000000144 .L0 
     /tmp/ccRGI9d9.s:211    .text:0000000000000144 .L0 
     /tmp/ccRGI9d9.s:215    .text:0000000000000150 .L0 
     /tmp/ccRGI9d9.s:216    .text:0000000000000150 .L0 
     /tmp/ccRGI9d9.s:220    .text:000000000000015c .L0 
     /tmp/ccRGI9d9.s:221    .text:000000000000015c .L0 
     /tmp/ccRGI9d9.s:225    .text:0000000000000168 .L0 
     /tmp/ccRGI9d9.s:226    .text:000000000000016c .L0 
     /tmp/ccRGI9d9.s:228    .text:0000000000000170 .L0 
     /tmp/ccRGI9d9.s:229    .text:0000000000000170 .L0 
     /tmp/ccRGI9d9.s:231    .text:0000000000000174 .L0 
     /tmp/ccRGI9d9.s:233    .text:0000000000000178 .L0 
     /tmp/ccRGI9d9.s:239    .text:0000000000000178 _ZN6Kernel3runEv
     /tmp/ccRGI9d9.s:242    .text:0000000000000178 .L0 
     /tmp/ccRGI9d9.s:244    .text:0000000000000178 .L0 
     /tmp/ccRGI9d9.s:245    .text:000000000000017c .L0 
     /tmp/ccRGI9d9.s:248    .text:0000000000000184 .L0 
     /tmp/ccRGI9d9.s:249    .text:0000000000000184 .L0 
     /tmp/ccRGI9d9.s:251    .text:0000000000000188 .L0 
     /tmp/ccRGI9d9.s:253    .text:0000000000000188 .L0 
     /tmp/ccRGI9d9.s:254    .text:0000000000000188 .L0 
     /tmp/ccRGI9d9.s:255    .text:0000000000000188 .L0 
     /tmp/ccRGI9d9.s:262    .text:000000000000019c .L0 
     /tmp/ccRGI9d9.s:263    .text:000000000000019c .L0 
     /tmp/ccRGI9d9.s:266    .text:00000000000001a4 .L0 
     /tmp/ccRGI9d9.s:269    .text:00000000000001b0 .L0 
      src/kernel.cpp:71     .text:00000000000001b0 .L0 
     /tmp/ccRGI9d9.s:275    .text:00000000000001b4 .L0 
      src/kernel.cpp:72     .text:00000000000001b4 .L0 
     /tmp/ccRGI9d9.s:280    .text:00000000000001b8 .L0 
     /tmp/ccRGI9d9.s:282    .text:00000000000001b8 .L0 
     /tmp/ccRGI9d9.s:286    .text:00000000000001c4 .L0 
     /tmp/ccRGI9d9.s:287    .text:00000000000001c4 .L0 
     /tmp/ccRGI9d9.s:291    .text:00000000000001d0 .L0 
     /tmp/ccRGI9d9.s:292    .text:00000000000001d0 .L0 
     /tmp/ccRGI9d9.s:296    .text:00000000000001dc .L0 
     /tmp/ccRGI9d9.s:297    .text:00000000000001dc .L0 
     /tmp/ccRGI9d9.s:301    .text:00000000000001e8 .L0 
     /tmp/ccRGI9d9.s:302    .text:00000000000001e8 .L0 
     /tmp/ccRGI9d9.s:306    .text:00000000000001f4 .L0 
     /tmp/ccRGI9d9.s:307    .text:00000000000001f4 .L0 
     /tmp/ccRGI9d9.s:313    .text:000000000000020c .L0 
     /tmp/ccRGI9d9.s:314    .text:000000000000020c .L0 
     /tmp/ccRGI9d9.s:318    .text:0000000000000218 .L0 
     /tmp/ccRGI9d9.s:319    .text:0000000000000218 .L0 
GAS LISTING /tmp/ccRGI9d9.s 			page 12


     /tmp/ccRGI9d9.s:323    .text:0000000000000224 .L0 
     /tmp/ccRGI9d9.s:324    .text:0000000000000224 .L0 
     /tmp/ccRGI9d9.s:328    .text:0000000000000230 .L0 
     /tmp/ccRGI9d9.s:329    .text:0000000000000230 .L0 
     /tmp/ccRGI9d9.s:333    .text:000000000000023c .L0 
     /tmp/ccRGI9d9.s:334    .text:000000000000023c .L0 
     /tmp/ccRGI9d9.s:338    .text:0000000000000248 .L0 
     /tmp/ccRGI9d9.s:339    .text:0000000000000248 .L0 
     /tmp/ccRGI9d9.s:343    .text:0000000000000254 .L0 
     /tmp/ccRGI9d9.s:344    .text:0000000000000254 .L0 
     /tmp/ccRGI9d9.s:349    .text:0000000000000260 .L0 
     /tmp/ccRGI9d9.s:350    .text:0000000000000260 .L0 
     /tmp/ccRGI9d9.s:351    .text:0000000000000260 .L0 
     /tmp/ccRGI9d9.s:354    .text:000000000000026c .L0 
     /tmp/ccRGI9d9.s:366    .text:000000000000026c .L0 
     /tmp/ccRGI9d9.s:116    .text:0000000000000084 .L0 
     /tmp/ccRGI9d9.s:124    .text:0000000000000090 .L0 
     /tmp/ccRGI9d9.s:126    .text:000000000000009c .L0 
     /tmp/ccRGI9d9.s:266    .text:00000000000001a4 .L0 
     /tmp/ccRGI9d9.s:308    .text:00000000000001f8 .L0 
     /tmp/ccRGI9d9.s:57     .text:000000000000005c .L6
     /tmp/ccRGI9d9.s:347    .text:0000000000000260 .L12
     /tmp/ccRGI9d9.s:30     .text:000000000000001c .LEHB0
     /tmp/ccRGI9d9.s:10     .text:0000000000000000 .LFB5
     /tmp/ccRGI9d9.s:35     .text:0000000000000024 .LEHE0
     /tmp/ccRGI9d9.s:37     .text:0000000000000028 .LEHB1
     /tmp/ccRGI9d9.s:44     .text:000000000000003c .LEHE1
     /tmp/ccRGI9d9.s:46     .text:0000000000000040 .L3
     /tmp/ccRGI9d9.s:53     .text:0000000000000054 .LEHB2
     /tmp/ccRGI9d9.s:56     .text:000000000000005c .LEHE2
     /tmp/ccRGI9d9.s:1942   .debug_abbrev:0000000000000000 .Ldebug_abbrev0
     /tmp/ccRGI9d9.s:3141   .debug_str:0000000000000699 .LASF124
     /tmp/ccRGI9d9.s:2925   .debug_str:00000000000000b6 .LASF125
     /tmp/ccRGI9d9.s:3075   .debug_str:00000000000004c0 .LASF126
     /tmp/ccRGI9d9.s:5      .text:0000000000000000 .Ltext0
     /tmp/ccRGI9d9.s:357    .text:000000000000026c .Letext0
     /tmp/ccRGI9d9.s:2903   .debug_line:0000000000000000 .Ldebug_line0
     /tmp/ccRGI9d9.s:3061   .debug_str:000000000000046e .LASF0
     /tmp/ccRGI9d9.s:3079   .debug_str:0000000000000510 .LASF1
     /tmp/ccRGI9d9.s:3043   .debug_str:00000000000003dd .LASF2
     /tmp/ccRGI9d9.s:3119   .debug_str:000000000000060b .LASF3
     /tmp/ccRGI9d9.s:3007   .debug_str:00000000000002f5 .LASF4
     /tmp/ccRGI9d9.s:3123   .debug_str:000000000000061a .LASF5
     /tmp/ccRGI9d9.s:2939   .debug_str:0000000000000137 .LASF6
     /tmp/ccRGI9d9.s:2971   .debug_str:000000000000021b .LASF7
     /tmp/ccRGI9d9.s:3085   .debug_str:0000000000000534 .LASF8
     /tmp/ccRGI9d9.s:3059   .debug_str:000000000000045b .LASF9
     /tmp/ccRGI9d9.s:3155   .debug_str:00000000000007c3 .LASF10
     /tmp/ccRGI9d9.s:2991   .debug_str:000000000000029c .LASF11
     /tmp/ccRGI9d9.s:3097   .debug_str:0000000000000579 .LASF12
     /tmp/ccRGI9d9.s:3145   .debug_str:0000000000000769 .LASF13
     /tmp/ccRGI9d9.s:2943   .debug_str:0000000000000147 .LASF14
     /tmp/ccRGI9d9.s:2909   .debug_str:0000000000000015 .LASF15
     /tmp/ccRGI9d9.s:2955   .debug_str:000000000000018f .LASF16
     /tmp/ccRGI9d9.s:3117   .debug_str:00000000000005f5 .LASF17
     /tmp/ccRGI9d9.s:2963   .debug_str:00000000000001d2 .LASF18
     /tmp/ccRGI9d9.s:2979   .debug_str:000000000000025c .LASF19
GAS LISTING /tmp/ccRGI9d9.s 			page 13


     /tmp/ccRGI9d9.s:3063   .debug_str:000000000000047b .LASF24
     /tmp/ccRGI9d9.s:2915   .debug_str:000000000000006f .LASF39
     /tmp/ccRGI9d9.s:2997   .debug_str:00000000000002c1 .LASF20
     /tmp/ccRGI9d9.s:2983   .debug_str:0000000000000272 .LASF21
     /tmp/ccRGI9d9.s:3173   .debug_str:0000000000000835 .LASF22
     /tmp/ccRGI9d9.s:3153   .debug_str:00000000000007ba .LASF23
     /tmp/ccRGI9d9.s:2989   .debug_str:0000000000000287 .LASF26
     /tmp/ccRGI9d9.s:2905   .debug_str:0000000000000000 .LASF25
     /tmp/ccRGI9d9.s:3073   .debug_str:00000000000004ab .LASF27
     /tmp/ccRGI9d9.s:3089   .debug_str:000000000000054e .LASF28
     /tmp/ccRGI9d9.s:3027   .debug_str:000000000000037d .LASF29
     /tmp/ccRGI9d9.s:3051   .debug_str:0000000000000425 .LASF30
     /tmp/ccRGI9d9.s:3047   .debug_str:00000000000003fa .LASF32
     /tmp/ccRGI9d9.s:3039   .debug_str:00000000000003c9 .LASF31
     /tmp/ccRGI9d9.s:3149   .debug_str:0000000000000791 .LASF33
     /tmp/ccRGI9d9.s:2953   .debug_str:0000000000000186 .LASF34
     /tmp/ccRGI9d9.s:2927   .debug_str:00000000000000c5 .LASF35
     /tmp/ccRGI9d9.s:3143   .debug_str:000000000000075d .LASF48
     /tmp/ccRGI9d9.s:2969   .debug_str:00000000000001fb .LASF50
     /tmp/ccRGI9d9.s:2917   .debug_str:0000000000000085 .LASF36
     /tmp/ccRGI9d9.s:3069   .debug_str:000000000000049b .LASF60
     /tmp/ccRGI9d9.s:3023   .debug_str:000000000000036d .LASF37
     /tmp/ccRGI9d9.s:3005   .debug_str:00000000000002ed .LASF38
     /tmp/ccRGI9d9.s:3175   .debug_str:000000000000083b .LASF40
     /tmp/ccRGI9d9.s:3109   .debug_str:00000000000005ce .LASF41
     /tmp/ccRGI9d9.s:3053   .debug_str:0000000000000437 .LASF42
     /tmp/ccRGI9d9.s:3087   .debug_str:0000000000000547 .LASF43
     /tmp/ccRGI9d9.s:3181   .debug_str:000000000000086c .LASF44
     /tmp/ccRGI9d9.s:3179   .debug_str:0000000000000865 .LASF45
     /tmp/ccRGI9d9.s:2913   .debug_str:000000000000004a .LASF46
     /tmp/ccRGI9d9.s:2987   .debug_str:0000000000000282 .LASF47
     /tmp/ccRGI9d9.s:3033   .debug_str:00000000000003ad .LASF49
     /tmp/ccRGI9d9.s:3161   .debug_str:00000000000007f0 .LASF51
     /tmp/ccRGI9d9.s:3065   .debug_str:0000000000000487 .LASF127
     /tmp/ccRGI9d9.s:3135   .debug_str:000000000000066c .LASF128
     /tmp/ccRGI9d9.s:3127   .debug_str:0000000000000631 .LASF52
     /tmp/ccRGI9d9.s:3019   .debug_str:0000000000000339 .LASF53
     /tmp/ccRGI9d9.s:2973   .debug_str:0000000000000222 .LASF129
     /tmp/ccRGI9d9.s:3011   .debug_str:0000000000000305 .LASF54
     /tmp/ccRGI9d9.s:3185   .debug_str:0000000000000877 .LASF55
     /tmp/ccRGI9d9.s:2945   .debug_str:0000000000000157 .LASF56
     /tmp/ccRGI9d9.s:2929   .debug_str:00000000000000e2 .LASF57
     /tmp/ccRGI9d9.s:2981   .debug_str:0000000000000266 .LASF58
     /tmp/ccRGI9d9.s:3177   .debug_str:000000000000084a .LASF59
     /tmp/ccRGI9d9.s:3157   .debug_str:00000000000007d3 .LASF62
     /tmp/ccRGI9d9.s:3133   .debug_str:0000000000000664 .LASF130
     /tmp/ccRGI9d9.s:3105   .debug_str:00000000000005af .LASF131
     /tmp/ccRGI9d9.s:3017   .debug_str:0000000000000332 .LASF61
     /tmp/ccRGI9d9.s:3013   .debug_str:0000000000000310 .LASF63
     /tmp/ccRGI9d9.s:3163   .debug_str:0000000000000803 .LASF64
     /tmp/ccRGI9d9.s:3139   .debug_str:0000000000000690 .LASF65
     /tmp/ccRGI9d9.s:3103   .debug_str:00000000000005a6 .LASF66
     /tmp/ccRGI9d9.s:3009   .debug_str:00000000000002fc .LASF67
     /tmp/ccRGI9d9.s:3037   .debug_str:00000000000003be .LASF68
     /tmp/ccRGI9d9.s:3041   .debug_str:00000000000003d6 .LASF69
     /tmp/ccRGI9d9.s:2907   .debug_str:000000000000000d .LASF70
     /tmp/ccRGI9d9.s:3099   .debug_str:0000000000000588 .LASF71
GAS LISTING /tmp/ccRGI9d9.s 			page 14


     /tmp/ccRGI9d9.s:3107   .debug_str:00000000000005c5 .LASF72
     /tmp/ccRGI9d9.s:3071   .debug_str:00000000000004a4 .LASF73
     /tmp/ccRGI9d9.s:3003   .debug_str:00000000000002e4 .LASF74
     /tmp/ccRGI9d9.s:3091   .debug_str:0000000000000553 .LASF75
     /tmp/ccRGI9d9.s:3025   .debug_str:0000000000000376 .LASF76
     /tmp/ccRGI9d9.s:2959   .debug_str:00000000000001ac .LASF132
     /tmp/ccRGI9d9.s:3077   .debug_str:00000000000004dc .LASF133
     /tmp/ccRGI9d9.s:3095   .debug_str:000000000000056f .LASF77
     /tmp/ccRGI9d9.s:3067   .debug_str:0000000000000490 .LASF78
     /tmp/ccRGI9d9.s:2919   .debug_str:000000000000008d .LASF79
     /tmp/ccRGI9d9.s:3131   .debug_str:0000000000000648 .LASF134
     /tmp/ccRGI9d9.s:2977   .debug_str:0000000000000248 .LASF135
     /tmp/ccRGI9d9.s:3121   .debug_str:0000000000000612 .LASF80
     /tmp/ccRGI9d9.s:2975   .debug_str:0000000000000230 .LASF81
     /tmp/ccRGI9d9.s:2937   .debug_str:000000000000012e .LASF82
     /tmp/ccRGI9d9.s:2931   .debug_str:00000000000000fa .LASF83
     /tmp/ccRGI9d9.s:2965   .debug_str:00000000000001e8 .LASF84
     /tmp/ccRGI9d9.s:3049   .debug_str:0000000000000420 .LASF85
     /tmp/ccRGI9d9.s:2951   .debug_str:000000000000017c .LASF86
     /tmp/ccRGI9d9.s:2921   .debug_str:000000000000009f .LASF87
     /tmp/ccRGI9d9.s:3093   .debug_str:000000000000055c .LASF88
     /tmp/ccRGI9d9.s:3111   .debug_str:00000000000005d6 .LASF89
     /tmp/ccRGI9d9.s:3055   .debug_str:0000000000000446 .LASF90
     /tmp/ccRGI9d9.s:3167   .debug_str:0000000000000812 .LASF91
     /tmp/ccRGI9d9.s:3183   .debug_str:0000000000000871 .LASF92
     /tmp/ccRGI9d9.s:2923   .debug_str:00000000000000a4 .LASF93
     /tmp/ccRGI9d9.s:3169   .debug_str:000000000000082b .LASF94
     /tmp/ccRGI9d9.s:2947   .debug_str:0000000000000161 .LASF95
     /tmp/ccRGI9d9.s:3129   .debug_str:0000000000000636 .LASF96
     /tmp/ccRGI9d9.s:3021   .debug_str:000000000000034e .LASF97
     /tmp/ccRGI9d9.s:2933   .debug_str:0000000000000113 .LASF98
     /tmp/ccRGI9d9.s:3165   .debug_str:000000000000080b .LASF99
     /tmp/ccRGI9d9.s:2999   .debug_str:00000000000002c7 .LASF100
     /tmp/ccRGI9d9.s:3015   .debug_str:0000000000000325 .LASF101
     /tmp/ccRGI9d9.s:3159   .debug_str:00000000000007eb .LASF102
     /tmp/ccRGI9d9.s:3031   .debug_str:00000000000003a6 .LASF103
     /tmp/ccRGI9d9.s:2949   .debug_str:0000000000000172 .LASF136
     /tmp/ccRGI9d9.s:2935   .debug_str:0000000000000121 .LASF104
     /tmp/ccRGI9d9.s:3137   .debug_str:0000000000000683 .LASF105
     /tmp/ccRGI9d9.s:3115   .debug_str:00000000000005e6 .LASF106
     /tmp/ccRGI9d9.s:3151   .debug_str:00000000000007b2 .LASF107
     /tmp/ccRGI9d9.s:3057   .debug_str:000000000000044c .LASF108
     /tmp/ccRGI9d9.s:2957   .debug_str:000000000000019b .LASF137
     /tmp/ccRGI9d9.s:3081   .debug_str:0000000000000523 .LASF109
     /tmp/ccRGI9d9.s:3147   .debug_str:0000000000000778 .LASF110
     /tmp/ccRGI9d9.s:3035   .debug_str:00000000000003b2 .LASF111
     /tmp/ccRGI9d9.s:2985   .debug_str:0000000000000278 .LASF112
     /tmp/ccRGI9d9.s:3083   .debug_str:000000000000052e .LASF113
     /tmp/ccRGI9d9.s:240    .text:0000000000000178 .LFB9
     /tmp/ccRGI9d9.s:355    .text:000000000000026c .LFE9
     /tmp/ccRGI9d9.s:3171   .debug_str:0000000000000830 .LASF117
     /tmp/ccRGI9d9.s:2830   .debug_loc:0000000000000000 .LLST3
     /tmp/ccRGI9d9.s:3113   .debug_str:00000000000005e1 .LASF114
     /tmp/ccRGI9d9.s:260    .text:000000000000019c .LVL26
     /tmp/ccRGI9d9.s:264    .text:00000000000001a4 .LVL27
     /tmp/ccRGI9d9.s:284    .text:00000000000001c4 .LVL28
     /tmp/ccRGI9d9.s:289    .text:00000000000001d0 .LVL29
GAS LISTING /tmp/ccRGI9d9.s 			page 15


     /tmp/ccRGI9d9.s:294    .text:00000000000001dc .LVL30
     /tmp/ccRGI9d9.s:299    .text:00000000000001e8 .LVL31
     /tmp/ccRGI9d9.s:304    .text:00000000000001f4 .LVL32
     /tmp/ccRGI9d9.s:311    .text:000000000000020c .LVL33
     /tmp/ccRGI9d9.s:316    .text:0000000000000218 .LVL34
     /tmp/ccRGI9d9.s:321    .text:0000000000000224 .LVL35
     /tmp/ccRGI9d9.s:326    .text:0000000000000230 .LVL36
     /tmp/ccRGI9d9.s:331    .text:000000000000023c .LVL37
     /tmp/ccRGI9d9.s:336    .text:0000000000000248 .LVL38
     /tmp/ccRGI9d9.s:341    .text:0000000000000254 .LVL39
     /tmp/ccRGI9d9.s:346    .text:0000000000000260 .LVL40
     /tmp/ccRGI9d9.s:352    .text:0000000000000268 .LVL41
     /tmp/ccRGI9d9.s:2941   .debug_str:000000000000013e .LASF115
     /tmp/ccRGI9d9.s:2967   .debug_str:00000000000001ed .LASF116
     /tmp/ccRGI9d9.s:147    .text:00000000000000c0 .LFB8
     /tmp/ccRGI9d9.s:234    .text:0000000000000178 .LFE8
     /tmp/ccRGI9d9.s:2844   .debug_loc:0000000000000039 .LLST2
     /tmp/ccRGI9d9.s:164    .text:00000000000000dc .LVL11
     /tmp/ccRGI9d9.s:169    .text:00000000000000e8 .LVL12
     /tmp/ccRGI9d9.s:174    .text:00000000000000f4 .LVL13
     /tmp/ccRGI9d9.s:179    .text:0000000000000100 .LVL14
     /tmp/ccRGI9d9.s:183    .text:0000000000000108 .LVL15
     /tmp/ccRGI9d9.s:188    .text:0000000000000114 .LVL16
     /tmp/ccRGI9d9.s:193    .text:0000000000000120 .LVL17
     /tmp/ccRGI9d9.s:198    .text:000000000000012c .LVL18
     /tmp/ccRGI9d9.s:203    .text:0000000000000138 .LVL19
     /tmp/ccRGI9d9.s:208    .text:0000000000000144 .LVL20
     /tmp/ccRGI9d9.s:213    .text:0000000000000150 .LVL21
     /tmp/ccRGI9d9.s:218    .text:000000000000015c .LVL22
     /tmp/ccRGI9d9.s:223    .text:0000000000000168 .LVL23
     /tmp/ccRGI9d9.s:102    .text:0000000000000074 .LFB7
     /tmp/ccRGI9d9.s:141    .text:00000000000000c0 .LFE7
     /tmp/ccRGI9d9.s:2858   .debug_loc:0000000000000072 .LLST1
     /tmp/ccRGI9d9.s:129    .text:00000000000000b0 .LVL8
     /tmp/ccRGI9d9.s:3045   .debug_str:00000000000003eb .LASF138
     /tmp/ccRGI9d9.s:74     .text:0000000000000074 .LFE5
     /tmp/ccRGI9d9.s:2872   .debug_loc:00000000000000ab .LLST0
     /tmp/ccRGI9d9.s:34     .text:0000000000000024 .LVL1
     /tmp/ccRGI9d9.s:39     .text:0000000000000030 .LVL2
     /tmp/ccRGI9d9.s:43     .text:000000000000003c .LVL3
     /tmp/ccRGI9d9.s:51     .text:0000000000000050 .LVL4
     /tmp/ccRGI9d9.s:55     .text:000000000000005c .LVL5
     /tmp/ccRGI9d9.s:2911   .debug_str:0000000000000025 .LASF118
     /tmp/ccRGI9d9.s:2995   .debug_str:00000000000002b3 .LASF120
     /tmp/ccRGI9d9.s:2993   .debug_str:00000000000002aa .LASF119
     /tmp/ccRGI9d9.s:3125   .debug_str:000000000000062c .LASF121
     /tmp/ccRGI9d9.s:3101   .debug_str:0000000000000591 .LASF122
     /tmp/ccRGI9d9.s:3029   .debug_str:0000000000000396 .LASF123
     /tmp/ccRGI9d9.s:3001   .debug_str:00000000000002d5 .LASF139
     /tmp/ccRGI9d9.s:2961   .debug_str:00000000000001ba .LASF140
     /tmp/ccRGI9d9.s:243    .text:0000000000000178 .LVL24
     /tmp/ccRGI9d9.s:258    .text:0000000000000194 .LVL25
     /tmp/ccRGI9d9.s:150    .text:00000000000000c0 .LVL9
     /tmp/ccRGI9d9.s:162    .text:00000000000000d4 .LVL10
     /tmp/ccRGI9d9.s:105    .text:0000000000000074 .LVL7
     /tmp/ccRGI9d9.s:16     .text:0000000000000000 .LVL0
     /tmp/ccRGI9d9.s:67     .text:0000000000000068 .LVL6
GAS LISTING /tmp/ccRGI9d9.s 			page 16


     /tmp/ccRGI9d9.s:367    .debug_info:0000000000000000 .Ldebug_info0
     /tmp/ccRGI9d9.s:77     .gcc_except_table:0000000000000000 .LLSDA5

UNDEFINED SYMBOLS
_ZN11HeapManagerC1Ev
_ZN9SchedulerC1Ev
_ZN5TimerC1Ev
_ZN11HeapManagerD1Ev
_Unwind_Resume
__gxx_personality_v0
trap
HEAP_END_ADDR
HEAP_START_ADDR
_ZN11HeapManager4initEmm
_Z4putcc
_Z15thread_dispatchv
_Z13thread_createPP7_threadPFvPvES2_
_ZN9Scheduler3getEv
_ZN7_thread13currentThreadE
_Z8usermainPv
