GAS LISTING /tmp/ccXIj4hi.s 			page 1


   1              		.file	"kernel.cpp"
   2              		.option pic
   3              		.option norelax
   4              		.text
   5              	.Ltext0:
   6              		.align	2
   7              		.globl	_Z8testFuncPv
   9              	_Z8testFuncPv:
  10              	.LFB8:
  11              		.file 1 "src/kernel.cpp"
   1:src/kernel.cpp **** /**
   2:src/kernel.cpp ****  * @file kernel.cpp
   3:src/kernel.cpp ****  * @author stcksmsh (vukicevickosta@gmail.com)
   4:src/kernel.cpp ****  * @brief implementation of the kernel class
   5:src/kernel.cpp ****  * @version 0.1
   6:src/kernel.cpp ****  * @date 2023-12-31
   7:src/kernel.cpp ****  * 
   8:src/kernel.cpp ****  * @copyright Copyright (c) 2023
   9:src/kernel.cpp ****  * 
  10:src/kernel.cpp ****  */
  11:src/kernel.cpp **** 
  12:src/kernel.cpp **** #include "kernel.h"
  13:src/kernel.cpp **** #include "types.h"
  14:src/kernel.cpp **** #include "assert.h"
  15:src/kernel.cpp **** #include "syscalls_c.h"
  16:src/kernel.cpp **** #include "thread.h"
  17:src/kernel.cpp **** #include "sem.h"
  18:src/kernel.cpp **** #include "sched.h"
  19:src/kernel.cpp **** #include "timer.h"
  20:src/kernel.cpp **** 
  21:src/kernel.cpp **** extern "C" void trap();
  22:src/kernel.cpp **** 
  23:src/kernel.cpp **** Kernel::Kernel(): heapManager(), scheduler(), timer(){}
  24:src/kernel.cpp ****  
  25:src/kernel.cpp **** 
  26:src/kernel.cpp **** void Kernel::initialise(){
  27:src/kernel.cpp ****     /// set the trap vector
  28:src/kernel.cpp ****     __asm__ volatile ("csrw stvec, %0" :: "r"(trap));
  29:src/kernel.cpp **** 
  30:src/kernel.cpp ****     /// change to user mode
  31:src/kernel.cpp **** 
  32:src/kernel.cpp ****     uint64 sstatus;
  33:src/kernel.cpp ****     /// get the current sstatus
  34:src/kernel.cpp ****     __asm__ volatile("csrr %0, sstatus" : "=r"(sstatus));
  35:src/kernel.cpp ****     /// set the SPP bit to 0
  36:src/kernel.cpp ****     sstatus &= ~(1 << 8);
  37:src/kernel.cpp ****     /// write the new sstatus
  38:src/kernel.cpp ****     __asm__ volatile("csrw sstatus, %0" :: "r"(sstatus));
  39:src/kernel.cpp ****     
  40:src/kernel.cpp ****     /// NOW WE ARE IN USER MODE
  41:src/kernel.cpp ****     
  42:src/kernel.cpp ****     /// initialise the heap manager
  43:src/kernel.cpp ****     heapManager.init((uintptr_t)HEAP_START_ADDR, (uintptr_t)HEAP_END_ADDR );
  44:src/kernel.cpp **** 
  45:src/kernel.cpp ****     return;
  46:src/kernel.cpp **** }
  47:src/kernel.cpp **** 
GAS LISTING /tmp/ccXIj4hi.s 			page 2


  48:src/kernel.cpp **** // sem_t sem = nullptr;
  49:src/kernel.cpp **** 
  50:src/kernel.cpp **** void testFunc(void* arg){
  12              		.loc 1 50 25
  13              		.cfi_startproc
  14              	.LVL0:
  15 0000 130101FF 		addi	sp,sp,-16
  16              		.cfi_def_cfa_offset 16
  17 0004 23341100 		sd	ra,8(sp)
  18 0008 23308100 		sd	s0,0(sp)
  19              		.cfi_offset 1, -8
  20              		.cfi_offset 8, -16
  21 000c 13040101 		addi	s0,sp,16
  22              		.cfi_def_cfa 8, 0
  51:src/kernel.cpp ****     putc('t');
  23              		.loc 1 51 5
  24              		.loc 1 51 9 is_stmt 0
  25 0010 13054007 		li	a0,116
  26              	.LVL1:
  27 0014 97000000 		call	_Z4putcc@plt
  27      E7800000 
  28              	.LVL2:
  52:src/kernel.cpp ****     putc('e');
  29              		.loc 1 52 5 is_stmt 1
  30              		.loc 1 52 9 is_stmt 0
  31 001c 13055006 		li	a0,101
  32 0020 97000000 		call	_Z4putcc@plt
  32      E7800000 
  33              	.LVL3:
  53:src/kernel.cpp ****     putc('s');
  34              		.loc 1 53 5 is_stmt 1
  35              		.loc 1 53 9 is_stmt 0
  36 0028 13053007 		li	a0,115
  37 002c 97000000 		call	_Z4putcc@plt
  37      E7800000 
  38              	.LVL4:
  54:src/kernel.cpp ****     putc('t');
  39              		.loc 1 54 5 is_stmt 1
  40              		.loc 1 54 9 is_stmt 0
  41 0034 13054007 		li	a0,116
  42 0038 97000000 		call	_Z4putcc@plt
  42      E7800000 
  43              	.LVL5:
  55:src/kernel.cpp **** 
  56:src/kernel.cpp ****     // sem_wait(sem);
  57:src/kernel.cpp ****     // thread_dispatch();
  58:src/kernel.cpp ****     // thread_dispatch();
  59:src/kernel.cpp ****     // thread_dispatch();
  60:src/kernel.cpp **** 
  61:src/kernel.cpp ****     putc(' ');
  44              		.loc 1 61 5 is_stmt 1
  45              		.loc 1 61 9 is_stmt 0
  46 0040 13050002 		li	a0,32
  47 0044 97000000 		call	_Z4putcc@plt
  47      E7800000 
  48              	.LVL6:
  62:src/kernel.cpp ****     // time_sleep(100);
GAS LISTING /tmp/ccXIj4hi.s 			page 3


  63:src/kernel.cpp **** 
  64:src/kernel.cpp ****     putc('t');
  49              		.loc 1 64 5 is_stmt 1
  50              		.loc 1 64 9 is_stmt 0
  51 004c 13054007 		li	a0,116
  52 0050 97000000 		call	_Z4putcc@plt
  52      E7800000 
  53              	.LVL7:
  65:src/kernel.cpp ****     putc('h');
  54              		.loc 1 65 5 is_stmt 1
  55              		.loc 1 65 9 is_stmt 0
  56 0058 13058006 		li	a0,104
  57 005c 97000000 		call	_Z4putcc@plt
  57      E7800000 
  58              	.LVL8:
  66:src/kernel.cpp ****     putc('r');
  59              		.loc 1 66 5 is_stmt 1
  60              		.loc 1 66 9 is_stmt 0
  61 0064 13052007 		li	a0,114
  62 0068 97000000 		call	_Z4putcc@plt
  62      E7800000 
  63              	.LVL9:
  67:src/kernel.cpp ****     putc('e');
  64              		.loc 1 67 5 is_stmt 1
  65              		.loc 1 67 9 is_stmt 0
  66 0070 13055006 		li	a0,101
  67 0074 97000000 		call	_Z4putcc@plt
  67      E7800000 
  68              	.LVL10:
  68:src/kernel.cpp ****     putc('a');
  69              		.loc 1 68 5 is_stmt 1
  70              		.loc 1 68 9 is_stmt 0
  71 007c 13051006 		li	a0,97
  72 0080 97000000 		call	_Z4putcc@plt
  72      E7800000 
  73              	.LVL11:
  69:src/kernel.cpp ****     putc('d');
  74              		.loc 1 69 5 is_stmt 1
  75              		.loc 1 69 9 is_stmt 0
  76 0088 13054006 		li	a0,100
  77 008c 97000000 		call	_Z4putcc@plt
  77      E7800000 
  78              	.LVL12:
  70:src/kernel.cpp ****     putc('\n');
  79              		.loc 1 70 5 is_stmt 1
  80              		.loc 1 70 9 is_stmt 0
  81 0094 1305A000 		li	a0,10
  82 0098 97000000 		call	_Z4putcc@plt
  82      E7800000 
  83              	.LVL13:
  71:src/kernel.cpp **** }
  84              		.loc 1 71 1
  85 00a0 83308100 		ld	ra,8(sp)
  86              		.cfi_restore 1
  87 00a4 03340100 		ld	s0,0(sp)
  88              		.cfi_restore 8
  89              		.cfi_def_cfa 2, 16
GAS LISTING /tmp/ccXIj4hi.s 			page 4


  90 00a8 13010101 		addi	sp,sp,16
  91              		.cfi_def_cfa_offset 0
  92 00ac 67800000 		jr	ra
  93              		.cfi_endproc
  94              	.LFE8:
  96              		.align	2
  97              		.globl	_ZN6KernelC2Ev
  99              	_ZN6KernelC2Ev:
 100              	.LFB5:
  23:src/kernel.cpp ****  
 101              		.loc 1 23 1 is_stmt 1
 102              		.cfi_startproc
 103              		.cfi_personality 0x9b,DW.ref.__gxx_personality_v0
 104              		.cfi_lsda 0x1b,.LLSDA5
 105              	.LVL14:
 106 00b0 130101FE 		addi	sp,sp,-32
 107              		.cfi_def_cfa_offset 32
 108 00b4 233C1100 		sd	ra,24(sp)
 109 00b8 23388100 		sd	s0,16(sp)
 110 00bc 23349100 		sd	s1,8(sp)
 111 00c0 23302101 		sd	s2,0(sp)
 112              		.cfi_offset 1, -8
 113              		.cfi_offset 8, -16
 114              		.cfi_offset 9, -24
 115              		.cfi_offset 18, -32
 116 00c4 13040102 		addi	s0,sp,32
 117              		.cfi_def_cfa 8, 0
 118 00c8 93040500 		mv	s1,a0
 119              	.LEHB0:
 120              	.LBB2:
  23:src/kernel.cpp ****  
 121              		.loc 1 23 53 is_stmt 0
 122 00cc 97000000 		call	_ZN11HeapManagerC1Ev@plt
 122      E7800000 
 123              	.LVL15:
 124              	.LEHE0:
 125 00d4 13850401 		addi	a0,s1,16
 126              	.LEHB1:
 127 00d8 97000000 		call	_ZN9SchedulerC1Ev@plt
 127      E7800000 
 128              	.LVL16:
  23:src/kernel.cpp ****  
 129              		.loc 1 23 53 discriminator 2
 130 00e0 13850402 		addi	a0,s1,32
 131 00e4 97000000 		call	_ZN5TimerC1Ev@plt
 131      E7800000 
 132              	.LVL17:
 133              	.LEHE1:
 134 00ec 6F000002 		j	.L8
 135              	.L5:
 136 00f0 13090500 		mv	s2,a0
  23:src/kernel.cpp ****  
 137              		.loc 1 23 53
 138 00f4 13850400 		mv	a0,s1
 139 00f8 97000000 		call	_ZN11HeapManagerD1Ev@plt
 139      E7800000 
 140              	.LVL18:
GAS LISTING /tmp/ccXIj4hi.s 			page 5


 141 0100 13050900 		mv	a0,s2
 142              	.LEHB2:
 143 0104 97000000 		call	_Unwind_Resume@plt
 143      E7800000 
 144              	.LVL19:
 145              	.LEHE2:
 146              	.L8:
 147              	.LBE2:
  23:src/kernel.cpp ****  
 148              		.loc 1 23 55
 149 010c 83308101 		ld	ra,24(sp)
 150              		.cfi_restore 1
 151 0110 03340101 		ld	s0,16(sp)
 152              		.cfi_restore 8
 153              		.cfi_def_cfa 2, 32
 154 0114 83348100 		ld	s1,8(sp)
 155              		.cfi_restore 9
 156              	.LVL20:
 157 0118 03390100 		ld	s2,0(sp)
 158              		.cfi_restore 18
 159 011c 13010102 		addi	sp,sp,32
 160              		.cfi_def_cfa_offset 0
 161 0120 67800000 		jr	ra
 162              		.cfi_endproc
 163              	.LFE5:
 164              		.globl	__gxx_personality_v0
 165              		.section	.gcc_except_table,"a",@progbits
 166              	.LLSDA5:
 167 0000 FF       		.byte	0xff
 168 0001 FF       		.byte	0xff
 169 0002 03       		.byte	0x3
 170 0003 27       		.byte	0x27
 171 0004 00000000 		.4byte	.LEHB0-.LFB5
 172 0008 00000000 		.4byte	.LEHE0-.LEHB0
 173 000c 00000000 		.4byte	0
 174 0010 00       		.byte	0
 175 0011 00000000 		.4byte	.LEHB1-.LFB5
 176 0015 00000000 		.4byte	.LEHE1-.LEHB1
 177 0019 00000000 		.4byte	.L5-.LFB5
 178 001d 00       		.byte	0
 179 001e 00000000 		.4byte	.LEHB2-.LFB5
 180 0022 00000000 		.4byte	.LEHE2-.LEHB2
 181 0026 00000000 		.4byte	0
 182 002a 00       		.byte	0
 183              		.text
 185              		.globl	_ZN6KernelC1Ev
 186              		.set	_ZN6KernelC1Ev,_ZN6KernelC2Ev
 187              		.align	2
 188              		.globl	_ZN6Kernel10initialiseEv
 190              	_ZN6Kernel10initialiseEv:
 191              	.LFB7:
  26:src/kernel.cpp ****     /// set the trap vector
 192              		.loc 1 26 26 is_stmt 1
 193              		.cfi_startproc
 194              	.LVL21:
 195 0124 130101FF 		addi	sp,sp,-16
 196              		.cfi_def_cfa_offset 16
GAS LISTING /tmp/ccXIj4hi.s 			page 6


 197 0128 23341100 		sd	ra,8(sp)
 198 012c 23308100 		sd	s0,0(sp)
 199              		.cfi_offset 1, -8
 200              		.cfi_offset 8, -16
 201 0130 13040101 		addi	s0,sp,16
 202              		.cfi_def_cfa 8, 0
  28:src/kernel.cpp **** 
 203              		.loc 1 28 5
  28:src/kernel.cpp **** 
 204              		.loc 1 28 53 is_stmt 0
 205 0134 97070000 		la	a5,trap
 205      83B70700 
 206              	#APP
 207              	# 28 "src/kernel.cpp" 1
  32:src/kernel.cpp ****     /// get the current sstatus
 208              		csrw stvec, a5
 209              	# 0 "" 2
 210              		.loc 1 32 5 is_stmt 1
  34:src/kernel.cpp ****     /// set the SPP bit to 0
 211              		.loc 1 34 5
  34:src/kernel.cpp ****     /// set the SPP bit to 0
 212              		.loc 1 34 57 is_stmt 0
 213              	# 34 "src/kernel.cpp" 1
 214              		csrr a5, sstatus
 215              	# 0 "" 2
 216              	.LVL22:
  36:src/kernel.cpp ****     /// write the new sstatus
 217              		.loc 1 36 5 is_stmt 1
  36:src/kernel.cpp ****     /// write the new sstatus
 218              		.loc 1 36 13 is_stmt 0
 219              	#NO_APP
 220 0144 93F7F7EF 		andi	a5,a5,-257
 221              	.LVL23:
  38:src/kernel.cpp ****     
 222              		.loc 1 38 5 is_stmt 1
  38:src/kernel.cpp ****     
 223              		.loc 1 38 57 is_stmt 0
 224              	#APP
 225              	# 38 "src/kernel.cpp" 1
  43:src/kernel.cpp **** 
 226              		csrw sstatus, a5
 227              	# 0 "" 2
 228              		.loc 1 43 5 is_stmt 1
  43:src/kernel.cpp **** 
 229              		.loc 1 43 21 is_stmt 0
 230              	#NO_APP
 231 014c 97070000 		la	a5,HEAP_END_ADDR
 231      83B70700 
 232              	.LVL24:
 233 0154 03B60700 		ld	a2,0(a5)
 234 0158 97070000 		la	a5,HEAP_START_ADDR
 234      83B70700 
 235 0160 83B50700 		ld	a1,0(a5)
 236 0164 97000000 		call	_ZN11HeapManager4initEmm@plt
 236      E7800000 
 237              	.LVL25:
  45:src/kernel.cpp **** }
GAS LISTING /tmp/ccXIj4hi.s 			page 7


 238              		.loc 1 45 5 is_stmt 1
  46:src/kernel.cpp **** 
 239              		.loc 1 46 1 is_stmt 0
 240 016c 83308100 		ld	ra,8(sp)
 241              		.cfi_restore 1
 242 0170 03340100 		ld	s0,0(sp)
 243              		.cfi_restore 8
 244              		.cfi_def_cfa 2, 16
 245 0174 13010101 		addi	sp,sp,16
 246              		.cfi_def_cfa_offset 0
 247 0178 67800000 		jr	ra
 248              		.cfi_endproc
 249              	.LFE7:
 251              		.align	2
 252              		.globl	_ZN6Kernel3runEv
 254              	_ZN6Kernel3runEv:
 255              	.LFB9:
  72:src/kernel.cpp **** 
  73:src/kernel.cpp **** Kernel::EXIT_CODE Kernel::run(){
 256              		.loc 1 73 32 is_stmt 1
 257              		.cfi_startproc
 258              	.LVL26:
 259 017c 130101FE 		addi	sp,sp,-32
 260              		.cfi_def_cfa_offset 32
 261 0180 233C1100 		sd	ra,24(sp)
 262 0184 23388100 		sd	s0,16(sp)
 263              		.cfi_offset 1, -8
 264              		.cfi_offset 8, -16
 265 0188 13040102 		addi	s0,sp,32
 266              		.cfi_def_cfa 8, 0
  74:src/kernel.cpp ****     
  75:src/kernel.cpp ****     thread_t t = (thread_t)mem_alloc(sizeof(_thread));
 267              		.loc 1 75 5
 268              		.loc 1 75 37 is_stmt 0
 269 018c 1305800B 		li	a0,184
 270              	.LVL27:
 271 0190 97000000 		call	_Z9mem_allocm@plt
 271      E7800000 
 272              	.LVL28:
 273              		.loc 1 75 53
 274 0198 2334A4FE 		sd	a0,-24(s0)
  76:src/kernel.cpp ****     
  77:src/kernel.cpp ****     // _thread::create(&t, nullptr, nullptr, nullptr, false);
  78:src/kernel.cpp ****     // _thread::currentThread = t;
  79:src/kernel.cpp **** 
  80:src/kernel.cpp ****     thread_create(&t, nullptr, nullptr);
 275              		.loc 1 80 5 is_stmt 1
 276              		.loc 1 80 18 is_stmt 0
 277 019c 13060000 		li	a2,0
 278 01a0 93050000 		li	a1,0
 279 01a4 130584FE 		addi	a0,s0,-24
 280 01a8 97000000 		call	_Z13thread_createPP7_threadPFvPvES2_@plt
 280      E7800000 
 281              	.LVL29:
  81:src/kernel.cpp ****     _thread::currentThread = Scheduler::get();
 282              		.loc 1 81 5 is_stmt 1
 283              		.loc 1 81 44 is_stmt 0
GAS LISTING /tmp/ccXIj4hi.s 			page 8


 284 01b0 97000000 		call	_ZN9Scheduler3getEv@plt
 284      E7800000 
 285              	.LVL30:
 286              		.loc 1 81 28
 287 01b8 97070000 		la	a5,_ZN7_thread13currentThreadE
 287      83B70700 
 288 01c0 23B0A700 		sd	a0,0(a5)
  82:src/kernel.cpp **** 
  83:src/kernel.cpp ****     thread_t test = (thread_t)mem_alloc(sizeof(_thread));
 289              		.loc 1 83 5 is_stmt 1
 290              		.loc 1 83 40 is_stmt 0
 291 01c4 1305800B 		li	a0,184
 292 01c8 97000000 		call	_Z9mem_allocm@plt
 292      E7800000 
 293              	.LVL31:
 294              		.loc 1 83 56
 295 01d0 2330A4FE 		sd	a0,-32(s0)
  84:src/kernel.cpp ****     
  85:src/kernel.cpp ****     // _thread::create(&test, testFunc, nullptr, nullptr);
  86:src/kernel.cpp ****     thread_create(&test, testFunc, nullptr);
 296              		.loc 1 86 5 is_stmt 1
 297              		.loc 1 86 18 is_stmt 0
 298 01d4 13060000 		li	a2,0
 299 01d8 97050000 		lla	a1,_Z8testFuncPv
 299      93850500 
 300 01e0 130504FE 		addi	a0,s0,-32
 301 01e4 97000000 		call	_Z13thread_createPP7_threadPFvPvES2_@plt
 301      E7800000 
 302              	.LVL32:
  87:src/kernel.cpp ****     // sem = (sem_t)mem_alloc(sizeof(_sem));
  88:src/kernel.cpp ****     // sem_open(&sem, 0);
  89:src/kernel.cpp **** 
  90:src/kernel.cpp **** 
  91:src/kernel.cpp ****     thread_join(test);
 303              		.loc 1 91 5 is_stmt 1
 304              		.loc 1 91 16 is_stmt 0
 305 01ec 033504FE 		ld	a0,-32(s0)
 306 01f0 97000000 		call	_Z11thread_joinP7_thread@plt
 306      E7800000 
 307              	.LVL33:
 308              	.L12:
  92:src/kernel.cpp ****     // int cnt = Scheduler::getCount();
  93:src/kernel.cpp ****     // do{
  94:src/kernel.cpp ****     //     putc('0' + cnt);
  95:src/kernel.cpp ****     //     cnt /= 10;
  96:src/kernel.cpp ****     // }while(cnt > 0);
  97:src/kernel.cpp **** 
  98:src/kernel.cpp ****     do{
 309              		.loc 1 98 5 is_stmt 1
  99:src/kernel.cpp ****         thread_dispatch();
 310              		.loc 1 99 9
 311              		.loc 1 99 24 is_stmt 0
 312 01f8 97000000 		call	_Z15thread_dispatchv@plt
 312      E7800000 
 313              	.LVL34:
 100:src/kernel.cpp ****     }while(!Scheduler::isEmpty());
 314              		.loc 1 100 12 is_stmt 1
GAS LISTING /tmp/ccXIj4hi.s 			page 9


 315              		.loc 1 100 31 is_stmt 0
 316 0200 97000000 		call	_ZN9Scheduler7isEmptyEv@plt
 316      E7800000 
 317              	.LVL35:
 318              		.loc 1 100 12
 319 0208 E30805FE 		beqz	a0,.L12
 101:src/kernel.cpp **** 
 102:src/kernel.cpp ****     putc('m');
 320              		.loc 1 102 5 is_stmt 1
 321              		.loc 1 102 9 is_stmt 0
 322 020c 1305D006 		li	a0,109
 323 0210 97000000 		call	_Z4putcc@plt
 323      E7800000 
 324              	.LVL36:
 103:src/kernel.cpp ****     putc('a');
 325              		.loc 1 103 5 is_stmt 1
 326              		.loc 1 103 9 is_stmt 0
 327 0218 13051006 		li	a0,97
 328 021c 97000000 		call	_Z4putcc@plt
 328      E7800000 
 329              	.LVL37:
 104:src/kernel.cpp ****     putc('i');
 330              		.loc 1 104 5 is_stmt 1
 331              		.loc 1 104 9 is_stmt 0
 332 0224 13059006 		li	a0,105
 333 0228 97000000 		call	_Z4putcc@plt
 333      E7800000 
 334              	.LVL38:
 105:src/kernel.cpp ****     putc('n');
 335              		.loc 1 105 5 is_stmt 1
 336              		.loc 1 105 9 is_stmt 0
 337 0230 1305E006 		li	a0,110
 338 0234 97000000 		call	_Z4putcc@plt
 338      E7800000 
 339              	.LVL39:
 106:src/kernel.cpp ****     putc('\n');
 340              		.loc 1 106 5 is_stmt 1
 341              		.loc 1 106 9 is_stmt 0
 342 023c 1305A000 		li	a0,10
 343 0240 97000000 		call	_Z4putcc@plt
 343      E7800000 
 344              	.LVL40:
 107:src/kernel.cpp ****     
 108:src/kernel.cpp ****     return EXIT_SUCCESS;
 345              		.loc 1 108 5 is_stmt 1
 109:src/kernel.cpp **** }...
 346              		.loc 1 109 1 is_stmt 0
 347 0248 13050000 		li	a0,0
 348 024c 83308101 		ld	ra,24(sp)
 349              		.cfi_restore 1
 350 0250 03340101 		ld	s0,16(sp)
 351              		.cfi_restore 8
 352              		.cfi_def_cfa 2, 32
 353 0254 13010102 		addi	sp,sp,32
 354              		.cfi_def_cfa_offset 0
 355 0258 67800000 		jr	ra
 356              		.cfi_endproc
GAS LISTING /tmp/ccXIj4hi.s 			page 10


 357              	.LFE9:
 359              	.Letext0:
 360              		.file 2 "./lib/hw.h"
 361              		.file 3 "./h/types.h"
 362              		.file 4 "./h/heapManager.h"
 363              		.file 5 "./h/sched.h"
 364              		.file 6 "./h/thread.h"
 365              		.file 7 "./h/timer.h"
 366              		.file 8 "./h/kernel.h"
 367              		.file 9 "./h/syscalls_c.h"
 3191              		.align	3
 3194              	DW.ref.__gxx_personality_v0:
 3195 0000 00000000 		.dword	__gxx_personality_v0
 3195      00000000 
 3196              		.ident	"GCC: (Ubuntu 9.4.0-1ubuntu1~20.04) 9.4.0"
 3197              		.section	.note.GNU-stack,"",@progbits
GAS LISTING /tmp/ccXIj4hi.s 			page 11


DEFINED SYMBOLS
                            *ABS*:0000000000000000 kernel.cpp
     /tmp/ccXIj4hi.s:9      .text:0000000000000000 _Z8testFuncPv
     /tmp/ccXIj4hi.s:13     .text:0000000000000000 .L0 
     /tmp/ccXIj4hi.s:15     .text:0000000000000000 .L0 
     /tmp/ccXIj4hi.s:16     .text:0000000000000004 .L0 
     /tmp/ccXIj4hi.s:19     .text:000000000000000c .L0 
     /tmp/ccXIj4hi.s:20     .text:000000000000000c .L0 
     /tmp/ccXIj4hi.s:22     .text:0000000000000010 .L0 
     /tmp/ccXIj4hi.s:24     .text:0000000000000010 .L0 
     /tmp/ccXIj4hi.s:25     .text:0000000000000010 .L0 
     /tmp/ccXIj4hi.s:30     .text:000000000000001c .L0 
     /tmp/ccXIj4hi.s:31     .text:000000000000001c .L0 
     /tmp/ccXIj4hi.s:35     .text:0000000000000028 .L0 
     /tmp/ccXIj4hi.s:36     .text:0000000000000028 .L0 
     /tmp/ccXIj4hi.s:40     .text:0000000000000034 .L0 
     /tmp/ccXIj4hi.s:41     .text:0000000000000034 .L0 
     /tmp/ccXIj4hi.s:45     .text:0000000000000040 .L0 
     /tmp/ccXIj4hi.s:46     .text:0000000000000040 .L0 
     /tmp/ccXIj4hi.s:50     .text:000000000000004c .L0 
     /tmp/ccXIj4hi.s:51     .text:000000000000004c .L0 
     /tmp/ccXIj4hi.s:55     .text:0000000000000058 .L0 
     /tmp/ccXIj4hi.s:56     .text:0000000000000058 .L0 
     /tmp/ccXIj4hi.s:60     .text:0000000000000064 .L0 
     /tmp/ccXIj4hi.s:61     .text:0000000000000064 .L0 
     /tmp/ccXIj4hi.s:65     .text:0000000000000070 .L0 
     /tmp/ccXIj4hi.s:66     .text:0000000000000070 .L0 
     /tmp/ccXIj4hi.s:70     .text:000000000000007c .L0 
     /tmp/ccXIj4hi.s:71     .text:000000000000007c .L0 
     /tmp/ccXIj4hi.s:75     .text:0000000000000088 .L0 
     /tmp/ccXIj4hi.s:76     .text:0000000000000088 .L0 
     /tmp/ccXIj4hi.s:80     .text:0000000000000094 .L0 
     /tmp/ccXIj4hi.s:81     .text:0000000000000094 .L0 
     /tmp/ccXIj4hi.s:85     .text:00000000000000a0 .L0 
     /tmp/ccXIj4hi.s:86     .text:00000000000000a4 .L0 
     /tmp/ccXIj4hi.s:88     .text:00000000000000a8 .L0 
     /tmp/ccXIj4hi.s:89     .text:00000000000000a8 .L0 
     /tmp/ccXIj4hi.s:91     .text:00000000000000ac .L0 
     /tmp/ccXIj4hi.s:93     .text:00000000000000b0 .L0 
     /tmp/ccXIj4hi.s:99     .text:00000000000000b0 _ZN6KernelC2Ev
     /tmp/ccXIj4hi.s:102    .text:00000000000000b0 .L0 
     /tmp/ccXIj4hi.s:3194   .data.rel.local.DW.ref.__gxx_personality_v0:0000000000000000 DW.ref.__gxx_personality_v0
     /tmp/ccXIj4hi.s:106    .text:00000000000000b0 .L0 
     /tmp/ccXIj4hi.s:107    .text:00000000000000b4 .L0 
     /tmp/ccXIj4hi.s:112    .text:00000000000000c4 .L0 
     /tmp/ccXIj4hi.s:113    .text:00000000000000c4 .L0 
     /tmp/ccXIj4hi.s:114    .text:00000000000000c4 .L0 
     /tmp/ccXIj4hi.s:115    .text:00000000000000c4 .L0 
     /tmp/ccXIj4hi.s:117    .text:00000000000000c8 .L0 
     /tmp/ccXIj4hi.s:122    .text:00000000000000cc .L0 
     /tmp/ccXIj4hi.s:130    .text:00000000000000e0 .L0 
     /tmp/ccXIj4hi.s:138    .text:00000000000000f4 .L0 
     /tmp/ccXIj4hi.s:149    .text:000000000000010c .L0 
     /tmp/ccXIj4hi.s:150    .text:0000000000000110 .L0 
     /tmp/ccXIj4hi.s:152    .text:0000000000000114 .L0 
     /tmp/ccXIj4hi.s:153    .text:0000000000000114 .L0 
     /tmp/ccXIj4hi.s:155    .text:0000000000000118 .L0 
GAS LISTING /tmp/ccXIj4hi.s 			page 12


     /tmp/ccXIj4hi.s:158    .text:000000000000011c .L0 
     /tmp/ccXIj4hi.s:160    .text:0000000000000120 .L0 
     /tmp/ccXIj4hi.s:162    .text:0000000000000124 .L0 
     /tmp/ccXIj4hi.s:99     .text:00000000000000b0 _ZN6KernelC1Ev
     /tmp/ccXIj4hi.s:190    .text:0000000000000124 _ZN6Kernel10initialiseEv
     /tmp/ccXIj4hi.s:193    .text:0000000000000124 .L0 
     /tmp/ccXIj4hi.s:195    .text:0000000000000124 .L0 
     /tmp/ccXIj4hi.s:196    .text:0000000000000128 .L0 
     /tmp/ccXIj4hi.s:199    .text:0000000000000130 .L0 
     /tmp/ccXIj4hi.s:200    .text:0000000000000130 .L0 
     /tmp/ccXIj4hi.s:202    .text:0000000000000134 .L0 
     /tmp/ccXIj4hi.s:204    .text:0000000000000134 .L0 
     /tmp/ccXIj4hi.s:205    .text:0000000000000134 .L0 
     /tmp/ccXIj4hi.s:211    .text:0000000000000140 .L0 
     /tmp/ccXIj4hi.s:212    .text:0000000000000140 .L0 
      src/kernel.cpp:34     .text:0000000000000140 .L0 
     /tmp/ccXIj4hi.s:218    .text:0000000000000144 .L0 
     /tmp/ccXIj4hi.s:220    .text:0000000000000144 .L0 
     /tmp/ccXIj4hi.s:223    .text:0000000000000148 .L0 
      src/kernel.cpp:38     .text:0000000000000148 .L0 
     /tmp/ccXIj4hi.s:229    .text:000000000000014c .L0 
     /tmp/ccXIj4hi.s:231    .text:000000000000014c .L0 
     /tmp/ccXIj4hi.s:239    .text:000000000000016c .L0 
     /tmp/ccXIj4hi.s:240    .text:000000000000016c .L0 
     /tmp/ccXIj4hi.s:241    .text:0000000000000170 .L0 
     /tmp/ccXIj4hi.s:243    .text:0000000000000174 .L0 
     /tmp/ccXIj4hi.s:244    .text:0000000000000174 .L0 
     /tmp/ccXIj4hi.s:246    .text:0000000000000178 .L0 
     /tmp/ccXIj4hi.s:248    .text:000000000000017c .L0 
     /tmp/ccXIj4hi.s:254    .text:000000000000017c _ZN6Kernel3runEv
     /tmp/ccXIj4hi.s:257    .text:000000000000017c .L0 
     /tmp/ccXIj4hi.s:259    .text:000000000000017c .L0 
     /tmp/ccXIj4hi.s:260    .text:0000000000000180 .L0 
     /tmp/ccXIj4hi.s:263    .text:0000000000000188 .L0 
     /tmp/ccXIj4hi.s:264    .text:0000000000000188 .L0 
     /tmp/ccXIj4hi.s:266    .text:000000000000018c .L0 
     /tmp/ccXIj4hi.s:268    .text:000000000000018c .L0 
     /tmp/ccXIj4hi.s:269    .text:000000000000018c .L0 
     /tmp/ccXIj4hi.s:274    .text:0000000000000198 .L0 
     /tmp/ccXIj4hi.s:276    .text:000000000000019c .L0 
     /tmp/ccXIj4hi.s:277    .text:000000000000019c .L0 
     /tmp/ccXIj4hi.s:283    .text:00000000000001b0 .L0 
     /tmp/ccXIj4hi.s:284    .text:00000000000001b0 .L0 
     /tmp/ccXIj4hi.s:287    .text:00000000000001b8 .L0 
     /tmp/ccXIj4hi.s:290    .text:00000000000001c4 .L0 
     /tmp/ccXIj4hi.s:291    .text:00000000000001c4 .L0 
     /tmp/ccXIj4hi.s:295    .text:00000000000001d0 .L0 
     /tmp/ccXIj4hi.s:297    .text:00000000000001d4 .L0 
     /tmp/ccXIj4hi.s:298    .text:00000000000001d4 .L0 
     /tmp/ccXIj4hi.s:304    .text:00000000000001ec .L0 
     /tmp/ccXIj4hi.s:305    .text:00000000000001ec .L0 
     /tmp/ccXIj4hi.s:310    .text:00000000000001f8 .L0 
     /tmp/ccXIj4hi.s:311    .text:00000000000001f8 .L0 
     /tmp/ccXIj4hi.s:312    .text:00000000000001f8 .L0 
     /tmp/ccXIj4hi.s:315    .text:0000000000000200 .L0 
     /tmp/ccXIj4hi.s:316    .text:0000000000000200 .L0 
     /tmp/ccXIj4hi.s:319    .text:0000000000000208 .L0 
GAS LISTING /tmp/ccXIj4hi.s 			page 13


     /tmp/ccXIj4hi.s:321    .text:000000000000020c .L0 
     /tmp/ccXIj4hi.s:322    .text:000000000000020c .L0 
     /tmp/ccXIj4hi.s:326    .text:0000000000000218 .L0 
     /tmp/ccXIj4hi.s:327    .text:0000000000000218 .L0 
     /tmp/ccXIj4hi.s:331    .text:0000000000000224 .L0 
     /tmp/ccXIj4hi.s:332    .text:0000000000000224 .L0 
     /tmp/ccXIj4hi.s:336    .text:0000000000000230 .L0 
     /tmp/ccXIj4hi.s:337    .text:0000000000000230 .L0 
     /tmp/ccXIj4hi.s:341    .text:000000000000023c .L0 
     /tmp/ccXIj4hi.s:342    .text:000000000000023c .L0 
     /tmp/ccXIj4hi.s:346    .text:0000000000000248 .L0 
     /tmp/ccXIj4hi.s:347    .text:0000000000000248 .L0 
     /tmp/ccXIj4hi.s:349    .text:0000000000000250 .L0 
     /tmp/ccXIj4hi.s:351    .text:0000000000000254 .L0 
     /tmp/ccXIj4hi.s:352    .text:0000000000000254 .L0 
     /tmp/ccXIj4hi.s:354    .text:0000000000000258 .L0 
     /tmp/ccXIj4hi.s:356    .text:000000000000025c .L0 
     /tmp/ccXIj4hi.s:368    .text:000000000000025c .L0 
     /tmp/ccXIj4hi.s:205    .text:0000000000000134 .L0 
     /tmp/ccXIj4hi.s:231    .text:000000000000014c .L0 
     /tmp/ccXIj4hi.s:234    .text:0000000000000158 .L0 
     /tmp/ccXIj4hi.s:287    .text:00000000000001b8 .L0 
     /tmp/ccXIj4hi.s:299    .text:00000000000001d8 .L0 
     /tmp/ccXIj4hi.s:146    .text:000000000000010c .L8
     /tmp/ccXIj4hi.s:308    .text:00000000000001f8 .L12
     /tmp/ccXIj4hi.s:119    .text:00000000000000cc .LEHB0
     /tmp/ccXIj4hi.s:100    .text:00000000000000b0 .LFB5
     /tmp/ccXIj4hi.s:124    .text:00000000000000d4 .LEHE0
     /tmp/ccXIj4hi.s:126    .text:00000000000000d8 .LEHB1
     /tmp/ccXIj4hi.s:133    .text:00000000000000ec .LEHE1
     /tmp/ccXIj4hi.s:135    .text:00000000000000f0 .L5
     /tmp/ccXIj4hi.s:142    .text:0000000000000104 .LEHB2
     /tmp/ccXIj4hi.s:145    .text:000000000000010c .LEHE2
     /tmp/ccXIj4hi.s:1913   .debug_abbrev:0000000000000000 .Ldebug_abbrev0
     /tmp/ccXIj4hi.s:3140   .debug_str:00000000000006bb .LASF128
     /tmp/ccXIj4hi.s:2920   .debug_str:00000000000000b7 .LASF129
     /tmp/ccXIj4hi.s:2910   .debug_str:0000000000000079 .LASF130
     /tmp/ccXIj4hi.s:5      .text:0000000000000000 .Ltext0
     /tmp/ccXIj4hi.s:359    .text:000000000000025c .Letext0
     /tmp/ccXIj4hi.s:2896   .debug_line:0000000000000000 .Ldebug_line0
     /tmp/ccXIj4hi.s:3058   .debug_str:0000000000000486 .LASF0
     /tmp/ccXIj4hi.s:3074   .debug_str:000000000000051e .LASF1
     /tmp/ccXIj4hi.s:3040   .debug_str:00000000000003f5 .LASF2
     /tmp/ccXIj4hi.s:3114   .debug_str:0000000000000619 .LASF3
     /tmp/ccXIj4hi.s:3004   .debug_str:0000000000000304 .LASF4
     /tmp/ccXIj4hi.s:3118   .debug_str:0000000000000628 .LASF5
     /tmp/ccXIj4hi.s:2932   .debug_str:000000000000012b .LASF6
     /tmp/ccXIj4hi.s:2966   .debug_str:000000000000021d .LASF7
     /tmp/ccXIj4hi.s:3080   .debug_str:0000000000000542 .LASF8
     /tmp/ccXIj4hi.s:3056   .debug_str:0000000000000473 .LASF9
     /tmp/ccXIj4hi.s:3154   .debug_str:00000000000007e5 .LASF10
     /tmp/ccXIj4hi.s:2988   .debug_str:00000000000002ab .LASF11
     /tmp/ccXIj4hi.s:3092   .debug_str:0000000000000587 .LASF12
     /tmp/ccXIj4hi.s:3144   .debug_str:000000000000078b .LASF13
     /tmp/ccXIj4hi.s:2936   .debug_str:000000000000013b .LASF14
     /tmp/ccXIj4hi.s:2904   .debug_str:000000000000001f .LASF15
     /tmp/ccXIj4hi.s:2948   .debug_str:0000000000000183 .LASF16
GAS LISTING /tmp/ccXIj4hi.s 			page 14


     /tmp/ccXIj4hi.s:3112   .debug_str:0000000000000603 .LASF17
     /tmp/ccXIj4hi.s:2958   .debug_str:00000000000001d4 .LASF18
     /tmp/ccXIj4hi.s:2974   .debug_str:000000000000025e .LASF19
     /tmp/ccXIj4hi.s:3060   .debug_str:0000000000000493 .LASF24
     /tmp/ccXIj4hi.s:3036   .debug_str:00000000000003d8 .LASF40
     /tmp/ccXIj4hi.s:2994   .debug_str:00000000000002d0 .LASF20
     /tmp/ccXIj4hi.s:2980   .debug_str:0000000000000281 .LASF21
     /tmp/ccXIj4hi.s:3174   .debug_str:0000000000000872 .LASF22
     /tmp/ccXIj4hi.s:3152   .debug_str:00000000000007dc .LASF23
     /tmp/ccXIj4hi.s:2986   .debug_str:0000000000000296 .LASF26
     /tmp/ccXIj4hi.s:2898   .debug_str:0000000000000000 .LASF25
     /tmp/ccXIj4hi.s:3068   .debug_str:00000000000004bc .LASF27
     /tmp/ccXIj4hi.s:3084   .debug_str:000000000000055c .LASF28
     /tmp/ccXIj4hi.s:3024   .debug_str:000000000000038c .LASF29
     /tmp/ccXIj4hi.s:3048   .debug_str:000000000000043d .LASF30
     /tmp/ccXIj4hi.s:3044   .debug_str:0000000000000412 .LASF32
     /tmp/ccXIj4hi.s:2978   .debug_str:0000000000000274 .LASF31
     /tmp/ccXIj4hi.s:3148   .debug_str:00000000000007b3 .LASF33
     /tmp/ccXIj4hi.s:2946   .debug_str:000000000000017a .LASF34
     /tmp/ccXIj4hi.s:2922   .debug_str:00000000000000c6 .LASF35
     /tmp/ccXIj4hi.s:3142   .debug_str:000000000000077f .LASF49
     /tmp/ccXIj4hi.s:2964   .debug_str:00000000000001fd .LASF51
     /tmp/ccXIj4hi.s:2912   .debug_str:0000000000000086 .LASF36
     /tmp/ccXIj4hi.s:3128   .debug_str:0000000000000672 .LASF37
     /tmp/ccXIj4hi.s:3066   .debug_str:00000000000004b3 .LASF61
     /tmp/ccXIj4hi.s:3020   .debug_str:000000000000037c .LASF38
     /tmp/ccXIj4hi.s:3002   .debug_str:00000000000002fc .LASF39
     /tmp/ccXIj4hi.s:3176   .debug_str:0000000000000878 .LASF41
     /tmp/ccXIj4hi.s:3104   .debug_str:00000000000005dc .LASF42
     /tmp/ccXIj4hi.s:3050   .debug_str:000000000000044f .LASF43
     /tmp/ccXIj4hi.s:3082   .debug_str:0000000000000555 .LASF44
     /tmp/ccXIj4hi.s:3182   .debug_str:000000000000089b .LASF45
     /tmp/ccXIj4hi.s:3180   .debug_str:0000000000000894 .LASF46
     /tmp/ccXIj4hi.s:2908   .debug_str:0000000000000054 .LASF47
     /tmp/ccXIj4hi.s:2984   .debug_str:0000000000000291 .LASF48
     /tmp/ccXIj4hi.s:3030   .debug_str:00000000000003bc .LASF50
     /tmp/ccXIj4hi.s:3162   .debug_str:000000000000082d .LASF52
     /tmp/ccXIj4hi.s:3062   .debug_str:000000000000049f .LASF131
     /tmp/ccXIj4hi.s:3132   .debug_str:0000000000000682 .LASF132
     /tmp/ccXIj4hi.s:3122   .debug_str:000000000000063f .LASF53
     /tmp/ccXIj4hi.s:3016   .debug_str:0000000000000348 .LASF54
     /tmp/ccXIj4hi.s:2968   .debug_str:0000000000000224 .LASF133
     /tmp/ccXIj4hi.s:3008   .debug_str:0000000000000314 .LASF55
     /tmp/ccXIj4hi.s:3186   .debug_str:00000000000008a6 .LASF56
     /tmp/ccXIj4hi.s:2938   .debug_str:000000000000014b .LASF57
     /tmp/ccXIj4hi.s:2924   .debug_str:00000000000000e3 .LASF58
     /tmp/ccXIj4hi.s:2976   .debug_str:0000000000000268 .LASF59
     /tmp/ccXIj4hi.s:3160   .debug_str:0000000000000812 .LASF60
     /tmp/ccXIj4hi.s:3156   .debug_str:00000000000007f5 .LASF63
     /tmp/ccXIj4hi.s:3130   .debug_str:000000000000067a .LASF134
     /tmp/ccXIj4hi.s:3100   .debug_str:00000000000005bd .LASF135
     /tmp/ccXIj4hi.s:3014   .debug_str:0000000000000341 .LASF62
     /tmp/ccXIj4hi.s:3010   .debug_str:000000000000031f .LASF64
     /tmp/ccXIj4hi.s:3164   .debug_str:0000000000000840 .LASF65
     /tmp/ccXIj4hi.s:3136   .debug_str:00000000000006a6 .LASF66
     /tmp/ccXIj4hi.s:3098   .debug_str:00000000000005b4 .LASF67
     /tmp/ccXIj4hi.s:3006   .debug_str:000000000000030b .LASF68
GAS LISTING /tmp/ccXIj4hi.s 			page 15


     /tmp/ccXIj4hi.s:3034   .debug_str:00000000000003cd .LASF69
     /tmp/ccXIj4hi.s:3038   .debug_str:00000000000003ee .LASF70
     /tmp/ccXIj4hi.s:2900   .debug_str:000000000000000d .LASF71
     /tmp/ccXIj4hi.s:3094   .debug_str:0000000000000596 .LASF72
     /tmp/ccXIj4hi.s:3102   .debug_str:00000000000005d3 .LASF73
     /tmp/ccXIj4hi.s:3000   .debug_str:00000000000002f3 .LASF74
     /tmp/ccXIj4hi.s:3086   .debug_str:0000000000000561 .LASF75
     /tmp/ccXIj4hi.s:3022   .debug_str:0000000000000385 .LASF76
     /tmp/ccXIj4hi.s:2952   .debug_str:00000000000001a0 .LASF136
     /tmp/ccXIj4hi.s:3072   .debug_str:00000000000004ea .LASF137
     /tmp/ccXIj4hi.s:3090   .debug_str:000000000000057d .LASF77
     /tmp/ccXIj4hi.s:3064   .debug_str:00000000000004a8 .LASF78
     /tmp/ccXIj4hi.s:2914   .debug_str:000000000000008e .LASF79
     /tmp/ccXIj4hi.s:3126   .debug_str:0000000000000656 .LASF138
     /tmp/ccXIj4hi.s:2972   .debug_str:000000000000024a .LASF139
     /tmp/ccXIj4hi.s:3116   .debug_str:0000000000000620 .LASF80
     /tmp/ccXIj4hi.s:2970   .debug_str:0000000000000232 .LASF81
     /tmp/ccXIj4hi.s:2930   .debug_str:0000000000000122 .LASF82
     /tmp/ccXIj4hi.s:2926   .debug_str:00000000000000fb .LASF83
     /tmp/ccXIj4hi.s:2960   .debug_str:00000000000001ea .LASF84
     /tmp/ccXIj4hi.s:3046   .debug_str:0000000000000438 .LASF85
     /tmp/ccXIj4hi.s:2944   .debug_str:0000000000000170 .LASF86
     /tmp/ccXIj4hi.s:2916   .debug_str:00000000000000a0 .LASF87
     /tmp/ccXIj4hi.s:3088   .debug_str:000000000000056a .LASF88
     /tmp/ccXIj4hi.s:3106   .debug_str:00000000000005e4 .LASF89
     /tmp/ccXIj4hi.s:3052   .debug_str:000000000000045e .LASF90
     /tmp/ccXIj4hi.s:3168   .debug_str:000000000000084f .LASF91
     /tmp/ccXIj4hi.s:3184   .debug_str:00000000000008a0 .LASF92
     /tmp/ccXIj4hi.s:2918   .debug_str:00000000000000a5 .LASF93
     /tmp/ccXIj4hi.s:3170   .debug_str:0000000000000868 .LASF94
     /tmp/ccXIj4hi.s:2940   .debug_str:0000000000000155 .LASF95
     /tmp/ccXIj4hi.s:3124   .debug_str:0000000000000644 .LASF96
     /tmp/ccXIj4hi.s:3018   .debug_str:000000000000035d .LASF97
     /tmp/ccXIj4hi.s:2928   .debug_str:0000000000000114 .LASF98
     /tmp/ccXIj4hi.s:3166   .debug_str:0000000000000848 .LASF99
     /tmp/ccXIj4hi.s:2996   .debug_str:00000000000002d6 .LASF100
     /tmp/ccXIj4hi.s:3012   .debug_str:0000000000000334 .LASF101
     /tmp/ccXIj4hi.s:3158   .debug_str:000000000000080d .LASF102
     /tmp/ccXIj4hi.s:3028   .debug_str:00000000000003b5 .LASF103
     /tmp/ccXIj4hi.s:2942   .debug_str:0000000000000166 .LASF140
     /tmp/ccXIj4hi.s:3178   .debug_str:0000000000000887 .LASF104
     /tmp/ccXIj4hi.s:3134   .debug_str:0000000000000699 .LASF105
     /tmp/ccXIj4hi.s:3110   .debug_str:00000000000005f4 .LASF106
     /tmp/ccXIj4hi.s:3150   .debug_str:00000000000007d4 .LASF107
     /tmp/ccXIj4hi.s:3054   .debug_str:0000000000000464 .LASF108
     /tmp/ccXIj4hi.s:2950   .debug_str:000000000000018f .LASF141
     /tmp/ccXIj4hi.s:3076   .debug_str:0000000000000531 .LASF109
     /tmp/ccXIj4hi.s:3146   .debug_str:000000000000079a .LASF110
     /tmp/ccXIj4hi.s:3032   .debug_str:00000000000003c1 .LASF111
     /tmp/ccXIj4hi.s:2982   .debug_str:0000000000000287 .LASF112
     /tmp/ccXIj4hi.s:3078   .debug_str:000000000000053c .LASF113
     /tmp/ccXIj4hi.s:255    .text:000000000000017c .LFB9
     /tmp/ccXIj4hi.s:357    .text:000000000000025c .LFE9
     /tmp/ccXIj4hi.s:3172   .debug_str:000000000000086d .LASF117
     /tmp/ccXIj4hi.s:2816   .debug_loc:0000000000000000 .LLST4
     /tmp/ccXIj4hi.s:3108   .debug_str:00000000000005ef .LASF114
     /tmp/ccXIj4hi.s:272    .text:0000000000000198 .LVL28
GAS LISTING /tmp/ccXIj4hi.s 			page 16


     /tmp/ccXIj4hi.s:281    .text:00000000000001b0 .LVL29
     /tmp/ccXIj4hi.s:285    .text:00000000000001b8 .LVL30
     /tmp/ccXIj4hi.s:293    .text:00000000000001d0 .LVL31
     /tmp/ccXIj4hi.s:302    .text:00000000000001ec .LVL32
     /tmp/ccXIj4hi.s:307    .text:00000000000001f8 .LVL33
     /tmp/ccXIj4hi.s:313    .text:0000000000000200 .LVL34
     /tmp/ccXIj4hi.s:317    .text:0000000000000208 .LVL35
     /tmp/ccXIj4hi.s:324    .text:0000000000000218 .LVL36
     /tmp/ccXIj4hi.s:329    .text:0000000000000224 .LVL37
     /tmp/ccXIj4hi.s:334    .text:0000000000000230 .LVL38
     /tmp/ccXIj4hi.s:339    .text:000000000000023c .LVL39
     /tmp/ccXIj4hi.s:344    .text:0000000000000248 .LVL40
     /tmp/ccXIj4hi.s:2934   .debug_str:0000000000000132 .LASF115
     /tmp/ccXIj4hi.s:2962   .debug_str:00000000000001ef .LASF116
     /tmp/ccXIj4hi.s:10     .text:0000000000000000 .LFB8
     /tmp/ccXIj4hi.s:94     .text:00000000000000b0 .LFE8
     /tmp/ccXIj4hi.s:2830   .debug_loc:0000000000000039 .LLST0
     /tmp/ccXIj4hi.s:28     .text:000000000000001c .LVL2
     /tmp/ccXIj4hi.s:33     .text:0000000000000028 .LVL3
     /tmp/ccXIj4hi.s:38     .text:0000000000000034 .LVL4
     /tmp/ccXIj4hi.s:43     .text:0000000000000040 .LVL5
     /tmp/ccXIj4hi.s:48     .text:000000000000004c .LVL6
     /tmp/ccXIj4hi.s:53     .text:0000000000000058 .LVL7
     /tmp/ccXIj4hi.s:58     .text:0000000000000064 .LVL8
     /tmp/ccXIj4hi.s:63     .text:0000000000000070 .LVL9
     /tmp/ccXIj4hi.s:68     .text:000000000000007c .LVL10
     /tmp/ccXIj4hi.s:73     .text:0000000000000088 .LVL11
     /tmp/ccXIj4hi.s:78     .text:0000000000000094 .LVL12
     /tmp/ccXIj4hi.s:83     .text:00000000000000a0 .LVL13
     /tmp/ccXIj4hi.s:191    .text:0000000000000124 .LFB7
     /tmp/ccXIj4hi.s:249    .text:000000000000017c .LFE7
     /tmp/ccXIj4hi.s:2844   .debug_loc:0000000000000072 .LLST2
     /tmp/ccXIj4hi.s:2858   .debug_loc:00000000000000ab .LLST3
     /tmp/ccXIj4hi.s:237    .text:000000000000016c .LVL25
     /tmp/ccXIj4hi.s:3042   .debug_str:0000000000000403 .LASF142
     /tmp/ccXIj4hi.s:163    .text:0000000000000124 .LFE5
     /tmp/ccXIj4hi.s:2865   .debug_loc:00000000000000ce .LLST1
     /tmp/ccXIj4hi.s:123    .text:00000000000000d4 .LVL15
     /tmp/ccXIj4hi.s:128    .text:00000000000000e0 .LVL16
     /tmp/ccXIj4hi.s:132    .text:00000000000000ec .LVL17
     /tmp/ccXIj4hi.s:140    .text:0000000000000100 .LVL18
     /tmp/ccXIj4hi.s:144    .text:000000000000010c .LVL19
     /tmp/ccXIj4hi.s:2954   .debug_str:00000000000001ae .LASF118
     /tmp/ccXIj4hi.s:2902   .debug_str:0000000000000015 .LASF120
     /tmp/ccXIj4hi.s:2906   .debug_str:000000000000002f .LASF119
     /tmp/ccXIj4hi.s:2992   .debug_str:00000000000002c2 .LASF121
     /tmp/ccXIj4hi.s:3070   .debug_str:00000000000004d1 .LASF122
     /tmp/ccXIj4hi.s:3138   .debug_str:00000000000006af .LASF123
     /tmp/ccXIj4hi.s:3096   .debug_str:000000000000059f .LASF124
     /tmp/ccXIj4hi.s:3026   .debug_str:00000000000003a5 .LASF125
     /tmp/ccXIj4hi.s:2990   .debug_str:00000000000002b9 .LASF126
     /tmp/ccXIj4hi.s:3120   .debug_str:000000000000063a .LASF127
     /tmp/ccXIj4hi.s:2998   .debug_str:00000000000002e4 .LASF143
     /tmp/ccXIj4hi.s:2956   .debug_str:00000000000001bc .LASF144
     /tmp/ccXIj4hi.s:258    .text:000000000000017c .LVL26
     /tmp/ccXIj4hi.s:270    .text:0000000000000190 .LVL27
     /tmp/ccXIj4hi.s:14     .text:0000000000000000 .LVL0
GAS LISTING /tmp/ccXIj4hi.s 			page 17


     /tmp/ccXIj4hi.s:26     .text:0000000000000014 .LVL1
     /tmp/ccXIj4hi.s:194    .text:0000000000000124 .LVL21
     /tmp/ccXIj4hi.s:216    .text:0000000000000144 .LVL22
     /tmp/ccXIj4hi.s:232    .text:0000000000000154 .LVL24
     /tmp/ccXIj4hi.s:105    .text:00000000000000b0 .LVL14
     /tmp/ccXIj4hi.s:156    .text:0000000000000118 .LVL20
     /tmp/ccXIj4hi.s:369    .debug_info:0000000000000000 .Ldebug_info0
     /tmp/ccXIj4hi.s:166    .gcc_except_table:0000000000000000 .LLSDA5

UNDEFINED SYMBOLS
_Z4putcc
_ZN11HeapManagerC1Ev
_ZN9SchedulerC1Ev
_ZN5TimerC1Ev
_ZN11HeapManagerD1Ev
_Unwind_Resume
__gxx_personality_v0
trap
HEAP_END_ADDR
HEAP_START_ADDR
_ZN11HeapManager4initEmm
_Z9mem_allocm
_Z13thread_createPP7_threadPFvPvES2_
_ZN9Scheduler3getEv
_ZN7_thread13currentThreadE
_Z11thread_joinP7_thread
_Z15thread_dispatchv
_ZN9Scheduler7isEmptyEv
