GAS LISTING /tmp/ccAZgToR.s 			page 1


   1              		.file	"kernel.cpp"
   2              		.option pic
   3              		.option norelax
   4              		.text
   5              	.Ltext0:
   6              		.align	2
   7              		.globl	_ZN6KernelC2Ev
   9              	_ZN6KernelC2Ev:
  10              	.LFB5:
  11              		.file 1 "src/kernel.cpp"
   1:src/kernel.cpp **** /**
   2:src/kernel.cpp ****  * @file kernel.cpp
   3:src/kernel.cpp ****  * @author stcksmsh (vukicevickosta@gmail.com)
   4:src/kernel.cpp ****  * @brief implementation of the kernel class
   5:src/kernel.cpp ****  * @version 0.1
   6:src/kernel.cpp ****  * @date 2023-12-31
   7:src/kernel.cpp ****  * 
   8:src/kernel.cpp ****  * @copyright Copyright (c) 2023
   9:src/kernel.cpp ****  * 
  10:src/kernel.cpp ****  */
  11:src/kernel.cpp **** 
  12:src/kernel.cpp **** #include "kernel.h"
  13:src/kernel.cpp **** #include "types.h"
  14:src/kernel.cpp **** #include "assert.h"
  15:src/kernel.cpp **** #include "syscalls_c.h"
  16:src/kernel.cpp **** #include "thread.h"
  17:src/kernel.cpp **** #include "sem.h"
  18:src/kernel.cpp **** #include "sched.h"
  19:src/kernel.cpp **** #include "usermain.h"
  20:src/kernel.cpp **** 
  21:src/kernel.cpp **** #include "console.h"
  22:src/kernel.cpp **** 
  23:src/kernel.cpp **** extern "C" void trap();
  24:src/kernel.cpp **** 
  25:src/kernel.cpp **** Kernel::Kernel(): heapManager(), scheduler(), timer(){}
  12              		.loc 1 25 1
  13              		.cfi_startproc
  14              		.cfi_personality 0x9b,DW.ref.__gxx_personality_v0
  15              		.cfi_lsda 0x1b,.LLSDA5
  16              	.LVL0:
  17 0000 130101FE 		addi	sp,sp,-32
  18              		.cfi_def_cfa_offset 32
  19 0004 233C1100 		sd	ra,24(sp)
  20 0008 23388100 		sd	s0,16(sp)
  21 000c 23349100 		sd	s1,8(sp)
  22 0010 23302101 		sd	s2,0(sp)
  23              		.cfi_offset 1, -8
  24              		.cfi_offset 8, -16
  25              		.cfi_offset 9, -24
  26              		.cfi_offset 18, -32
  27 0014 13040102 		addi	s0,sp,32
  28              		.cfi_def_cfa 8, 0
  29 0018 93040500 		mv	s1,a0
  30              	.LEHB0:
  31              	.LBB2:
  32              		.loc 1 25 53 is_stmt 0
  33 001c 97000000 		call	_ZN11HeapManagerC1Ev@plt
GAS LISTING /tmp/ccAZgToR.s 			page 2


  33      E7800000 
  34              	.LVL1:
  35              	.LEHE0:
  36 0024 13858400 		addi	a0,s1,8
  37              	.LEHB1:
  38 0028 97000000 		call	_ZN9SchedulerC1Ev@plt
  38      E7800000 
  39              	.LVL2:
  40              		.loc 1 25 53 discriminator 2
  41 0030 13858401 		addi	a0,s1,24
  42 0034 97000000 		call	_ZN5TimerC1Ev@plt
  42      E7800000 
  43              	.LVL3:
  44              	.LEHE1:
  45 003c 6F000002 		j	.L6
  46              	.L3:
  47 0040 13090500 		mv	s2,a0
  48              		.loc 1 25 53
  49 0044 13850400 		mv	a0,s1
  50 0048 97000000 		call	_ZN11HeapManagerD1Ev@plt
  50      E7800000 
  51              	.LVL4:
  52 0050 13050900 		mv	a0,s2
  53              	.LEHB2:
  54 0054 97000000 		call	_Unwind_Resume@plt
  54      E7800000 
  55              	.LVL5:
  56              	.LEHE2:
  57              	.L6:
  58              	.LBE2:
  59              		.loc 1 25 55
  60 005c 83308101 		ld	ra,24(sp)
  61              		.cfi_restore 1
  62 0060 03340101 		ld	s0,16(sp)
  63              		.cfi_restore 8
  64              		.cfi_def_cfa 2, 32
  65 0064 83348100 		ld	s1,8(sp)
  66              		.cfi_restore 9
  67              	.LVL6:
  68 0068 03390100 		ld	s2,0(sp)
  69              		.cfi_restore 18
  70 006c 13010102 		addi	sp,sp,32
  71              		.cfi_def_cfa_offset 0
  72 0070 67800000 		jr	ra
  73              		.cfi_endproc
  74              	.LFE5:
  75              		.globl	__gxx_personality_v0
  76              		.section	.gcc_except_table,"a",@progbits
  77              	.LLSDA5:
  78 0000 FF       		.byte	0xff
  79 0001 FF       		.byte	0xff
  80 0002 03       		.byte	0x3
  81 0003 27       		.byte	0x27
  82 0004 00000000 		.4byte	.LEHB0-.LFB5
  83 0008 00000000 		.4byte	.LEHE0-.LEHB0
  84 000c 00000000 		.4byte	0
  85 0010 00       		.byte	0
GAS LISTING /tmp/ccAZgToR.s 			page 3


  86 0011 00000000 		.4byte	.LEHB1-.LFB5
  87 0015 00000000 		.4byte	.LEHE1-.LEHB1
  88 0019 00000000 		.4byte	.L3-.LFB5
  89 001d 00       		.byte	0
  90 001e 00000000 		.4byte	.LEHB2-.LFB5
  91 0022 00000000 		.4byte	.LEHE2-.LEHB2
  92 0026 00000000 		.4byte	0
  93 002a 00       		.byte	0
  94              		.text
  96              		.globl	_ZN6KernelC1Ev
  97              		.set	_ZN6KernelC1Ev,_ZN6KernelC2Ev
  98              		.align	2
  99              		.globl	_ZN6Kernel10initialiseEv
 101              	_ZN6Kernel10initialiseEv:
 102              	.LFB7:
  26:src/kernel.cpp ****  
  27:src/kernel.cpp **** 
  28:src/kernel.cpp **** void Kernel::initialise(){
 103              		.loc 1 28 26 is_stmt 1
 104              		.cfi_startproc
 105              	.LVL7:
 106 0074 130101FF 		addi	sp,sp,-16
 107              		.cfi_def_cfa_offset 16
 108 0078 23341100 		sd	ra,8(sp)
 109 007c 23308100 		sd	s0,0(sp)
 110              		.cfi_offset 1, -8
 111              		.cfi_offset 8, -16
 112 0080 13040101 		addi	s0,sp,16
 113              		.cfi_def_cfa 8, 0
  29:src/kernel.cpp ****     /// set the trap vector
  30:src/kernel.cpp ****     __asm__ volatile ("csrw stvec, %0" :: "r"(trap));
 114              		.loc 1 30 5
 115              		.loc 1 30 53 is_stmt 0
 116 0084 97070000 		la	a5,trap
 116      83B70700 
 117              	#APP
 118              	# 30 "src/kernel.cpp" 1
  31              	
  32:src/kernel.cpp ****     /// change to user mode
  33:src/kernel.cpp **** 
  34:src/kernel.cpp ****     uint64 sstatus;
 119              		csrw stvec, a5
 120              	# 0 "" 2
 121              		.loc 1 34 5 is_stmt 1
  35:src/kernel.cpp ****     /// get the current sstatus
  36:src/kernel.cpp ****     __asm__ volatile("csrr %0, sstatus" : "=r"(sstatus));
 122              		.loc 1 36 5
 123              		.loc 1 36 57 is_stmt 0
 124              	# 36 "src/kernel.cpp" 1
  37              	    /// set the SPP bit to 0
 125              		csrr a5, sstatus
 126              	# 0 "" 2
 127              	.LVL8:
  38:src/kernel.cpp ****     sstatus &= ~(1 << 8);
 128              		.loc 1 38 5 is_stmt 1
 129              		.loc 1 38 13 is_stmt 0
 130              	#NO_APP
GAS LISTING /tmp/ccAZgToR.s 			page 4


 131 0094 93F7F7EF 		andi	a5,a5,-257
 132              	.LVL9:
  39:src/kernel.cpp ****     /// write the new sstatus
  40:src/kernel.cpp ****     __asm__ volatile("csrw sstatus, %0" :: "r"(sstatus));
 133              		.loc 1 40 5 is_stmt 1
 134              		.loc 1 40 57 is_stmt 0
 135              	#APP
 136              	# 40 "src/kernel.cpp" 1
  41              	    
  42:src/kernel.cpp ****     /// NOW WE ARE IN USER MODE
  43:src/kernel.cpp ****     
  44:src/kernel.cpp ****     /// initialise the heap manager
  45:src/kernel.cpp ****     heapManager.init((uintptr_t)HEAP_START_ADDR, (uintptr_t)HEAP_END_ADDR );
 137              		csrw sstatus, a5
 138              	# 0 "" 2
 139              		.loc 1 45 5 is_stmt 1
 140              		.loc 1 45 21 is_stmt 0
 141              	#NO_APP
 142 009c 97070000 		la	a5,HEAP_END_ADDR
 142      83B70700 
 143              	.LVL10:
 144 00a4 03B60700 		ld	a2,0(a5)
 145 00a8 97070000 		la	a5,HEAP_START_ADDR
 145      83B70700 
 146 00b0 83B50700 		ld	a1,0(a5)
 147 00b4 97000000 		call	_ZN11HeapManager4initEmm@plt
 147      E7800000 
 148              	.LVL11:
  46:src/kernel.cpp **** 
  47:src/kernel.cpp ****     return;
 149              		.loc 1 47 5 is_stmt 1
  48:src/kernel.cpp **** }
 150              		.loc 1 48 1 is_stmt 0
 151 00bc 83308100 		ld	ra,8(sp)
 152              		.cfi_restore 1
 153 00c0 03340100 		ld	s0,0(sp)
 154              		.cfi_restore 8
 155              		.cfi_def_cfa 2, 16
 156 00c4 13010101 		addi	sp,sp,16
 157              		.cfi_def_cfa_offset 0
 158 00c8 67800000 		jr	ra
 159              		.cfi_endproc
 160              	.LFE7:
 162              		.align	2
 163              		.globl	_Z8testFuncPv
 165              	_Z8testFuncPv:
 166              	.LFB8:
  49:src/kernel.cpp **** 
  50:src/kernel.cpp **** // sem_t sem = 0;
  51:src/kernel.cpp **** 
  52:src/kernel.cpp **** void testFunc(void* arg){
 167              		.loc 1 52 25 is_stmt 1
 168              		.cfi_startproc
 169              	.LVL12:
 170 00cc 130101FF 		addi	sp,sp,-16
 171              		.cfi_def_cfa_offset 16
 172 00d0 23341100 		sd	ra,8(sp)
GAS LISTING /tmp/ccAZgToR.s 			page 5


 173 00d4 23308100 		sd	s0,0(sp)
 174              		.cfi_offset 1, -8
 175              		.cfi_offset 8, -16
 176 00d8 13040101 		addi	s0,sp,16
 177              		.cfi_def_cfa 8, 0
  53:src/kernel.cpp ****     putc('t');
 178              		.loc 1 53 5
 179              		.loc 1 53 9 is_stmt 0
 180 00dc 13054007 		li	a0,116
 181              	.LVL13:
 182 00e0 97000000 		call	_Z4putcc@plt
 182      E7800000 
 183              	.LVL14:
  54:src/kernel.cpp ****     putc('e');
 184              		.loc 1 54 5 is_stmt 1
 185              		.loc 1 54 9 is_stmt 0
 186 00e8 13055006 		li	a0,101
 187 00ec 97000000 		call	_Z4putcc@plt
 187      E7800000 
 188              	.LVL15:
  55:src/kernel.cpp ****     putc('s');
 189              		.loc 1 55 5 is_stmt 1
 190              		.loc 1 55 9 is_stmt 0
 191 00f4 13053007 		li	a0,115
 192 00f8 97000000 		call	_Z4putcc@plt
 192      E7800000 
 193              	.LVL16:
  56:src/kernel.cpp ****     putc('t');
 194              		.loc 1 56 5 is_stmt 1
 195              		.loc 1 56 9 is_stmt 0
 196 0100 13054007 		li	a0,116
 197 0104 97000000 		call	_Z4putcc@plt
 197      E7800000 
 198              	.LVL17:
  57:src/kernel.cpp **** 
  58:src/kernel.cpp ****     // sem_wait(sem);
  59:src/kernel.cpp ****     // thread_dispatch();
  60:src/kernel.cpp ****     // thread_dispatch();
  61:src/kernel.cpp ****     thread_dispatch();
 199              		.loc 1 61 5 is_stmt 1
 200              		.loc 1 61 20 is_stmt 0
 201 010c 97000000 		call	_Z15thread_dispatchv@plt
 201      E7800000 
 202              	.LVL18:
  62:src/kernel.cpp **** 
  63:src/kernel.cpp ****     // time_sleep(10);
  64:src/kernel.cpp ****     putc(' ');
 203              		.loc 1 64 5 is_stmt 1
 204              		.loc 1 64 9 is_stmt 0
 205 0114 13050002 		li	a0,32
 206 0118 97000000 		call	_Z4putcc@plt
 206      E7800000 
 207              	.LVL19:
  65:src/kernel.cpp **** 
  66:src/kernel.cpp ****     putc('t');
 208              		.loc 1 66 5 is_stmt 1
 209              		.loc 1 66 9 is_stmt 0
GAS LISTING /tmp/ccAZgToR.s 			page 6


 210 0120 13054007 		li	a0,116
 211 0124 97000000 		call	_Z4putcc@plt
 211      E7800000 
 212              	.LVL20:
  67:src/kernel.cpp ****     putc('h');
 213              		.loc 1 67 5 is_stmt 1
 214              		.loc 1 67 9 is_stmt 0
 215 012c 13058006 		li	a0,104
 216 0130 97000000 		call	_Z4putcc@plt
 216      E7800000 
 217              	.LVL21:
  68:src/kernel.cpp ****     putc('r');
 218              		.loc 1 68 5 is_stmt 1
 219              		.loc 1 68 9 is_stmt 0
 220 0138 13052007 		li	a0,114
 221 013c 97000000 		call	_Z4putcc@plt
 221      E7800000 
 222              	.LVL22:
  69:src/kernel.cpp ****     putc('e');
 223              		.loc 1 69 5 is_stmt 1
 224              		.loc 1 69 9 is_stmt 0
 225 0144 13055006 		li	a0,101
 226 0148 97000000 		call	_Z4putcc@plt
 226      E7800000 
 227              	.LVL23:
  70:src/kernel.cpp ****     putc('a');
 228              		.loc 1 70 5 is_stmt 1
 229              		.loc 1 70 9 is_stmt 0
 230 0150 13051006 		li	a0,97
 231 0154 97000000 		call	_Z4putcc@plt
 231      E7800000 
 232              	.LVL24:
  71:src/kernel.cpp ****     putc('d');
 233              		.loc 1 71 5 is_stmt 1
 234              		.loc 1 71 9 is_stmt 0
 235 015c 13054006 		li	a0,100
 236 0160 97000000 		call	_Z4putcc@plt
 236      E7800000 
 237              	.LVL25:
  72:src/kernel.cpp ****     putc('\n');
 238              		.loc 1 72 5 is_stmt 1
 239              		.loc 1 72 9 is_stmt 0
 240 0168 1305A000 		li	a0,10
 241 016c 97000000 		call	_Z4putcc@plt
 241      E7800000 
 242              	.LVL26:
  73:src/kernel.cpp **** }
 243              		.loc 1 73 1
 244 0174 83308100 		ld	ra,8(sp)
 245              		.cfi_restore 1
 246 0178 03340100 		ld	s0,0(sp)
 247              		.cfi_restore 8
 248              		.cfi_def_cfa 2, 16
 249 017c 13010101 		addi	sp,sp,16
 250              		.cfi_def_cfa_offset 0
 251 0180 67800000 		jr	ra
 252              		.cfi_endproc
GAS LISTING /tmp/ccAZgToR.s 			page 7


 253              	.LFE8:
 255              		.align	2
 256              		.globl	_ZN6Kernel3runEv
 258              	_ZN6Kernel3runEv:
 259              	.LFB9:
  74:src/kernel.cpp **** 
  75:src/kernel.cpp **** Kernel::EXIT_CODE Kernel::run(){
 260              		.loc 1 75 32 is_stmt 1
 261              		.cfi_startproc
 262              	.LVL27:
 263 0184 130101FD 		addi	sp,sp,-48
 264              		.cfi_def_cfa_offset 48
 265 0188 23341102 		sd	ra,40(sp)
 266 018c 23308102 		sd	s0,32(sp)
 267 0190 233C9100 		sd	s1,24(sp)
 268              		.cfi_offset 1, -8
 269              		.cfi_offset 8, -16
 270              		.cfi_offset 9, -24
 271 0194 13040103 		addi	s0,sp,48
 272              		.cfi_def_cfa 8, 0
  76:src/kernel.cpp **** 
  77:src/kernel.cpp ****     thread_t t, test;
 273              		.loc 1 77 5
  78:src/kernel.cpp ****     
  79:src/kernel.cpp ****     thread_create(&t, 0, 0);
 274              		.loc 1 79 5
 275              		.loc 1 79 18 is_stmt 0
 276 0198 13060000 		li	a2,0
 277 019c 93050000 		li	a1,0
 278 01a0 130584FD 		addi	a0,s0,-40
 279              	.LVL28:
 280 01a4 97000000 		call	_Z13thread_createPP7_threadPFvPvES2_@plt
 280      E7800000 
 281              	.LVL29:
  80:src/kernel.cpp ****     _thread::currentThread = Scheduler::get();
 282              		.loc 1 80 5 is_stmt 1
 283              		.loc 1 80 44 is_stmt 0
 284 01ac 97000000 		call	_ZN9Scheduler3getEv@plt
 284      E7800000 
 285              	.LVL30:
 286              		.loc 1 80 28
 287 01b4 97070000 		la	a5,_ZN7_thread13currentThreadE
 287      83B70700 
 288 01bc 23B0A700 		sd	a0,0(a5)
  81:src/kernel.cpp ****     
  82:src/kernel.cpp ****     thread_create(&test, usermain, 0);
 289              		.loc 1 82 5 is_stmt 1
 290              		.loc 1 82 18 is_stmt 0
 291 01c0 13060000 		li	a2,0
 292 01c4 97050000 		la	a1,_Z8usermainPv
 292      83B50500 
 293 01cc 130504FD 		addi	a0,s0,-48
 294 01d0 97000000 		call	_Z13thread_createPP7_threadPFvPvES2_@plt
 294      E7800000 
 295              	.LVL31:
  83:src/kernel.cpp ****     putc('k');
 296              		.loc 1 83 5 is_stmt 1
GAS LISTING /tmp/ccAZgToR.s 			page 8


 297              		.loc 1 83 9 is_stmt 0
 298 01d8 1305B006 		li	a0,107
 299 01dc 97000000 		call	_Z4putcc@plt
 299      E7800000 
 300              	.LVL32:
  84:src/kernel.cpp ****     putc('e');
 301              		.loc 1 84 5 is_stmt 1
 302              		.loc 1 84 9 is_stmt 0
 303 01e4 13055006 		li	a0,101
 304 01e8 97000000 		call	_Z4putcc@plt
 304      E7800000 
 305              	.LVL33:
  85:src/kernel.cpp ****     putc('r');
 306              		.loc 1 85 5 is_stmt 1
 307              		.loc 1 85 9 is_stmt 0
 308 01f0 13052007 		li	a0,114
 309 01f4 97000000 		call	_Z4putcc@plt
 309      E7800000 
 310              	.LVL34:
  86:src/kernel.cpp ****     putc('n');
 311              		.loc 1 86 5 is_stmt 1
 312              		.loc 1 86 9 is_stmt 0
 313 01fc 1305E006 		li	a0,110
 314 0200 97000000 		call	_Z4putcc@plt
 314      E7800000 
 315              	.LVL35:
  87:src/kernel.cpp ****     putc('e');
 316              		.loc 1 87 5 is_stmt 1
 317              		.loc 1 87 9 is_stmt 0
 318 0208 13055006 		li	a0,101
 319 020c 97000000 		call	_Z4putcc@plt
 319      E7800000 
 320              	.LVL36:
  88:src/kernel.cpp ****     putc('l');
 321              		.loc 1 88 5 is_stmt 1
 322              		.loc 1 88 9 is_stmt 0
 323 0214 1305C006 		li	a0,108
 324 0218 97000000 		call	_Z4putcc@plt
 324      E7800000 
 325              	.LVL37:
  89:src/kernel.cpp ****     putc('\n');
 326              		.loc 1 89 5 is_stmt 1
 327              		.loc 1 89 9 is_stmt 0
 328 0220 1305A000 		li	a0,10
 329 0224 97000000 		call	_Z4putcc@plt
 329      E7800000 
 330              	.LVL38:
  90:src/kernel.cpp ****     int loop = 0;
 331              		.loc 1 90 9
 332 022c 93040000 		li	s1,0
 333              	.L13:
 334              	.LVL39:
  91:src/kernel.cpp ****     do{
 335              		.loc 1 91 5 is_stmt 1
  92:src/kernel.cpp ****         thread_dispatch();
 336              		.loc 1 92 9
 337              		.loc 1 92 24 is_stmt 0
GAS LISTING /tmp/ccAZgToR.s 			page 9


 338 0230 97000000 		call	_Z15thread_dispatchv@plt
 338      E7800000 
 339              	.LVL40:
  93:src/kernel.cpp ****         loop++;
 340              		.loc 1 93 9 is_stmt 1
 341              		.loc 1 93 13 is_stmt 0
 342 0238 9B841400 		addiw	s1,s1,1
 343              	.LVL41:
  94:src/kernel.cpp ****     }while(!Scheduler::isEmpty() && loop < 4);
 344              		.loc 1 94 34 is_stmt 1
 345              		.loc 1 94 31 is_stmt 0
 346 023c 97000000 		call	_ZN9Scheduler7isEmptyEv@plt
 346      E7800000 
 347              	.LVL42:
 348              		.loc 1 94 34
 349 0244 63160500 		bnez	a0,.L12
 350              		.loc 1 94 34 discriminator 2
 351 0248 93073000 		li	a5,3
 352 024c E3D297FE 		ble	s1,a5,.L13
 353              	.L12:
  95:src/kernel.cpp ****     // }while(!Scheduler::isEmpty() || !Timer::getInstance().noSleepingThreads());
  96:src/kernel.cpp **** 
  97:src/kernel.cpp ****     putc('m');
 354              		.loc 1 97 5 is_stmt 1
 355              		.loc 1 97 9 is_stmt 0
 356 0250 1305D006 		li	a0,109
 357 0254 97000000 		call	_Z4putcc@plt
 357      E7800000 
 358              	.LVL43:
  98:src/kernel.cpp ****     putc('a');
 359              		.loc 1 98 5 is_stmt 1
 360              		.loc 1 98 9 is_stmt 0
 361 025c 13051006 		li	a0,97
 362 0260 97000000 		call	_Z4putcc@plt
 362      E7800000 
 363              	.LVL44:
  99:src/kernel.cpp ****     putc('i');
 364              		.loc 1 99 5 is_stmt 1
 365              		.loc 1 99 9 is_stmt 0
 366 0268 13059006 		li	a0,105
 367 026c 97000000 		call	_Z4putcc@plt
 367      E7800000 
 368              	.LVL45:
 100:src/kernel.cpp ****     putc('n');
 369              		.loc 1 100 5 is_stmt 1
 370              		.loc 1 100 9 is_stmt 0
 371 0274 1305E006 		li	a0,110
 372 0278 97000000 		call	_Z4putcc@plt
 372      E7800000 
 373              	.LVL46:
 101:src/kernel.cpp ****     putc('\n');
 374              		.loc 1 101 5 is_stmt 1
 375              		.loc 1 101 9 is_stmt 0
 376 0280 1305A000 		li	a0,10
 377 0284 97000000 		call	_Z4putcc@plt
 377      E7800000 
 378              	.LVL47:
GAS LISTING /tmp/ccAZgToR.s 			page 10


 379              	.L14:
 102:src/kernel.cpp ****     while(1){}
 380              		.loc 1 102 5 is_stmt 1 discriminator 1
 381              		.loc 1 102 5 discriminator 1
 382 028c 6F000000 		j	.L14
 383              		.cfi_endproc
 384              	.LFE9:
 386              	.Letext0:
 387              		.file 2 "./lib/hw.h"
 388              		.file 3 "./h/types.h"
 389              		.file 4 "./h/heapManager.h"
 390              		.file 5 "./h/sched.h"
 391              		.file 6 "./h/thread.h"
 392              		.file 7 "./h/timer.h"
 393              		.file 8 "./h/kernel.h"
 394              		.file 9 "./h/syscalls_c.h"
 3268              		.align	3
 3271              	DW.ref.__gxx_personality_v0:
 3272 0000 00000000 		.dword	__gxx_personality_v0
 3272      00000000 
 3273              		.ident	"GCC: (Ubuntu 9.4.0-1ubuntu1~20.04) 9.4.0"
 3274              		.section	.note.GNU-stack,"",@progbits
GAS LISTING /tmp/ccAZgToR.s 			page 11


DEFINED SYMBOLS
                            *ABS*:0000000000000000 kernel.cpp
     /tmp/ccAZgToR.s:9      .text:0000000000000000 _ZN6KernelC2Ev
     /tmp/ccAZgToR.s:13     .text:0000000000000000 .L0 
     /tmp/ccAZgToR.s:3271   .data.rel.local.DW.ref.__gxx_personality_v0:0000000000000000 DW.ref.__gxx_personality_v0
     /tmp/ccAZgToR.s:17     .text:0000000000000000 .L0 
     /tmp/ccAZgToR.s:18     .text:0000000000000004 .L0 
     /tmp/ccAZgToR.s:23     .text:0000000000000014 .L0 
     /tmp/ccAZgToR.s:24     .text:0000000000000014 .L0 
     /tmp/ccAZgToR.s:25     .text:0000000000000014 .L0 
     /tmp/ccAZgToR.s:26     .text:0000000000000014 .L0 
     /tmp/ccAZgToR.s:28     .text:0000000000000018 .L0 
     /tmp/ccAZgToR.s:33     .text:000000000000001c .L0 
     /tmp/ccAZgToR.s:41     .text:0000000000000030 .L0 
     /tmp/ccAZgToR.s:49     .text:0000000000000044 .L0 
     /tmp/ccAZgToR.s:60     .text:000000000000005c .L0 
     /tmp/ccAZgToR.s:61     .text:0000000000000060 .L0 
     /tmp/ccAZgToR.s:63     .text:0000000000000064 .L0 
     /tmp/ccAZgToR.s:64     .text:0000000000000064 .L0 
     /tmp/ccAZgToR.s:66     .text:0000000000000068 .L0 
     /tmp/ccAZgToR.s:69     .text:000000000000006c .L0 
     /tmp/ccAZgToR.s:71     .text:0000000000000070 .L0 
     /tmp/ccAZgToR.s:73     .text:0000000000000074 .L0 
     /tmp/ccAZgToR.s:9      .text:0000000000000000 _ZN6KernelC1Ev
     /tmp/ccAZgToR.s:101    .text:0000000000000074 _ZN6Kernel10initialiseEv
     /tmp/ccAZgToR.s:104    .text:0000000000000074 .L0 
     /tmp/ccAZgToR.s:106    .text:0000000000000074 .L0 
     /tmp/ccAZgToR.s:107    .text:0000000000000078 .L0 
     /tmp/ccAZgToR.s:110    .text:0000000000000080 .L0 
     /tmp/ccAZgToR.s:111    .text:0000000000000080 .L0 
     /tmp/ccAZgToR.s:113    .text:0000000000000084 .L0 
     /tmp/ccAZgToR.s:115    .text:0000000000000084 .L0 
     /tmp/ccAZgToR.s:116    .text:0000000000000084 .L0 
     /tmp/ccAZgToR.s:122    .text:0000000000000090 .L0 
     /tmp/ccAZgToR.s:123    .text:0000000000000090 .L0 
      src/kernel.cpp:36     .text:0000000000000090 .L0 
     /tmp/ccAZgToR.s:129    .text:0000000000000094 .L0 
     /tmp/ccAZgToR.s:131    .text:0000000000000094 .L0 
     /tmp/ccAZgToR.s:134    .text:0000000000000098 .L0 
      src/kernel.cpp:40     .text:0000000000000098 .L0 
     /tmp/ccAZgToR.s:140    .text:000000000000009c .L0 
     /tmp/ccAZgToR.s:142    .text:000000000000009c .L0 
     /tmp/ccAZgToR.s:150    .text:00000000000000bc .L0 
     /tmp/ccAZgToR.s:151    .text:00000000000000bc .L0 
     /tmp/ccAZgToR.s:152    .text:00000000000000c0 .L0 
     /tmp/ccAZgToR.s:154    .text:00000000000000c4 .L0 
     /tmp/ccAZgToR.s:155    .text:00000000000000c4 .L0 
     /tmp/ccAZgToR.s:157    .text:00000000000000c8 .L0 
     /tmp/ccAZgToR.s:159    .text:00000000000000cc .L0 
     /tmp/ccAZgToR.s:165    .text:00000000000000cc _Z8testFuncPv
     /tmp/ccAZgToR.s:168    .text:00000000000000cc .L0 
     /tmp/ccAZgToR.s:170    .text:00000000000000cc .L0 
     /tmp/ccAZgToR.s:171    .text:00000000000000d0 .L0 
     /tmp/ccAZgToR.s:174    .text:00000000000000d8 .L0 
     /tmp/ccAZgToR.s:175    .text:00000000000000d8 .L0 
     /tmp/ccAZgToR.s:177    .text:00000000000000dc .L0 
     /tmp/ccAZgToR.s:179    .text:00000000000000dc .L0 
GAS LISTING /tmp/ccAZgToR.s 			page 12


     /tmp/ccAZgToR.s:180    .text:00000000000000dc .L0 
     /tmp/ccAZgToR.s:185    .text:00000000000000e8 .L0 
     /tmp/ccAZgToR.s:186    .text:00000000000000e8 .L0 
     /tmp/ccAZgToR.s:190    .text:00000000000000f4 .L0 
     /tmp/ccAZgToR.s:191    .text:00000000000000f4 .L0 
     /tmp/ccAZgToR.s:195    .text:0000000000000100 .L0 
     /tmp/ccAZgToR.s:196    .text:0000000000000100 .L0 
     /tmp/ccAZgToR.s:200    .text:000000000000010c .L0 
     /tmp/ccAZgToR.s:201    .text:000000000000010c .L0 
     /tmp/ccAZgToR.s:204    .text:0000000000000114 .L0 
     /tmp/ccAZgToR.s:205    .text:0000000000000114 .L0 
     /tmp/ccAZgToR.s:209    .text:0000000000000120 .L0 
     /tmp/ccAZgToR.s:210    .text:0000000000000120 .L0 
     /tmp/ccAZgToR.s:214    .text:000000000000012c .L0 
     /tmp/ccAZgToR.s:215    .text:000000000000012c .L0 
     /tmp/ccAZgToR.s:219    .text:0000000000000138 .L0 
     /tmp/ccAZgToR.s:220    .text:0000000000000138 .L0 
     /tmp/ccAZgToR.s:224    .text:0000000000000144 .L0 
     /tmp/ccAZgToR.s:225    .text:0000000000000144 .L0 
     /tmp/ccAZgToR.s:229    .text:0000000000000150 .L0 
     /tmp/ccAZgToR.s:230    .text:0000000000000150 .L0 
     /tmp/ccAZgToR.s:234    .text:000000000000015c .L0 
     /tmp/ccAZgToR.s:235    .text:000000000000015c .L0 
     /tmp/ccAZgToR.s:239    .text:0000000000000168 .L0 
     /tmp/ccAZgToR.s:240    .text:0000000000000168 .L0 
     /tmp/ccAZgToR.s:244    .text:0000000000000174 .L0 
     /tmp/ccAZgToR.s:245    .text:0000000000000178 .L0 
     /tmp/ccAZgToR.s:247    .text:000000000000017c .L0 
     /tmp/ccAZgToR.s:248    .text:000000000000017c .L0 
     /tmp/ccAZgToR.s:250    .text:0000000000000180 .L0 
     /tmp/ccAZgToR.s:252    .text:0000000000000184 .L0 
     /tmp/ccAZgToR.s:258    .text:0000000000000184 _ZN6Kernel3runEv
     /tmp/ccAZgToR.s:261    .text:0000000000000184 .L0 
     /tmp/ccAZgToR.s:263    .text:0000000000000184 .L0 
     /tmp/ccAZgToR.s:264    .text:0000000000000188 .L0 
     /tmp/ccAZgToR.s:268    .text:0000000000000194 .L0 
     /tmp/ccAZgToR.s:269    .text:0000000000000194 .L0 
     /tmp/ccAZgToR.s:270    .text:0000000000000194 .L0 
     /tmp/ccAZgToR.s:272    .text:0000000000000198 .L0 
     /tmp/ccAZgToR.s:274    .text:0000000000000198 .L0 
     /tmp/ccAZgToR.s:275    .text:0000000000000198 .L0 
     /tmp/ccAZgToR.s:276    .text:0000000000000198 .L0 
     /tmp/ccAZgToR.s:283    .text:00000000000001ac .L0 
     /tmp/ccAZgToR.s:284    .text:00000000000001ac .L0 
     /tmp/ccAZgToR.s:287    .text:00000000000001b4 .L0 
     /tmp/ccAZgToR.s:290    .text:00000000000001c0 .L0 
     /tmp/ccAZgToR.s:291    .text:00000000000001c0 .L0 
     /tmp/ccAZgToR.s:297    .text:00000000000001d8 .L0 
     /tmp/ccAZgToR.s:298    .text:00000000000001d8 .L0 
     /tmp/ccAZgToR.s:302    .text:00000000000001e4 .L0 
     /tmp/ccAZgToR.s:303    .text:00000000000001e4 .L0 
     /tmp/ccAZgToR.s:307    .text:00000000000001f0 .L0 
     /tmp/ccAZgToR.s:308    .text:00000000000001f0 .L0 
     /tmp/ccAZgToR.s:312    .text:00000000000001fc .L0 
     /tmp/ccAZgToR.s:313    .text:00000000000001fc .L0 
     /tmp/ccAZgToR.s:317    .text:0000000000000208 .L0 
     /tmp/ccAZgToR.s:318    .text:0000000000000208 .L0 
GAS LISTING /tmp/ccAZgToR.s 			page 13


     /tmp/ccAZgToR.s:322    .text:0000000000000214 .L0 
     /tmp/ccAZgToR.s:323    .text:0000000000000214 .L0 
     /tmp/ccAZgToR.s:327    .text:0000000000000220 .L0 
     /tmp/ccAZgToR.s:328    .text:0000000000000220 .L0 
     /tmp/ccAZgToR.s:332    .text:000000000000022c .L0 
     /tmp/ccAZgToR.s:336    .text:0000000000000230 .L0 
     /tmp/ccAZgToR.s:337    .text:0000000000000230 .L0 
     /tmp/ccAZgToR.s:338    .text:0000000000000230 .L0 
     /tmp/ccAZgToR.s:341    .text:0000000000000238 .L0 
     /tmp/ccAZgToR.s:342    .text:0000000000000238 .L0 
     /tmp/ccAZgToR.s:345    .text:000000000000023c .L0 
     /tmp/ccAZgToR.s:346    .text:000000000000023c .L0 
     /tmp/ccAZgToR.s:349    .text:0000000000000244 .L0 
     /tmp/ccAZgToR.s:351    .text:0000000000000248 .L0 
     /tmp/ccAZgToR.s:355    .text:0000000000000250 .L0 
     /tmp/ccAZgToR.s:356    .text:0000000000000250 .L0 
     /tmp/ccAZgToR.s:360    .text:000000000000025c .L0 
     /tmp/ccAZgToR.s:361    .text:000000000000025c .L0 
     /tmp/ccAZgToR.s:365    .text:0000000000000268 .L0 
     /tmp/ccAZgToR.s:366    .text:0000000000000268 .L0 
     /tmp/ccAZgToR.s:370    .text:0000000000000274 .L0 
     /tmp/ccAZgToR.s:371    .text:0000000000000274 .L0 
     /tmp/ccAZgToR.s:375    .text:0000000000000280 .L0 
     /tmp/ccAZgToR.s:376    .text:0000000000000280 .L0 
     /tmp/ccAZgToR.s:381    .text:000000000000028c .L0 
     /tmp/ccAZgToR.s:382    .text:000000000000028c .L0 
     /tmp/ccAZgToR.s:383    .text:0000000000000290 .L0 
     /tmp/ccAZgToR.s:395    .text:0000000000000290 .L0 
     /tmp/ccAZgToR.s:116    .text:0000000000000084 .L0 
     /tmp/ccAZgToR.s:142    .text:000000000000009c .L0 
     /tmp/ccAZgToR.s:145    .text:00000000000000a8 .L0 
     /tmp/ccAZgToR.s:287    .text:00000000000001b4 .L0 
     /tmp/ccAZgToR.s:292    .text:00000000000001c4 .L0 
     /tmp/ccAZgToR.s:57     .text:000000000000005c .L6
     /tmp/ccAZgToR.s:353    .text:0000000000000250 .L12
     /tmp/ccAZgToR.s:333    .text:0000000000000230 .L13
     /tmp/ccAZgToR.s:379    .text:000000000000028c .L14
     /tmp/ccAZgToR.s:30     .text:000000000000001c .LEHB0
     /tmp/ccAZgToR.s:10     .text:0000000000000000 .LFB5
     /tmp/ccAZgToR.s:35     .text:0000000000000024 .LEHE0
     /tmp/ccAZgToR.s:37     .text:0000000000000028 .LEHB1
     /tmp/ccAZgToR.s:44     .text:000000000000003c .LEHE1
     /tmp/ccAZgToR.s:46     .text:0000000000000040 .L3
     /tmp/ccAZgToR.s:53     .text:0000000000000054 .LEHB2
     /tmp/ccAZgToR.s:56     .text:000000000000005c .LEHE2
     /tmp/ccAZgToR.s:1987   .debug_abbrev:0000000000000000 .Ldebug_abbrev0
     /tmp/ccAZgToR.s:3219   .debug_str:000000000000069e .LASF125
     /tmp/ccAZgToR.s:3001   .debug_str:00000000000000b6 .LASF126
     /tmp/ccAZgToR.s:3151   .debug_str:00000000000004c0 .LASF127
     /tmp/ccAZgToR.s:5      .text:0000000000000000 .Ltext0
     /tmp/ccAZgToR.s:386    .text:0000000000000290 .Letext0
     /tmp/ccAZgToR.s:2979   .debug_line:0000000000000000 .Ldebug_line0
     /tmp/ccAZgToR.s:3137   .debug_str:000000000000046e .LASF0
     /tmp/ccAZgToR.s:3155   .debug_str:0000000000000510 .LASF1
     /tmp/ccAZgToR.s:3119   .debug_str:00000000000003dd .LASF2
     /tmp/ccAZgToR.s:3195   .debug_str:000000000000060b .LASF3
     /tmp/ccAZgToR.s:3083   .debug_str:00000000000002f5 .LASF4
GAS LISTING /tmp/ccAZgToR.s 			page 14


     /tmp/ccAZgToR.s:3199   .debug_str:000000000000061a .LASF5
     /tmp/ccAZgToR.s:3015   .debug_str:0000000000000137 .LASF6
     /tmp/ccAZgToR.s:3047   .debug_str:000000000000021b .LASF7
     /tmp/ccAZgToR.s:3161   .debug_str:0000000000000534 .LASF8
     /tmp/ccAZgToR.s:3135   .debug_str:000000000000045b .LASF9
     /tmp/ccAZgToR.s:3233   .debug_str:00000000000007c8 .LASF10
     /tmp/ccAZgToR.s:3067   .debug_str:000000000000029c .LASF11
     /tmp/ccAZgToR.s:3173   .debug_str:0000000000000579 .LASF12
     /tmp/ccAZgToR.s:3223   .debug_str:000000000000076e .LASF13
     /tmp/ccAZgToR.s:3019   .debug_str:0000000000000147 .LASF14
     /tmp/ccAZgToR.s:2985   .debug_str:0000000000000015 .LASF15
     /tmp/ccAZgToR.s:3031   .debug_str:000000000000018f .LASF16
     /tmp/ccAZgToR.s:3193   .debug_str:00000000000005f5 .LASF17
     /tmp/ccAZgToR.s:3039   .debug_str:00000000000001d2 .LASF18
     /tmp/ccAZgToR.s:3055   .debug_str:000000000000025c .LASF19
     /tmp/ccAZgToR.s:3139   .debug_str:000000000000047b .LASF24
     /tmp/ccAZgToR.s:2991   .debug_str:000000000000006f .LASF39
     /tmp/ccAZgToR.s:3073   .debug_str:00000000000002c1 .LASF20
     /tmp/ccAZgToR.s:3059   .debug_str:0000000000000272 .LASF21
     /tmp/ccAZgToR.s:3251   .debug_str:000000000000083a .LASF22
     /tmp/ccAZgToR.s:3231   .debug_str:00000000000007bf .LASF23
     /tmp/ccAZgToR.s:3065   .debug_str:0000000000000287 .LASF26
     /tmp/ccAZgToR.s:2981   .debug_str:0000000000000000 .LASF25
     /tmp/ccAZgToR.s:3149   .debug_str:00000000000004ab .LASF27
     /tmp/ccAZgToR.s:3165   .debug_str:000000000000054e .LASF28
     /tmp/ccAZgToR.s:3103   .debug_str:000000000000037d .LASF29
     /tmp/ccAZgToR.s:3127   .debug_str:0000000000000425 .LASF30
     /tmp/ccAZgToR.s:3123   .debug_str:00000000000003fa .LASF32
     /tmp/ccAZgToR.s:3115   .debug_str:00000000000003c9 .LASF31
     /tmp/ccAZgToR.s:3227   .debug_str:0000000000000796 .LASF33
     /tmp/ccAZgToR.s:3029   .debug_str:0000000000000186 .LASF34
     /tmp/ccAZgToR.s:3003   .debug_str:00000000000000c5 .LASF35
     /tmp/ccAZgToR.s:3221   .debug_str:0000000000000762 .LASF48
     /tmp/ccAZgToR.s:3045   .debug_str:00000000000001fb .LASF50
     /tmp/ccAZgToR.s:2993   .debug_str:0000000000000085 .LASF36
     /tmp/ccAZgToR.s:3145   .debug_str:000000000000049b .LASF60
     /tmp/ccAZgToR.s:3099   .debug_str:000000000000036d .LASF37
     /tmp/ccAZgToR.s:3081   .debug_str:00000000000002ed .LASF38
     /tmp/ccAZgToR.s:3253   .debug_str:0000000000000840 .LASF40
     /tmp/ccAZgToR.s:3185   .debug_str:00000000000005ce .LASF41
     /tmp/ccAZgToR.s:3129   .debug_str:0000000000000437 .LASF42
     /tmp/ccAZgToR.s:3163   .debug_str:0000000000000547 .LASF43
     /tmp/ccAZgToR.s:3259   .debug_str:0000000000000871 .LASF44
     /tmp/ccAZgToR.s:3257   .debug_str:000000000000086a .LASF45
     /tmp/ccAZgToR.s:2989   .debug_str:000000000000004a .LASF46
     /tmp/ccAZgToR.s:3063   .debug_str:0000000000000282 .LASF47
     /tmp/ccAZgToR.s:3109   .debug_str:00000000000003ad .LASF49
     /tmp/ccAZgToR.s:3239   .debug_str:00000000000007f5 .LASF51
     /tmp/ccAZgToR.s:3141   .debug_str:0000000000000487 .LASF128
     /tmp/ccAZgToR.s:3213   .debug_str:0000000000000671 .LASF129
     /tmp/ccAZgToR.s:3203   .debug_str:0000000000000631 .LASF52
     /tmp/ccAZgToR.s:3095   .debug_str:0000000000000339 .LASF53
     /tmp/ccAZgToR.s:3049   .debug_str:0000000000000222 .LASF130
     /tmp/ccAZgToR.s:3087   .debug_str:0000000000000305 .LASF54
     /tmp/ccAZgToR.s:3263   .debug_str:000000000000087c .LASF55
     /tmp/ccAZgToR.s:3021   .debug_str:0000000000000157 .LASF56
     /tmp/ccAZgToR.s:3005   .debug_str:00000000000000e2 .LASF57
GAS LISTING /tmp/ccAZgToR.s 			page 15


     /tmp/ccAZgToR.s:3057   .debug_str:0000000000000266 .LASF58
     /tmp/ccAZgToR.s:3255   .debug_str:000000000000084f .LASF59
     /tmp/ccAZgToR.s:3235   .debug_str:00000000000007d8 .LASF62
     /tmp/ccAZgToR.s:3211   .debug_str:0000000000000669 .LASF131
     /tmp/ccAZgToR.s:3181   .debug_str:00000000000005af .LASF132
     /tmp/ccAZgToR.s:3093   .debug_str:0000000000000332 .LASF61
     /tmp/ccAZgToR.s:3089   .debug_str:0000000000000310 .LASF63
     /tmp/ccAZgToR.s:3241   .debug_str:0000000000000808 .LASF64
     /tmp/ccAZgToR.s:3217   .debug_str:0000000000000695 .LASF65
     /tmp/ccAZgToR.s:3179   .debug_str:00000000000005a6 .LASF66
     /tmp/ccAZgToR.s:3085   .debug_str:00000000000002fc .LASF67
     /tmp/ccAZgToR.s:3113   .debug_str:00000000000003be .LASF68
     /tmp/ccAZgToR.s:3117   .debug_str:00000000000003d6 .LASF69
     /tmp/ccAZgToR.s:2983   .debug_str:000000000000000d .LASF70
     /tmp/ccAZgToR.s:3175   .debug_str:0000000000000588 .LASF71
     /tmp/ccAZgToR.s:3183   .debug_str:00000000000005c5 .LASF72
     /tmp/ccAZgToR.s:3147   .debug_str:00000000000004a4 .LASF73
     /tmp/ccAZgToR.s:3079   .debug_str:00000000000002e4 .LASF74
     /tmp/ccAZgToR.s:3167   .debug_str:0000000000000553 .LASF75
     /tmp/ccAZgToR.s:3101   .debug_str:0000000000000376 .LASF76
     /tmp/ccAZgToR.s:3035   .debug_str:00000000000001ac .LASF133
     /tmp/ccAZgToR.s:3153   .debug_str:00000000000004dc .LASF134
     /tmp/ccAZgToR.s:3171   .debug_str:000000000000056f .LASF77
     /tmp/ccAZgToR.s:3143   .debug_str:0000000000000490 .LASF78
     /tmp/ccAZgToR.s:2995   .debug_str:000000000000008d .LASF79
     /tmp/ccAZgToR.s:3209   .debug_str:000000000000064d .LASF135
     /tmp/ccAZgToR.s:3053   .debug_str:0000000000000248 .LASF136
     /tmp/ccAZgToR.s:3197   .debug_str:0000000000000612 .LASF80
     /tmp/ccAZgToR.s:3051   .debug_str:0000000000000230 .LASF81
     /tmp/ccAZgToR.s:3013   .debug_str:000000000000012e .LASF82
     /tmp/ccAZgToR.s:3007   .debug_str:00000000000000fa .LASF83
     /tmp/ccAZgToR.s:3041   .debug_str:00000000000001e8 .LASF84
     /tmp/ccAZgToR.s:3125   .debug_str:0000000000000420 .LASF85
     /tmp/ccAZgToR.s:3027   .debug_str:000000000000017c .LASF86
     /tmp/ccAZgToR.s:2997   .debug_str:000000000000009f .LASF87
     /tmp/ccAZgToR.s:3169   .debug_str:000000000000055c .LASF88
     /tmp/ccAZgToR.s:3187   .debug_str:00000000000005d6 .LASF89
     /tmp/ccAZgToR.s:3131   .debug_str:0000000000000446 .LASF90
     /tmp/ccAZgToR.s:3245   .debug_str:0000000000000817 .LASF91
     /tmp/ccAZgToR.s:3261   .debug_str:0000000000000876 .LASF92
     /tmp/ccAZgToR.s:2999   .debug_str:00000000000000a4 .LASF93
     /tmp/ccAZgToR.s:3247   .debug_str:0000000000000830 .LASF94
     /tmp/ccAZgToR.s:3023   .debug_str:0000000000000161 .LASF95
     /tmp/ccAZgToR.s:3207   .debug_str:000000000000063b .LASF96
     /tmp/ccAZgToR.s:3097   .debug_str:000000000000034e .LASF97
     /tmp/ccAZgToR.s:3009   .debug_str:0000000000000113 .LASF98
     /tmp/ccAZgToR.s:3243   .debug_str:0000000000000810 .LASF99
     /tmp/ccAZgToR.s:3075   .debug_str:00000000000002c7 .LASF100
     /tmp/ccAZgToR.s:3091   .debug_str:0000000000000325 .LASF101
     /tmp/ccAZgToR.s:3237   .debug_str:00000000000007f0 .LASF102
     /tmp/ccAZgToR.s:3107   .debug_str:00000000000003a6 .LASF103
     /tmp/ccAZgToR.s:3025   .debug_str:0000000000000172 .LASF137
     /tmp/ccAZgToR.s:3011   .debug_str:0000000000000121 .LASF104
     /tmp/ccAZgToR.s:3215   .debug_str:0000000000000688 .LASF105
     /tmp/ccAZgToR.s:3191   .debug_str:00000000000005e6 .LASF106
     /tmp/ccAZgToR.s:3229   .debug_str:00000000000007b7 .LASF107
     /tmp/ccAZgToR.s:3133   .debug_str:000000000000044c .LASF108
GAS LISTING /tmp/ccAZgToR.s 			page 16


     /tmp/ccAZgToR.s:3033   .debug_str:000000000000019b .LASF138
     /tmp/ccAZgToR.s:3157   .debug_str:0000000000000523 .LASF109
     /tmp/ccAZgToR.s:3225   .debug_str:000000000000077d .LASF110
     /tmp/ccAZgToR.s:3111   .debug_str:00000000000003b2 .LASF111
     /tmp/ccAZgToR.s:3061   .debug_str:0000000000000278 .LASF112
     /tmp/ccAZgToR.s:3159   .debug_str:000000000000052e .LASF113
     /tmp/ccAZgToR.s:259    .text:0000000000000184 .LFB9
     /tmp/ccAZgToR.s:384    .text:0000000000000290 .LFE9
     /tmp/ccAZgToR.s:3249   .debug_str:0000000000000835 .LASF118
     /tmp/ccAZgToR.s:2892   .debug_loc:0000000000000000 .LLST4
     /tmp/ccAZgToR.s:3189   .debug_str:00000000000005e1 .LASF114
     /tmp/ccAZgToR.s:3205   .debug_str:0000000000000636 .LASF115
     /tmp/ccAZgToR.s:2906   .debug_loc:0000000000000039 .LLST5
     /tmp/ccAZgToR.s:281    .text:00000000000001ac .LVL29
     /tmp/ccAZgToR.s:285    .text:00000000000001b4 .LVL30
     /tmp/ccAZgToR.s:295    .text:00000000000001d8 .LVL31
     /tmp/ccAZgToR.s:300    .text:00000000000001e4 .LVL32
     /tmp/ccAZgToR.s:305    .text:00000000000001f0 .LVL33
     /tmp/ccAZgToR.s:310    .text:00000000000001fc .LVL34
     /tmp/ccAZgToR.s:315    .text:0000000000000208 .LVL35
     /tmp/ccAZgToR.s:320    .text:0000000000000214 .LVL36
     /tmp/ccAZgToR.s:325    .text:0000000000000220 .LVL37
     /tmp/ccAZgToR.s:330    .text:000000000000022c .LVL38
     /tmp/ccAZgToR.s:339    .text:0000000000000238 .LVL40
     /tmp/ccAZgToR.s:347    .text:0000000000000244 .LVL42
     /tmp/ccAZgToR.s:358    .text:000000000000025c .LVL43
     /tmp/ccAZgToR.s:363    .text:0000000000000268 .LVL44
     /tmp/ccAZgToR.s:368    .text:0000000000000274 .LVL45
     /tmp/ccAZgToR.s:373    .text:0000000000000280 .LVL46
     /tmp/ccAZgToR.s:378    .text:000000000000028c .LVL47
     /tmp/ccAZgToR.s:3017   .debug_str:000000000000013e .LASF116
     /tmp/ccAZgToR.s:3043   .debug_str:00000000000001ed .LASF117
     /tmp/ccAZgToR.s:166    .text:00000000000000cc .LFB8
     /tmp/ccAZgToR.s:253    .text:0000000000000184 .LFE8
     /tmp/ccAZgToR.s:2913   .debug_loc:000000000000005c .LLST3
     /tmp/ccAZgToR.s:183    .text:00000000000000e8 .LVL14
     /tmp/ccAZgToR.s:188    .text:00000000000000f4 .LVL15
     /tmp/ccAZgToR.s:193    .text:0000000000000100 .LVL16
     /tmp/ccAZgToR.s:198    .text:000000000000010c .LVL17
     /tmp/ccAZgToR.s:202    .text:0000000000000114 .LVL18
     /tmp/ccAZgToR.s:207    .text:0000000000000120 .LVL19
     /tmp/ccAZgToR.s:212    .text:000000000000012c .LVL20
     /tmp/ccAZgToR.s:217    .text:0000000000000138 .LVL21
     /tmp/ccAZgToR.s:222    .text:0000000000000144 .LVL22
     /tmp/ccAZgToR.s:227    .text:0000000000000150 .LVL23
     /tmp/ccAZgToR.s:232    .text:000000000000015c .LVL24
     /tmp/ccAZgToR.s:237    .text:0000000000000168 .LVL25
     /tmp/ccAZgToR.s:242    .text:0000000000000174 .LVL26
     /tmp/ccAZgToR.s:102    .text:0000000000000074 .LFB7
     /tmp/ccAZgToR.s:160    .text:00000000000000cc .LFE7
     /tmp/ccAZgToR.s:2927   .debug_loc:0000000000000095 .LLST1
     /tmp/ccAZgToR.s:2941   .debug_loc:00000000000000ce .LLST2
     /tmp/ccAZgToR.s:148    .text:00000000000000bc .LVL11
     /tmp/ccAZgToR.s:3121   .debug_str:00000000000003eb .LASF139
     /tmp/ccAZgToR.s:74     .text:0000000000000074 .LFE5
     /tmp/ccAZgToR.s:2948   .debug_loc:00000000000000f1 .LLST0
     /tmp/ccAZgToR.s:34     .text:0000000000000024 .LVL1
GAS LISTING /tmp/ccAZgToR.s 			page 17


     /tmp/ccAZgToR.s:39     .text:0000000000000030 .LVL2
     /tmp/ccAZgToR.s:43     .text:000000000000003c .LVL3
     /tmp/ccAZgToR.s:51     .text:0000000000000050 .LVL4
     /tmp/ccAZgToR.s:55     .text:000000000000005c .LVL5
     /tmp/ccAZgToR.s:2987   .debug_str:0000000000000025 .LASF119
     /tmp/ccAZgToR.s:3071   .debug_str:00000000000002b3 .LASF121
     /tmp/ccAZgToR.s:3069   .debug_str:00000000000002aa .LASF120
     /tmp/ccAZgToR.s:3201   .debug_str:000000000000062c .LASF122
     /tmp/ccAZgToR.s:3177   .debug_str:0000000000000591 .LASF123
     /tmp/ccAZgToR.s:3105   .debug_str:0000000000000396 .LASF124
     /tmp/ccAZgToR.s:3077   .debug_str:00000000000002d5 .LASF140
     /tmp/ccAZgToR.s:3037   .debug_str:00000000000001ba .LASF141
     /tmp/ccAZgToR.s:262    .text:0000000000000184 .LVL27
     /tmp/ccAZgToR.s:279    .text:00000000000001a4 .LVL28
     /tmp/ccAZgToR.s:334    .text:0000000000000230 .LVL39
     /tmp/ccAZgToR.s:343    .text:000000000000023c .LVL41
     /tmp/ccAZgToR.s:169    .text:00000000000000cc .LVL12
     /tmp/ccAZgToR.s:181    .text:00000000000000e0 .LVL13
     /tmp/ccAZgToR.s:105    .text:0000000000000074 .LVL7
     /tmp/ccAZgToR.s:127    .text:0000000000000094 .LVL8
     /tmp/ccAZgToR.s:143    .text:00000000000000a4 .LVL10
     /tmp/ccAZgToR.s:16     .text:0000000000000000 .LVL0
     /tmp/ccAZgToR.s:67     .text:0000000000000068 .LVL6
     /tmp/ccAZgToR.s:396    .debug_info:0000000000000000 .Ldebug_info0
     /tmp/ccAZgToR.s:77     .gcc_except_table:0000000000000000 .LLSDA5

UNDEFINED SYMBOLS
_ZN11HeapManagerC1Ev
_ZN9SchedulerC1Ev
_ZN5TimerC1Ev
_ZN11HeapManagerD1Ev
_Unwind_Resume
__gxx_personality_v0
trap
HEAP_END_ADDR
HEAP_START_ADDR
_ZN11HeapManager4initEmm
_Z4putcc
_Z15thread_dispatchv
_Z13thread_createPP7_threadPFvPvES2_
_ZN9Scheduler3getEv
_ZN7_thread13currentThreadE
_Z8usermainPv
_ZN9Scheduler7isEmptyEv
