GAS LISTING /tmp/ccx4Zq6Q.s 			page 1


   1              		.file	"main.cpp"
   2              		.option nopic
   3              		.option norelax
   4              		.attribute arch, "rv64i2p0_m2p0_a2p0"
   5              		.attribute unaligned_access, 0
   6              		.attribute stack_align, 16
   7              		.text
   8              	.Ltext0:
   9              		.align	2
  10              		.globl	main
  12              	main:
  13              	.LFB9:
  14              		.file 1 "src/main.cpp"
   1:src/main.cpp  **** //
   2:src/main.cpp  **** // Created by os on 8/6/22.
   3:src/main.cpp  **** //
   4:src/main.cpp  **** #include "../h/syscall_c.h"
   5:src/main.cpp  **** #include "../lib/console.h"
   6:src/main.cpp  **** #include "../h/riscv.hpp"
   7:src/main.cpp  **** #include "../h/userMain.hpp"
   8:src/main.cpp  **** #include "../h/tcb.hpp"
   9:src/main.cpp  **** #include "../h/MemAllocator.h"
  10:src/main.cpp  **** 
  11:src/main.cpp  **** // #include "../h/printing.hpp"
  12:src/main.cpp  **** 
  13:src/main.cpp  **** 
  14:src/main.cpp  **** 
  15:src/main.cpp  **** 
  16:src/main.cpp  **** 
  17:src/main.cpp  **** void main() {
  15              		.loc 1 17 13
  16              		.cfi_startproc
  17 0000 130101FE 		addi	sp,sp,-32
  18              		.cfi_def_cfa_offset 32
  19 0004 233C1100 		sd	ra,24(sp)
  20 0008 23388100 		sd	s0,16(sp)
  21              		.cfi_offset 1, -8
  22              		.cfi_offset 8, -16
  23 000c 13040102 		addi	s0,sp,32
  24              		.cfi_def_cfa 8, 0
  18:src/main.cpp  ****     __asm__ volatile ("csrw stvec, %[vector]" : : [vector] "r"(&supervisorTrap));
  25              		.loc 1 18 5
  26 0010 97070000 		lla	a5,supervisorTrap
  26      93870700 
  27              	 #APP
  28              	# 18 "src/main.cpp" 1
  19              	    TCB* nit;
  29              		csrw stvec, a5
  30              	# 0 "" 2
  31              		.loc 1 19 5
  20:src/main.cpp  ****     thread_create(&nit, nullptr, nullptr);
  32              		.loc 1 20 5
  33              		.loc 1 20 18 is_stmt 0
  34              	 #NO_APP
  35 001c 13060000 		li	a2,0
  36 0020 93050000 		li	a1,0
  37 0024 130584FE 		addi	a0,s0,-24
GAS LISTING /tmp/ccx4Zq6Q.s 			page 2


  38 0028 97000000 		call	_Z13thread_createPP3TCBPFvPvES2_
  38      E7800000 
  39              	.LVL0:
  21:src/main.cpp  ****     TCB::running=nit;
  40              		.loc 1 21 5 is_stmt 1
  41              		.loc 1 21 17 is_stmt 0
  42 0030 833784FE 		ld	a5,-24(s0)
  43 0034 17070000 		sd	a5,_ZN3TCB7runningE,a4
  43      2330F700 
  22:src/main.cpp  ****     changeUser();
  44              		.loc 1 22 5 is_stmt 1
  45              		.loc 1 22 15 is_stmt 0
  46 003c 97000000 		call	_Z10changeUserv
  46      E7800000 
  47              	.LVL1:
  23:src/main.cpp  ****     userMain();
  48              		.loc 1 23 5 is_stmt 1
  49              		.loc 1 23 13 is_stmt 0
  50 0044 97000000 		call	_Z8userMainv
  50      E7800000 
  51              	.LVL2:
  52 004c 6F00C000 		j	.L3
  53              	.L5:
  24:src/main.cpp  ****     while(Scheduler::get())thread_dispatch();
  54              		.loc 1 24 28 is_stmt 1 discriminator 2
  55              		.loc 1 24 43 is_stmt 0 discriminator 2
  56 0050 97000000 		call	_Z15thread_dispatchv
  56      E7800000 
  57              	.LVL3:
  58              	.L3:
  59              		.loc 1 24 5 is_stmt 1
  60              		.loc 1 24 25
  61 0058 97000000 		call	_ZN9Scheduler3getEv
  61      E7800000 
  62              	.LVL4:
  63 0060 E31805FE 		bne	a0,zero,.L5
  25:src/main.cpp  **** 
  26:src/main.cpp  ****     MemAlloc::getInstance().mem_free(nit);
  64              		.loc 1 26 5
  65              		.loc 1 26 27 is_stmt 0
  66 0064 97000000 		call	_ZN8MemAlloc11getInstanceEv
  66      E7800000 
  67              	.LVL5:
  68              		.loc 1 26 37
  69 006c 833584FE 		ld	a1,-24(s0)
  70 0070 97000000 		call	_ZN8MemAlloc8mem_freeEPv
  70      E7800000 
  71              	.LVL6:
  27:src/main.cpp  **** 
  28:src/main.cpp  **** 
  29:src/main.cpp  **** }
  72              		.loc 1 29 1
  73 0078 83308101 		ld	ra,24(sp)
  74              		.cfi_restore 1
  75 007c 03340101 		ld	s0,16(sp)
  76              		.cfi_restore 8
  77              		.cfi_def_cfa 2, 32
GAS LISTING /tmp/ccx4Zq6Q.s 			page 3


  78 0080 13010102 		addi	sp,sp,32
  79              		.cfi_def_cfa_offset 0
  80 0084 67800000 		jr	ra
  81              		.cfi_endproc
  82              	.LFE9:
  84              	.Letext0:
  85              		.file 2 "src/../h/../lib/hw.h"
  86              		.file 3 "src/../h/tcb.hpp"
  87              		.file 4 "src/../h/scheduler.hpp"
  88              		.file 5 "src/../h/MemAllocator.h"
  89              		.file 6 "src/../h/syscall_c.h"
  90              		.file 7 "src/../h/userMain.hpp"
GAS LISTING /tmp/ccx4Zq6Q.s 			page 4

