GAS LISTING /tmp/ccP52cPb.s 			page 1


   1              		.file	"main.cpp"
   2              		.option pic
   3              		.option norelax
   4              		.text
   5              	.Ltext0:
   6              		.section	.rodata.str1.8,"aMS",@progbits,1
   7              		.align	3
   8              	.LC0:
   9 0000 766F6964 		.string	"void main()"
   9      206D6169 
   9      6E282900 
  10 000c 00000000 		.align	3
  11              	.LC1:
  12 0010 7372632F 		.string	"src/main.cpp"
  12      6D61696E 
  12      2E637070 
  12      00
  13 001d 000000   		.align	3
  14              	.LC2:
  15 0020 65786974 		.string	"exitCode == Kernel::EXIT_SUCCESS"
  15      436F6465 
  15      203D3D20 
  15      4B65726E 
  15      656C3A3A 
  16              		.text
  17              		.align	2
  18              		.globl	main
  20              	main:
  21              	.LFB4:
  22              		.file 1 "src/main.cpp"
   1:src/main.cpp  **** /**
   2:src/main.cpp  ****  * @file main.cpp
   3:src/main.cpp  ****  * @author stcksmsh (vukicevickosta@gmail.com)
   4:src/main.cpp  ****  * @brief initialisation of the kernel
   5:src/main.cpp  ****  * @version 0.1
   6:src/main.cpp  ****  * @date 2023-12-31
   7:src/main.cpp  ****  * 
   8:src/main.cpp  ****  * @copyright Copyright (c) 2023
   9:src/main.cpp  ****  * 
  10:src/main.cpp  ****  */
  11:src/main.cpp  **** 
  12:src/main.cpp  **** #include "kernel.h"
  13:src/main.cpp  **** #include "assert.h"
  14:src/main.cpp  **** 
  15:src/main.cpp  **** /// @brief first function to be called
  16:src/main.cpp  **** void main(){
  23              		.loc 1 16 12
  24              		.cfi_startproc
  25              		.cfi_personality 0x9b,DW.ref.__gxx_personality_v0
  26              		.cfi_lsda 0x1b,.LLSDA4
  27 0000 130101FB 		addi	sp,sp,-80
  28              		.cfi_def_cfa_offset 80
  29 0004 23341104 		sd	ra,72(sp)
  30 0008 23308104 		sd	s0,64(sp)
  31 000c 233C9102 		sd	s1,56(sp)
  32              		.cfi_offset 1, -8
  33              		.cfi_offset 8, -16
GAS LISTING /tmp/ccP52cPb.s 			page 2


  34              		.cfi_offset 9, -24
  35 0010 13040105 		addi	s0,sp,80
  36              		.cfi_def_cfa 8, 0
  17:src/main.cpp  ****     Kernel kernel = Kernel();
  37              		.loc 1 17 5
  38              		.loc 1 17 28 is_stmt 0
  39 0014 930484FB 		addi	s1,s0,-72
  40 0018 13850400 		mv	a0,s1
  41              	.LEHB0:
  42 001c 97000000 		call	_ZN6KernelC1Ev@plt
  42      E7800000 
  43              	.LVL0:
  44              	.LEHE0:
  18:src/main.cpp  ****     kernel.initialise();
  45              		.loc 1 18 5 is_stmt 1
  46              		.loc 1 18 22 is_stmt 0
  47 0024 13850400 		mv	a0,s1
  48              	.LEHB1:
  49 0028 97000000 		call	_ZN6Kernel10initialiseEv@plt
  49      E7800000 
  50              	.LVL1:
  19:src/main.cpp  ****     Kernel::EXIT_CODE exitCode = kernel.run();
  51              		.loc 1 19 5 is_stmt 1
  52              		.loc 1 19 44 is_stmt 0
  53 0030 13850400 		mv	a0,s1
  54 0034 97000000 		call	_ZN6Kernel3runEv@plt
  54      E7800000 
  55              	.LVL2:
  20:src/main.cpp  ****     assert(exitCode == Kernel::EXIT_SUCCESS);
  56              		.loc 1 20 5 is_stmt 1
  57 003c 63180502 		bnez	a0,.L7
  58              	.LVL3:
  59              	.L2:
  60              		.loc 1 20 45 discriminator 2
  61              	.LBB8:
  62              	.LBB9:
  63              		.file 2 "./h/kernel.h"
   1:./h/kernel.h  **** /**
   2:./h/kernel.h  ****  * @file kernel.h
   3:./h/kernel.h  ****  * @author stcksmsh (vukicevickosta@gmail.com)
   4:./h/kernel.h  ****  * @brief the kernel class
   5:./h/kernel.h  ****  * @version 0.1
   6:./h/kernel.h  ****  * @date 2023-12-31
   7:./h/kernel.h  ****  * 
   8:./h/kernel.h  ****  * @copyright Copyright (c) 2023
   9:./h/kernel.h  ****  * 
  10:./h/kernel.h  ****  */
  11:./h/kernel.h  **** #ifndef KERNEL_H
  12:./h/kernel.h  **** #define KERNEL_H
  13:./h/kernel.h  **** 
  14:./h/kernel.h  **** #include "types.h"
  15:./h/kernel.h  **** #include "attributes.h"
  16:./h/kernel.h  **** #include "heapManager.h"
  17:./h/kernel.h  **** #include "sched.h"
  18:./h/kernel.h  **** #include "timer.h"
  19:./h/kernel.h  **** 
  20:./h/kernel.h  **** class Kernel{
GAS LISTING /tmp/ccP52cPb.s 			page 3


  21:./h/kernel.h  ****     public:
  22:./h/kernel.h  ****         /// @brief constructor
  23:./h/kernel.h  ****         Kernel(); /// empty constructor
  24:./h/kernel.h  ****         /// @brief destructor
  25:./h/kernel.h  ****         ~Kernel(){};
  64              		.loc 2 25 18 is_stmt 0 discriminator 2
  65 0040 130504FD 		addi	a0,s0,-48
  66 0044 97000000 		call	_ZN5TimerD1Ev@plt
  66      E7800000 
  67              	.LVL4:
  68 004c 130584FB 		addi	a0,s0,-72
  69 0050 97000000 		call	_ZN11HeapManagerD1Ev@plt
  69      E7800000 
  70              	.LVL5:
  71              	.LBE9:
  72              	.LBE8:
  21:src/main.cpp  **** }...
  73              		.loc 1 21 1 discriminator 2
  74 0058 83308104 		ld	ra,72(sp)
  75              		.cfi_remember_state
  76              		.cfi_restore 1
  77 005c 03340104 		ld	s0,64(sp)
  78              		.cfi_restore 8
  79              		.cfi_def_cfa 2, 80
  80 0060 83348103 		ld	s1,56(sp)
  81              		.cfi_restore 9
  82 0064 13010105 		addi	sp,sp,80
  83              		.cfi_def_cfa_offset 0
  84 0068 67800000 		jr	ra
  85              	.LVL6:
  86              	.L7:
  87              		.cfi_restore_state
  20:src/main.cpp  ****     assert(exitCode == Kernel::EXIT_SUCCESS);
  88              		.loc 1 20 5 is_stmt 1 discriminator 1
  89 006c 97060000 		lla	a3,.LC0
  89      93860600 
  90 0074 13064001 		li	a2,20
  91 0078 97050000 		lla	a1,.LC1
  91      93850500 
  92 0080 17050000 		lla	a0,.LC2
  92      13050500 
  93              	.LVL7:
  94 0088 97000000 		call	_Z13assert_failedPKcS0_jS0_@plt
  94      E7800000 
  95              	.LVL8:
  96              	.LEHE1:
  97 0090 6FF01FFB 		j	.L2
  98              	.L4:
  99 0094 93040500 		mv	s1,a0
 100              	.LVL9:
 101              	.LBB10:
 102              	.LBB11:
 103              		.loc 2 25 18 is_stmt 0
 104 0098 130504FD 		addi	a0,s0,-48
 105 009c 97000000 		call	_ZN5TimerD1Ev@plt
 105      E7800000 
 106              	.LVL10:
GAS LISTING /tmp/ccP52cPb.s 			page 4


 107 00a4 130584FB 		addi	a0,s0,-72
 108              	.LVL11:
 109 00a8 97000000 		call	_ZN11HeapManagerD1Ev@plt
 109      E7800000 
 110              	.LVL12:
 111 00b0 13850400 		mv	a0,s1
 112              	.LEHB2:
 113 00b4 97000000 		call	_Unwind_Resume@plt
 113      E7800000 
 114              	.LVL13:
 115              	.LEHE2:
 116              	.LBE11:
 117              	.LBE10:
 118              		.cfi_endproc
 119              	.LFE4:
 120              		.globl	__gxx_personality_v0
 121              		.section	.gcc_except_table,"a",@progbits
 122              	.LLSDA4:
 123 0000 FF       		.byte	0xff
 124 0001 FF       		.byte	0xff
 125 0002 03       		.byte	0x3
 126 0003 27       		.byte	0x27
 127 0004 00000000 		.4byte	.LEHB0-.LFB4
 128 0008 00000000 		.4byte	.LEHE0-.LEHB0
 129 000c 00000000 		.4byte	0
 130 0010 00       		.byte	0
 131 0011 00000000 		.4byte	.LEHB1-.LFB4
 132 0015 00000000 		.4byte	.LEHE1-.LEHB1
 133 0019 00000000 		.4byte	.L4-.LFB4
 134 001d 00       		.byte	0
 135 001e 00000000 		.4byte	.LEHB2-.LFB4
 136 0022 00000000 		.4byte	.LEHE2-.LEHB2
 137 0026 00000000 		.4byte	0
 138 002a 00       		.byte	0
 139              		.text
 141              	.Letext0:
 142              		.file 3 "./lib/hw.h"
 143              		.file 4 "./h/types.h"
 144              		.file 5 "./h/heapManager.h"
 145              		.file 6 "./h/sched.h"
 146              		.file 7 "./h/thread.h"
 147              		.file 8 "./h/timer.h"
 148              		.file 9 "./h/assert.h"
 2639              		.align	3
 2642              	DW.ref.__gxx_personality_v0:
 2643 0000 00000000 		.dword	__gxx_personality_v0
 2643      00000000 
 2644              		.ident	"GCC: (Ubuntu 9.4.0-1ubuntu1~20.04) 9.4.0"
 2645              		.section	.note.GNU-stack,"",@progbits
GAS LISTING /tmp/ccP52cPb.s 			page 5


DEFINED SYMBOLS
                            *ABS*:0000000000000000 main.cpp
     /tmp/ccP52cPb.s:20     .text:0000000000000000 main
     /tmp/ccP52cPb.s:24     .text:0000000000000000 .L0 
     /tmp/ccP52cPb.s:2642   .data.rel.local.DW.ref.__gxx_personality_v0:0000000000000000 DW.ref.__gxx_personality_v0
     /tmp/ccP52cPb.s:27     .text:0000000000000000 .L0 
     /tmp/ccP52cPb.s:28     .text:0000000000000004 .L0 
     /tmp/ccP52cPb.s:32     .text:0000000000000010 .L0 
     /tmp/ccP52cPb.s:33     .text:0000000000000010 .L0 
     /tmp/ccP52cPb.s:34     .text:0000000000000010 .L0 
     /tmp/ccP52cPb.s:36     .text:0000000000000014 .L0 
     /tmp/ccP52cPb.s:38     .text:0000000000000014 .L0 
     /tmp/ccP52cPb.s:39     .text:0000000000000014 .L0 
     /tmp/ccP52cPb.s:46     .text:0000000000000024 .L0 
     /tmp/ccP52cPb.s:47     .text:0000000000000024 .L0 
     /tmp/ccP52cPb.s:52     .text:0000000000000030 .L0 
     /tmp/ccP52cPb.s:53     .text:0000000000000030 .L0 
     /tmp/ccP52cPb.s:57     .text:000000000000003c .L0 
     /tmp/ccP52cPb.s:64     .text:0000000000000040 .L0 
     /tmp/ccP52cPb.s:65     .text:0000000000000040 .L0 
     /tmp/ccP52cPb.s:74     .text:0000000000000058 .L0 
     /tmp/ccP52cPb.s:75     .text:000000000000005c .L0 
     /tmp/ccP52cPb.s:76     .text:000000000000005c .L0 
     /tmp/ccP52cPb.s:78     .text:0000000000000060 .L0 
     /tmp/ccP52cPb.s:79     .text:0000000000000060 .L0 
     /tmp/ccP52cPb.s:81     .text:0000000000000064 .L0 
     /tmp/ccP52cPb.s:83     .text:0000000000000068 .L0 
     /tmp/ccP52cPb.s:87     .text:000000000000006c .L0 
     /tmp/ccP52cPb.s:89     .text:000000000000006c .L0 
     /tmp/ccP52cPb.s:104    .text:0000000000000098 .L0 
     /tmp/ccP52cPb.s:118    .text:00000000000000bc .L0 
     /tmp/ccP52cPb.s:149    .text:00000000000000bc .L0 
     /tmp/ccP52cPb.s:8      .rodata.str1.8:0000000000000000 .LC0
     /tmp/ccP52cPb.s:89     .text:000000000000006c .L0 
     /tmp/ccP52cPb.s:11     .rodata.str1.8:0000000000000010 .LC1
     /tmp/ccP52cPb.s:91     .text:0000000000000078 .L0 
     /tmp/ccP52cPb.s:14     .rodata.str1.8:0000000000000020 .LC2
     /tmp/ccP52cPb.s:92     .text:0000000000000080 .L0 
     /tmp/ccP52cPb.s:86     .text:000000000000006c .L7
     /tmp/ccP52cPb.s:59     .text:0000000000000040 .L2
     /tmp/ccP52cPb.s:41     .text:000000000000001c .LEHB0
     /tmp/ccP52cPb.s:21     .text:0000000000000000 .LFB4
     /tmp/ccP52cPb.s:44     .text:0000000000000024 .LEHE0
     /tmp/ccP52cPb.s:48     .text:0000000000000028 .LEHB1
     /tmp/ccP52cPb.s:96     .text:0000000000000090 .LEHE1
     /tmp/ccP52cPb.s:98     .text:0000000000000094 .L4
     /tmp/ccP52cPb.s:112    .text:00000000000000b4 .LEHB2
     /tmp/ccP52cPb.s:115    .text:00000000000000bc .LEHE2
     /tmp/ccP52cPb.s:1455   .debug_abbrev:0000000000000000 .Ldebug_abbrev0
     /tmp/ccP52cPb.s:2590   .debug_str:0000000000000670 .LASF119
     /tmp/ccP52cPb.s:2474   .debug_str:0000000000000350 .LASF120
     /tmp/ccP52cPb.s:2520   .debug_str:0000000000000481 .LASF121
     /tmp/ccP52cPb.s:5      .text:0000000000000000 .Ltext0
     /tmp/ccP52cPb.s:141    .text:00000000000000bc .Letext0
     /tmp/ccP52cPb.s:2356   .debug_line:0000000000000000 .Ldebug_line0
     /tmp/ccP52cPb.s:2506   .debug_str:000000000000042f .LASF0
     /tmp/ccP52cPb.s:2526   .debug_str:00000000000004df .LASF1
GAS LISTING /tmp/ccP52cPb.s 			page 6


     /tmp/ccP52cPb.s:2490   .debug_str:00000000000003ad .LASF2
     /tmp/ccP52cPb.s:2566   .debug_str:00000000000005ce .LASF3
     /tmp/ccP52cPb.s:2454   .debug_str:00000000000002c8 .LASF4
     /tmp/ccP52cPb.s:2572   .debug_str:00000000000005ec .LASF5
     /tmp/ccP52cPb.s:2388   .debug_str:0000000000000103 .LASF6
     /tmp/ccP52cPb.s:2416   .debug_str:00000000000001da .LASF7
     /tmp/ccP52cPb.s:2532   .debug_str:0000000000000503 .LASF8
     /tmp/ccP52cPb.s:2504   .debug_str:000000000000041c .LASF9
     /tmp/ccP52cPb.s:2604   .debug_str:000000000000079a .LASF10
     /tmp/ccP52cPb.s:2438   .debug_str:0000000000000277 .LASF11
     /tmp/ccP52cPb.s:2546   .debug_str:000000000000054d .LASF12
     /tmp/ccP52cPb.s:2594   .debug_str:0000000000000740 .LASF13
     /tmp/ccP52cPb.s:2390   .debug_str:000000000000010a .LASF14
     /tmp/ccP52cPb.s:2362   .debug_str:0000000000000015 .LASF15
     /tmp/ccP52cPb.s:2402   .debug_str:000000000000015c .LASF16
     /tmp/ccP52cPb.s:2564   .debug_str:00000000000005b8 .LASF17
     /tmp/ccP52cPb.s:2410   .debug_str:000000000000019f .LASF18
     /tmp/ccP52cPb.s:2424   .debug_str:000000000000021b .LASF19
     /tmp/ccP52cPb.s:2508   .debug_str:000000000000043c .LASF24
     /tmp/ccP52cPb.s:2366   .debug_str:000000000000004a .LASF39
     /tmp/ccP52cPb.s:2440   .debug_str:0000000000000285 .LASF20
     /tmp/ccP52cPb.s:2430   .debug_str:000000000000024d .LASF21
     /tmp/ccP52cPb.s:2622   .debug_str:000000000000080c .LASF22
     /tmp/ccP52cPb.s:2602   .debug_str:0000000000000791 .LASF23
     /tmp/ccP52cPb.s:2436   .debug_str:0000000000000262 .LASF26
     /tmp/ccP52cPb.s:2358   .debug_str:0000000000000000 .LASF25
     /tmp/ccP52cPb.s:2518   .debug_str:000000000000046c .LASF27
     /tmp/ccP52cPb.s:2536   .debug_str:000000000000051d .LASF28
     /tmp/ccP52cPb.s:2476   .debug_str:000000000000035d .LASF29
     /tmp/ccP52cPb.s:2496   .debug_str:00000000000003e6 .LASF30
     /tmp/ccP52cPb.s:2492   .debug_str:00000000000003bb .LASF32
     /tmp/ccP52cPb.s:2486   .debug_str:0000000000000399 .LASF31
     /tmp/ccP52cPb.s:2598   .debug_str:0000000000000768 .LASF33
     /tmp/ccP52cPb.s:2400   .debug_str:0000000000000153 .LASF34
     /tmp/ccP52cPb.s:2376   .debug_str:0000000000000091 .LASF35
     /tmp/ccP52cPb.s:2592   .debug_str:0000000000000734 .LASF48
     /tmp/ccP52cPb.s:2414   .debug_str:00000000000001ba .LASF50
     /tmp/ccP52cPb.s:2368   .debug_str:0000000000000060 .LASF36
     /tmp/ccP52cPb.s:2514   .debug_str:000000000000045c .LASF60
     /tmp/ccP52cPb.s:2470   .debug_str:0000000000000340 .LASF37
     /tmp/ccP52cPb.s:2452   .debug_str:00000000000002c0 .LASF38
     /tmp/ccP52cPb.s:2624   .debug_str:0000000000000812 .LASF40
     /tmp/ccP52cPb.s:2558   .debug_str:0000000000000596 .LASF41
     /tmp/ccP52cPb.s:2498   .debug_str:00000000000003f8 .LASF42
     /tmp/ccP52cPb.s:2534   .debug_str:0000000000000516 .LASF43
     /tmp/ccP52cPb.s:2630   .debug_str:0000000000000843 .LASF44
     /tmp/ccP52cPb.s:2628   .debug_str:000000000000083c .LASF45
     /tmp/ccP52cPb.s:2364   .debug_str:0000000000000025 .LASF46
     /tmp/ccP52cPb.s:2434   .debug_str:000000000000025d .LASF47
     /tmp/ccP52cPb.s:2480   .debug_str:000000000000037d .LASF49
     /tmp/ccP52cPb.s:2610   .debug_str:00000000000007c7 .LASF51
     /tmp/ccP52cPb.s:2510   .debug_str:0000000000000448 .LASF122
     /tmp/ccP52cPb.s:2584   .debug_str:0000000000000643 .LASF123
     /tmp/ccP52cPb.s:2574   .debug_str:00000000000005fe .LASF52
     /tmp/ccP52cPb.s:2466   .debug_str:000000000000030c .LASF53
     /tmp/ccP52cPb.s:2418   .debug_str:00000000000001e1 .LASF124
     /tmp/ccP52cPb.s:2458   .debug_str:00000000000002d8 .LASF54
GAS LISTING /tmp/ccP52cPb.s 			page 7


     /tmp/ccP52cPb.s:2634   .debug_str:000000000000084e .LASF55
     /tmp/ccP52cPb.s:2392   .debug_str:000000000000011a .LASF56
     /tmp/ccP52cPb.s:2378   .debug_str:00000000000000ae .LASF57
     /tmp/ccP52cPb.s:2426   .debug_str:0000000000000225 .LASF58
     /tmp/ccP52cPb.s:2626   .debug_str:0000000000000821 .LASF59
     /tmp/ccP52cPb.s:2606   .debug_str:00000000000007aa .LASF62
     /tmp/ccP52cPb.s:2580   .debug_str:0000000000000631 .LASF125
     /tmp/ccP52cPb.s:2554   .debug_str:0000000000000577 .LASF126
     /tmp/ccP52cPb.s:2464   .debug_str:0000000000000305 .LASF61
     /tmp/ccP52cPb.s:2460   .debug_str:00000000000002e3 .LASF63
     /tmp/ccP52cPb.s:2612   .debug_str:00000000000007da .LASF64
     /tmp/ccP52cPb.s:2588   .debug_str:0000000000000667 .LASF65
     /tmp/ccP52cPb.s:2552   .debug_str:000000000000056e .LASF66
     /tmp/ccP52cPb.s:2456   .debug_str:00000000000002cf .LASF67
     /tmp/ccP52cPb.s:2484   .debug_str:000000000000038e .LASF68
     /tmp/ccP52cPb.s:2488   .debug_str:00000000000003a6 .LASF69
     /tmp/ccP52cPb.s:2360   .debug_str:000000000000000d .LASF70
     /tmp/ccP52cPb.s:2548   .debug_str:000000000000055c .LASF71
     /tmp/ccP52cPb.s:2556   .debug_str:000000000000058d .LASF72
     /tmp/ccP52cPb.s:2516   .debug_str:0000000000000465 .LASF73
     /tmp/ccP52cPb.s:2448   .debug_str:00000000000002ad .LASF74
     /tmp/ccP52cPb.s:2538   .debug_str:0000000000000522 .LASF75
     /tmp/ccP52cPb.s:2472   .debug_str:0000000000000349 .LASF76
     /tmp/ccP52cPb.s:2406   .debug_str:0000000000000179 .LASF127
     /tmp/ccP52cPb.s:2522   .debug_str:000000000000049d .LASF128
     /tmp/ccP52cPb.s:2544   .debug_str:0000000000000543 .LASF77
     /tmp/ccP52cPb.s:2512   .debug_str:0000000000000451 .LASF78
     /tmp/ccP52cPb.s:2370   .debug_str:0000000000000068 .LASF79
     /tmp/ccP52cPb.s:2578   .debug_str:0000000000000615 .LASF129
     /tmp/ccP52cPb.s:2422   .debug_str:0000000000000207 .LASF130
     /tmp/ccP52cPb.s:2568   .debug_str:00000000000005d5 .LASF80
     /tmp/ccP52cPb.s:2420   .debug_str:00000000000001ef .LASF81
     /tmp/ccP52cPb.s:2386   .debug_str:00000000000000fa .LASF82
     /tmp/ccP52cPb.s:2380   .debug_str:00000000000000c6 .LASF83
     /tmp/ccP52cPb.s:2412   .debug_str:00000000000001b5 .LASF84
     /tmp/ccP52cPb.s:2494   .debug_str:00000000000003e1 .LASF85
     /tmp/ccP52cPb.s:2582   .debug_str:0000000000000639 .LASF86
     /tmp/ccP52cPb.s:2372   .debug_str:000000000000007a .LASF87
     /tmp/ccP52cPb.s:2542   .debug_str:0000000000000530 .LASF88
     /tmp/ccP52cPb.s:2560   .debug_str:000000000000059e .LASF89
     /tmp/ccP52cPb.s:2500   .debug_str:0000000000000407 .LASF90
     /tmp/ccP52cPb.s:2616   .debug_str:00000000000007e9 .LASF91
     /tmp/ccP52cPb.s:2632   .debug_str:0000000000000848 .LASF92
     /tmp/ccP52cPb.s:2374   .debug_str:000000000000007f .LASF93
     /tmp/ccP52cPb.s:2618   .debug_str:0000000000000802 .LASF94
     /tmp/ccP52cPb.s:2396   .debug_str:0000000000000138 .LASF95
     /tmp/ccP52cPb.s:2576   .debug_str:0000000000000603 .LASF96
     /tmp/ccP52cPb.s:2468   .debug_str:0000000000000321 .LASF97
     /tmp/ccP52cPb.s:2382   .debug_str:00000000000000df .LASF98
     /tmp/ccP52cPb.s:2614   .debug_str:00000000000007e2 .LASF99
     /tmp/ccP52cPb.s:2442   .debug_str:000000000000028b .LASF100
     /tmp/ccP52cPb.s:2462   .debug_str:00000000000002f8 .LASF101
     /tmp/ccP52cPb.s:2608   .debug_str:00000000000007c2 .LASF102
     /tmp/ccP52cPb.s:2478   .debug_str:0000000000000376 .LASF103
     /tmp/ccP52cPb.s:2398   .debug_str:0000000000000149 .LASF131
     /tmp/ccP52cPb.s:2384   .debug_str:00000000000000ed .LASF104
     /tmp/ccP52cPb.s:2586   .debug_str:000000000000065a .LASF105
GAS LISTING /tmp/ccP52cPb.s 			page 8


     /tmp/ccP52cPb.s:2562   .debug_str:00000000000005a9 .LASF106
     /tmp/ccP52cPb.s:2600   .debug_str:0000000000000789 .LASF107
     /tmp/ccP52cPb.s:2502   .debug_str:000000000000040d .LASF108
     /tmp/ccP52cPb.s:2404   .debug_str:0000000000000168 .LASF132
     /tmp/ccP52cPb.s:2528   .debug_str:00000000000004f2 .LASF109
     /tmp/ccP52cPb.s:2596   .debug_str:000000000000074f .LASF110
     /tmp/ccP52cPb.s:2482   .debug_str:0000000000000382 .LASF111
     /tmp/ccP52cPb.s:2432   .debug_str:0000000000000253 .LASF112
     /tmp/ccP52cPb.s:2530   .debug_str:00000000000004fd .LASF113
     /tmp/ccP52cPb.s:2540   .debug_str:000000000000052b .LASF114
     /tmp/ccP52cPb.s:119    .text:00000000000000bc .LFE4
     /tmp/ccP52cPb.s:2550   .debug_str:0000000000000565 .LASF115
     /tmp/ccP52cPb.s:2306   .debug_loc:0000000000000000 .LLST0
     /tmp/ccP52cPb.s:2394   .debug_str:0000000000000124 .LASF133
     /tmp/ccP52cPb.s:61     .text:0000000000000040 .LBB8
     /tmp/ccP52cPb.s:72     .text:0000000000000058 .LBE8
     /tmp/ccP52cPb.s:2317   .debug_loc:0000000000000036 .LLST1
     /tmp/ccP52cPb.s:67     .text:000000000000004c .LVL4
     /tmp/ccP52cPb.s:70     .text:0000000000000058 .LVL5
     /tmp/ccP52cPb.s:101    .text:0000000000000098 .LBB10
     /tmp/ccP52cPb.s:117    .text:00000000000000bc .LBE10
     /tmp/ccP52cPb.s:2324   .debug_loc:0000000000000059 .LLST2
     /tmp/ccP52cPb.s:106    .text:00000000000000a4 .LVL10
     /tmp/ccP52cPb.s:110    .text:00000000000000b0 .LVL12
     /tmp/ccP52cPb.s:43     .text:0000000000000024 .LVL0
     /tmp/ccP52cPb.s:50     .text:0000000000000030 .LVL1
     /tmp/ccP52cPb.s:55     .text:000000000000003c .LVL2
     /tmp/ccP52cPb.s:95     .text:0000000000000090 .LVL8
     /tmp/ccP52cPb.s:114    .text:00000000000000bc .LVL13
     /tmp/ccP52cPb.s:2444   .debug_str:0000000000000299 .LASF116
     /tmp/ccP52cPb.s:2620   .debug_str:0000000000000807 .LASF117
     /tmp/ccP52cPb.s:2450   .debug_str:00000000000002b6 .LASF118
     /tmp/ccP52cPb.s:2570   .debug_str:00000000000005dd .LASF134
     /tmp/ccP52cPb.s:2428   .debug_str:0000000000000231 .LASF135
     /tmp/ccP52cPb.s:2524   .debug_str:00000000000004d1 .LASF136
     /tmp/ccP52cPb.s:2446   .debug_str:000000000000029e .LASF137
     /tmp/ccP52cPb.s:2408   .debug_str:0000000000000187 .LASF138
     /tmp/ccP52cPb.s:58     .text:0000000000000040 .LVL3
     /tmp/ccP52cPb.s:85     .text:000000000000006c .LVL6
     /tmp/ccP52cPb.s:93     .text:0000000000000088 .LVL7
     /tmp/ccP52cPb.s:100    .text:0000000000000098 .LVL9
     /tmp/ccP52cPb.s:108    .text:00000000000000a8 .LVL11
     /tmp/ccP52cPb.s:150    .debug_info:0000000000000000 .Ldebug_info0
     /tmp/ccP52cPb.s:122    .gcc_except_table:0000000000000000 .LLSDA4

UNDEFINED SYMBOLS
_ZN6KernelC1Ev
_ZN6Kernel10initialiseEv
_ZN6Kernel3runEv
_ZN5TimerD1Ev
_ZN11HeapManagerD1Ev
_Z13assert_failedPKcS0_jS0_
_Unwind_Resume
__gxx_personality_v0
