GAS LISTING /tmp/ccTTstgH.s 			page 1


   1              		.file	"scheduler.cpp"
   2              		.option nopic
   3              		.option norelax
   4              		.attribute arch, "rv64i2p0_m2p0_a2p0"
   5              		.attribute unaligned_access, 0
   6              		.attribute stack_align, 16
   7              		.text
   8              	.Ltext0:
   9              		.align	2
  10              		.globl	_ZN9Scheduler3getEv
  12              	_ZN9Scheduler3getEv:
  13              	.LFB0:
  14              		.file 1 "src/scheduler.cpp"
   1:src/scheduler.cpp **** //
   2:src/scheduler.cpp **** // Created by marko on 20.4.22..
   3:src/scheduler.cpp **** //
   4:src/scheduler.cpp **** 
   5:src/scheduler.cpp **** #include "../h/scheduler.hpp"
   6:src/scheduler.cpp **** #include "../h/MemAllocator.h"
   7:src/scheduler.cpp **** 
   8:src/scheduler.cpp **** Elem* Scheduler::head=nullptr;
   9:src/scheduler.cpp **** Elem* Scheduler::tail=nullptr;
  10:src/scheduler.cpp **** 
  11:src/scheduler.cpp **** TCB *Scheduler::get()
  12:src/scheduler.cpp **** {
  15              		.loc 1 12 1
  16              		.cfi_startproc
  17 0000 130101FE 		addi	sp,sp,-32
  18              		.cfi_def_cfa_offset 32
  19 0004 233C1100 		sd	ra,24(sp)
  20 0008 23388100 		sd	s0,16(sp)
  21 000c 23349100 		sd	s1,8(sp)
  22 0010 23302101 		sd	s2,0(sp)
  23              		.cfi_offset 1, -8
  24              		.cfi_offset 8, -16
  25              		.cfi_offset 9, -24
  26              		.cfi_offset 18, -32
  27 0014 13040102 		addi	s0,sp,32
  28              		.cfi_def_cfa 8, 0
  13:src/scheduler.cpp ****     if (!head) { return 0; }
  29              		.loc 1 13 5
  30              		.loc 1 13 9 is_stmt 0
  31 0018 97040000 		ld	s1,_ZN9Scheduler4headE
  31      83B40400 
  32              		.loc 1 13 5
  33 0020 638A0404 		beq	s1,zero,.L4
  14:src/scheduler.cpp **** 
  15:src/scheduler.cpp ****     Elem *elem = head;
  34              		.loc 1 15 5 is_stmt 1
  35              	.LVL0:
  16:src/scheduler.cpp ****     head = head->next;
  36              		.loc 1 16 5
  37              		.loc 1 16 18 is_stmt 0
  38 0024 83B78400 		ld	a5,8(s1)
  39              		.loc 1 16 10
  40 0028 17070000 		sd	a5,_ZN9Scheduler4headE,a4
  40      2330F700 
GAS LISTING /tmp/ccTTstgH.s 			page 2


  17:src/scheduler.cpp ****     if (!head) { tail = 0; }
  41              		.loc 1 17 5 is_stmt 1
  42 0030 638C0702 		beq	a5,zero,.L6
  43              	.L3:
  18:src/scheduler.cpp **** 
  19:src/scheduler.cpp ****     TCB *ret = elem->data;
  44              		.loc 1 19 5
  45              		.loc 1 19 10 is_stmt 0
  46 0034 03B90400 		ld	s2,0(s1)
  47              	.LVL1:
  20:src/scheduler.cpp ****     MemAlloc::getInstance().mem_free(elem);
  48              		.loc 1 20 5 is_stmt 1
  49              		.loc 1 20 27 is_stmt 0
  50 0038 97000000 		call	_ZN8MemAlloc11getInstanceEv
  50      E7800000 
  51              	.LVL2:
  52              		.loc 1 20 37
  53 0040 93850400 		mv	a1,s1
  54 0044 97000000 		call	_ZN8MemAlloc8mem_freeEPv
  54      E7800000 
  55              	.LVL3:
  21:src/scheduler.cpp ****     return ret;
  56              		.loc 1 21 5 is_stmt 1
  57              	.L1:
  22:src/scheduler.cpp **** }
  58              		.loc 1 22 1 is_stmt 0
  59 004c 13050900 		mv	a0,s2
  60 0050 83308101 		ld	ra,24(sp)
  61              		.cfi_remember_state
  62              		.cfi_restore 1
  63 0054 03340101 		ld	s0,16(sp)
  64              		.cfi_restore 8
  65              		.cfi_def_cfa 2, 32
  66 0058 83348100 		ld	s1,8(sp)
  67              		.cfi_restore 9
  68 005c 03390100 		ld	s2,0(sp)
  69              		.cfi_restore 18
  70 0060 13010102 		addi	sp,sp,32
  71              		.cfi_def_cfa_offset 0
  72 0064 67800000 		jr	ra
  73              	.LVL4:
  74              	.L6:
  75              		.cfi_restore_state
  17:src/scheduler.cpp **** 
  76              		.loc 1 17 18 is_stmt 1 discriminator 1
  17:src/scheduler.cpp **** 
  77              		.loc 1 17 23 is_stmt 0 discriminator 1
  78 0068 97070000 		sd	zero,_ZN9Scheduler4tailE,a5
  78      23B00700 
  79 0070 6FF05FFC 		j	.L3
  80              	.LVL5:
  81              	.L4:
  13:src/scheduler.cpp **** 
  82              		.loc 1 13 25
  83 0074 13890400 		mv	s2,s1
  84 0078 6FF05FFD 		j	.L1
  85              		.cfi_endproc
GAS LISTING /tmp/ccTTstgH.s 			page 3


  86              	.LFE0:
  88              		.align	2
  89              		.globl	_ZN9Scheduler3putEP3TCB
  91              	_ZN9Scheduler3putEP3TCB:
  92              	.LFB1:
  23:src/scheduler.cpp **** 
  24:src/scheduler.cpp **** void Scheduler::put(TCB *ccb)
  25:src/scheduler.cpp **** {
  93              		.loc 1 25 1 is_stmt 1
  94              		.cfi_startproc
  95              	.LVL6:
  96 007c 130101FE 		addi	sp,sp,-32
  97              		.cfi_def_cfa_offset 32
  98 0080 233C1100 		sd	ra,24(sp)
  99 0084 23388100 		sd	s0,16(sp)
 100 0088 23349100 		sd	s1,8(sp)
 101              		.cfi_offset 1, -8
 102              		.cfi_offset 8, -16
 103              		.cfi_offset 9, -24
 104 008c 13040102 		addi	s0,sp,32
 105              		.cfi_def_cfa 8, 0
 106 0090 93040500 		mv	s1,a0
  26:src/scheduler.cpp ****     Elem *elem = (Elem*)MemAlloc::getInstance().mem_alloc((sizeof(Elem)+MEM_BLOCK_SIZE-1)/MEM_BLOCK
 107              		.loc 1 26 5
 108              		.loc 1 26 47 is_stmt 0
 109 0094 97000000 		call	_ZN8MemAlloc11getInstanceEv
 109      E7800000 
 110              	.LVL7:
 111              		.loc 1 26 58
 112 009c 93051000 		li	a1,1
 113 00a0 97000000 		call	_ZN8MemAlloc9mem_allocEm
 113      E7800000 
 114              	.LVL8:
  27:src/scheduler.cpp ****     elem->data=ccb;
 115              		.loc 1 27 5 is_stmt 1
 116              		.loc 1 27 15 is_stmt 0
 117 00a8 23309500 		sd	s1,0(a0)
  28:src/scheduler.cpp ****     elem->next=0;
 118              		.loc 1 28 5 is_stmt 1
 119              		.loc 1 28 15 is_stmt 0
 120 00ac 23340500 		sd	zero,8(a0)
  29:src/scheduler.cpp ****     if (tail!=nullptr)
 121              		.loc 1 29 5 is_stmt 1
 122              		.loc 1 29 13 is_stmt 0
 123 00b0 97070000 		ld	a5,_ZN9Scheduler4tailE
 123      83B70700 
 124              		.loc 1 29 5
 125 00b8 63820702 		beq	a5,zero,.L8
  30:src/scheduler.cpp ****     {
  31:src/scheduler.cpp ****         tail->next = elem;
 126              		.loc 1 31 9 is_stmt 1
 127              		.loc 1 31 20 is_stmt 0
 128 00bc 23B4A700 		sd	a0,8(a5)
  32:src/scheduler.cpp ****         tail = elem;
 129              		.loc 1 32 9 is_stmt 1
 130              		.loc 1 32 14 is_stmt 0
 131 00c0 97070000 		sd	a0,_ZN9Scheduler4tailE,a5
GAS LISTING /tmp/ccTTstgH.s 			page 4


 131      23B0A700 
 132              	.L7:
  33:src/scheduler.cpp ****     } else
  34:src/scheduler.cpp ****     {
  35:src/scheduler.cpp ****         head = tail = elem;
  36:src/scheduler.cpp ****     }
  37:src/scheduler.cpp **** }
 133              		.loc 1 37 1
 134 00c8 83308101 		ld	ra,24(sp)
 135              		.cfi_remember_state
 136              		.cfi_restore 1
 137 00cc 03340101 		ld	s0,16(sp)
 138              		.cfi_restore 8
 139              		.cfi_def_cfa 2, 32
 140 00d0 83348100 		ld	s1,8(sp)
 141              		.cfi_restore 9
 142              	.LVL9:
 143 00d4 13010102 		addi	sp,sp,32
 144              		.cfi_def_cfa_offset 0
 145 00d8 67800000 		jr	ra
 146              	.LVL10:
 147              	.L8:
 148              		.cfi_restore_state
  35:src/scheduler.cpp ****     }
 149              		.loc 1 35 9 is_stmt 1
  35:src/scheduler.cpp ****     }
 150              		.loc 1 35 21 is_stmt 0
 151 00dc 97070000 		sd	a0,_ZN9Scheduler4tailE,a5
 151      23B0A700 
  35:src/scheduler.cpp ****     }
 152              		.loc 1 35 14
 153 00e4 97070000 		sd	a0,_ZN9Scheduler4headE,a5
 153      23B0A700 
 154              		.loc 1 37 1
 155 00ec 6FF0DFFD 		j	.L7
 156              		.cfi_endproc
 157              	.LFE1:
 159              		.globl	_ZN9Scheduler4tailE
 160              		.globl	_ZN9Scheduler4headE
 161              		.section	.sbss,"aw",@nobits
 162              		.align	3
 165              	_ZN9Scheduler4tailE:
 166 0000 00000000 		.zero	8
 166      00000000 
 169              	_ZN9Scheduler4headE:
 170 0008 00000000 		.zero	8
 170      00000000 
 171              		.text
 172              	.Letext0:
 173              		.file 2 "src/../h/scheduler.hpp"
 174              		.file 3 "src/../h/../lib/hw.h"
 175              		.file 4 "src/../h/MemAllocator.h"
GAS LISTING /tmp/ccTTstgH.s 			page 5


DEFINED SYMBOLS
                            *ABS*:0000000000000000 scheduler.cpp
     /tmp/ccTTstgH.s:12     .text:0000000000000000 _ZN9Scheduler3getEv
     /tmp/ccTTstgH.s:16     .text:0000000000000000 .L0 
     /tmp/ccTTstgH.s:17     .text:0000000000000000 .L0 
     /tmp/ccTTstgH.s:18     .text:0000000000000004 .L0 
     /tmp/ccTTstgH.s:23     .text:0000000000000014 .L0 
     /tmp/ccTTstgH.s:24     .text:0000000000000014 .L0 
     /tmp/ccTTstgH.s:25     .text:0000000000000014 .L0 
     /tmp/ccTTstgH.s:26     .text:0000000000000014 .L0 
     /tmp/ccTTstgH.s:28     .text:0000000000000018 .L0 
     /tmp/ccTTstgH.s:30     .text:0000000000000018 .L0 
     /tmp/ccTTstgH.s:169    .sbss:0000000000000008 _ZN9Scheduler4headE
     /tmp/ccTTstgH.s:31     .text:0000000000000018 .L0 
     /tmp/ccTTstgH.s:33     .text:0000000000000020 .L0 
     /tmp/ccTTstgH.s:36     .text:0000000000000024 .L0 
     /tmp/ccTTstgH.s:37     .text:0000000000000024 .L0 
     /tmp/ccTTstgH.s:38     .text:0000000000000024 .L0 
     /tmp/ccTTstgH.s:40     .text:0000000000000028 .L0 
     /tmp/ccTTstgH.s:42     .text:0000000000000030 .L0 
     /tmp/ccTTstgH.s:45     .text:0000000000000034 .L0 
     /tmp/ccTTstgH.s:46     .text:0000000000000034 .L0 
     /tmp/ccTTstgH.s:49     .text:0000000000000038 .L0 
     /tmp/ccTTstgH.s:50     .text:0000000000000038 .L0 
     /tmp/ccTTstgH.s:53     .text:0000000000000040 .L0 
     /tmp/ccTTstgH.s:58     .text:000000000000004c .L0 
     /tmp/ccTTstgH.s:59     .text:000000000000004c .L0 
     /tmp/ccTTstgH.s:61     .text:0000000000000054 .L0 
     /tmp/ccTTstgH.s:62     .text:0000000000000054 .L0 
     /tmp/ccTTstgH.s:64     .text:0000000000000058 .L0 
     /tmp/ccTTstgH.s:65     .text:0000000000000058 .L0 
     /tmp/ccTTstgH.s:67     .text:000000000000005c .L0 
     /tmp/ccTTstgH.s:69     .text:0000000000000060 .L0 
     /tmp/ccTTstgH.s:71     .text:0000000000000064 .L0 
     /tmp/ccTTstgH.s:75     .text:0000000000000068 .L0 
     /tmp/ccTTstgH.s:77     .text:0000000000000068 .L0 
     /tmp/ccTTstgH.s:165    .sbss:0000000000000000 _ZN9Scheduler4tailE
     /tmp/ccTTstgH.s:78     .text:0000000000000068 .L0 
     /tmp/ccTTstgH.s:83     .text:0000000000000074 .L0 
     /tmp/ccTTstgH.s:85     .text:000000000000007c .L0 
     /tmp/ccTTstgH.s:91     .text:000000000000007c _ZN9Scheduler3putEP3TCB
     /tmp/ccTTstgH.s:94     .text:000000000000007c .L0 
     /tmp/ccTTstgH.s:96     .text:000000000000007c .L0 
     /tmp/ccTTstgH.s:97     .text:0000000000000080 .L0 
     /tmp/ccTTstgH.s:101    .text:000000000000008c .L0 
     /tmp/ccTTstgH.s:102    .text:000000000000008c .L0 
     /tmp/ccTTstgH.s:103    .text:000000000000008c .L0 
     /tmp/ccTTstgH.s:105    .text:0000000000000090 .L0 
     /tmp/ccTTstgH.s:108    .text:0000000000000094 .L0 
     /tmp/ccTTstgH.s:109    .text:0000000000000094 .L0 
     /tmp/ccTTstgH.s:112    .text:000000000000009c .L0 
     /tmp/ccTTstgH.s:116    .text:00000000000000a8 .L0 
     /tmp/ccTTstgH.s:117    .text:00000000000000a8 .L0 
     /tmp/ccTTstgH.s:119    .text:00000000000000ac .L0 
     /tmp/ccTTstgH.s:120    .text:00000000000000ac .L0 
     /tmp/ccTTstgH.s:122    .text:00000000000000b0 .L0 
     /tmp/ccTTstgH.s:123    .text:00000000000000b0 .L0 
GAS LISTING /tmp/ccTTstgH.s 			page 6


     /tmp/ccTTstgH.s:125    .text:00000000000000b8 .L0 
     /tmp/ccTTstgH.s:127    .text:00000000000000bc .L0 
     /tmp/ccTTstgH.s:128    .text:00000000000000bc .L0 
     /tmp/ccTTstgH.s:130    .text:00000000000000c0 .L0 
     /tmp/ccTTstgH.s:131    .text:00000000000000c0 .L0 
     /tmp/ccTTstgH.s:134    .text:00000000000000c8 .L0 
     /tmp/ccTTstgH.s:135    .text:00000000000000cc .L0 
     /tmp/ccTTstgH.s:136    .text:00000000000000cc .L0 
     /tmp/ccTTstgH.s:138    .text:00000000000000d0 .L0 
     /tmp/ccTTstgH.s:139    .text:00000000000000d0 .L0 
     /tmp/ccTTstgH.s:141    .text:00000000000000d4 .L0 
     /tmp/ccTTstgH.s:144    .text:00000000000000d8 .L0 
     /tmp/ccTTstgH.s:148    .text:00000000000000dc .L0 
     /tmp/ccTTstgH.s:150    .text:00000000000000dc .L0 
     /tmp/ccTTstgH.s:151    .text:00000000000000dc .L0 
     /tmp/ccTTstgH.s:153    .text:00000000000000e4 .L0 
     /tmp/ccTTstgH.s:155    .text:00000000000000ec .L0 
     /tmp/ccTTstgH.s:156    .text:00000000000000f0 .L0 
     /tmp/ccTTstgH.s:176    .text:00000000000000f0 .L0 
     /tmp/ccTTstgH.s:31     .text:0000000000000018 .L0 
     /tmp/ccTTstgH.s:40     .text:0000000000000028 .L0 
     /tmp/ccTTstgH.s:78     .text:0000000000000068 .L0 
     /tmp/ccTTstgH.s:123    .text:00000000000000b0 .L0 
     /tmp/ccTTstgH.s:131    .text:00000000000000c0 .L0 
     /tmp/ccTTstgH.s:151    .text:00000000000000dc .L0 
     /tmp/ccTTstgH.s:153    .text:00000000000000e4 .L0 
     /tmp/ccTTstgH.s:81     .text:0000000000000074 .L4
     /tmp/ccTTstgH.s:74     .text:0000000000000068 .L6
     /tmp/ccTTstgH.s:43     .text:0000000000000034 .L3
     /tmp/ccTTstgH.s:57     .text:000000000000004c .L1
     /tmp/ccTTstgH.s:147    .text:00000000000000dc .L8
     /tmp/ccTTstgH.s:132    .text:00000000000000c8 .L7
     /tmp/ccTTstgH.s:536    .debug_abbrev:0000000000000000 .Ldebug_abbrev0
     /tmp/ccTTstgH.s:1148   .debug_str:0000000000000128 .LASF26
     /tmp/ccTTstgH.s:1142   .debug_str:00000000000000f7 .LASF27
     /tmp/ccTTstgH.s:1166   .debug_str:0000000000000251 .LASF28
     /tmp/ccTTstgH.s:8      .text:0000000000000000 .Ltext0
     /tmp/ccTTstgH.s:172    .text:00000000000000f0 .Letext0
     /tmp/ccTTstgH.s:1108   .debug_line:0000000000000000 .Ldebug_line0
     /tmp/ccTTstgH.s:1164   .debug_str:000000000000024c .LASF16
     /tmp/ccTTstgH.s:1134   .debug_str:00000000000000c3 .LASF0
     /tmp/ccTTstgH.s:1116   .debug_str:0000000000000023 .LASF1
     /tmp/ccTTstgH.s:1130   .debug_str:00000000000000a6 .LASF20
     /tmp/ccTTstgH.s:1156   .debug_str:0000000000000218 .LASF2
     /tmp/ccTTstgH.s:1170   .debug_str:00000000000002a4 .LASF3
     /tmp/ccTTstgH.s:1120   .debug_str:000000000000003c .LASF29
     /tmp/ccTTstgH.s:1126   .debug_str:000000000000006d .LASF30
     /tmp/ccTTstgH.s:1158   .debug_str:000000000000021d .LASF4
     /tmp/ccTTstgH.s:1144   .debug_str:0000000000000109 .LASF5
     /tmp/ccTTstgH.s:1136   .debug_str:00000000000000c8 .LASF6
     /tmp/ccTTstgH.s:1124   .debug_str:0000000000000066 .LASF8
     /tmp/ccTTstgH.s:1150   .debug_str:00000000000001ed .LASF7
     /tmp/ccTTstgH.s:1114   .debug_str:000000000000001c .LASF9
     /tmp/ccTTstgH.s:1110   .debug_str:0000000000000000 .LASF10
     /tmp/ccTTstgH.s:1132   .debug_str:00000000000000b0 .LASF11
     /tmp/ccTTstgH.s:1184   .debug_str:00000000000002e9 .LASF12
     /tmp/ccTTstgH.s:1146   .debug_str:000000000000011c .LASF13
GAS LISTING /tmp/ccTTstgH.s 			page 7


     /tmp/ccTTstgH.s:1122   .debug_str:0000000000000050 .LASF14
     /tmp/ccTTstgH.s:1162   .debug_str:0000000000000236 .LASF15
     /tmp/ccTTstgH.s:1138   .debug_str:00000000000000d6 .LASF17
     /tmp/ccTTstgH.s:1182   .debug_str:00000000000002e4 .LASF18
     /tmp/ccTTstgH.s:1180   .debug_str:00000000000002df .LASF19
     /tmp/ccTTstgH.s:1174   .debug_str:00000000000002b3 .LASF21
     /tmp/ccTTstgH.s:1172   .debug_str:00000000000002a9 .LASF31
     /tmp/ccTTstgH.s:1128   .debug_str:0000000000000085 .LASF32
     /tmp/ccTTstgH.s:1160   .debug_str:000000000000022a .LASF22
     /tmp/ccTTstgH.s:1168   .debug_str:0000000000000288 .LASF33
     /tmp/ccTTstgH.s:1178   .debug_str:00000000000002d5 .LASF34
     /tmp/ccTTstgH.s:1140   .debug_str:00000000000000de .LASF35
     /tmp/ccTTstgH.s:1112   .debug_str:0000000000000013 .LASF36
     /tmp/ccTTstgH.s:1176   .debug_str:00000000000002bc .LASF37
     /tmp/ccTTstgH.s:1118   .debug_str:0000000000000028 .LASF23
     /tmp/ccTTstgH.s:1154   .debug_str:0000000000000204 .LASF24
     /tmp/ccTTstgH.s:92     .text:000000000000007c .LFB1
     /tmp/ccTTstgH.s:157    .text:00000000000000f0 .LFE1
     /tmp/ccTTstgH.s:1055   .debug_loc:0000000000000000 .LLST2
     /tmp/ccTTstgH.s:1152   .debug_str:00000000000001ff .LASF25
     /tmp/ccTTstgH.s:110    .text:000000000000009c .LVL7
     /tmp/ccTTstgH.s:114    .text:00000000000000a8 .LVL8
     /tmp/ccTTstgH.s:13     .text:0000000000000000 .LFB0
     /tmp/ccTTstgH.s:86     .text:000000000000007c .LFE0
     /tmp/ccTTstgH.s:1077   .debug_loc:000000000000005f .LLST0
     /tmp/ccTTstgH.s:1088   .debug_loc:0000000000000095 .LLST1
     /tmp/ccTTstgH.s:51     .text:0000000000000040 .LVL2
     /tmp/ccTTstgH.s:55     .text:000000000000004c .LVL3
     /tmp/ccTTstgH.s:95     .text:000000000000007c .LVL6
     /tmp/ccTTstgH.s:142    .text:00000000000000d4 .LVL9
     /tmp/ccTTstgH.s:146    .text:00000000000000dc .LVL10
     /tmp/ccTTstgH.s:35     .text:0000000000000024 .LVL0
     /tmp/ccTTstgH.s:73     .text:0000000000000068 .LVL4
     /tmp/ccTTstgH.s:80     .text:0000000000000074 .LVL5
     /tmp/ccTTstgH.s:47     .text:0000000000000038 .LVL1
     /tmp/ccTTstgH.s:177    .debug_info:0000000000000000 .Ldebug_info0

UNDEFINED SYMBOLS
_ZN8MemAlloc11getInstanceEv
_ZN8MemAlloc8mem_freeEPv
_ZN8MemAlloc9mem_allocEm
