GAS LISTING /tmp/ccTTstgH.s 			page 1


   1              		.file	"scheduler.cpp"
   2              		.option nopic
   3              		.option norelax
   4              		.attribute arch, "rv64i2p0_m2p0_a2p0"
   5              		.attribute unaligned_access, 0
   6              		.attribute stack_align, 16
   7              		.text
   8              	.Ltext0:
   9              		.align	2
  10              		.globl	_ZN9Scheduler3getEv
  12              	_ZN9Scheduler3getEv:
  13              	.LFB0:
  14              		.file 1 "src/scheduler.cpp"
   1:src/scheduler.cpp **** //
   2:src/scheduler.cpp **** // Created by marko on 20.4.22..
   3:src/scheduler.cpp **** //
   4:src/scheduler.cpp **** 
   5:src/scheduler.cpp **** #include "../h/scheduler.hpp"
   6:src/scheduler.cpp **** #include "../h/MemAllocator.h"
   7:src/scheduler.cpp **** 
   8:src/scheduler.cpp **** Elem* Scheduler::head=nullptr;
   9:src/scheduler.cpp **** Elem* Scheduler::tail=nullptr;
  10:src/scheduler.cpp **** 
  11:src/scheduler.cpp **** TCB *Scheduler::get()
  12:src/scheduler.cpp **** {
  15              		.loc 1 12 1
  16              		.cfi_startproc
  17 0000 130101FE 		addi	sp,sp,-32
  18              		.cfi_def_cfa_offset 32
  19 0004 233C1100 		sd	ra,24(sp)
  20 0008 23388100 		sd	s0,16(sp)
  21 000c 23349100 		sd	s1,8(sp)
  22 0010 23302101 		sd	s2,0(sp)
  23              		.cfi_offset 1, -8
  24              		.cfi_offset 8, -16
  25              		.cfi_offset 9, -24
  26              		.cfi_offset 18, -32
  27 0014 13040102 		addi	s0,sp,32
  28              		.cfi_def_cfa 8, 0
  13:src/scheduler.cpp ****     if (!head) { return 0; }
  29              		.loc 1 13 5
  30              		.loc 1 13 9 is_stmt 0
  31 0018 97040000 		ld	s1,_ZN9Scheduler4headE
  31      83B40400 
  32              		.loc 1 13 5
  33 0020 638A0404 		beq	s1,zero,.L4
  14:src/scheduler.cpp **** 
  15:src/scheduler.cpp ****     Elem *elem = head;
  34              		.loc 1 15 5 is_stmt 1
  35              	.LVL0:
  16:src/scheduler.cpp ****     head = head->next;
  36              		.loc 1 16 5
  37              		.loc 1 16 18 is_stmt 0
  38 0024 83B78400 		ld	a5,8(s1)
  39              		.loc 1 16 10
  40 0028 17070000 		sd	a5,_ZN9Scheduler4headE,a4
  40      2330F700 
GAS LISTING /tmp/ccTTstgH.s 			page 2


  17:src/scheduler.cpp ****     if (!head) { tail = 0; }
  41              		.loc 1 17 5 is_stmt 1
  42 0030 638C0702 		beq	a5,zero,.L6
  43              	.L3:
  18:src/scheduler.cpp **** 
  19:src/scheduler.cpp ****     TCB *ret = elem->data;
  44              		.loc 1 19 5
  45              		.loc 1 19 10 is_stmt 0
  46 0034 03B90400 		ld	s2,0(s1)
  47              	.LVL1:
  20:src/scheduler.cpp ****     MemAlloc::getInstance().mem_free(elem);
  48              		.loc 1 20 5 is_stmt 1
  49              		.loc 1 20 27 is_stmt 0
  50 0038 97000000 		call	_ZN8MemAlloc11getInstanceEv
  50      E7800000 
  51              	.LVL2:
  52              		.loc 1 20 37
  53 0040 93850400 		mv	a1,s1
  54 0044 97000000 		call	_ZN8MemAlloc8mem_freeEPv
  54      E7800000 
  55              	.LVL3:
  21:src/scheduler.cpp ****     return ret;
  56              		.loc 1 21 5 is_stmt 1
  57              	.L1:
  22:src/scheduler.cpp **** }
  58              		.loc 1 22 1 is_stmt 0
  59 004c 13050900 		mv	a0,s2
  60 0050 83308101 		ld	ra,24(sp)
  61              		.cfi_remember_state
  62              		.cfi_restore 1
  63 0054 03340101 		ld	s0,16(sp)
  64              		.cfi_restore 8
  65              		.cfi_def_cfa 2, 32
  66 0058 83348100 		ld	s1,8(sp)
  67              		.cfi_restore 9
  68 005c 03390100 		ld	s2,0(sp)
  69              		.cfi_restore 18
  70 0060 13010102 		addi	sp,sp,32
  71              		.cfi_def_cfa_offset 0
  72 0064 67800000 		jr	ra
  73              	.LVL4:
  74              	.L6:
  75              		.cfi_restore_state
  17:src/scheduler.cpp **** 
  76              		.loc 1 17 18 is_stmt 1 discriminator 1
  17:src/scheduler.cpp **** 
  77              		.loc 1 17 23 is_stmt 0 discriminator 1
  78 0068 97070000 		sd	zero,_ZN9Scheduler4tailE,a5
  78      23B00700 
  79 0070 6FF05FFC 		j	.L3
  80              	.LVL5:
  81              	.L4:
  13:src/scheduler.cpp **** 
  82              		.loc 1 13 25
  83 0074 13890400 		mv	s2,s1
  84 0078 6FF05FFD 		j	.L1
  85              		.cfi_endproc
GAS LISTING /tmp/ccTTstgH.s 			page 3


  86              	.LFE0:
  88              		.align	2
  89              		.globl	_ZN9Scheduler3putEP3TCB
  91              	_ZN9Scheduler3putEP3TCB:
  92              	.LFB1:
  23:src/scheduler.cpp **** 
  24:src/scheduler.cpp **** void Scheduler::put(TCB *ccb)
  25:src/scheduler.cpp **** {
  93              		.loc 1 25 1 is_stmt 1
  94              		.cfi_startproc
  95              	.LVL6:
  96 007c 130101FE 		addi	sp,sp,-32
  97              		.cfi_def_cfa_offset 32
  98 0080 233C1100 		sd	ra,24(sp)
  99 0084 23388100 		sd	s0,16(sp)
 100 0088 23349100 		sd	s1,8(sp)
 101              		.cfi_offset 1, -8
 102              		.cfi_offset 8, -16
 103              		.cfi_offset 9, -24
 104 008c 13040102 		addi	s0,sp,32
 105              		.cfi_def_cfa 8, 0
 106 0090 93040500 		mv	s1,a0
  26:src/scheduler.cpp ****     Elem *elem = (Elem*)MemAlloc::getInstance().mem_alloc((sizeof(Elem)+MEM_BLOCK_SIZE-1)/MEM_BLOCK
 107              		.loc 1 26 5
 108              		.loc 1 26 47 is_stmt 0
 109 0094 97000000 		call	_ZN8MemAlloc11getInstanceEv
 109      E7800000 
 110              	.LVL7:
 111              		.loc 1 26 58
 112 009c 93051000 		li	a1,1
 113 00a0 97000000 		call	_ZN8MemAlloc9mem_allocEm
 113      E7800000 
 114              	.LVL8:
  27:src/scheduler.cpp ****     elem->data=ccb;
 115              		.loc 1 27 5 is_stmt 1
 116              		.loc 1 27 15 is_stmt 0
 117 00a8 23309500 		sd	s1,0(a0)
  28:src/scheduler.cpp ****     elem->next=0;
 118              		.loc 1 28 5 is_stmt 1
 119              		.loc 1 28 15 is_stmt 0
 120 00ac 23340500 		sd	zero,8(a0)
  29:src/scheduler.cpp ****     if (tail!=nullptr)
 121              		.loc 1 29 5 is_stmt 1
 122              		.loc 1 29 13 is_stmt 0
 123 00b0 97070000 		ld	a5,_ZN9Scheduler4tailE
 123      83B70700 
 124              		.loc 1 29 5
 125 00b8 63820702 		beq	a5,zero,.L8
  30:src/scheduler.cpp ****     {
  31:src/scheduler.cpp ****         tail->next = elem;
 126              		.loc 1 31 9 is_stmt 1
 127              		.loc 1 31 20 is_stmt 0
 128 00bc 23B4A700 		sd	a0,8(a5)
  32:src/scheduler.cpp ****         tail = elem;
 129              		.loc 1 32 9 is_stmt 1
 130              		.loc 1 32 14 is_stmt 0
 131 00c0 97070000 		sd	a0,_ZN9Scheduler4tailE,a5
GAS LISTING /tmp/ccTTstgH.s 			page 4


 131      23B0A700 
 132              	.L7:
  33:src/scheduler.cpp ****     } else
  34:src/scheduler.cpp ****     {
  35:src/scheduler.cpp ****         head = tail = elem;
  36:src/scheduler.cpp ****     }
  37:src/scheduler.cpp **** }
 133              		.loc 1 37 1
 134 00c8 83308101 		ld	ra,24(sp)
 135              		.cfi_remember_state
 136              		.cfi_restore 1
 137 00cc 03340101 		ld	s0,16(sp)
 138              		.cfi_restore 8
 139              		.cfi_def_cfa 2, 32
 140 00d0 83348100 		ld	s1,8(sp)
 141              		.cfi_restore 9
 142              	.LVL9:
 143 00d4 13010102 		addi	sp,sp,32
 144              		.cfi_def_cfa_offset 0
 145 00d8 67800000 		jr	ra
 146              	.LVL10:
 147              	.L8:
 148              		.cfi_restore_state
  35:src/scheduler.cpp ****     }
 149              		.loc 1 35 9 is_stmt 1
  35:src/scheduler.cpp ****     }
 150              		.loc 1 35 21 is_stmt 0
 151 00dc 97070000 		sd	a0,_ZN9Scheduler4tailE,a5
 151      23B0A700 
  35:src/scheduler.cpp ****     }
 152              		.loc 1 35 14
 153 00e4 97070000 		sd	a0,_ZN9Scheduler4headE,a5
 153      23B0A700 
 154              		.loc 1 37 1
 155 00ec 6FF0DFFD 		j	.L7
 156              		.cfi_endproc
 157              	.LFE1:
 159              		.globl	_ZN9Scheduler4tailE
 160              		.globl	_ZN9Scheduler4headE
 161              		.section	.sbss,"aw",@nobits
 162              		.align	3
 165              	_ZN9Scheduler4tailE:
 166 0000 00000000 		.zero	8
 166      00000000 
 169              	_ZN9Scheduler4headE:
 170 0008 00000000 		.zero	8
 170      00000000 
 171              		.text
 172              	.Letext0:
 173              		.file 2 "src/../h/scheduler.hpp"
 174              		.file 3 "src/../h/../lib/hw.h"
 175              		.file 4 "src/../h/MemAllocator.h"
GAS LISTING /tmp/ccTTstgH.s 			page 5

