GAS LISTING /tmp/ccCfRYbv.s 			page 1


   1              		.file	"sem.cpp"
   2              		.option pic
   3              		.option norelax
   4              		.text
   5              	.Ltext0:
   6              		.align	2
   7              		.globl	_ZN4_sem4openEPPS_j
   9              	_ZN4_sem4openEPPS_j:
  10              	.LFB0:
  11              		.file 1 "src/sem.cpp"
   1:src/sem.cpp   **** /**
   2:src/sem.cpp   ****  * @file semaphore.cpp
   3:src/sem.cpp   ****  * @author stcksmsh (vukicevickosta@gmail.com)
   4:src/sem.cpp   ****  * @brief implementation of the _sem class
   5:src/sem.cpp   ****  * @version 0.1
   6:src/sem.cpp   ****  * @date 2024-01-02
   7:src/sem.cpp   ****  * 
   8:src/sem.cpp   ****  * @copyright Copyright (c) 2024
   9:src/sem.cpp   ****  * 
  10:src/sem.cpp   ****  */
  11:src/sem.cpp   **** 
  12:src/sem.cpp   **** #include "sem.h"
  13:src/sem.cpp   **** #include "syscalls_c.h"
  14:src/sem.cpp   **** #include "assert.h"
  15:src/sem.cpp   **** #include "sched.h"
  16:src/sem.cpp   **** #include "console.h"
  17:src/sem.cpp   **** 
  18:src/sem.cpp   **** void _sem::open(_sem** handle, unsigned init){
  12              		.loc 1 18 46
  13              		.cfi_startproc
  14              	.LVL0:
  15 0000 130101FE 		addi	sp,sp,-32
  16              		.cfi_def_cfa_offset 32
  17 0004 233C1100 		sd	ra,24(sp)
  18 0008 23388100 		sd	s0,16(sp)
  19 000c 23349100 		sd	s1,8(sp)
  20 0010 23302101 		sd	s2,0(sp)
  21              		.cfi_offset 1, -8
  22              		.cfi_offset 8, -16
  23              		.cfi_offset 9, -24
  24              		.cfi_offset 18, -32
  25 0014 13040102 		addi	s0,sp,32
  26              		.cfi_def_cfa 8, 0
  27 0018 93040500 		mv	s1,a0
  28 001c 13890500 		mv	s2,a1
  19:src/sem.cpp   ****     (*handle) = (sem_t)mem_alloc(sizeof(_sem));
  29              		.loc 1 19 5
  30              		.loc 1 19 33 is_stmt 0
  31 0020 13058001 		li	a0,24
  32              	.LVL1:
  33 0024 97000000 		call	_Z9mem_allocm@plt
  33      E7800000 
  34              	.LVL2:
  35              		.loc 1 19 15
  36 002c 23B0A400 		sd	a0,0(s1)
  20:src/sem.cpp   ****     (*handle)->blockHead = 0;
  37              		.loc 1 20 5 is_stmt 1
GAS LISTING /tmp/ccCfRYbv.s 			page 2


  38              		.loc 1 20 26 is_stmt 0
  39 0030 23300500 		sd	zero,0(a0)
  21:src/sem.cpp   ****     (*handle)->blockTail = 0;
  40              		.loc 1 21 5 is_stmt 1
  41              		.loc 1 21 6 is_stmt 0
  42 0034 83B70400 		ld	a5,0(s1)
  43              		.loc 1 21 26
  44 0038 23B40700 		sd	zero,8(a5)
  22:src/sem.cpp   ****     (*handle)->value = init;
  45              		.loc 1 22 5 is_stmt 1
  46              		.loc 1 22 6 is_stmt 0
  47 003c 83B70400 		ld	a5,0(s1)
  48              		.loc 1 22 22
  49 0040 23A82701 		sw	s2,16(a5)
  23:src/sem.cpp   **** }
  50              		.loc 1 23 1
  51 0044 83308101 		ld	ra,24(sp)
  52              		.cfi_restore 1
  53 0048 03340101 		ld	s0,16(sp)
  54              		.cfi_restore 8
  55              		.cfi_def_cfa 2, 32
  56 004c 83348100 		ld	s1,8(sp)
  57              		.cfi_restore 9
  58              	.LVL3:
  59 0050 03390100 		ld	s2,0(sp)
  60              		.cfi_restore 18
  61 0054 13010102 		addi	sp,sp,32
  62              		.cfi_def_cfa_offset 0
  63 0058 67800000 		jr	ra
  64              		.cfi_endproc
  65              	.LFE0:
  67              		.align	2
  68              		.globl	_ZN4_sem5closeEPS_
  70              	_ZN4_sem5closeEPS_:
  71              	.LFB1:
  24:src/sem.cpp   **** 
  25:src/sem.cpp   **** void _sem::close(sem_t id){
  72              		.loc 1 25 27 is_stmt 1
  73              		.cfi_startproc
  74              	.LVL4:
  75 005c 130101FE 		addi	sp,sp,-32
  76              		.cfi_def_cfa_offset 32
  77 0060 233C1100 		sd	ra,24(sp)
  78 0064 23388100 		sd	s0,16(sp)
  79 0068 23349100 		sd	s1,8(sp)
  80              		.cfi_offset 1, -8
  81              		.cfi_offset 8, -16
  82              		.cfi_offset 9, -24
  83 006c 13040102 		addi	s0,sp,32
  84              		.cfi_def_cfa 8, 0
  85 0070 93040500 		mv	s1,a0
  86              	.LVL5:
  87              	.L5:
  26:src/sem.cpp   ****     while(id->blockHead != 0){
  88              		.loc 1 26 5
  89              		.loc 1 26 25
  90              		.loc 1 26 15 is_stmt 0
GAS LISTING /tmp/ccCfRYbv.s 			page 3


  91 0074 83B70400 		ld	a5,0(s1)
  92              		.loc 1 26 25
  93 0078 63880702 		beqz	a5,.L3
  27:src/sem.cpp   ****         id->blockHead->pThread->setClosed(true);
  94              		.loc 1 27 9 is_stmt 1
  95              		.loc 1 27 42 is_stmt 0
  96 007c 93051000 		li	a1,1
  97 0080 03B50700 		ld	a0,0(a5)
  98 0084 97000000 		call	_ZN7_thread9setClosedEb@plt
  98      E7800000 
  99              	.LVL6:
  28:src/sem.cpp   ****         mem_free(id->blockHead);
 100              		.loc 1 28 9 is_stmt 1
 101              		.loc 1 28 17 is_stmt 0
 102 008c 03B50400 		ld	a0,0(s1)
 103 0090 97000000 		call	_Z8mem_freePv@plt
 103      E7800000 
 104              	.LVL7:
  29:src/sem.cpp   ****         id->blockHead = id->blockHead->pNext;
 105              		.loc 1 29 9 is_stmt 1
 106              		.loc 1 29 29 is_stmt 0
 107 0098 83B70400 		ld	a5,0(s1)
 108              		.loc 1 29 40
 109 009c 83B78700 		ld	a5,8(a5)
 110              		.loc 1 29 23
 111 00a0 23B0F400 		sd	a5,0(s1)
  26:src/sem.cpp   ****         id->blockHead->pThread->setClosed(true);
 112              		.loc 1 26 5
 113 00a4 6FF01FFD 		j	.L5
 114              	.L3:
  30:src/sem.cpp   ****     }
  31:src/sem.cpp   **** }
 115              		.loc 1 31 1
 116 00a8 83308101 		ld	ra,24(sp)
 117              		.cfi_restore 1
 118 00ac 03340101 		ld	s0,16(sp)
 119              		.cfi_restore 8
 120              		.cfi_def_cfa 2, 32
 121 00b0 83348100 		ld	s1,8(sp)
 122              		.cfi_restore 9
 123              	.LVL8:
 124 00b4 13010102 		addi	sp,sp,32
 125              		.cfi_def_cfa_offset 0
 126 00b8 67800000 		jr	ra
 127              		.cfi_endproc
 128              	.LFE1:
 130              		.align	2
 131              		.globl	_ZN4_sem4waitEPS_
 133              	_ZN4_sem4waitEPS_:
 134              	.LFB2:
  32:src/sem.cpp   **** 
  33:src/sem.cpp   **** void _sem::wait(sem_t id){
 135              		.loc 1 33 26 is_stmt 1
 136              		.cfi_startproc
 137              	.LVL9:
  34:src/sem.cpp   ****     id->value--;
 138              		.loc 1 34 5
GAS LISTING /tmp/ccCfRYbv.s 			page 4


 139              		.loc 1 34 9 is_stmt 0
 140 00bc 83270501 		lw	a5,16(a0)
 141              		.loc 1 34 14
 142 00c0 9B87F7FF 		addiw	a5,a5,-1
 143 00c4 2328F500 		sw	a5,16(a0)
  35:src/sem.cpp   ****     if(id->value < 0){
 144              		.loc 1 35 5 is_stmt 1
 145              	.LBB2:
 146 00c8 13970702 		slli	a4,a5,32
 147 00cc 63440700 		bltz	a4,.L15
 148 00d0 67800000 		ret
 149              	.L15:
 150              	.LBE2:
  33:src/sem.cpp   ****     id->value--;
 151              		.loc 1 33 26 is_stmt 0
 152 00d4 130101FE 		addi	sp,sp,-32
 153              		.cfi_def_cfa_offset 32
 154 00d8 233C1100 		sd	ra,24(sp)
 155 00dc 23388100 		sd	s0,16(sp)
 156 00e0 23349100 		sd	s1,8(sp)
 157              		.cfi_offset 1, -8
 158              		.cfi_offset 8, -16
 159              		.cfi_offset 9, -24
 160 00e4 13040102 		addi	s0,sp,32
 161              		.cfi_def_cfa 8, 0
 162 00e8 93040500 		mv	s1,a0
 163              	.LBB5:
 164              	.LBB3:
  36:src/sem.cpp   ****         blockedThreadList* pNewBlock = (blockedThreadList*)mem_alloc(sizeof(blockedThreadList));
 165              		.loc 1 36 9 is_stmt 1
 166              		.loc 1 36 69 is_stmt 0
 167 00ec 13050001 		li	a0,16
 168              	.LVL10:
 169 00f0 97000000 		call	_Z9mem_allocm@plt
 169      E7800000 
 170              	.LVL11:
  37:src/sem.cpp   ****         pNewBlock->pThread = _thread::currentThread;
 171              		.loc 1 37 9 is_stmt 1
 172              		.loc 1 37 28 is_stmt 0
 173 00f8 97070000 		la	a5,_ZN7_thread13currentThreadE
 173      83B70700 
 174 0100 83B70700 		ld	a5,0(a5)
 175 0104 2330F500 		sd	a5,0(a0)
  38:src/sem.cpp   ****         pNewBlock->pNext = 0;
 176              		.loc 1 38 9 is_stmt 1
 177              		.loc 1 38 26 is_stmt 0
 178 0108 23340500 		sd	zero,8(a0)
  39:src/sem.cpp   ****         if(id->blockHead == 0){
 179              		.loc 1 39 9 is_stmt 1
 180              		.loc 1 39 16 is_stmt 0
 181 010c 83B70400 		ld	a5,0(s1)
 182              		.loc 1 39 9
 183 0110 63820704 		beqz	a5,.L16
  40:src/sem.cpp   ****             id->blockHead = pNewBlock;
  41:src/sem.cpp   ****             id->blockTail = pNewBlock;
  42:src/sem.cpp   ****         }else{
  43:src/sem.cpp   ****             id->blockTail->pNext = pNewBlock;
GAS LISTING /tmp/ccCfRYbv.s 			page 5


 184              		.loc 1 43 13 is_stmt 1
 185              		.loc 1 43 17 is_stmt 0
 186 0114 83B78400 		ld	a5,8(s1)
 187              		.loc 1 43 34
 188 0118 23B4A700 		sd	a0,8(a5)
  44:src/sem.cpp   ****             id->blockTail = pNewBlock;
 189              		.loc 1 44 13 is_stmt 1
 190              		.loc 1 44 27 is_stmt 0
 191 011c 23B4A400 		sd	a0,8(s1)
 192              	.L10:
  45:src/sem.cpp   ****         }
  46:src/sem.cpp   ****         _thread::currentThread->setBlocked(true);
 193              		.loc 1 46 9 is_stmt 1
 194              		.loc 1 46 43 is_stmt 0
 195 0120 93051000 		li	a1,1
 196 0124 97070000 		la	a5,_ZN7_thread13currentThreadE
 196      83B70700 
 197 012c 03B50700 		ld	a0,0(a5)
 198              	.LVL12:
 199 0130 97000000 		call	_ZN7_thread10setBlockedEb@plt
 199      E7800000 
 200              	.LVL13:
  47:src/sem.cpp   ****         // _thread::dispatch();
  48:src/sem.cpp   ****         thread_dispatch();
 201              		.loc 1 48 9 is_stmt 1
 202              		.loc 1 48 24 is_stmt 0
 203 0138 97000000 		call	_Z15thread_dispatchv@plt
 203      E7800000 
 204              	.LVL14:
 205              	.LBE3:
 206              	.LBE5:
  49:src/sem.cpp   ****     }
  50:src/sem.cpp   **** }
 207              		.loc 1 50 1
 208 0140 83308101 		ld	ra,24(sp)
 209              		.cfi_remember_state
 210              		.cfi_restore 1
 211 0144 03340101 		ld	s0,16(sp)
 212              		.cfi_restore 8
 213              		.cfi_def_cfa 2, 32
 214 0148 83348100 		ld	s1,8(sp)
 215              		.cfi_restore 9
 216              	.LVL15:
 217 014c 13010102 		addi	sp,sp,32
 218              		.cfi_def_cfa_offset 0
 219 0150 67800000 		jr	ra
 220              	.LVL16:
 221              	.L16:
 222              		.cfi_restore_state
 223              	.LBB6:
 224              	.LBB4:
  40:src/sem.cpp   ****             id->blockTail = pNewBlock;
 225              		.loc 1 40 13 is_stmt 1
  40:src/sem.cpp   ****             id->blockTail = pNewBlock;
 226              		.loc 1 40 27 is_stmt 0
 227 0154 23B0A400 		sd	a0,0(s1)
  41:src/sem.cpp   ****         }else{
GAS LISTING /tmp/ccCfRYbv.s 			page 6


 228              		.loc 1 41 13 is_stmt 1
  41:src/sem.cpp   ****         }else{
 229              		.loc 1 41 27 is_stmt 0
 230 0158 23B4A400 		sd	a0,8(s1)
 231 015c 6FF05FFC 		j	.L10
 232              	.LBE4:
 233              	.LBE6:
 234              		.cfi_endproc
 235              	.LFE2:
 237              		.align	2
 238              		.globl	_ZN4_sem6signalEPS_
 240              	_ZN4_sem6signalEPS_:
 241              	.LFB3:
  51:src/sem.cpp   **** 
  52:src/sem.cpp   **** void _sem::signal(sem_t id){
 242              		.loc 1 52 28 is_stmt 1
 243              		.cfi_startproc
 244              	.LVL17:
  53:src/sem.cpp   ****     id->value++;
 245              		.loc 1 53 5
 246              		.loc 1 53 9 is_stmt 0
 247 0160 83270501 		lw	a5,16(a0)
 248              		.loc 1 53 14
 249 0164 9B871700 		addiw	a5,a5,1
 250 0168 1B870700 		sext.w	a4,a5
 251 016c 2328F500 		sw	a5,16(a0)
  54:src/sem.cpp   ****     if(id->value <= 0){
 252              		.loc 1 54 5 is_stmt 1
 253              	.LBB7:
 254 0170 6354E000 		blez	a4,.L24
 255 0174 67800000 		ret
 256              	.L24:
 257              	.LBE7:
  52:src/sem.cpp   ****     id->value++;
 258              		.loc 1 52 28 is_stmt 0
 259 0178 130101FE 		addi	sp,sp,-32
 260              		.cfi_def_cfa_offset 32
 261 017c 233C1100 		sd	ra,24(sp)
 262 0180 23388100 		sd	s0,16(sp)
 263 0184 23349100 		sd	s1,8(sp)
 264              		.cfi_offset 1, -8
 265              		.cfi_offset 8, -16
 266              		.cfi_offset 9, -24
 267 0188 13040102 		addi	s0,sp,32
 268              		.cfi_def_cfa 8, 0
 269              	.LBB10:
 270              	.LBB8:
  55:src/sem.cpp   ****         blockedThreadList* pUnblock = id->blockHead;
 271              		.loc 1 55 9 is_stmt 1
 272              		.loc 1 55 28 is_stmt 0
 273 018c 83340500 		ld	s1,0(a0)
 274              	.LVL18:
  56:src/sem.cpp   ****         id->blockHead = id->blockHead->pNext;
 275              		.loc 1 56 9 is_stmt 1
 276              		.loc 1 56 40 is_stmt 0
 277 0190 83B78400 		ld	a5,8(s1)
 278              		.loc 1 56 23
GAS LISTING /tmp/ccCfRYbv.s 			page 7


 279 0194 2330F500 		sd	a5,0(a0)
  57:src/sem.cpp   ****         if(id->blockHead == 0){
 280              		.loc 1 57 9 is_stmt 1
 281 0198 63800704 		beqz	a5,.L25
 282              	.L19:
  58:src/sem.cpp   ****             id->blockTail = 0;
  59:src/sem.cpp   ****         }
  60:src/sem.cpp   ****         pUnblock->pThread->setBlocked(false);
 283              		.loc 1 60 9
 284              		.loc 1 60 38 is_stmt 0
 285 019c 93050000 		li	a1,0
 286 01a0 03B50400 		ld	a0,0(s1)
 287              	.LVL19:
 288 01a4 97000000 		call	_ZN7_thread10setBlockedEb@plt
 288      E7800000 
 289              	.LVL20:
  61:src/sem.cpp   ****         mem_free(pUnblock);
 290              		.loc 1 61 9 is_stmt 1
 291              		.loc 1 61 17 is_stmt 0
 292 01ac 13850400 		mv	a0,s1
 293 01b0 97000000 		call	_Z8mem_freePv@plt
 293      E7800000 
 294              	.LVL21:
  62:src/sem.cpp   ****         thread_t t = pUnblock->pThread;
 295              		.loc 1 62 9 is_stmt 1
  63:src/sem.cpp   ****         Scheduler::put(t);
 296              		.loc 1 63 9
 297              		.loc 1 63 23 is_stmt 0
 298 01b8 03B50400 		ld	a0,0(s1)
 299 01bc 97000000 		call	_ZN9Scheduler3putEP7_thread@plt
 299      E7800000 
 300              	.LVL22:
 301              	.LBE8:
 302              	.LBE10:
  64:src/sem.cpp   ****     }
  65:src/sem.cpp   **** }...
 303              		.loc 1 65 1
 304 01c4 83308101 		ld	ra,24(sp)
 305              		.cfi_remember_state
 306              		.cfi_restore 1
 307 01c8 03340101 		ld	s0,16(sp)
 308              		.cfi_restore 8
 309              		.cfi_def_cfa 2, 32
 310 01cc 83348100 		ld	s1,8(sp)
 311              		.cfi_restore 9
 312              	.LVL23:
 313 01d0 13010102 		addi	sp,sp,32
 314              		.cfi_def_cfa_offset 0
 315 01d4 67800000 		jr	ra
 316              	.LVL24:
 317              	.L25:
 318              		.cfi_restore_state
 319              	.LBB11:
 320              	.LBB9:
  58:src/sem.cpp   ****             id->blockTail = 0;
 321              		.loc 1 58 13 is_stmt 1
  58:src/sem.cpp   ****             id->blockTail = 0;
GAS LISTING /tmp/ccCfRYbv.s 			page 8


 322              		.loc 1 58 27 is_stmt 0
 323 01d8 23340500 		sd	zero,8(a0)
 324 01dc 6FF01FFC 		j	.L19
 325              	.LBE9:
 326              	.LBE11:
 327              		.cfi_endproc
 328              	.LFE3:
 330              	.Letext0:
 331              		.file 2 "./lib/hw.h"
 332              		.file 3 "./h/thread.h"
 333              		.file 4 "./h/sem.h"
 334              		.file 5 "./h/sched.h"
 335              		.file 6 "./h/syscalls_c.h"
GAS LISTING /tmp/ccCfRYbv.s 			page 9


DEFINED SYMBOLS
                            *ABS*:0000000000000000 sem.cpp
     /tmp/ccCfRYbv.s:9      .text:0000000000000000 _ZN4_sem4openEPPS_j
     /tmp/ccCfRYbv.s:13     .text:0000000000000000 .L0 
     /tmp/ccCfRYbv.s:15     .text:0000000000000000 .L0 
     /tmp/ccCfRYbv.s:16     .text:0000000000000004 .L0 
     /tmp/ccCfRYbv.s:21     .text:0000000000000014 .L0 
     /tmp/ccCfRYbv.s:22     .text:0000000000000014 .L0 
     /tmp/ccCfRYbv.s:23     .text:0000000000000014 .L0 
     /tmp/ccCfRYbv.s:24     .text:0000000000000014 .L0 
     /tmp/ccCfRYbv.s:26     .text:0000000000000018 .L0 
     /tmp/ccCfRYbv.s:30     .text:0000000000000020 .L0 
     /tmp/ccCfRYbv.s:31     .text:0000000000000020 .L0 
     /tmp/ccCfRYbv.s:36     .text:000000000000002c .L0 
     /tmp/ccCfRYbv.s:38     .text:0000000000000030 .L0 
     /tmp/ccCfRYbv.s:39     .text:0000000000000030 .L0 
     /tmp/ccCfRYbv.s:41     .text:0000000000000034 .L0 
     /tmp/ccCfRYbv.s:42     .text:0000000000000034 .L0 
     /tmp/ccCfRYbv.s:44     .text:0000000000000038 .L0 
     /tmp/ccCfRYbv.s:46     .text:000000000000003c .L0 
     /tmp/ccCfRYbv.s:47     .text:000000000000003c .L0 
     /tmp/ccCfRYbv.s:49     .text:0000000000000040 .L0 
     /tmp/ccCfRYbv.s:51     .text:0000000000000044 .L0 
     /tmp/ccCfRYbv.s:52     .text:0000000000000048 .L0 
     /tmp/ccCfRYbv.s:54     .text:000000000000004c .L0 
     /tmp/ccCfRYbv.s:55     .text:000000000000004c .L0 
     /tmp/ccCfRYbv.s:57     .text:0000000000000050 .L0 
     /tmp/ccCfRYbv.s:60     .text:0000000000000054 .L0 
     /tmp/ccCfRYbv.s:62     .text:0000000000000058 .L0 
     /tmp/ccCfRYbv.s:64     .text:000000000000005c .L0 
     /tmp/ccCfRYbv.s:70     .text:000000000000005c _ZN4_sem5closeEPS_
     /tmp/ccCfRYbv.s:73     .text:000000000000005c .L0 
     /tmp/ccCfRYbv.s:75     .text:000000000000005c .L0 
     /tmp/ccCfRYbv.s:76     .text:0000000000000060 .L0 
     /tmp/ccCfRYbv.s:80     .text:000000000000006c .L0 
     /tmp/ccCfRYbv.s:81     .text:000000000000006c .L0 
     /tmp/ccCfRYbv.s:82     .text:000000000000006c .L0 
     /tmp/ccCfRYbv.s:84     .text:0000000000000070 .L0 
     /tmp/ccCfRYbv.s:89     .text:0000000000000074 .L0 
     /tmp/ccCfRYbv.s:90     .text:0000000000000074 .L0 
     /tmp/ccCfRYbv.s:91     .text:0000000000000074 .L0 
     /tmp/ccCfRYbv.s:93     .text:0000000000000078 .L0 
     /tmp/ccCfRYbv.s:95     .text:000000000000007c .L0 
     /tmp/ccCfRYbv.s:96     .text:000000000000007c .L0 
     /tmp/ccCfRYbv.s:101    .text:000000000000008c .L0 
     /tmp/ccCfRYbv.s:102    .text:000000000000008c .L0 
     /tmp/ccCfRYbv.s:106    .text:0000000000000098 .L0 
     /tmp/ccCfRYbv.s:107    .text:0000000000000098 .L0 
     /tmp/ccCfRYbv.s:109    .text:000000000000009c .L0 
     /tmp/ccCfRYbv.s:111    .text:00000000000000a0 .L0 
     /tmp/ccCfRYbv.s:113    .text:00000000000000a4 .L0 
     /tmp/ccCfRYbv.s:116    .text:00000000000000a8 .L0 
     /tmp/ccCfRYbv.s:117    .text:00000000000000ac .L0 
     /tmp/ccCfRYbv.s:119    .text:00000000000000b0 .L0 
     /tmp/ccCfRYbv.s:120    .text:00000000000000b0 .L0 
     /tmp/ccCfRYbv.s:122    .text:00000000000000b4 .L0 
     /tmp/ccCfRYbv.s:125    .text:00000000000000b8 .L0 
GAS LISTING /tmp/ccCfRYbv.s 			page 10


     /tmp/ccCfRYbv.s:127    .text:00000000000000bc .L0 
     /tmp/ccCfRYbv.s:133    .text:00000000000000bc _ZN4_sem4waitEPS_
     /tmp/ccCfRYbv.s:136    .text:00000000000000bc .L0 
     /tmp/ccCfRYbv.s:138    .text:00000000000000bc .L0 
     /tmp/ccCfRYbv.s:139    .text:00000000000000bc .L0 
     /tmp/ccCfRYbv.s:140    .text:00000000000000bc .L0 
     /tmp/ccCfRYbv.s:142    .text:00000000000000c0 .L0 
     /tmp/ccCfRYbv.s:146    .text:00000000000000c8 .L0 
     /tmp/ccCfRYbv.s:152    .text:00000000000000d4 .L0 
     /tmp/ccCfRYbv.s:153    .text:00000000000000d8 .L0 
     /tmp/ccCfRYbv.s:157    .text:00000000000000e4 .L0 
     /tmp/ccCfRYbv.s:158    .text:00000000000000e4 .L0 
     /tmp/ccCfRYbv.s:159    .text:00000000000000e4 .L0 
     /tmp/ccCfRYbv.s:161    .text:00000000000000e8 .L0 
     /tmp/ccCfRYbv.s:166    .text:00000000000000ec .L0 
     /tmp/ccCfRYbv.s:167    .text:00000000000000ec .L0 
     /tmp/ccCfRYbv.s:172    .text:00000000000000f8 .L0 
     /tmp/ccCfRYbv.s:173    .text:00000000000000f8 .L0 
     /tmp/ccCfRYbv.s:177    .text:0000000000000108 .L0 
     /tmp/ccCfRYbv.s:178    .text:0000000000000108 .L0 
     /tmp/ccCfRYbv.s:180    .text:000000000000010c .L0 
     /tmp/ccCfRYbv.s:181    .text:000000000000010c .L0 
     /tmp/ccCfRYbv.s:183    .text:0000000000000110 .L0 
     /tmp/ccCfRYbv.s:185    .text:0000000000000114 .L0 
     /tmp/ccCfRYbv.s:186    .text:0000000000000114 .L0 
     /tmp/ccCfRYbv.s:188    .text:0000000000000118 .L0 
     /tmp/ccCfRYbv.s:190    .text:000000000000011c .L0 
     /tmp/ccCfRYbv.s:191    .text:000000000000011c .L0 
     /tmp/ccCfRYbv.s:194    .text:0000000000000120 .L0 
     /tmp/ccCfRYbv.s:195    .text:0000000000000120 .L0 
     /tmp/ccCfRYbv.s:202    .text:0000000000000138 .L0 
     /tmp/ccCfRYbv.s:203    .text:0000000000000138 .L0 
     /tmp/ccCfRYbv.s:208    .text:0000000000000140 .L0 
     /tmp/ccCfRYbv.s:209    .text:0000000000000144 .L0 
     /tmp/ccCfRYbv.s:210    .text:0000000000000144 .L0 
     /tmp/ccCfRYbv.s:212    .text:0000000000000148 .L0 
     /tmp/ccCfRYbv.s:213    .text:0000000000000148 .L0 
     /tmp/ccCfRYbv.s:215    .text:000000000000014c .L0 
     /tmp/ccCfRYbv.s:218    .text:0000000000000150 .L0 
     /tmp/ccCfRYbv.s:222    .text:0000000000000154 .L0 
     /tmp/ccCfRYbv.s:226    .text:0000000000000154 .L0 
     /tmp/ccCfRYbv.s:227    .text:0000000000000154 .L0 
     /tmp/ccCfRYbv.s:229    .text:0000000000000158 .L0 
     /tmp/ccCfRYbv.s:230    .text:0000000000000158 .L0 
     /tmp/ccCfRYbv.s:234    .text:0000000000000160 .L0 
     /tmp/ccCfRYbv.s:240    .text:0000000000000160 _ZN4_sem6signalEPS_
     /tmp/ccCfRYbv.s:243    .text:0000000000000160 .L0 
     /tmp/ccCfRYbv.s:245    .text:0000000000000160 .L0 
     /tmp/ccCfRYbv.s:246    .text:0000000000000160 .L0 
     /tmp/ccCfRYbv.s:247    .text:0000000000000160 .L0 
     /tmp/ccCfRYbv.s:249    .text:0000000000000164 .L0 
     /tmp/ccCfRYbv.s:254    .text:0000000000000170 .L0 
     /tmp/ccCfRYbv.s:259    .text:0000000000000178 .L0 
     /tmp/ccCfRYbv.s:260    .text:000000000000017c .L0 
     /tmp/ccCfRYbv.s:264    .text:0000000000000188 .L0 
     /tmp/ccCfRYbv.s:265    .text:0000000000000188 .L0 
     /tmp/ccCfRYbv.s:266    .text:0000000000000188 .L0 
GAS LISTING /tmp/ccCfRYbv.s 			page 11


     /tmp/ccCfRYbv.s:268    .text:000000000000018c .L0 
     /tmp/ccCfRYbv.s:272    .text:000000000000018c .L0 
     /tmp/ccCfRYbv.s:273    .text:000000000000018c .L0 
     /tmp/ccCfRYbv.s:276    .text:0000000000000190 .L0 
     /tmp/ccCfRYbv.s:277    .text:0000000000000190 .L0 
     /tmp/ccCfRYbv.s:279    .text:0000000000000194 .L0 
     /tmp/ccCfRYbv.s:281    .text:0000000000000198 .L0 
     /tmp/ccCfRYbv.s:284    .text:000000000000019c .L0 
     /tmp/ccCfRYbv.s:285    .text:000000000000019c .L0 
     /tmp/ccCfRYbv.s:291    .text:00000000000001ac .L0 
     /tmp/ccCfRYbv.s:292    .text:00000000000001ac .L0 
     /tmp/ccCfRYbv.s:296    .text:00000000000001b8 .L0 
     /tmp/ccCfRYbv.s:297    .text:00000000000001b8 .L0 
     /tmp/ccCfRYbv.s:298    .text:00000000000001b8 .L0 
     /tmp/ccCfRYbv.s:304    .text:00000000000001c4 .L0 
     /tmp/ccCfRYbv.s:305    .text:00000000000001c8 .L0 
     /tmp/ccCfRYbv.s:306    .text:00000000000001c8 .L0 
     /tmp/ccCfRYbv.s:308    .text:00000000000001cc .L0 
     /tmp/ccCfRYbv.s:309    .text:00000000000001cc .L0 
     /tmp/ccCfRYbv.s:311    .text:00000000000001d0 .L0 
     /tmp/ccCfRYbv.s:314    .text:00000000000001d4 .L0 
     /tmp/ccCfRYbv.s:318    .text:00000000000001d8 .L0 
     /tmp/ccCfRYbv.s:322    .text:00000000000001d8 .L0 
     /tmp/ccCfRYbv.s:323    .text:00000000000001d8 .L0 
     /tmp/ccCfRYbv.s:327    .text:00000000000001e0 .L0 
     /tmp/ccCfRYbv.s:336    .text:00000000000001e0 .L0 
     /tmp/ccCfRYbv.s:173    .text:00000000000000f8 .L0 
     /tmp/ccCfRYbv.s:196    .text:0000000000000124 .L0 
     /tmp/ccCfRYbv.s:114    .text:00000000000000a8 .L3
     /tmp/ccCfRYbv.s:87     .text:0000000000000074 .L5
     /tmp/ccCfRYbv.s:149    .text:00000000000000d4 .L15
     /tmp/ccCfRYbv.s:221    .text:0000000000000154 .L16
     /tmp/ccCfRYbv.s:192    .text:0000000000000120 .L10
     /tmp/ccCfRYbv.s:256    .text:0000000000000178 .L24
     /tmp/ccCfRYbv.s:317    .text:00000000000001d8 .L25
     /tmp/ccCfRYbv.s:282    .text:000000000000019c .L19
     /tmp/ccCfRYbv.s:1340   .debug_abbrev:0000000000000000 .Ldebug_abbrev0
     /tmp/ccCfRYbv.s:2383   .debug_str:0000000000000458 .LASF92
     /tmp/ccCfRYbv.s:2279   .debug_str:00000000000001be .LASF93
     /tmp/ccCfRYbv.s:2339   .debug_str:0000000000000316 .LASF94
     /tmp/ccCfRYbv.s:5      .text:0000000000000000 .Ltext0
     /tmp/ccCfRYbv.s:330    .text:00000000000001e0 .Letext0
     /tmp/ccCfRYbv.s:2209   .debug_line:0000000000000000 .Ldebug_line0
     /tmp/ccCfRYbv.s:2331   .debug_str:00000000000002ed .LASF0
     /tmp/ccCfRYbv.s:2343   .debug_str:0000000000000366 .LASF1
     /tmp/ccCfRYbv.s:2317   .debug_str:0000000000000284 .LASF2
     /tmp/ccCfRYbv.s:2371   .debug_str:0000000000000414 .LASF3
     /tmp/ccCfRYbv.s:2295   .debug_str:000000000000020c .LASF4
     /tmp/ccCfRYbv.s:2373   .debug_str:000000000000041b .LASF5
     /tmp/ccCfRYbv.s:2239   .debug_str:00000000000000d4 .LASF6
     /tmp/ccCfRYbv.s:2269   .debug_str:0000000000000183 .LASF7
     /tmp/ccCfRYbv.s:2345   .debug_str:0000000000000379 .LASF8
     /tmp/ccCfRYbv.s:2329   .debug_str:00000000000002da .LASF9
     /tmp/ccCfRYbv.s:2395   .debug_str:000000000000056b .LASF10
     /tmp/ccCfRYbv.s:2285   .debug_str:00000000000001d7 .LASF11
     /tmp/ccCfRYbv.s:2355   .debug_str:00000000000003ad .LASF12
     /tmp/ccCfRYbv.s:2387   .debug_str:0000000000000526 .LASF13
GAS LISTING /tmp/ccCfRYbv.s 			page 12


     /tmp/ccCfRYbv.s:2243   .debug_str:00000000000000ee .LASF14
     /tmp/ccCfRYbv.s:2219   .debug_str:000000000000002f .LASF15
     /tmp/ccCfRYbv.s:2249   .debug_str:0000000000000112 .LASF16
     /tmp/ccCfRYbv.s:2369   .debug_str:00000000000003fe .LASF17
     /tmp/ccCfRYbv.s:2263   .debug_str:0000000000000160 .LASF18
     /tmp/ccCfRYbv.s:2291   .debug_str:00000000000001ff .LASF35
     /tmp/ccCfRYbv.s:2321   .debug_str:0000000000000297 .LASF20
     /tmp/ccCfRYbv.s:2367   .debug_str:00000000000003f6 .LASF19
     /tmp/ccCfRYbv.s:2323   .debug_str:00000000000002a6 .LASF21
     /tmp/ccCfRYbv.s:2347   .debug_str:000000000000038c .LASF22
     /tmp/ccCfRYbv.s:2415   .debug_str:0000000000000604 .LASF23
     /tmp/ccCfRYbv.s:2307   .debug_str:0000000000000254 .LASF25
     /tmp/ccCfRYbv.s:2221   .debug_str:000000000000003f .LASF27
     /tmp/ccCfRYbv.s:2283   .debug_str:00000000000001d2 .LASF24
     /tmp/ccCfRYbv.s:2309   .debug_str:000000000000025b .LASF72
     /tmp/ccCfRYbv.s:2401   .debug_str:00000000000005ae .LASF74
     /tmp/ccCfRYbv.s:2333   .debug_str:00000000000002fa .LASF95
     /tmp/ccCfRYbv.s:2381   .debug_str:0000000000000441 .LASF96
     /tmp/ccCfRYbv.s:2375   .debug_str:000000000000042d .LASF26
     /tmp/ccCfRYbv.s:2303   .debug_str:0000000000000238 .LASF28
     /tmp/ccCfRYbv.s:2271   .debug_str:000000000000018a .LASF97
     /tmp/ccCfRYbv.s:2223   .debug_str:0000000000000064 .LASF29
     /tmp/ccCfRYbv.s:2421   .debug_str:0000000000000613 .LASF30
     /tmp/ccCfRYbv.s:2245   .debug_str:00000000000000fe .LASF31
     /tmp/ccCfRYbv.s:2231   .debug_str:0000000000000090 .LASF32
     /tmp/ccCfRYbv.s:2275   .debug_str:00000000000001ac .LASF33
     /tmp/ccCfRYbv.s:2399   .debug_str:0000000000000593 .LASF34
     /tmp/ccCfRYbv.s:2409   .debug_str:00000000000005ed .LASF98
     /tmp/ccCfRYbv.s:2241   .debug_str:00000000000000db .LASF99
     /tmp/ccCfRYbv.s:2397   .debug_str:000000000000057b .LASF37
     /tmp/ccCfRYbv.s:2377   .debug_str:0000000000000432 .LASF100
     /tmp/ccCfRYbv.s:2363   .debug_str:00000000000003d7 .LASF101
     /tmp/ccCfRYbv.s:2301   .debug_str:0000000000000231 .LASF36
     /tmp/ccCfRYbv.s:2299   .debug_str:000000000000021c .LASF38
     /tmp/ccCfRYbv.s:2337   .debug_str:000000000000030e .LASF39
     /tmp/ccCfRYbv.s:2413   .debug_str:00000000000005fb .LASF40
     /tmp/ccCfRYbv.s:2361   .debug_str:00000000000003ce .LASF41
     /tmp/ccCfRYbv.s:2297   .debug_str:0000000000000213 .LASF42
     /tmp/ccCfRYbv.s:2313   .debug_str:0000000000000272 .LASF43
     /tmp/ccCfRYbv.s:2315   .debug_str:000000000000027d .LASF44
     /tmp/ccCfRYbv.s:2213   .debug_str:0000000000000009 .LASF45
     /tmp/ccCfRYbv.s:2357   .debug_str:00000000000003bc .LASF46
     /tmp/ccCfRYbv.s:2365   .debug_str:00000000000003ed .LASF47
     /tmp/ccCfRYbv.s:2267   .debug_str:000000000000017c .LASF48
     /tmp/ccCfRYbv.s:2411   .debug_str:00000000000005f2 .LASF49
     /tmp/ccCfRYbv.s:2351   .debug_str:000000000000039a .LASF50
     /tmp/ccCfRYbv.s:2305   .debug_str:000000000000024d .LASF80
     /tmp/ccCfRYbv.s:2405   .debug_str:00000000000005c7 .LASF102
     /tmp/ccCfRYbv.s:2341   .debug_str:0000000000000332 .LASF103
     /tmp/ccCfRYbv.s:2227   .debug_str:0000000000000081 .LASF51
     /tmp/ccCfRYbv.s:2211   .debug_str:0000000000000000 .LASF52
     /tmp/ccCfRYbv.s:2293   .debug_str:0000000000000207 .LASF53
     /tmp/ccCfRYbv.s:2311   .debug_str:0000000000000260 .LASF54
     /tmp/ccCfRYbv.s:2281   .debug_str:00000000000001ca .LASF55
     /tmp/ccCfRYbv.s:2287   .debug_str:00000000000001e5 .LASF56
     /tmp/ccCfRYbv.s:2393   .debug_str:0000000000000566 .LASF57
     /tmp/ccCfRYbv.s:2217   .debug_str:000000000000001b .LASF58
GAS LISTING /tmp/ccCfRYbv.s 			page 13


     /tmp/ccCfRYbv.s:2403   .debug_str:00000000000005c1 .LASF59
     /tmp/ccCfRYbv.s:2325   .debug_str:00000000000002b5 .LASF60
     /tmp/ccCfRYbv.s:2417   .debug_str:0000000000000609 .LASF61
     /tmp/ccCfRYbv.s:2327   .debug_str:00000000000002c8 .LASF62
     /tmp/ccCfRYbv.s:2349   .debug_str:0000000000000393 .LASF63
     /tmp/ccCfRYbv.s:2273   .debug_str:0000000000000198 .LASF64
     /tmp/ccCfRYbv.s:2235   .debug_str:00000000000000c1 .LASF65
     /tmp/ccCfRYbv.s:2385   .debug_str:000000000000051c .LASF66
     /tmp/ccCfRYbv.s:2265   .debug_str:0000000000000176 .LASF67
     /tmp/ccCfRYbv.s:2277   .debug_str:00000000000001b8 .LASF68
     /tmp/ccCfRYbv.s:2353   .debug_str:00000000000003a3 .LASF69
     /tmp/ccCfRYbv.s:2335   .debug_str:0000000000000303 .LASF70
     /tmp/ccCfRYbv.s:2225   .debug_str:000000000000006f .LASF71
     /tmp/ccCfRYbv.s:2391   .debug_str:000000000000054a .LASF104
     /tmp/ccCfRYbv.s:2289   .debug_str:00000000000001eb .LASF105
     /tmp/ccCfRYbv.s:2255   .debug_str:000000000000013c .LASF73
     /tmp/ccCfRYbv.s:2407   .debug_str:00000000000005d5 .LASF75
     /tmp/ccCfRYbv.s:2237   .debug_str:00000000000000cb .LASF76
     /tmp/ccCfRYbv.s:2233   .debug_str:00000000000000a8 .LASF77
     /tmp/ccCfRYbv.s:2261   .debug_str:000000000000015b .LASF78
     /tmp/ccCfRYbv.s:2319   .debug_str:0000000000000292 .LASF79
     /tmp/ccCfRYbv.s:2247   .debug_str:0000000000000108 .LASF81
     /tmp/ccCfRYbv.s:241    .text:0000000000000160 .LFB3
     /tmp/ccCfRYbv.s:328    .text:00000000000001e0 .LFE3
     /tmp/ccCfRYbv.s:2062   .debug_loc:0000000000000000 .LLST5
     /tmp/ccCfRYbv.s:2195   .debug_ranges:0000000000000000 .Ldebug_ranges0
     /tmp/ccCfRYbv.s:2259   .debug_str:0000000000000152 .LASF82
     /tmp/ccCfRYbv.s:2080   .debug_loc:000000000000004c .LLST6
     /tmp/ccCfRYbv.s:2091   .debug_loc:0000000000000082 .LLST7
     /tmp/ccCfRYbv.s:289    .text:00000000000001ac .LVL20
     /tmp/ccCfRYbv.s:294    .text:00000000000001b8 .LVL21
     /tmp/ccCfRYbv.s:300    .text:00000000000001c4 .LVL22
     /tmp/ccCfRYbv.s:134    .text:00000000000000bc .LFB2
     /tmp/ccCfRYbv.s:235    .text:0000000000000160 .LFE2
     /tmp/ccCfRYbv.s:2099   .debug_loc:00000000000000a6 .LLST3
     /tmp/ccCfRYbv.s:2229   .debug_str:0000000000000086 .LASF83
     /tmp/ccCfRYbv.s:2121   .debug_loc:0000000000000105 .LLST4
     /tmp/ccCfRYbv.s:170    .text:00000000000000f8 .LVL11
     /tmp/ccCfRYbv.s:200    .text:0000000000000138 .LVL13
     /tmp/ccCfRYbv.s:204    .text:0000000000000140 .LVL14
     /tmp/ccCfRYbv.s:71     .text:000000000000005c .LFB1
     /tmp/ccCfRYbv.s:128    .text:00000000000000bc .LFE1
     /tmp/ccCfRYbv.s:2132   .debug_loc:000000000000013b .LLST2
     /tmp/ccCfRYbv.s:99     .text:000000000000008c .LVL6
     /tmp/ccCfRYbv.s:104    .text:0000000000000098 .LVL7
     /tmp/ccCfRYbv.s:10     .text:0000000000000000 .LFB0
     /tmp/ccCfRYbv.s:65     .text:000000000000005c .LFE0
     /tmp/ccCfRYbv.s:2379   .debug_str:000000000000043a .LASF84
     /tmp/ccCfRYbv.s:2150   .debug_loc:0000000000000187 .LLST0
     /tmp/ccCfRYbv.s:2419   .debug_str:000000000000060e .LASF85
     /tmp/ccCfRYbv.s:2168   .debug_loc:00000000000001d3 .LLST1
     /tmp/ccCfRYbv.s:34     .text:000000000000002c .LVL2
     /tmp/ccCfRYbv.s:2253   .debug_str:000000000000012e .LASF86
     /tmp/ccCfRYbv.s:2359   .debug_str:00000000000003c5 .LASF88
     /tmp/ccCfRYbv.s:2257   .debug_str:0000000000000144 .LASF87
     /tmp/ccCfRYbv.s:2215   .debug_str:0000000000000011 .LASF89
     /tmp/ccCfRYbv.s:2389   .debug_str:0000000000000535 .LASF90
GAS LISTING /tmp/ccCfRYbv.s 			page 14


     /tmp/ccCfRYbv.s:2251   .debug_str:000000000000011e .LASF91
     /tmp/ccCfRYbv.s:244    .text:0000000000000160 .LVL17
     /tmp/ccCfRYbv.s:287    .text:00000000000001a4 .LVL19
     /tmp/ccCfRYbv.s:316    .text:00000000000001d8 .LVL24
     /tmp/ccCfRYbv.s:274    .text:0000000000000190 .LVL18
     /tmp/ccCfRYbv.s:312    .text:00000000000001d0 .LVL23
     /tmp/ccCfRYbv.s:137    .text:00000000000000bc .LVL9
     /tmp/ccCfRYbv.s:168    .text:00000000000000f0 .LVL10
     /tmp/ccCfRYbv.s:216    .text:000000000000014c .LVL15
     /tmp/ccCfRYbv.s:220    .text:0000000000000154 .LVL16
     /tmp/ccCfRYbv.s:198    .text:0000000000000130 .LVL12
     /tmp/ccCfRYbv.s:74     .text:000000000000005c .LVL4
     /tmp/ccCfRYbv.s:86     .text:0000000000000074 .LVL5
     /tmp/ccCfRYbv.s:123    .text:00000000000000b4 .LVL8
     /tmp/ccCfRYbv.s:14     .text:0000000000000000 .LVL0
     /tmp/ccCfRYbv.s:32     .text:0000000000000024 .LVL1
     /tmp/ccCfRYbv.s:58     .text:0000000000000050 .LVL3
     /tmp/ccCfRYbv.s:337    .debug_info:0000000000000000 .Ldebug_info0
     /tmp/ccCfRYbv.s:164    .text:00000000000000ec .LBB3
     /tmp/ccCfRYbv.s:205    .text:0000000000000140 .LBE3
     /tmp/ccCfRYbv.s:224    .text:0000000000000154 .LBB4
     /tmp/ccCfRYbv.s:232    .text:0000000000000160 .LBE4
     /tmp/ccCfRYbv.s:270    .text:000000000000018c .LBB8
     /tmp/ccCfRYbv.s:301    .text:00000000000001c4 .LBE8
     /tmp/ccCfRYbv.s:320    .text:00000000000001d8 .LBB9
     /tmp/ccCfRYbv.s:325    .text:00000000000001e0 .LBE9

UNDEFINED SYMBOLS
_Z9mem_allocm
_ZN7_thread9setClosedEb
_Z8mem_freePv
_ZN7_thread13currentThreadE
_ZN7_thread10setBlockedEb
_Z15thread_dispatchv
_ZN9Scheduler3putEP7_thread
