GAS LISTING /tmp/ccHwop0z.s 			page 1


   1              		.file	"sem.cpp"
   2              		.option pic
   3              		.option norelax
   4              		.text
   5              	.Ltext0:
   6              		.align	2
   7              		.globl	_ZN4_sem4openEPPS_j
   9              	_ZN4_sem4openEPPS_j:
  10              	.LFB0:
  11              		.file 1 "src/sem.cpp"
   1:src/sem.cpp   **** /**
   2:src/sem.cpp   ****  * @file semaphore.cpp
   3:src/sem.cpp   ****  * @author stcksmsh (vukicevickosta@gmail.com)
   4:src/sem.cpp   ****  * @brief implementation of the _sem class
   5:src/sem.cpp   ****  * @version 0.1
   6:src/sem.cpp   ****  * @date 2024-01-02
   7:src/sem.cpp   ****  * 
   8:src/sem.cpp   ****  * @copyright Copyright (c) 2024
   9:src/sem.cpp   ****  * 
  10:src/sem.cpp   ****  */
  11:src/sem.cpp   **** 
  12:src/sem.cpp   **** #include "sem.h"
  13:src/sem.cpp   **** #include "syscalls_c.h"
  14:src/sem.cpp   **** #include "assert.h"
  15:src/sem.cpp   **** #include "sched.h"
  16:src/sem.cpp   **** #include "console.h"
  17:src/sem.cpp   **** 
  18:src/sem.cpp   **** void _sem::open(_sem** handle, unsigned init){
  12              		.loc 1 18 46
  13              		.cfi_startproc
  14              	.LVL0:
  15 0000 130101FE 		addi	sp,sp,-32
  16              		.cfi_def_cfa_offset 32
  17 0004 233C1100 		sd	ra,24(sp)
  18 0008 23388100 		sd	s0,16(sp)
  19 000c 23349100 		sd	s1,8(sp)
  20 0010 23302101 		sd	s2,0(sp)
  21              		.cfi_offset 1, -8
  22              		.cfi_offset 8, -16
  23              		.cfi_offset 9, -24
  24              		.cfi_offset 18, -32
  25 0014 13040102 		addi	s0,sp,32
  26              		.cfi_def_cfa 8, 0
  27 0018 93040500 		mv	s1,a0
  28 001c 13890500 		mv	s2,a1
  19:src/sem.cpp   ****     (*handle) = (sem_t)mem_alloc(sizeof(_sem));
  29              		.loc 1 19 5
  30              		.loc 1 19 33 is_stmt 0
  31 0020 13058001 		li	a0,24
  32              	.LVL1:
  33 0024 97000000 		call	_Z9mem_allocm@plt
  33      E7800000 
  34              	.LVL2:
  35              		.loc 1 19 15
  36 002c 23B0A400 		sd	a0,0(s1)
  20:src/sem.cpp   ****     (*handle)->blockHead = 0;
  37              		.loc 1 20 5 is_stmt 1
GAS LISTING /tmp/ccHwop0z.s 			page 2


  38              		.loc 1 20 26 is_stmt 0
  39 0030 23300500 		sd	zero,0(a0)
  21:src/sem.cpp   ****     (*handle)->blockTail = 0;
  40              		.loc 1 21 5 is_stmt 1
  41              		.loc 1 21 6 is_stmt 0
  42 0034 83B70400 		ld	a5,0(s1)
  43              		.loc 1 21 26
  44 0038 23B40700 		sd	zero,8(a5)
  22:src/sem.cpp   ****     (*handle)->value = init;
  45              		.loc 1 22 5 is_stmt 1
  46              		.loc 1 22 6 is_stmt 0
  47 003c 83B70400 		ld	a5,0(s1)
  48              		.loc 1 22 22
  49 0040 23A82701 		sw	s2,16(a5)
  23:src/sem.cpp   **** }
  50              		.loc 1 23 1
  51 0044 83308101 		ld	ra,24(sp)
  52              		.cfi_restore 1
  53 0048 03340101 		ld	s0,16(sp)
  54              		.cfi_restore 8
  55              		.cfi_def_cfa 2, 32
  56 004c 83348100 		ld	s1,8(sp)
  57              		.cfi_restore 9
  58              	.LVL3:
  59 0050 03390100 		ld	s2,0(sp)
  60              		.cfi_restore 18
  61 0054 13010102 		addi	sp,sp,32
  62              		.cfi_def_cfa_offset 0
  63 0058 67800000 		jr	ra
  64              		.cfi_endproc
  65              	.LFE0:
  67              		.align	2
  68              		.globl	_ZN4_sem5closeEPS_
  70              	_ZN4_sem5closeEPS_:
  71              	.LFB1:
  24:src/sem.cpp   **** 
  25:src/sem.cpp   **** void _sem::close(sem_t id){
  72              		.loc 1 25 27 is_stmt 1
  73              		.cfi_startproc
  74              	.LVL4:
  75 005c 130101FE 		addi	sp,sp,-32
  76              		.cfi_def_cfa_offset 32
  77 0060 233C1100 		sd	ra,24(sp)
  78 0064 23388100 		sd	s0,16(sp)
  79 0068 23349100 		sd	s1,8(sp)
  80              		.cfi_offset 1, -8
  81              		.cfi_offset 8, -16
  82              		.cfi_offset 9, -24
  83 006c 13040102 		addi	s0,sp,32
  84              		.cfi_def_cfa 8, 0
  85 0070 93040500 		mv	s1,a0
  86              	.LVL5:
  87              	.L5:
  26:src/sem.cpp   ****     while(id->blockHead != 0){
  88              		.loc 1 26 5
  89              		.loc 1 26 25
  90              		.loc 1 26 15 is_stmt 0
GAS LISTING /tmp/ccHwop0z.s 			page 3


  91 0074 83B70400 		ld	a5,0(s1)
  92              		.loc 1 26 25
  93 0078 63880702 		beqz	a5,.L3
  27:src/sem.cpp   ****         id->blockHead->pThread->setClosed(true);
  94              		.loc 1 27 9 is_stmt 1
  95              		.loc 1 27 42 is_stmt 0
  96 007c 93051000 		li	a1,1
  97 0080 03B50700 		ld	a0,0(a5)
  98 0084 97000000 		call	_ZN7_thread9setClosedEb@plt
  98      E7800000 
  99              	.LVL6:
  28:src/sem.cpp   ****         mem_free(id->blockHead);
 100              		.loc 1 28 9 is_stmt 1
 101              		.loc 1 28 17 is_stmt 0
 102 008c 03B50400 		ld	a0,0(s1)
 103 0090 97000000 		call	_Z8mem_freePv@plt
 103      E7800000 
 104              	.LVL7:
  29:src/sem.cpp   ****         id->blockHead = id->blockHead->pNext;
 105              		.loc 1 29 9 is_stmt 1
 106              		.loc 1 29 29 is_stmt 0
 107 0098 83B70400 		ld	a5,0(s1)
 108              		.loc 1 29 40
 109 009c 83B78700 		ld	a5,8(a5)
 110              		.loc 1 29 23
 111 00a0 23B0F400 		sd	a5,0(s1)
  26:src/sem.cpp   ****         id->blockHead->pThread->setClosed(true);
 112              		.loc 1 26 5
 113 00a4 6FF01FFD 		j	.L5
 114              	.L3:
  30:src/sem.cpp   ****     }
  31:src/sem.cpp   **** }
 115              		.loc 1 31 1
 116 00a8 83308101 		ld	ra,24(sp)
 117              		.cfi_restore 1
 118 00ac 03340101 		ld	s0,16(sp)
 119              		.cfi_restore 8
 120              		.cfi_def_cfa 2, 32
 121 00b0 83348100 		ld	s1,8(sp)
 122              		.cfi_restore 9
 123              	.LVL8:
 124 00b4 13010102 		addi	sp,sp,32
 125              		.cfi_def_cfa_offset 0
 126 00b8 67800000 		jr	ra
 127              		.cfi_endproc
 128              	.LFE1:
 130              		.align	2
 131              		.globl	_ZN4_sem4waitEPS_
 133              	_ZN4_sem4waitEPS_:
 134              	.LFB2:
  32:src/sem.cpp   **** 
  33:src/sem.cpp   **** void _sem::wait(sem_t id){
 135              		.loc 1 33 26 is_stmt 1
 136              		.cfi_startproc
 137              	.LVL9:
  34:src/sem.cpp   ****     id->value--;
 138              		.loc 1 34 5
GAS LISTING /tmp/ccHwop0z.s 			page 4


 139              		.loc 1 34 9 is_stmt 0
 140 00bc 83270501 		lw	a5,16(a0)
 141              		.loc 1 34 14
 142 00c0 9B87F7FF 		addiw	a5,a5,-1
 143 00c4 2328F500 		sw	a5,16(a0)
  35:src/sem.cpp   ****     if(id->value < 0){
 144              		.loc 1 35 5 is_stmt 1
 145              	.LBB2:
 146 00c8 13970702 		slli	a4,a5,32
 147 00cc 63440700 		bltz	a4,.L15
 148 00d0 67800000 		ret
 149              	.L15:
 150              	.LBE2:
  33:src/sem.cpp   ****     id->value--;
 151              		.loc 1 33 26 is_stmt 0
 152 00d4 130101FE 		addi	sp,sp,-32
 153              		.cfi_def_cfa_offset 32
 154 00d8 233C1100 		sd	ra,24(sp)
 155 00dc 23388100 		sd	s0,16(sp)
 156 00e0 23349100 		sd	s1,8(sp)
 157              		.cfi_offset 1, -8
 158              		.cfi_offset 8, -16
 159              		.cfi_offset 9, -24
 160 00e4 13040102 		addi	s0,sp,32
 161              		.cfi_def_cfa 8, 0
 162 00e8 93040500 		mv	s1,a0
 163              	.LBB5:
 164              	.LBB3:
  36:src/sem.cpp   ****         blockedThreadList* pNewBlock = (blockedThreadList*)mem_alloc(sizeof(blockedThreadList));
 165              		.loc 1 36 9 is_stmt 1
 166              		.loc 1 36 69 is_stmt 0
 167 00ec 13050001 		li	a0,16
 168              	.LVL10:
 169 00f0 97000000 		call	_Z9mem_allocm@plt
 169      E7800000 
 170              	.LVL11:
  37:src/sem.cpp   ****         pNewBlock->pThread = _thread::currentThread;
 171              		.loc 1 37 9 is_stmt 1
 172              		.loc 1 37 28 is_stmt 0
 173 00f8 97070000 		la	a5,_ZN7_thread13currentThreadE
 173      83B70700 
 174 0100 83B70700 		ld	a5,0(a5)
 175 0104 2330F500 		sd	a5,0(a0)
  38:src/sem.cpp   ****         pNewBlock->pNext = 0;
 176              		.loc 1 38 9 is_stmt 1
 177              		.loc 1 38 26 is_stmt 0
 178 0108 23340500 		sd	zero,8(a0)
  39:src/sem.cpp   ****         if(id->blockHead == 0){
 179              		.loc 1 39 9 is_stmt 1
 180              		.loc 1 39 16 is_stmt 0
 181 010c 83B70400 		ld	a5,0(s1)
 182              		.loc 1 39 9
 183 0110 63880704 		beqz	a5,.L16
  40:src/sem.cpp   ****             id->blockHead = pNewBlock;
  41:src/sem.cpp   ****             id->blockTail = pNewBlock;
  42:src/sem.cpp   ****         }else{
  43:src/sem.cpp   ****             id->blockTail->pNext = pNewBlock;
GAS LISTING /tmp/ccHwop0z.s 			page 5


 184              		.loc 1 43 13 is_stmt 1
 185              		.loc 1 43 17 is_stmt 0
 186 0114 83B78400 		ld	a5,8(s1)
 187              		.loc 1 43 34
 188 0118 23B4A700 		sd	a0,8(a5)
  44:src/sem.cpp   ****             id->blockTail = pNewBlock;
 189              		.loc 1 44 13 is_stmt 1
 190              		.loc 1 44 27 is_stmt 0
 191 011c 23B4A400 		sd	a0,8(s1)
 192              	.L10:
  45:src/sem.cpp   ****         }
  46:src/sem.cpp   ****         _thread::currentThread->setBlocked(true);
 193              		.loc 1 46 9 is_stmt 1
 194              		.loc 1 46 43 is_stmt 0
 195 0120 93051000 		li	a1,1
 196 0124 97070000 		la	a5,_ZN7_thread13currentThreadE
 196      83B70700 
 197 012c 03B50700 		ld	a0,0(a5)
 198              	.LVL12:
 199 0130 97000000 		call	_ZN7_thread10setBlockedEb@plt
 199      E7800000 
 200              	.LVL13:
  47:src/sem.cpp   ****         _thread::dispatch();
 201              		.loc 1 47 9 is_stmt 1
 202              		.loc 1 47 26 is_stmt 0
 203 0138 97000000 		call	_ZN7_thread8dispatchEv@plt
 203      E7800000 
 204              	.LVL14:
  48:src/sem.cpp   ****         __putc('w');
 205              		.loc 1 48 9 is_stmt 1
 206              		.loc 1 48 15 is_stmt 0
 207 0140 13057007 		li	a0,119
 208 0144 97000000 		call	__putc@plt
 208      E7800000 
 209              	.LVL15:
 210              	.LBE3:
 211              	.LBE5:
  49:src/sem.cpp   ****     }
  50:src/sem.cpp   **** }
 212              		.loc 1 50 1
 213 014c 83308101 		ld	ra,24(sp)
 214              		.cfi_remember_state
 215              		.cfi_restore 1
 216 0150 03340101 		ld	s0,16(sp)
 217              		.cfi_restore 8
 218              		.cfi_def_cfa 2, 32
 219 0154 83348100 		ld	s1,8(sp)
 220              		.cfi_restore 9
 221              	.LVL16:
 222 0158 13010102 		addi	sp,sp,32
 223              		.cfi_def_cfa_offset 0
 224 015c 67800000 		jr	ra
 225              	.LVL17:
 226              	.L16:
 227              		.cfi_restore_state
 228              	.LBB6:
 229              	.LBB4:
GAS LISTING /tmp/ccHwop0z.s 			page 6


  40:src/sem.cpp   ****             id->blockTail = pNewBlock;
 230              		.loc 1 40 13 is_stmt 1
  40:src/sem.cpp   ****             id->blockTail = pNewBlock;
 231              		.loc 1 40 27 is_stmt 0
 232 0160 23B0A400 		sd	a0,0(s1)
  41:src/sem.cpp   ****         }else{
 233              		.loc 1 41 13 is_stmt 1
  41:src/sem.cpp   ****         }else{
 234              		.loc 1 41 27 is_stmt 0
 235 0164 23B4A400 		sd	a0,8(s1)
 236 0168 6FF09FFB 		j	.L10
 237              	.LBE4:
 238              	.LBE6:
 239              		.cfi_endproc
 240              	.LFE2:
 242              		.align	2
 243              		.globl	_ZN4_sem6signalEPS_
 245              	_ZN4_sem6signalEPS_:
 246              	.LFB3:
  51:src/sem.cpp   **** 
  52:src/sem.cpp   **** void _sem::signal(sem_t id){
 247              		.loc 1 52 28 is_stmt 1
 248              		.cfi_startproc
 249              	.LVL18:
  53:src/sem.cpp   ****     id->value++;
 250              		.loc 1 53 5
 251              		.loc 1 53 9 is_stmt 0
 252 016c 83270501 		lw	a5,16(a0)
 253              		.loc 1 53 14
 254 0170 9B871700 		addiw	a5,a5,1
 255 0174 1B870700 		sext.w	a4,a5
 256 0178 2328F500 		sw	a5,16(a0)
  54:src/sem.cpp   ****     if(id->value <= 0){
 257              		.loc 1 54 5 is_stmt 1
 258              	.LBB7:
 259 017c 6354E000 		blez	a4,.L24
 260 0180 67800000 		ret
 261              	.L24:
 262              	.LBE7:
  52:src/sem.cpp   ****     id->value++;
 263              		.loc 1 52 28 is_stmt 0
 264 0184 130101FE 		addi	sp,sp,-32
 265              		.cfi_def_cfa_offset 32
 266 0188 233C1100 		sd	ra,24(sp)
 267 018c 23388100 		sd	s0,16(sp)
 268 0190 23349100 		sd	s1,8(sp)
 269              		.cfi_offset 1, -8
 270              		.cfi_offset 8, -16
 271              		.cfi_offset 9, -24
 272 0194 13040102 		addi	s0,sp,32
 273              		.cfi_def_cfa 8, 0
 274              	.LBB10:
 275              	.LBB8:
  55:src/sem.cpp   ****         blockedThreadList* pUnblock = id->blockHead;
 276              		.loc 1 55 9 is_stmt 1
 277              		.loc 1 55 28 is_stmt 0
 278 0198 83340500 		ld	s1,0(a0)
GAS LISTING /tmp/ccHwop0z.s 			page 7


 279              	.LVL19:
  56:src/sem.cpp   ****         id->blockHead = id->blockHead->pNext;
 280              		.loc 1 56 9 is_stmt 1
 281              		.loc 1 56 40 is_stmt 0
 282 019c 83B78400 		ld	a5,8(s1)
 283              		.loc 1 56 23
 284 01a0 2330F500 		sd	a5,0(a0)
  57:src/sem.cpp   ****         if(id->blockHead == 0){
 285              		.loc 1 57 9 is_stmt 1
 286 01a4 63860708 		beqz	a5,.L25
 287              	.L19:
  58:src/sem.cpp   ****             id->blockTail = 0;
  59:src/sem.cpp   ****         }
  60:src/sem.cpp   ****         pUnblock->pThread->setBlocked(false);
 288              		.loc 1 60 9
 289              		.loc 1 60 38 is_stmt 0
 290 01a8 93050000 		li	a1,0
 291 01ac 03B50400 		ld	a0,0(s1)
 292              	.LVL20:
 293 01b0 97000000 		call	_ZN7_thread10setBlockedEb@plt
 293      E7800000 
 294              	.LVL21:
  61:src/sem.cpp   ****         mem_free(pUnblock);
 295              		.loc 1 61 9 is_stmt 1
 296              		.loc 1 61 17 is_stmt 0
 297 01b8 13850400 		mv	a0,s1
 298 01bc 97000000 		call	_Z8mem_freePv@plt
 298      E7800000 
 299              	.LVL22:
  62:src/sem.cpp   ****         thread_t t = pUnblock->pThread;
 300              		.loc 1 62 9 is_stmt 1
 301              		.loc 1 62 18 is_stmt 0
 302 01c4 83B40400 		ld	s1,0(s1)
 303              	.LVL23:
  63:src/sem.cpp   ****         __putc('0' + Scheduler::getCount());
 304              		.loc 1 63 9 is_stmt 1
 305              		.loc 1 63 41 is_stmt 0
 306 01c8 97000000 		call	_ZN9Scheduler8getCountEv@plt
 306      E7800000 
 307              	.LVL24:
 308              		.loc 1 63 15
 309 01d0 1B050503 		addiw	a0,a0,48
 310 01d4 1375F50F 		andi	a0,a0,0xff
 311 01d8 97000000 		call	__putc@plt
 311      E7800000 
 312              	.LVL25:
  64:src/sem.cpp   ****         Scheduler::put(t);
 313              		.loc 1 64 9 is_stmt 1
 314              		.loc 1 64 23 is_stmt 0
 315 01e0 13850400 		mv	a0,s1
 316 01e4 97000000 		call	_ZN9Scheduler3putEP7_thread@plt
 316      E7800000 
 317              	.LVL26:
  65:src/sem.cpp   ****         __putc('=');
 318              		.loc 1 65 9 is_stmt 1
 319              		.loc 1 65 15 is_stmt 0
 320 01ec 1305D003 		li	a0,61
GAS LISTING /tmp/ccHwop0z.s 			page 8


 321 01f0 97000000 		call	__putc@plt
 321      E7800000 
 322              	.LVL27:
  66:src/sem.cpp   ****         __putc('0' + Scheduler::getCount());
 323              		.loc 1 66 9 is_stmt 1
 324              		.loc 1 66 41 is_stmt 0
 325 01f8 97000000 		call	_ZN9Scheduler8getCountEv@plt
 325      E7800000 
 326              	.LVL28:
 327              		.loc 1 66 15
 328 0200 1B050503 		addiw	a0,a0,48
 329 0204 1375F50F 		andi	a0,a0,0xff
 330 0208 97000000 		call	__putc@plt
 330      E7800000 
 331              	.LVL29:
  67:src/sem.cpp   ****         __putc('\n');
 332              		.loc 1 67 9 is_stmt 1
 333              		.loc 1 67 15 is_stmt 0
 334 0210 1305A000 		li	a0,10
 335 0214 97000000 		call	__putc@plt
 335      E7800000 
 336              	.LVL30:
 337              	.LBE8:
 338              	.LBE10:
  68:src/sem.cpp   ****     }
  69:src/sem.cpp   **** }...
 339              		.loc 1 69 1
 340 021c 83308101 		ld	ra,24(sp)
 341              		.cfi_remember_state
 342              		.cfi_restore 1
 343 0220 03340101 		ld	s0,16(sp)
 344              		.cfi_restore 8
 345              		.cfi_def_cfa 2, 32
 346 0224 83348100 		ld	s1,8(sp)
 347              		.cfi_restore 9
 348              	.LVL31:
 349 0228 13010102 		addi	sp,sp,32
 350              		.cfi_def_cfa_offset 0
 351 022c 67800000 		jr	ra
 352              	.LVL32:
 353              	.L25:
 354              		.cfi_restore_state
 355              	.LBB11:
 356              	.LBB9:
  58:src/sem.cpp   ****             id->blockTail = 0;
 357              		.loc 1 58 13 is_stmt 1
  58:src/sem.cpp   ****             id->blockTail = 0;
 358              		.loc 1 58 27 is_stmt 0
 359 0230 23340500 		sd	zero,8(a0)
 360 0234 6FF05FF7 		j	.L19
 361              	.LBE9:
 362              	.LBE11:
 363              		.cfi_endproc
 364              	.LFE3:
 366              	.Letext0:
 367              		.file 2 "./lib/hw.h"
 368              		.file 3 "./h/thread.h"
GAS LISTING /tmp/ccHwop0z.s 			page 9


 369              		.file 4 "./h/sem.h"
 370              		.file 5 "./h/sched.h"
 371              		.file 6 "./h/syscalls_c.h"
 372              		.file 7 "./lib/console.h"
GAS LISTING /tmp/ccHwop0z.s 			page 10


DEFINED SYMBOLS
                            *ABS*:0000000000000000 sem.cpp
     /tmp/ccHwop0z.s:9      .text:0000000000000000 _ZN4_sem4openEPPS_j
     /tmp/ccHwop0z.s:13     .text:0000000000000000 .L0 
     /tmp/ccHwop0z.s:15     .text:0000000000000000 .L0 
     /tmp/ccHwop0z.s:16     .text:0000000000000004 .L0 
     /tmp/ccHwop0z.s:21     .text:0000000000000014 .L0 
     /tmp/ccHwop0z.s:22     .text:0000000000000014 .L0 
     /tmp/ccHwop0z.s:23     .text:0000000000000014 .L0 
     /tmp/ccHwop0z.s:24     .text:0000000000000014 .L0 
     /tmp/ccHwop0z.s:26     .text:0000000000000018 .L0 
     /tmp/ccHwop0z.s:30     .text:0000000000000020 .L0 
     /tmp/ccHwop0z.s:31     .text:0000000000000020 .L0 
     /tmp/ccHwop0z.s:36     .text:000000000000002c .L0 
     /tmp/ccHwop0z.s:38     .text:0000000000000030 .L0 
     /tmp/ccHwop0z.s:39     .text:0000000000000030 .L0 
     /tmp/ccHwop0z.s:41     .text:0000000000000034 .L0 
     /tmp/ccHwop0z.s:42     .text:0000000000000034 .L0 
     /tmp/ccHwop0z.s:44     .text:0000000000000038 .L0 
     /tmp/ccHwop0z.s:46     .text:000000000000003c .L0 
     /tmp/ccHwop0z.s:47     .text:000000000000003c .L0 
     /tmp/ccHwop0z.s:49     .text:0000000000000040 .L0 
     /tmp/ccHwop0z.s:51     .text:0000000000000044 .L0 
     /tmp/ccHwop0z.s:52     .text:0000000000000048 .L0 
     /tmp/ccHwop0z.s:54     .text:000000000000004c .L0 
     /tmp/ccHwop0z.s:55     .text:000000000000004c .L0 
     /tmp/ccHwop0z.s:57     .text:0000000000000050 .L0 
     /tmp/ccHwop0z.s:60     .text:0000000000000054 .L0 
     /tmp/ccHwop0z.s:62     .text:0000000000000058 .L0 
     /tmp/ccHwop0z.s:64     .text:000000000000005c .L0 
     /tmp/ccHwop0z.s:70     .text:000000000000005c _ZN4_sem5closeEPS_
     /tmp/ccHwop0z.s:73     .text:000000000000005c .L0 
     /tmp/ccHwop0z.s:75     .text:000000000000005c .L0 
     /tmp/ccHwop0z.s:76     .text:0000000000000060 .L0 
     /tmp/ccHwop0z.s:80     .text:000000000000006c .L0 
     /tmp/ccHwop0z.s:81     .text:000000000000006c .L0 
     /tmp/ccHwop0z.s:82     .text:000000000000006c .L0 
     /tmp/ccHwop0z.s:84     .text:0000000000000070 .L0 
     /tmp/ccHwop0z.s:89     .text:0000000000000074 .L0 
     /tmp/ccHwop0z.s:90     .text:0000000000000074 .L0 
     /tmp/ccHwop0z.s:91     .text:0000000000000074 .L0 
     /tmp/ccHwop0z.s:93     .text:0000000000000078 .L0 
     /tmp/ccHwop0z.s:95     .text:000000000000007c .L0 
     /tmp/ccHwop0z.s:96     .text:000000000000007c .L0 
     /tmp/ccHwop0z.s:101    .text:000000000000008c .L0 
     /tmp/ccHwop0z.s:102    .text:000000000000008c .L0 
     /tmp/ccHwop0z.s:106    .text:0000000000000098 .L0 
     /tmp/ccHwop0z.s:107    .text:0000000000000098 .L0 
     /tmp/ccHwop0z.s:109    .text:000000000000009c .L0 
     /tmp/ccHwop0z.s:111    .text:00000000000000a0 .L0 
     /tmp/ccHwop0z.s:113    .text:00000000000000a4 .L0 
     /tmp/ccHwop0z.s:116    .text:00000000000000a8 .L0 
     /tmp/ccHwop0z.s:117    .text:00000000000000ac .L0 
     /tmp/ccHwop0z.s:119    .text:00000000000000b0 .L0 
     /tmp/ccHwop0z.s:120    .text:00000000000000b0 .L0 
     /tmp/ccHwop0z.s:122    .text:00000000000000b4 .L0 
     /tmp/ccHwop0z.s:125    .text:00000000000000b8 .L0 
GAS LISTING /tmp/ccHwop0z.s 			page 11


     /tmp/ccHwop0z.s:127    .text:00000000000000bc .L0 
     /tmp/ccHwop0z.s:133    .text:00000000000000bc _ZN4_sem4waitEPS_
     /tmp/ccHwop0z.s:136    .text:00000000000000bc .L0 
     /tmp/ccHwop0z.s:138    .text:00000000000000bc .L0 
     /tmp/ccHwop0z.s:139    .text:00000000000000bc .L0 
     /tmp/ccHwop0z.s:140    .text:00000000000000bc .L0 
     /tmp/ccHwop0z.s:142    .text:00000000000000c0 .L0 
     /tmp/ccHwop0z.s:146    .text:00000000000000c8 .L0 
     /tmp/ccHwop0z.s:152    .text:00000000000000d4 .L0 
     /tmp/ccHwop0z.s:153    .text:00000000000000d8 .L0 
     /tmp/ccHwop0z.s:157    .text:00000000000000e4 .L0 
     /tmp/ccHwop0z.s:158    .text:00000000000000e4 .L0 
     /tmp/ccHwop0z.s:159    .text:00000000000000e4 .L0 
     /tmp/ccHwop0z.s:161    .text:00000000000000e8 .L0 
     /tmp/ccHwop0z.s:166    .text:00000000000000ec .L0 
     /tmp/ccHwop0z.s:167    .text:00000000000000ec .L0 
     /tmp/ccHwop0z.s:172    .text:00000000000000f8 .L0 
     /tmp/ccHwop0z.s:173    .text:00000000000000f8 .L0 
     /tmp/ccHwop0z.s:177    .text:0000000000000108 .L0 
     /tmp/ccHwop0z.s:178    .text:0000000000000108 .L0 
     /tmp/ccHwop0z.s:180    .text:000000000000010c .L0 
     /tmp/ccHwop0z.s:181    .text:000000000000010c .L0 
     /tmp/ccHwop0z.s:183    .text:0000000000000110 .L0 
     /tmp/ccHwop0z.s:185    .text:0000000000000114 .L0 
     /tmp/ccHwop0z.s:186    .text:0000000000000114 .L0 
     /tmp/ccHwop0z.s:188    .text:0000000000000118 .L0 
     /tmp/ccHwop0z.s:190    .text:000000000000011c .L0 
     /tmp/ccHwop0z.s:191    .text:000000000000011c .L0 
     /tmp/ccHwop0z.s:194    .text:0000000000000120 .L0 
     /tmp/ccHwop0z.s:195    .text:0000000000000120 .L0 
     /tmp/ccHwop0z.s:202    .text:0000000000000138 .L0 
     /tmp/ccHwop0z.s:203    .text:0000000000000138 .L0 
     /tmp/ccHwop0z.s:206    .text:0000000000000140 .L0 
     /tmp/ccHwop0z.s:207    .text:0000000000000140 .L0 
     /tmp/ccHwop0z.s:213    .text:000000000000014c .L0 
     /tmp/ccHwop0z.s:214    .text:0000000000000150 .L0 
     /tmp/ccHwop0z.s:215    .text:0000000000000150 .L0 
     /tmp/ccHwop0z.s:217    .text:0000000000000154 .L0 
     /tmp/ccHwop0z.s:218    .text:0000000000000154 .L0 
     /tmp/ccHwop0z.s:220    .text:0000000000000158 .L0 
     /tmp/ccHwop0z.s:223    .text:000000000000015c .L0 
     /tmp/ccHwop0z.s:227    .text:0000000000000160 .L0 
     /tmp/ccHwop0z.s:231    .text:0000000000000160 .L0 
     /tmp/ccHwop0z.s:232    .text:0000000000000160 .L0 
     /tmp/ccHwop0z.s:234    .text:0000000000000164 .L0 
     /tmp/ccHwop0z.s:235    .text:0000000000000164 .L0 
     /tmp/ccHwop0z.s:239    .text:000000000000016c .L0 
     /tmp/ccHwop0z.s:245    .text:000000000000016c _ZN4_sem6signalEPS_
     /tmp/ccHwop0z.s:248    .text:000000000000016c .L0 
     /tmp/ccHwop0z.s:250    .text:000000000000016c .L0 
     /tmp/ccHwop0z.s:251    .text:000000000000016c .L0 
     /tmp/ccHwop0z.s:252    .text:000000000000016c .L0 
     /tmp/ccHwop0z.s:254    .text:0000000000000170 .L0 
     /tmp/ccHwop0z.s:259    .text:000000000000017c .L0 
     /tmp/ccHwop0z.s:264    .text:0000000000000184 .L0 
     /tmp/ccHwop0z.s:265    .text:0000000000000188 .L0 
     /tmp/ccHwop0z.s:269    .text:0000000000000194 .L0 
GAS LISTING /tmp/ccHwop0z.s 			page 12


     /tmp/ccHwop0z.s:270    .text:0000000000000194 .L0 
     /tmp/ccHwop0z.s:271    .text:0000000000000194 .L0 
     /tmp/ccHwop0z.s:273    .text:0000000000000198 .L0 
     /tmp/ccHwop0z.s:277    .text:0000000000000198 .L0 
     /tmp/ccHwop0z.s:278    .text:0000000000000198 .L0 
     /tmp/ccHwop0z.s:281    .text:000000000000019c .L0 
     /tmp/ccHwop0z.s:282    .text:000000000000019c .L0 
     /tmp/ccHwop0z.s:284    .text:00000000000001a0 .L0 
     /tmp/ccHwop0z.s:286    .text:00000000000001a4 .L0 
     /tmp/ccHwop0z.s:289    .text:00000000000001a8 .L0 
     /tmp/ccHwop0z.s:290    .text:00000000000001a8 .L0 
     /tmp/ccHwop0z.s:296    .text:00000000000001b8 .L0 
     /tmp/ccHwop0z.s:297    .text:00000000000001b8 .L0 
     /tmp/ccHwop0z.s:301    .text:00000000000001c4 .L0 
     /tmp/ccHwop0z.s:302    .text:00000000000001c4 .L0 
     /tmp/ccHwop0z.s:305    .text:00000000000001c8 .L0 
     /tmp/ccHwop0z.s:306    .text:00000000000001c8 .L0 
     /tmp/ccHwop0z.s:309    .text:00000000000001d0 .L0 
     /tmp/ccHwop0z.s:314    .text:00000000000001e0 .L0 
     /tmp/ccHwop0z.s:315    .text:00000000000001e0 .L0 
     /tmp/ccHwop0z.s:319    .text:00000000000001ec .L0 
     /tmp/ccHwop0z.s:320    .text:00000000000001ec .L0 
     /tmp/ccHwop0z.s:324    .text:00000000000001f8 .L0 
     /tmp/ccHwop0z.s:325    .text:00000000000001f8 .L0 
     /tmp/ccHwop0z.s:328    .text:0000000000000200 .L0 
     /tmp/ccHwop0z.s:333    .text:0000000000000210 .L0 
     /tmp/ccHwop0z.s:334    .text:0000000000000210 .L0 
     /tmp/ccHwop0z.s:340    .text:000000000000021c .L0 
     /tmp/ccHwop0z.s:341    .text:0000000000000220 .L0 
     /tmp/ccHwop0z.s:342    .text:0000000000000220 .L0 
     /tmp/ccHwop0z.s:344    .text:0000000000000224 .L0 
     /tmp/ccHwop0z.s:345    .text:0000000000000224 .L0 
     /tmp/ccHwop0z.s:347    .text:0000000000000228 .L0 
     /tmp/ccHwop0z.s:350    .text:000000000000022c .L0 
     /tmp/ccHwop0z.s:354    .text:0000000000000230 .L0 
     /tmp/ccHwop0z.s:358    .text:0000000000000230 .L0 
     /tmp/ccHwop0z.s:359    .text:0000000000000230 .L0 
     /tmp/ccHwop0z.s:363    .text:0000000000000238 .L0 
     /tmp/ccHwop0z.s:373    .text:0000000000000238 .L0 
     /tmp/ccHwop0z.s:173    .text:00000000000000f8 .L0 
     /tmp/ccHwop0z.s:196    .text:0000000000000124 .L0 
     /tmp/ccHwop0z.s:114    .text:00000000000000a8 .L3
     /tmp/ccHwop0z.s:87     .text:0000000000000074 .L5
     /tmp/ccHwop0z.s:149    .text:00000000000000d4 .L15
     /tmp/ccHwop0z.s:226    .text:0000000000000160 .L16
     /tmp/ccHwop0z.s:192    .text:0000000000000120 .L10
     /tmp/ccHwop0z.s:261    .text:0000000000000184 .L24
     /tmp/ccHwop0z.s:353    .text:0000000000000230 .L25
     /tmp/ccHwop0z.s:287    .text:00000000000001a8 .L19
     /tmp/ccHwop0z.s:1415   .debug_abbrev:0000000000000000 .Ldebug_abbrev0
     /tmp/ccHwop0z.s:2447   .debug_str:000000000000043c .LASF91
     /tmp/ccHwop0z.s:2341   .debug_str:000000000000019b .LASF92
     /tmp/ccHwop0z.s:2401   .debug_str:00000000000002f3 .LASF93
     /tmp/ccHwop0z.s:5      .text:0000000000000000 .Ltext0
     /tmp/ccHwop0z.s:366    .text:0000000000000238 .Letext0
     /tmp/ccHwop0z.s:2275   .debug_line:0000000000000000 .Ldebug_line0
     /tmp/ccHwop0z.s:2393   .debug_str:00000000000002ca .LASF0
GAS LISTING /tmp/ccHwop0z.s 			page 13


     /tmp/ccHwop0z.s:2405   .debug_str:0000000000000343 .LASF1
     /tmp/ccHwop0z.s:2379   .debug_str:0000000000000261 .LASF2
     /tmp/ccHwop0z.s:2433   .debug_str:00000000000003f1 .LASF3
     /tmp/ccHwop0z.s:2357   .debug_str:00000000000001e9 .LASF4
     /tmp/ccHwop0z.s:2435   .debug_str:00000000000003f8 .LASF5
     /tmp/ccHwop0z.s:2305   .debug_str:00000000000000d4 .LASF6
     /tmp/ccHwop0z.s:2331   .debug_str:0000000000000160 .LASF7
     /tmp/ccHwop0z.s:2407   .debug_str:0000000000000356 .LASF8
     /tmp/ccHwop0z.s:2391   .debug_str:00000000000002b7 .LASF9
     /tmp/ccHwop0z.s:2457   .debug_str:000000000000053a .LASF10
     /tmp/ccHwop0z.s:2347   .debug_str:00000000000001b4 .LASF11
     /tmp/ccHwop0z.s:2417   .debug_str:000000000000038a .LASF12
     /tmp/ccHwop0z.s:2451   .debug_str:000000000000050a .LASF13
     /tmp/ccHwop0z.s:2307   .debug_str:00000000000000db .LASF14
     /tmp/ccHwop0z.s:2285   .debug_str:000000000000002f .LASF15
     /tmp/ccHwop0z.s:2313   .debug_str:00000000000000ff .LASF16
     /tmp/ccHwop0z.s:2431   .debug_str:00000000000003db .LASF17
     /tmp/ccHwop0z.s:2325   .debug_str:000000000000013d .LASF18
     /tmp/ccHwop0z.s:2353   .debug_str:00000000000001dc .LASF35
     /tmp/ccHwop0z.s:2383   .debug_str:0000000000000274 .LASF20
     /tmp/ccHwop0z.s:2429   .debug_str:00000000000003d3 .LASF19
     /tmp/ccHwop0z.s:2385   .debug_str:0000000000000283 .LASF21
     /tmp/ccHwop0z.s:2409   .debug_str:0000000000000369 .LASF22
     /tmp/ccHwop0z.s:2475   .debug_str:00000000000005ce .LASF23
     /tmp/ccHwop0z.s:2369   .debug_str:0000000000000231 .LASF25
     /tmp/ccHwop0z.s:2287   .debug_str:000000000000003f .LASF27
     /tmp/ccHwop0z.s:2345   .debug_str:00000000000001af .LASF24
     /tmp/ccHwop0z.s:2371   .debug_str:0000000000000238 .LASF73
     /tmp/ccHwop0z.s:2463   .debug_str:000000000000057d .LASF75
     /tmp/ccHwop0z.s:2395   .debug_str:00000000000002d7 .LASF94
     /tmp/ccHwop0z.s:2445   .debug_str:0000000000000425 .LASF95
     /tmp/ccHwop0z.s:2437   .debug_str:000000000000040a .LASF26
     /tmp/ccHwop0z.s:2365   .debug_str:0000000000000215 .LASF28
     /tmp/ccHwop0z.s:2333   .debug_str:0000000000000167 .LASF96
     /tmp/ccHwop0z.s:2289   .debug_str:0000000000000064 .LASF29
     /tmp/ccHwop0z.s:2481   .debug_str:00000000000005dd .LASF30
     /tmp/ccHwop0z.s:2309   .debug_str:00000000000000eb .LASF31
     /tmp/ccHwop0z.s:2297   .debug_str:0000000000000090 .LASF32
     /tmp/ccHwop0z.s:2337   .debug_str:0000000000000189 .LASF33
     /tmp/ccHwop0z.s:2461   .debug_str:0000000000000562 .LASF34
     /tmp/ccHwop0z.s:2459   .debug_str:000000000000054a .LASF37
     /tmp/ccHwop0z.s:2439   .debug_str:000000000000040f .LASF97
     /tmp/ccHwop0z.s:2425   .debug_str:00000000000003b4 .LASF98
     /tmp/ccHwop0z.s:2363   .debug_str:000000000000020e .LASF36
     /tmp/ccHwop0z.s:2361   .debug_str:00000000000001f9 .LASF38
     /tmp/ccHwop0z.s:2399   .debug_str:00000000000002eb .LASF39
     /tmp/ccHwop0z.s:2473   .debug_str:00000000000005c5 .LASF40
     /tmp/ccHwop0z.s:2423   .debug_str:00000000000003ab .LASF41
     /tmp/ccHwop0z.s:2359   .debug_str:00000000000001f0 .LASF42
     /tmp/ccHwop0z.s:2375   .debug_str:000000000000024f .LASF43
     /tmp/ccHwop0z.s:2377   .debug_str:000000000000025a .LASF44
     /tmp/ccHwop0z.s:2279   .debug_str:0000000000000009 .LASF45
     /tmp/ccHwop0z.s:2419   .debug_str:0000000000000399 .LASF46
     /tmp/ccHwop0z.s:2427   .debug_str:00000000000003ca .LASF47
     /tmp/ccHwop0z.s:2329   .debug_str:0000000000000159 .LASF48
     /tmp/ccHwop0z.s:2471   .debug_str:00000000000005bc .LASF49
     /tmp/ccHwop0z.s:2413   .debug_str:0000000000000377 .LASF50
GAS LISTING /tmp/ccHwop0z.s 			page 14


     /tmp/ccHwop0z.s:2367   .debug_str:000000000000022a .LASF51
     /tmp/ccHwop0z.s:2467   .debug_str:0000000000000596 .LASF99
     /tmp/ccHwop0z.s:2403   .debug_str:000000000000030f .LASF100
     /tmp/ccHwop0z.s:2293   .debug_str:0000000000000081 .LASF52
     /tmp/ccHwop0z.s:2277   .debug_str:0000000000000000 .LASF53
     /tmp/ccHwop0z.s:2355   .debug_str:00000000000001e4 .LASF54
     /tmp/ccHwop0z.s:2373   .debug_str:000000000000023d .LASF55
     /tmp/ccHwop0z.s:2343   .debug_str:00000000000001a7 .LASF56
     /tmp/ccHwop0z.s:2349   .debug_str:00000000000001c2 .LASF57
     /tmp/ccHwop0z.s:2455   .debug_str:0000000000000535 .LASF58
     /tmp/ccHwop0z.s:2283   .debug_str:000000000000001b .LASF59
     /tmp/ccHwop0z.s:2465   .debug_str:0000000000000590 .LASF60
     /tmp/ccHwop0z.s:2387   .debug_str:0000000000000292 .LASF61
     /tmp/ccHwop0z.s:2477   .debug_str:00000000000005d3 .LASF62
     /tmp/ccHwop0z.s:2389   .debug_str:00000000000002a5 .LASF63
     /tmp/ccHwop0z.s:2411   .debug_str:0000000000000370 .LASF64
     /tmp/ccHwop0z.s:2335   .debug_str:0000000000000175 .LASF65
     /tmp/ccHwop0z.s:2301   .debug_str:00000000000000c1 .LASF66
     /tmp/ccHwop0z.s:2449   .debug_str:0000000000000500 .LASF67
     /tmp/ccHwop0z.s:2327   .debug_str:0000000000000153 .LASF68
     /tmp/ccHwop0z.s:2339   .debug_str:0000000000000195 .LASF69
     /tmp/ccHwop0z.s:2415   .debug_str:0000000000000380 .LASF70
     /tmp/ccHwop0z.s:2397   .debug_str:00000000000002e0 .LASF71
     /tmp/ccHwop0z.s:2291   .debug_str:000000000000006f .LASF72
     /tmp/ccHwop0z.s:2453   .debug_str:0000000000000519 .LASF101
     /tmp/ccHwop0z.s:2351   .debug_str:00000000000001c8 .LASF102
     /tmp/ccHwop0z.s:2317   .debug_str:0000000000000119 .LASF74
     /tmp/ccHwop0z.s:2469   .debug_str:00000000000005a4 .LASF76
     /tmp/ccHwop0z.s:2303   .debug_str:00000000000000cb .LASF77
     /tmp/ccHwop0z.s:2299   .debug_str:00000000000000a8 .LASF78
     /tmp/ccHwop0z.s:2323   .debug_str:0000000000000138 .LASF79
     /tmp/ccHwop0z.s:2381   .debug_str:000000000000026f .LASF80
     /tmp/ccHwop0z.s:2311   .debug_str:00000000000000f5 .LASF81
     /tmp/ccHwop0z.s:246    .text:000000000000016c .LFB3
     /tmp/ccHwop0z.s:364    .text:0000000000000238 .LFE3
     /tmp/ccHwop0z.s:2129   .debug_loc:0000000000000000 .LLST5
     /tmp/ccHwop0z.s:2261   .debug_ranges:0000000000000000 .Ldebug_ranges0
     /tmp/ccHwop0z.s:2321   .debug_str:000000000000012f .LASF82
     /tmp/ccHwop0z.s:2147   .debug_loc:000000000000004c .LLST6
     /tmp/ccHwop0z.s:2158   .debug_loc:0000000000000082 .LLST7
     /tmp/ccHwop0z.s:294    .text:00000000000001b8 .LVL21
     /tmp/ccHwop0z.s:299    .text:00000000000001c4 .LVL22
     /tmp/ccHwop0z.s:307    .text:00000000000001d0 .LVL24
     /tmp/ccHwop0z.s:312    .text:00000000000001e0 .LVL25
     /tmp/ccHwop0z.s:317    .text:00000000000001ec .LVL26
     /tmp/ccHwop0z.s:322    .text:00000000000001f8 .LVL27
     /tmp/ccHwop0z.s:326    .text:0000000000000200 .LVL28
     /tmp/ccHwop0z.s:331    .text:0000000000000210 .LVL29
     /tmp/ccHwop0z.s:336    .text:000000000000021c .LVL30
     /tmp/ccHwop0z.s:134    .text:00000000000000bc .LFB2
     /tmp/ccHwop0z.s:240    .text:000000000000016c .LFE2
     /tmp/ccHwop0z.s:2165   .debug_loc:00000000000000a5 .LLST3
     /tmp/ccHwop0z.s:2295   .debug_str:0000000000000086 .LASF83
     /tmp/ccHwop0z.s:2187   .debug_loc:0000000000000104 .LLST4
     /tmp/ccHwop0z.s:170    .text:00000000000000f8 .LVL11
     /tmp/ccHwop0z.s:200    .text:0000000000000138 .LVL13
     /tmp/ccHwop0z.s:204    .text:0000000000000140 .LVL14
GAS LISTING /tmp/ccHwop0z.s 			page 15


     /tmp/ccHwop0z.s:209    .text:000000000000014c .LVL15
     /tmp/ccHwop0z.s:71     .text:000000000000005c .LFB1
     /tmp/ccHwop0z.s:128    .text:00000000000000bc .LFE1
     /tmp/ccHwop0z.s:2198   .debug_loc:000000000000013a .LLST2
     /tmp/ccHwop0z.s:99     .text:000000000000008c .LVL6
     /tmp/ccHwop0z.s:104    .text:0000000000000098 .LVL7
     /tmp/ccHwop0z.s:10     .text:0000000000000000 .LFB0
     /tmp/ccHwop0z.s:65     .text:000000000000005c .LFE0
     /tmp/ccHwop0z.s:2441   .debug_str:0000000000000417 .LASF84
     /tmp/ccHwop0z.s:2216   .debug_loc:0000000000000186 .LLST0
     /tmp/ccHwop0z.s:2479   .debug_str:00000000000005d8 .LASF85
     /tmp/ccHwop0z.s:2234   .debug_loc:00000000000001d2 .LLST1
     /tmp/ccHwop0z.s:34     .text:000000000000002c .LVL2
     /tmp/ccHwop0z.s:2315   .debug_str:000000000000010b .LASF86
     /tmp/ccHwop0z.s:2421   .debug_str:00000000000003a2 .LASF88
     /tmp/ccHwop0z.s:2443   .debug_str:000000000000041e .LASF87
     /tmp/ccHwop0z.s:2319   .debug_str:0000000000000121 .LASF89
     /tmp/ccHwop0z.s:2281   .debug_str:0000000000000011 .LASF90
     /tmp/ccHwop0z.s:249    .text:000000000000016c .LVL18
     /tmp/ccHwop0z.s:292    .text:00000000000001b0 .LVL20
     /tmp/ccHwop0z.s:352    .text:0000000000000230 .LVL32
     /tmp/ccHwop0z.s:279    .text:000000000000019c .LVL19
     /tmp/ccHwop0z.s:303    .text:00000000000001c8 .LVL23
     /tmp/ccHwop0z.s:348    .text:0000000000000228 .LVL31
     /tmp/ccHwop0z.s:137    .text:00000000000000bc .LVL9
     /tmp/ccHwop0z.s:168    .text:00000000000000f0 .LVL10
     /tmp/ccHwop0z.s:221    .text:0000000000000158 .LVL16
     /tmp/ccHwop0z.s:225    .text:0000000000000160 .LVL17
     /tmp/ccHwop0z.s:198    .text:0000000000000130 .LVL12
     /tmp/ccHwop0z.s:74     .text:000000000000005c .LVL4
     /tmp/ccHwop0z.s:86     .text:0000000000000074 .LVL5
     /tmp/ccHwop0z.s:123    .text:00000000000000b4 .LVL8
     /tmp/ccHwop0z.s:14     .text:0000000000000000 .LVL0
     /tmp/ccHwop0z.s:32     .text:0000000000000024 .LVL1
     /tmp/ccHwop0z.s:58     .text:0000000000000050 .LVL3
     /tmp/ccHwop0z.s:374    .debug_info:0000000000000000 .Ldebug_info0
     /tmp/ccHwop0z.s:164    .text:00000000000000ec .LBB3
     /tmp/ccHwop0z.s:210    .text:000000000000014c .LBE3
     /tmp/ccHwop0z.s:229    .text:0000000000000160 .LBB4
     /tmp/ccHwop0z.s:237    .text:000000000000016c .LBE4
     /tmp/ccHwop0z.s:275    .text:0000000000000198 .LBB8
     /tmp/ccHwop0z.s:337    .text:000000000000021c .LBE8
     /tmp/ccHwop0z.s:356    .text:0000000000000230 .LBB9
     /tmp/ccHwop0z.s:361    .text:0000000000000238 .LBE9

UNDEFINED SYMBOLS
_Z9mem_allocm
_ZN7_thread9setClosedEb
_Z8mem_freePv
_ZN7_thread13currentThreadE
_ZN7_thread10setBlockedEb
_ZN7_thread8dispatchEv
__putc
_ZN9Scheduler8getCountEv
_ZN9Scheduler3putEP7_thread
