GAS LISTING /tmp/cchCZVJj.s 			page 1


   1              		.file	"Sem.cpp"
   2              		.option nopic
   3              		.option norelax
   4              		.attribute arch, "rv64i2p0_m2p0_a2p0"
   5              		.attribute unaligned_access, 0
   6              		.attribute stack_align, 16
   7              		.text
   8              	.Ltext0:
   9              		.align	2
  10              		.globl	_ZN3Sem9createSemEj
  12              	_ZN3Sem9createSemEj:
  13              	.LFB5:
  14              		.file 1 "src/Sem.cpp"
   1:src/Sem.cpp   **** //
   2:src/Sem.cpp   **** // Created by os on 8/11/22.
   3:src/Sem.cpp   **** //
   4:src/Sem.cpp   **** 
   5:src/Sem.cpp   **** #include "../h/Sem.h"
   6:src/Sem.cpp   **** #include "../h/MemoryAllocator.h"
   7:src/Sem.cpp   **** #include "../h/syscall_c.h"
   8:src/Sem.cpp   **** 
   9:src/Sem.cpp   **** Sem *Sem::createSem(unsigned int init) {
  15              		.loc 1 9 40
  16              		.cfi_startproc
  17              	.LVL0:
  18 0000 130101FE 		addi	sp,sp,-32
  19              		.cfi_def_cfa_offset 32
  20 0004 233C1100 		sd	ra,24(sp)
  21 0008 23388100 		sd	s0,16(sp)
  22 000c 23349100 		sd	s1,8(sp)
  23              		.cfi_offset 1, -8
  24              		.cfi_offset 8, -16
  25              		.cfi_offset 9, -24
  26 0010 13040102 		addi	s0,sp,32
  27              		.cfi_def_cfa 8, 0
  28 0014 93040500 		mv	s1,a0
  10:src/Sem.cpp   ****     Sem* sem=(Sem*)MemAlloc::getInstance().mem_alloc((sizeof(Sem)+MEM_BLOCK_SIZE-1)/MEM_BLOCK_SIZE)
  29              		.loc 1 10 5
  30              		.loc 1 10 42 is_stmt 0
  31 0018 97000000 		call	_ZN8MemAlloc11getInstanceEv
  31      E7800000 
  32              	.LVL1:
  33              		.loc 1 10 53
  34 0020 93051000 		li	a1,1
  35 0024 97000000 		call	_ZN8MemAlloc9mem_allocEm
  35      E7800000 
  36              	.LVL2:
  11:src/Sem.cpp   ****     sem->init=init;
  37              		.loc 1 11 5 is_stmt 1
  38              		.loc 1 11 14 is_stmt 0
  39 002c 23209500 		sw	s1,0(a0)
  12:src/Sem.cpp   ****     sem->head= nullptr;
  40              		.loc 1 12 5 is_stmt 1
  41              		.loc 1 12 14 is_stmt 0
  42 0030 23340500 		sd	zero,8(a0)
  13:src/Sem.cpp   ****     sem->tail=nullptr;
  43              		.loc 1 13 5 is_stmt 1
GAS LISTING /tmp/cchCZVJj.s 			page 2


  44              		.loc 1 13 14 is_stmt 0
  45 0034 23380500 		sd	zero,16(a0)
  14:src/Sem.cpp   ****     return sem;
  46              		.loc 1 14 5 is_stmt 1
  15:src/Sem.cpp   **** }
  47              		.loc 1 15 1 is_stmt 0
  48 0038 83308101 		ld	ra,24(sp)
  49              		.cfi_restore 1
  50 003c 03340101 		ld	s0,16(sp)
  51              		.cfi_restore 8
  52              		.cfi_def_cfa 2, 32
  53 0040 83348100 		ld	s1,8(sp)
  54              		.cfi_restore 9
  55 0044 13010102 		addi	sp,sp,32
  56              		.cfi_def_cfa_offset 0
  57 0048 67800000 		jr	ra
  58              		.cfi_endproc
  59              	.LFE5:
  61              		.align	2
  62              		.globl	_ZN3Sem7openSemEPPS_j
  64              	_ZN3Sem7openSemEPPS_j:
  65              	.LFB6:
  16:src/Sem.cpp   **** 
  17:src/Sem.cpp   **** void Sem::openSem(Sem **handle, unsigned int init) {
  66              		.loc 1 17 52 is_stmt 1
  67              		.cfi_startproc
  68              	.LVL3:
  69 004c 130101FE 		addi	sp,sp,-32
  70              		.cfi_def_cfa_offset 32
  71 0050 233C1100 		sd	ra,24(sp)
  72 0054 23388100 		sd	s0,16(sp)
  73 0058 23349100 		sd	s1,8(sp)
  74              		.cfi_offset 1, -8
  75              		.cfi_offset 8, -16
  76              		.cfi_offset 9, -24
  77 005c 13040102 		addi	s0,sp,32
  78              		.cfi_def_cfa 8, 0
  79 0060 93040500 		mv	s1,a0
  18:src/Sem.cpp   ****     Sem* ptr = createSem(init);
  80              		.loc 1 18 5
  81              		.loc 1 18 25 is_stmt 0
  82 0064 13850500 		mv	a0,a1
  83              	.LVL4:
  84 0068 97000000 		call	_ZN3Sem9createSemEj
  84      E7800000 
  85              	.LVL5:
  19:src/Sem.cpp   ****     *handle= ptr;
  86              		.loc 1 19 5 is_stmt 1
  87              		.loc 1 19 12 is_stmt 0
  88 0070 23B0A400 		sd	a0,0(s1)
  20:src/Sem.cpp   **** }
  89              		.loc 1 20 1
  90 0074 83308101 		ld	ra,24(sp)
  91              		.cfi_restore 1
  92 0078 03340101 		ld	s0,16(sp)
  93              		.cfi_restore 8
  94              		.cfi_def_cfa 2, 32
GAS LISTING /tmp/cchCZVJj.s 			page 3


  95 007c 83348100 		ld	s1,8(sp)
  96              		.cfi_restore 9
  97              	.LVL6:
  98 0080 13010102 		addi	sp,sp,32
  99              		.cfi_def_cfa_offset 0
 100 0084 67800000 		jr	ra
 101              		.cfi_endproc
 102              	.LFE6:
 104              		.align	2
 105              		.globl	_ZN3Sem9getThreadEv
 107              	_ZN3Sem9getThreadEv:
 108              	.LFB7:
  21:src/Sem.cpp   **** 
  22:src/Sem.cpp   **** TCB *Sem::getThread() {
 109              		.loc 1 22 23 is_stmt 1
 110              		.cfi_startproc
 111              	.LVL7:
 112 0088 130101FE 		addi	sp,sp,-32
 113              		.cfi_def_cfa_offset 32
 114 008c 233C1100 		sd	ra,24(sp)
 115 0090 23388100 		sd	s0,16(sp)
 116 0094 23349100 		sd	s1,8(sp)
 117 0098 23302101 		sd	s2,0(sp)
 118              		.cfi_offset 1, -8
 119              		.cfi_offset 8, -16
 120              		.cfi_offset 9, -24
 121              		.cfi_offset 18, -32
 122 009c 13040102 		addi	s0,sp,32
 123              		.cfi_def_cfa 8, 0
  23:src/Sem.cpp   ****     if(head== nullptr)return nullptr;
 124              		.loc 1 23 5
 125              		.loc 1 23 8 is_stmt 0
 126 00a0 83348500 		ld	s1,8(a0)
 127              		.loc 1 23 5
 128 00a4 63800404 		beq	s1,zero,.L7
  24:src/Sem.cpp   ****     TCB* ret=head->thread;
 129              		.loc 1 24 5 is_stmt 1
 130              		.loc 1 24 10 is_stmt 0
 131 00a8 03B90400 		ld	s2,0(s1)
 132              	.LVL8:
  25:src/Sem.cpp   ****     Blocked* old=head;
 133              		.loc 1 25 5 is_stmt 1
  26:src/Sem.cpp   ****     head=head->next;
 134              		.loc 1 26 5
 135              		.loc 1 26 16 is_stmt 0
 136 00ac 83B78400 		ld	a5,8(s1)
 137              		.loc 1 26 9
 138 00b0 2334F500 		sd	a5,8(a0)
  27:src/Sem.cpp   ****     MemAlloc::getInstance().mem_free(old);
 139              		.loc 1 27 5 is_stmt 1
 140              		.loc 1 27 27 is_stmt 0
 141 00b4 97000000 		call	_ZN8MemAlloc11getInstanceEv
 141      E7800000 
 142              	.LVL9:
 143              		.loc 1 27 37
 144 00bc 93850400 		mv	a1,s1
 145 00c0 97000000 		call	_ZN8MemAlloc8mem_freeEPv
GAS LISTING /tmp/cchCZVJj.s 			page 4


 145      E7800000 
 146              	.LVL10:
  28:src/Sem.cpp   ****     return ret;
 147              		.loc 1 28 5 is_stmt 1
 148              	.L5:
  29:src/Sem.cpp   **** 
  30:src/Sem.cpp   **** }
 149              		.loc 1 30 1 is_stmt 0
 150 00c8 13050900 		mv	a0,s2
 151 00cc 83308101 		ld	ra,24(sp)
 152              		.cfi_remember_state
 153              		.cfi_restore 1
 154 00d0 03340101 		ld	s0,16(sp)
 155              		.cfi_restore 8
 156              		.cfi_def_cfa 2, 32
 157 00d4 83348100 		ld	s1,8(sp)
 158              		.cfi_restore 9
 159 00d8 03390100 		ld	s2,0(sp)
 160              		.cfi_restore 18
 161 00dc 13010102 		addi	sp,sp,32
 162              		.cfi_def_cfa_offset 0
 163 00e0 67800000 		jr	ra
 164              	.LVL11:
 165              	.L7:
 166              		.cfi_restore_state
  23:src/Sem.cpp   ****     TCB* ret=head->thread;
 167              		.loc 1 23 30
 168 00e4 13890400 		mv	s2,s1
 169 00e8 6FF01FFE 		j	.L5
 170              		.cfi_endproc
 171              	.LFE7:
 173              		.align	2
 174              		.globl	_ZN3Sem8closeSemEPS_
 176              	_ZN3Sem8closeSemEPS_:
 177              	.LFB8:
  31:src/Sem.cpp   **** 
  32:src/Sem.cpp   **** int Sem::closeSem(Sem *handle) {
 178              		.loc 1 32 32 is_stmt 1
 179              		.cfi_startproc
 180              	.LVL12:
  33:src/Sem.cpp   ****     if(!handle)return -1;
 181              		.loc 1 33 5
 182 00ec 630C0506 		beq	a0,zero,.L13
  32:src/Sem.cpp   ****     if(!handle)return -1;
 183              		.loc 1 32 32 is_stmt 0
 184 00f0 130101FE 		addi	sp,sp,-32
 185              		.cfi_def_cfa_offset 32
 186 00f4 233C1100 		sd	ra,24(sp)
 187 00f8 23388100 		sd	s0,16(sp)
 188 00fc 23349100 		sd	s1,8(sp)
 189              		.cfi_offset 1, -8
 190              		.cfi_offset 8, -16
 191              		.cfi_offset 9, -24
 192 0100 13040102 		addi	s0,sp,32
 193              		.cfi_def_cfa 8, 0
 194 0104 93040500 		mv	s1,a0
  34:src/Sem.cpp   ****     TCB* thread=handle->getThread();
GAS LISTING /tmp/cchCZVJj.s 			page 5


 195              		.loc 1 34 5 is_stmt 1
 196              		.loc 1 34 34 is_stmt 0
 197 0108 97000000 		call	_ZN3Sem9getThreadEv
 197      E7800000 
 198              	.LVL13:
 199 0110 6F004002 		j	.L12
 200              	.L18:
  35:src/Sem.cpp   ****     while(thread!= nullptr){
  36:src/Sem.cpp   ****         thread->blocked=false;
 201              		.loc 1 36 9 is_stmt 1
 202              		.loc 1 36 24 is_stmt 0
 203 0114 23000500 		sb	zero,0(a0)
  37:src/Sem.cpp   ****         thread->closed=true;
 204              		.loc 1 37 9 is_stmt 1
 205              		.loc 1 37 23 is_stmt 0
 206 0118 93071000 		li	a5,1
 207 011c A300F500 		sb	a5,1(a0)
  38:src/Sem.cpp   ****         Scheduler::put(thread);
 208              		.loc 1 38 9 is_stmt 1
 209              		.loc 1 38 23 is_stmt 0
 210 0120 97000000 		call	_ZN9Scheduler3putEP3TCB
 210      E7800000 
 211              	.LVL14:
  39:src/Sem.cpp   ****         thread=handle->getThread();
 212              		.loc 1 39 9 is_stmt 1
 213              		.loc 1 39 33 is_stmt 0
 214 0128 13850400 		mv	a0,s1
 215 012c 97000000 		call	_ZN3Sem9getThreadEv
 215      E7800000 
 216              	.LVL15:
 217              	.L12:
  35:src/Sem.cpp   ****         thread->blocked=false;
 218              		.loc 1 35 5 is_stmt 1
  35:src/Sem.cpp   ****         thread->blocked=false;
 219              		.loc 1 35 17
 220 0134 E31005FE 		bne	a0,zero,.L18
  40:src/Sem.cpp   ****     }
  41:src/Sem.cpp   ****  //   int ret=0;
  42:src/Sem.cpp   ****     MemAlloc::getInstance().mem_free(handle);
 221              		.loc 1 42 5
 222              		.loc 1 42 27 is_stmt 0
 223 0138 97000000 		call	_ZN8MemAlloc11getInstanceEv
 223      E7800000 
 224              	.LVL16:
 225              		.loc 1 42 37
 226 0140 93850400 		mv	a1,s1
 227 0144 97000000 		call	_ZN8MemAlloc8mem_freeEPv
 227      E7800000 
 228              	.LVL17:
  43:src/Sem.cpp   ****     handle= nullptr;
 229              		.loc 1 43 5 is_stmt 1
  44:src/Sem.cpp   ****     return 0;
 230              		.loc 1 44 5
 231              		.loc 1 44 12 is_stmt 0
 232 014c 13050000 		li	a0,0
  45:src/Sem.cpp   **** }
 233              		.loc 1 45 1
GAS LISTING /tmp/cchCZVJj.s 			page 6


 234 0150 83308101 		ld	ra,24(sp)
 235              		.cfi_restore 1
 236 0154 03340101 		ld	s0,16(sp)
 237              		.cfi_restore 8
 238              		.cfi_def_cfa 2, 32
 239 0158 83348100 		ld	s1,8(sp)
 240              		.cfi_restore 9
 241 015c 13010102 		addi	sp,sp,32
 242              		.cfi_def_cfa_offset 0
 243 0160 67800000 		jr	ra
 244              	.LVL18:
 245              	.L13:
  33:src/Sem.cpp   ****     TCB* thread=handle->getThread();
 246              		.loc 1 33 24
 247 0164 1305F0FF 		li	a0,-1
 248              	.LVL19:
 249              		.loc 1 45 1
 250 0168 67800000 		ret
 251              		.cfi_endproc
 252              	.LFE8:
 254              		.align	2
 255              		.globl	_ZN3Sem8puThreadEP3TCB
 257              	_ZN3Sem8puThreadEP3TCB:
 258              	.LFB9:
  46:src/Sem.cpp   **** 
  47:src/Sem.cpp   **** void Sem::puThread(TCB *thread) {
 259              		.loc 1 47 33 is_stmt 1
 260              		.cfi_startproc
 261              	.LVL20:
 262 016c 130101FE 		addi	sp,sp,-32
 263              		.cfi_def_cfa_offset 32
 264 0170 233C1100 		sd	ra,24(sp)
 265 0174 23388100 		sd	s0,16(sp)
 266 0178 23349100 		sd	s1,8(sp)
 267 017c 23302101 		sd	s2,0(sp)
 268              		.cfi_offset 1, -8
 269              		.cfi_offset 8, -16
 270              		.cfi_offset 9, -24
 271              		.cfi_offset 18, -32
 272 0180 13040102 		addi	s0,sp,32
 273              		.cfi_def_cfa 8, 0
 274 0184 93040500 		mv	s1,a0
 275 0188 13890500 		mv	s2,a1
  48:src/Sem.cpp   ****     Blocked* newEl=(Blocked*)MemAlloc::getInstance().mem_alloc((sizeof(Blocked)+MEM_BLOCK_SIZE-1)/M
 276              		.loc 1 48 5
 277              		.loc 1 48 52 is_stmt 0
 278 018c 97000000 		call	_ZN8MemAlloc11getInstanceEv
 278      E7800000 
 279              	.LVL21:
 280              		.loc 1 48 63
 281 0194 93051000 		li	a1,1
 282 0198 97000000 		call	_ZN8MemAlloc9mem_allocEm
 282      E7800000 
 283              	.LVL22:
  49:src/Sem.cpp   ****     newEl->thread=thread;
 284              		.loc 1 49 5 is_stmt 1
 285              		.loc 1 49 18 is_stmt 0
GAS LISTING /tmp/cchCZVJj.s 			page 7


 286 01a0 23302501 		sd	s2,0(a0)
  50:src/Sem.cpp   ****     newEl->next= nullptr;
 287              		.loc 1 50 5 is_stmt 1
 288              		.loc 1 50 16 is_stmt 0
 289 01a4 23340500 		sd	zero,8(a0)
  51:src/Sem.cpp   ****     if(head==nullptr){
 290              		.loc 1 51 5 is_stmt 1
 291              		.loc 1 51 8 is_stmt 0
 292 01a8 83B78400 		ld	a5,8(s1)
 293              		.loc 1 51 5
 294 01ac 63880702 		beq	a5,zero,.L23
  52:src/Sem.cpp   ****         head=tail=newEl;
  53:src/Sem.cpp   ****     }
  54:src/Sem.cpp   ****     else {
  55:src/Sem.cpp   ****         tail->next=newEl;
 295              		.loc 1 55 9 is_stmt 1
 296 01b0 83B70401 		ld	a5,16(s1)
 297              		.loc 1 55 19 is_stmt 0
 298 01b4 23B4A700 		sd	a0,8(a5)
  56:src/Sem.cpp   ****         tail=tail->next;
 299              		.loc 1 56 9 is_stmt 1
 300              		.loc 1 56 14 is_stmt 0
 301 01b8 83B70401 		ld	a5,16(s1)
 302              		.loc 1 56 20
 303 01bc 83B78700 		ld	a5,8(a5)
 304              		.loc 1 56 13
 305 01c0 23B8F400 		sd	a5,16(s1)
 306              	.L19:
  57:src/Sem.cpp   ****     }
  58:src/Sem.cpp   **** 
  59:src/Sem.cpp   **** }
 307              		.loc 1 59 1
 308 01c4 83308101 		ld	ra,24(sp)
 309              		.cfi_remember_state
 310              		.cfi_restore 1
 311 01c8 03340101 		ld	s0,16(sp)
 312              		.cfi_restore 8
 313              		.cfi_def_cfa 2, 32
 314 01cc 83348100 		ld	s1,8(sp)
 315              		.cfi_restore 9
 316              	.LVL23:
 317 01d0 03390100 		ld	s2,0(sp)
 318              		.cfi_restore 18
 319              	.LVL24:
 320 01d4 13010102 		addi	sp,sp,32
 321              		.cfi_def_cfa_offset 0
 322 01d8 67800000 		jr	ra
 323              	.LVL25:
 324              	.L23:
 325              		.cfi_restore_state
  52:src/Sem.cpp   ****     }
 326              		.loc 1 52 9 is_stmt 1
  52:src/Sem.cpp   ****     }
 327              		.loc 1 52 18 is_stmt 0
 328 01dc 23B8A400 		sd	a0,16(s1)
  52:src/Sem.cpp   ****     }
 329              		.loc 1 52 13
GAS LISTING /tmp/cchCZVJj.s 			page 8


 330 01e0 23B4A400 		sd	a0,8(s1)
 331 01e4 6FF01FFE 		j	.L19
 332              		.cfi_endproc
 333              	.LFE9:
 335              		.align	2
 336              		.globl	_ZN3Sem7semWaitEPS_
 338              	_ZN3Sem7semWaitEPS_:
 339              	.LFB10:
  60:src/Sem.cpp   **** 
  61:src/Sem.cpp   **** int Sem::semWait(Sem *handle) {
 340              		.loc 1 61 31 is_stmt 1
 341              		.cfi_startproc
 342              	.LVL26:
  62:src/Sem.cpp   ****     if(handle== nullptr)return -1;
 343              		.loc 1 62 5
 344 01e8 630A0506 		beq	a0,zero,.L26
  63:src/Sem.cpp   ****     int in=handle->init;
 345              		.loc 1 63 5
 346              		.loc 1 63 9 is_stmt 0
 347 01ec 83270500 		lw	a5,0(a0)
 348              	.LVL27:
  64:src/Sem.cpp   ****     handle->init=--in;
 349              		.loc 1 64 5 is_stmt 1
 350              		.loc 1 64 17 is_stmt 0
 351 01f0 9B87F7FF 		addiw	a5,a5,-1
 352              	.LVL28:
 353 01f4 1B870700 		sext.w	a4,a5
 354              	.LVL29:
 355 01f8 2320F500 		sw	a5,0(a0)
  65:src/Sem.cpp   ****     if (in<0) {
 356              		.loc 1 65 5 is_stmt 1
 357 01fc 63460700 		blt	a4,zero,.L33
  66:src/Sem.cpp   ****         if(TCB::running->closed)return -1;
  67:src/Sem.cpp   ****         handle->puThread(TCB::running);
  68:src/Sem.cpp   ****         TCB::running->blocked=true;
  69:src/Sem.cpp   ****         thread_dispatch();
  70:src/Sem.cpp   ****     }
  71:src/Sem.cpp   ****     return 0;
 358              		.loc 1 71 12 is_stmt 0
 359 0200 13050000 		li	a0,0
 360              	.LVL30:
 361 0204 67800000 		ret
 362              	.LVL31:
 363              	.L33:
  66:src/Sem.cpp   ****         if(TCB::running->closed)return -1;
 364              		.loc 1 66 9 is_stmt 1
  66:src/Sem.cpp   ****         if(TCB::running->closed)return -1;
 365              		.loc 1 66 26 is_stmt 0
 366 0208 97050000 		ld	a1,_ZN3TCB7runningE
 366      83B50500 
 367 0210 83C71500 		lbu	a5,1(a1)
 368              	.LVL32:
  66:src/Sem.cpp   ****         if(TCB::running->closed)return -1;
 369              		.loc 1 66 9
 370 0214 63980704 		bne	a5,zero,.L28
  61:src/Sem.cpp   ****     if(handle== nullptr)return -1;
 371              		.loc 1 61 31
GAS LISTING /tmp/cchCZVJj.s 			page 9


 372 0218 130101FF 		addi	sp,sp,-16
 373              		.cfi_def_cfa_offset 16
 374 021c 23341100 		sd	ra,8(sp)
 375              	.LVL33:
 376 0220 23308100 		sd	s0,0(sp)
 377              		.cfi_offset 1, -8
 378              		.cfi_offset 8, -16
 379 0224 13040101 		addi	s0,sp,16
 380              		.cfi_def_cfa 8, 0
  67:src/Sem.cpp   ****         TCB::running->blocked=true;
 381              		.loc 1 67 9 is_stmt 1
  67:src/Sem.cpp   ****         TCB::running->blocked=true;
 382              		.loc 1 67 25 is_stmt 0
 383 0228 97000000 		call	_ZN3Sem8puThreadEP3TCB
 383      E7800000 
 384              	.LVL34:
  68:src/Sem.cpp   ****         thread_dispatch();
 385              		.loc 1 68 9 is_stmt 1
  68:src/Sem.cpp   ****         thread_dispatch();
 386              		.loc 1 68 30 is_stmt 0
 387 0230 97070000 		ld	a5,_ZN3TCB7runningE
 387      83B70700 
 388 0238 13071000 		li	a4,1
 389 023c 2380E700 		sb	a4,0(a5)
  69:src/Sem.cpp   ****     }
 390              		.loc 1 69 9 is_stmt 1
  69:src/Sem.cpp   ****     }
 391              		.loc 1 69 24 is_stmt 0
 392 0240 97000000 		call	_Z15thread_dispatchv
 392      E7800000 
 393              	.LVL35:
 394              		.loc 1 71 12
 395 0248 13050000 		li	a0,0
  72:src/Sem.cpp   **** }
 396              		.loc 1 72 1
 397 024c 83308100 		ld	ra,8(sp)
 398              		.cfi_restore 1
 399 0250 03340100 		ld	s0,0(sp)
 400              		.cfi_restore 8
 401              		.cfi_def_cfa 2, 16
 402 0254 13010101 		addi	sp,sp,16
 403              		.cfi_def_cfa_offset 0
 404 0258 67800000 		jr	ra
 405              	.LVL36:
 406              	.L26:
  62:src/Sem.cpp   ****     int in=handle->init;
 407              		.loc 1 62 33
 408 025c 1305F0FF 		li	a0,-1
 409              	.LVL37:
 410 0260 67800000 		ret
 411              	.LVL38:
 412              	.L28:
  66:src/Sem.cpp   ****         handle->puThread(TCB::running);
 413              		.loc 1 66 41
 414 0264 1305F0FF 		li	a0,-1
 415              	.LVL39:
 416              		.loc 1 72 1
GAS LISTING /tmp/cchCZVJj.s 			page 10


 417 0268 67800000 		ret
 418              		.cfi_endproc
 419              	.LFE10:
 421              		.align	2
 422              		.globl	_ZN3Sem9semSignalEPS_
 424              	_ZN3Sem9semSignalEPS_:
 425              	.LFB11:
  73:src/Sem.cpp   **** 
  74:src/Sem.cpp   **** int Sem::semSignal(Sem *handle) {
 426              		.loc 1 74 33 is_stmt 1
 427              		.cfi_startproc
 428              	.LVL40:
  75:src/Sem.cpp   ****     if(!handle)return -1;
 429              		.loc 1 75 5
 430 026c 630C0504 		beq	a0,zero,.L36
  76:src/Sem.cpp   ****     handle->init+=1;
 431              		.loc 1 76 5
 432              		.loc 1 76 17 is_stmt 0
 433 0270 83270500 		lw	a5,0(a0)
 434 0274 9B871700 		addiw	a5,a5,1
 435 0278 1B870700 		sext.w	a4,a5
 436 027c 2320F500 		sw	a5,0(a0)
  77:src/Sem.cpp   ****     if ((handle->init)<=0) {
 437              		.loc 1 77 5 is_stmt 1
 438              	.LBB2:
 439 0280 6356E000 		ble	a4,zero,.L42
 440              	.LBE2:
  78:src/Sem.cpp   ****         TCB* thread=handle->getThread();
  79:src/Sem.cpp   ****         thread->blocked=false;
  80:src/Sem.cpp   ****         Scheduler::put(thread);
  81:src/Sem.cpp   ****     }return 0;
 441              		.loc 1 81 13 is_stmt 0
 442 0284 13050000 		li	a0,0
 443              	.LVL41:
  82:src/Sem.cpp   **** }
 444              		.loc 1 82 1
 445 0288 67800000 		ret
 446              	.LVL42:
 447              	.L42:
  74:src/Sem.cpp   ****     if(!handle)return -1;
 448              		.loc 1 74 33
 449 028c 130101FF 		addi	sp,sp,-16
 450              		.cfi_def_cfa_offset 16
 451 0290 23341100 		sd	ra,8(sp)
 452 0294 23308100 		sd	s0,0(sp)
 453              		.cfi_offset 1, -8
 454              		.cfi_offset 8, -16
 455 0298 13040101 		addi	s0,sp,16
 456              		.cfi_def_cfa 8, 0
 457              	.LBB4:
 458              	.LBB3:
  78:src/Sem.cpp   ****         TCB* thread=handle->getThread();
 459              		.loc 1 78 9 is_stmt 1
  78:src/Sem.cpp   ****         TCB* thread=handle->getThread();
 460              		.loc 1 78 38 is_stmt 0
 461 029c 97000000 		call	_ZN3Sem9getThreadEv
 461      E7800000 
GAS LISTING /tmp/cchCZVJj.s 			page 11


 462              	.LVL43:
  79:src/Sem.cpp   ****         Scheduler::put(thread);
 463              		.loc 1 79 9 is_stmt 1
  79:src/Sem.cpp   ****         Scheduler::put(thread);
 464              		.loc 1 79 24 is_stmt 0
 465 02a4 23000500 		sb	zero,0(a0)
  80:src/Sem.cpp   ****     }return 0;
 466              		.loc 1 80 9 is_stmt 1
  80:src/Sem.cpp   ****     }return 0;
 467              		.loc 1 80 23 is_stmt 0
 468 02a8 97000000 		call	_ZN9Scheduler3putEP3TCB
 468      E7800000 
 469              	.LVL44:
 470              	.LBE3:
 471              	.LBE4:
  81:src/Sem.cpp   **** }
 472              		.loc 1 81 13
 473 02b0 13050000 		li	a0,0
 474              		.loc 1 82 1
 475 02b4 83308100 		ld	ra,8(sp)
 476              		.cfi_restore 1
 477 02b8 03340100 		ld	s0,0(sp)
 478              		.cfi_restore 8
 479              		.cfi_def_cfa 2, 16
 480 02bc 13010101 		addi	sp,sp,16
 481              		.cfi_def_cfa_offset 0
 482 02c0 67800000 		jr	ra
 483              	.LVL45:
 484              	.L36:
  75:src/Sem.cpp   ****     handle->init+=1;
 485              		.loc 1 75 24
 486 02c4 1305F0FF 		li	a0,-1
 487              	.LVL46:
 488 02c8 67800000 		ret
 489              		.cfi_endproc
 490              	.LFE11:
 492              	.Letext0:
 493              		.file 2 "src/../h/../lib/hw.h"
 494              		.file 3 "src/../h/scheduler.hpp"
 495              		.file 4 "src/../h/tcb.hpp"
 496              		.file 5 "src/../h/MemoryAllocator.h"
 497              		.file 6 "src/../h/Sem.h"
 498              		.file 7 "src/../h/syscall_c.h"
GAS LISTING /tmp/cchCZVJj.s 			page 12


DEFINED SYMBOLS
                            *ABS*:0000000000000000 Sem.cpp
     /tmp/cchCZVJj.s:12     .text:0000000000000000 _ZN3Sem9createSemEj
     /tmp/cchCZVJj.s:16     .text:0000000000000000 .L0 
     /tmp/cchCZVJj.s:18     .text:0000000000000000 .L0 
     /tmp/cchCZVJj.s:19     .text:0000000000000004 .L0 
     /tmp/cchCZVJj.s:23     .text:0000000000000010 .L0 
     /tmp/cchCZVJj.s:24     .text:0000000000000010 .L0 
     /tmp/cchCZVJj.s:25     .text:0000000000000010 .L0 
     /tmp/cchCZVJj.s:27     .text:0000000000000014 .L0 
     /tmp/cchCZVJj.s:30     .text:0000000000000018 .L0 
     /tmp/cchCZVJj.s:31     .text:0000000000000018 .L0 
     /tmp/cchCZVJj.s:34     .text:0000000000000020 .L0 
     /tmp/cchCZVJj.s:38     .text:000000000000002c .L0 
     /tmp/cchCZVJj.s:39     .text:000000000000002c .L0 
     /tmp/cchCZVJj.s:41     .text:0000000000000030 .L0 
     /tmp/cchCZVJj.s:42     .text:0000000000000030 .L0 
     /tmp/cchCZVJj.s:44     .text:0000000000000034 .L0 
     /tmp/cchCZVJj.s:45     .text:0000000000000034 .L0 
     /tmp/cchCZVJj.s:47     .text:0000000000000038 .L0 
     /tmp/cchCZVJj.s:48     .text:0000000000000038 .L0 
     /tmp/cchCZVJj.s:49     .text:000000000000003c .L0 
     /tmp/cchCZVJj.s:51     .text:0000000000000040 .L0 
     /tmp/cchCZVJj.s:52     .text:0000000000000040 .L0 
     /tmp/cchCZVJj.s:54     .text:0000000000000044 .L0 
     /tmp/cchCZVJj.s:56     .text:0000000000000048 .L0 
     /tmp/cchCZVJj.s:58     .text:000000000000004c .L0 
     /tmp/cchCZVJj.s:64     .text:000000000000004c _ZN3Sem7openSemEPPS_j
     /tmp/cchCZVJj.s:67     .text:000000000000004c .L0 
     /tmp/cchCZVJj.s:69     .text:000000000000004c .L0 
     /tmp/cchCZVJj.s:70     .text:0000000000000050 .L0 
     /tmp/cchCZVJj.s:74     .text:000000000000005c .L0 
     /tmp/cchCZVJj.s:75     .text:000000000000005c .L0 
     /tmp/cchCZVJj.s:76     .text:000000000000005c .L0 
     /tmp/cchCZVJj.s:78     .text:0000000000000060 .L0 
     /tmp/cchCZVJj.s:81     .text:0000000000000064 .L0 
     /tmp/cchCZVJj.s:82     .text:0000000000000064 .L0 
     /tmp/cchCZVJj.s:87     .text:0000000000000070 .L0 
     /tmp/cchCZVJj.s:88     .text:0000000000000070 .L0 
     /tmp/cchCZVJj.s:90     .text:0000000000000074 .L0 
     /tmp/cchCZVJj.s:91     .text:0000000000000078 .L0 
     /tmp/cchCZVJj.s:93     .text:000000000000007c .L0 
     /tmp/cchCZVJj.s:94     .text:000000000000007c .L0 
     /tmp/cchCZVJj.s:96     .text:0000000000000080 .L0 
     /tmp/cchCZVJj.s:99     .text:0000000000000084 .L0 
     /tmp/cchCZVJj.s:101    .text:0000000000000088 .L0 
     /tmp/cchCZVJj.s:107    .text:0000000000000088 _ZN3Sem9getThreadEv
     /tmp/cchCZVJj.s:110    .text:0000000000000088 .L0 
     /tmp/cchCZVJj.s:112    .text:0000000000000088 .L0 
     /tmp/cchCZVJj.s:113    .text:000000000000008c .L0 
     /tmp/cchCZVJj.s:118    .text:000000000000009c .L0 
     /tmp/cchCZVJj.s:119    .text:000000000000009c .L0 
     /tmp/cchCZVJj.s:120    .text:000000000000009c .L0 
     /tmp/cchCZVJj.s:121    .text:000000000000009c .L0 
     /tmp/cchCZVJj.s:123    .text:00000000000000a0 .L0 
     /tmp/cchCZVJj.s:125    .text:00000000000000a0 .L0 
     /tmp/cchCZVJj.s:126    .text:00000000000000a0 .L0 
GAS LISTING /tmp/cchCZVJj.s 			page 13


     /tmp/cchCZVJj.s:128    .text:00000000000000a4 .L0 
     /tmp/cchCZVJj.s:130    .text:00000000000000a8 .L0 
     /tmp/cchCZVJj.s:131    .text:00000000000000a8 .L0 
     /tmp/cchCZVJj.s:134    .text:00000000000000ac .L0 
     /tmp/cchCZVJj.s:135    .text:00000000000000ac .L0 
     /tmp/cchCZVJj.s:136    .text:00000000000000ac .L0 
     /tmp/cchCZVJj.s:138    .text:00000000000000b0 .L0 
     /tmp/cchCZVJj.s:140    .text:00000000000000b4 .L0 
     /tmp/cchCZVJj.s:141    .text:00000000000000b4 .L0 
     /tmp/cchCZVJj.s:144    .text:00000000000000bc .L0 
     /tmp/cchCZVJj.s:149    .text:00000000000000c8 .L0 
     /tmp/cchCZVJj.s:150    .text:00000000000000c8 .L0 
     /tmp/cchCZVJj.s:152    .text:00000000000000d0 .L0 
     /tmp/cchCZVJj.s:153    .text:00000000000000d0 .L0 
     /tmp/cchCZVJj.s:155    .text:00000000000000d4 .L0 
     /tmp/cchCZVJj.s:156    .text:00000000000000d4 .L0 
     /tmp/cchCZVJj.s:158    .text:00000000000000d8 .L0 
     /tmp/cchCZVJj.s:160    .text:00000000000000dc .L0 
     /tmp/cchCZVJj.s:162    .text:00000000000000e0 .L0 
     /tmp/cchCZVJj.s:166    .text:00000000000000e4 .L0 
     /tmp/cchCZVJj.s:168    .text:00000000000000e4 .L0 
     /tmp/cchCZVJj.s:170    .text:00000000000000ec .L0 
     /tmp/cchCZVJj.s:176    .text:00000000000000ec _ZN3Sem8closeSemEPS_
     /tmp/cchCZVJj.s:179    .text:00000000000000ec .L0 
     /tmp/cchCZVJj.s:181    .text:00000000000000ec .L0 
     /tmp/cchCZVJj.s:182    .text:00000000000000ec .L0 
     /tmp/cchCZVJj.s:184    .text:00000000000000f0 .L0 
     /tmp/cchCZVJj.s:185    .text:00000000000000f4 .L0 
     /tmp/cchCZVJj.s:189    .text:0000000000000100 .L0 
     /tmp/cchCZVJj.s:190    .text:0000000000000100 .L0 
     /tmp/cchCZVJj.s:191    .text:0000000000000100 .L0 
     /tmp/cchCZVJj.s:193    .text:0000000000000104 .L0 
     /tmp/cchCZVJj.s:196    .text:0000000000000108 .L0 
     /tmp/cchCZVJj.s:197    .text:0000000000000108 .L0 
     /tmp/cchCZVJj.s:202    .text:0000000000000114 .L0 
     /tmp/cchCZVJj.s:203    .text:0000000000000114 .L0 
     /tmp/cchCZVJj.s:205    .text:0000000000000118 .L0 
     /tmp/cchCZVJj.s:206    .text:0000000000000118 .L0 
     /tmp/cchCZVJj.s:209    .text:0000000000000120 .L0 
     /tmp/cchCZVJj.s:210    .text:0000000000000120 .L0 
     /tmp/cchCZVJj.s:213    .text:0000000000000128 .L0 
     /tmp/cchCZVJj.s:214    .text:0000000000000128 .L0 
     /tmp/cchCZVJj.s:219    .text:0000000000000134 .L0 
     /tmp/cchCZVJj.s:220    .text:0000000000000134 .L0 
     /tmp/cchCZVJj.s:222    .text:0000000000000138 .L0 
     /tmp/cchCZVJj.s:223    .text:0000000000000138 .L0 
     /tmp/cchCZVJj.s:226    .text:0000000000000140 .L0 
     /tmp/cchCZVJj.s:230    .text:000000000000014c .L0 
     /tmp/cchCZVJj.s:231    .text:000000000000014c .L0 
     /tmp/cchCZVJj.s:232    .text:000000000000014c .L0 
     /tmp/cchCZVJj.s:234    .text:0000000000000150 .L0 
     /tmp/cchCZVJj.s:235    .text:0000000000000154 .L0 
     /tmp/cchCZVJj.s:237    .text:0000000000000158 .L0 
     /tmp/cchCZVJj.s:238    .text:0000000000000158 .L0 
     /tmp/cchCZVJj.s:240    .text:000000000000015c .L0 
     /tmp/cchCZVJj.s:242    .text:0000000000000160 .L0 
     /tmp/cchCZVJj.s:247    .text:0000000000000164 .L0 
GAS LISTING /tmp/cchCZVJj.s 			page 14


     /tmp/cchCZVJj.s:250    .text:0000000000000168 .L0 
     /tmp/cchCZVJj.s:251    .text:000000000000016c .L0 
     /tmp/cchCZVJj.s:257    .text:000000000000016c _ZN3Sem8puThreadEP3TCB
     /tmp/cchCZVJj.s:260    .text:000000000000016c .L0 
     /tmp/cchCZVJj.s:262    .text:000000000000016c .L0 
     /tmp/cchCZVJj.s:263    .text:0000000000000170 .L0 
     /tmp/cchCZVJj.s:268    .text:0000000000000180 .L0 
     /tmp/cchCZVJj.s:269    .text:0000000000000180 .L0 
     /tmp/cchCZVJj.s:270    .text:0000000000000180 .L0 
     /tmp/cchCZVJj.s:271    .text:0000000000000180 .L0 
     /tmp/cchCZVJj.s:273    .text:0000000000000184 .L0 
     /tmp/cchCZVJj.s:277    .text:000000000000018c .L0 
     /tmp/cchCZVJj.s:278    .text:000000000000018c .L0 
     /tmp/cchCZVJj.s:281    .text:0000000000000194 .L0 
     /tmp/cchCZVJj.s:285    .text:00000000000001a0 .L0 
     /tmp/cchCZVJj.s:286    .text:00000000000001a0 .L0 
     /tmp/cchCZVJj.s:288    .text:00000000000001a4 .L0 
     /tmp/cchCZVJj.s:289    .text:00000000000001a4 .L0 
     /tmp/cchCZVJj.s:291    .text:00000000000001a8 .L0 
     /tmp/cchCZVJj.s:292    .text:00000000000001a8 .L0 
     /tmp/cchCZVJj.s:294    .text:00000000000001ac .L0 
     /tmp/cchCZVJj.s:296    .text:00000000000001b0 .L0 
     /tmp/cchCZVJj.s:298    .text:00000000000001b4 .L0 
     /tmp/cchCZVJj.s:300    .text:00000000000001b8 .L0 
     /tmp/cchCZVJj.s:301    .text:00000000000001b8 .L0 
     /tmp/cchCZVJj.s:303    .text:00000000000001bc .L0 
     /tmp/cchCZVJj.s:305    .text:00000000000001c0 .L0 
     /tmp/cchCZVJj.s:308    .text:00000000000001c4 .L0 
     /tmp/cchCZVJj.s:309    .text:00000000000001c8 .L0 
     /tmp/cchCZVJj.s:310    .text:00000000000001c8 .L0 
     /tmp/cchCZVJj.s:312    .text:00000000000001cc .L0 
     /tmp/cchCZVJj.s:313    .text:00000000000001cc .L0 
     /tmp/cchCZVJj.s:315    .text:00000000000001d0 .L0 
     /tmp/cchCZVJj.s:318    .text:00000000000001d4 .L0 
     /tmp/cchCZVJj.s:321    .text:00000000000001d8 .L0 
     /tmp/cchCZVJj.s:325    .text:00000000000001dc .L0 
     /tmp/cchCZVJj.s:327    .text:00000000000001dc .L0 
     /tmp/cchCZVJj.s:328    .text:00000000000001dc .L0 
     /tmp/cchCZVJj.s:330    .text:00000000000001e0 .L0 
     /tmp/cchCZVJj.s:332    .text:00000000000001e8 .L0 
     /tmp/cchCZVJj.s:338    .text:00000000000001e8 _ZN3Sem7semWaitEPS_
     /tmp/cchCZVJj.s:341    .text:00000000000001e8 .L0 
     /tmp/cchCZVJj.s:343    .text:00000000000001e8 .L0 
     /tmp/cchCZVJj.s:344    .text:00000000000001e8 .L0 
     /tmp/cchCZVJj.s:346    .text:00000000000001ec .L0 
     /tmp/cchCZVJj.s:347    .text:00000000000001ec .L0 
     /tmp/cchCZVJj.s:350    .text:00000000000001f0 .L0 
     /tmp/cchCZVJj.s:351    .text:00000000000001f0 .L0 
     /tmp/cchCZVJj.s:357    .text:00000000000001fc .L0 
     /tmp/cchCZVJj.s:359    .text:0000000000000200 .L0 
     /tmp/cchCZVJj.s:365    .text:0000000000000208 .L0 
     /tmp/cchCZVJj.s:366    .text:0000000000000208 .L0 
     /tmp/cchCZVJj.s:370    .text:0000000000000214 .L0 
     /tmp/cchCZVJj.s:372    .text:0000000000000218 .L0 
     /tmp/cchCZVJj.s:373    .text:000000000000021c .L0 
     /tmp/cchCZVJj.s:377    .text:0000000000000224 .L0 
     /tmp/cchCZVJj.s:378    .text:0000000000000224 .L0 
GAS LISTING /tmp/cchCZVJj.s 			page 15


     /tmp/cchCZVJj.s:380    .text:0000000000000228 .L0 
     /tmp/cchCZVJj.s:382    .text:0000000000000228 .L0 
     /tmp/cchCZVJj.s:383    .text:0000000000000228 .L0 
     /tmp/cchCZVJj.s:386    .text:0000000000000230 .L0 
     /tmp/cchCZVJj.s:387    .text:0000000000000230 .L0 
     /tmp/cchCZVJj.s:391    .text:0000000000000240 .L0 
     /tmp/cchCZVJj.s:392    .text:0000000000000240 .L0 
     /tmp/cchCZVJj.s:395    .text:0000000000000248 .L0 
     /tmp/cchCZVJj.s:397    .text:000000000000024c .L0 
     /tmp/cchCZVJj.s:398    .text:0000000000000250 .L0 
     /tmp/cchCZVJj.s:400    .text:0000000000000254 .L0 
     /tmp/cchCZVJj.s:401    .text:0000000000000254 .L0 
     /tmp/cchCZVJj.s:403    .text:0000000000000258 .L0 
     /tmp/cchCZVJj.s:408    .text:000000000000025c .L0 
     /tmp/cchCZVJj.s:414    .text:0000000000000264 .L0 
     /tmp/cchCZVJj.s:417    .text:0000000000000268 .L0 
     /tmp/cchCZVJj.s:418    .text:000000000000026c .L0 
     /tmp/cchCZVJj.s:424    .text:000000000000026c _ZN3Sem9semSignalEPS_
     /tmp/cchCZVJj.s:427    .text:000000000000026c .L0 
     /tmp/cchCZVJj.s:429    .text:000000000000026c .L0 
     /tmp/cchCZVJj.s:430    .text:000000000000026c .L0 
     /tmp/cchCZVJj.s:432    .text:0000000000000270 .L0 
     /tmp/cchCZVJj.s:433    .text:0000000000000270 .L0 
     /tmp/cchCZVJj.s:439    .text:0000000000000280 .L0 
     /tmp/cchCZVJj.s:442    .text:0000000000000284 .L0 
     /tmp/cchCZVJj.s:445    .text:0000000000000288 .L0 
     /tmp/cchCZVJj.s:449    .text:000000000000028c .L0 
     /tmp/cchCZVJj.s:450    .text:0000000000000290 .L0 
     /tmp/cchCZVJj.s:453    .text:0000000000000298 .L0 
     /tmp/cchCZVJj.s:454    .text:0000000000000298 .L0 
     /tmp/cchCZVJj.s:456    .text:000000000000029c .L0 
     /tmp/cchCZVJj.s:460    .text:000000000000029c .L0 
     /tmp/cchCZVJj.s:461    .text:000000000000029c .L0 
     /tmp/cchCZVJj.s:464    .text:00000000000002a4 .L0 
     /tmp/cchCZVJj.s:465    .text:00000000000002a4 .L0 
     /tmp/cchCZVJj.s:467    .text:00000000000002a8 .L0 
     /tmp/cchCZVJj.s:468    .text:00000000000002a8 .L0 
     /tmp/cchCZVJj.s:473    .text:00000000000002b0 .L0 
     /tmp/cchCZVJj.s:475    .text:00000000000002b4 .L0 
     /tmp/cchCZVJj.s:476    .text:00000000000002b8 .L0 
     /tmp/cchCZVJj.s:478    .text:00000000000002bc .L0 
     /tmp/cchCZVJj.s:479    .text:00000000000002bc .L0 
     /tmp/cchCZVJj.s:481    .text:00000000000002c0 .L0 
     /tmp/cchCZVJj.s:486    .text:00000000000002c4 .L0 
     /tmp/cchCZVJj.s:489    .text:00000000000002cc .L0 
     /tmp/cchCZVJj.s:499    .text:00000000000002cc .L0 
     /tmp/cchCZVJj.s:366    .text:0000000000000208 .L0 
     /tmp/cchCZVJj.s:387    .text:0000000000000230 .L0 
     /tmp/cchCZVJj.s:165    .text:00000000000000e4 .L7
     /tmp/cchCZVJj.s:148    .text:00000000000000c8 .L5
     /tmp/cchCZVJj.s:245    .text:0000000000000164 .L13
     /tmp/cchCZVJj.s:217    .text:0000000000000134 .L12
     /tmp/cchCZVJj.s:200    .text:0000000000000114 .L18
     /tmp/cchCZVJj.s:324    .text:00000000000001dc .L23
     /tmp/cchCZVJj.s:306    .text:00000000000001c4 .L19
     /tmp/cchCZVJj.s:406    .text:000000000000025c .L26
     /tmp/cchCZVJj.s:363    .text:0000000000000208 .L33
GAS LISTING /tmp/cchCZVJj.s 			page 16


     /tmp/cchCZVJj.s:412    .text:0000000000000264 .L28
     /tmp/cchCZVJj.s:484    .text:00000000000002c4 .L36
     /tmp/cchCZVJj.s:447    .text:000000000000028c .L42
     /tmp/cchCZVJj.s:1447   .debug_abbrev:0000000000000000 .Ldebug_abbrev0
     /tmp/cchCZVJj.s:2735   .debug_str:00000000000003d1 .LASF75
     /tmp/cchCZVJj.s:2763   .debug_str:000000000000055a .LASF76
     /tmp/cchCZVJj.s:2751   .debug_str:00000000000004ec .LASF77
     /tmp/cchCZVJj.s:8      .text:0000000000000000 .Ltext0
     /tmp/cchCZVJj.s:492    .text:00000000000002cc .Letext0
     /tmp/cchCZVJj.s:2595   .debug_line:0000000000000000 .Ldebug_line0
     /tmp/cchCZVJj.s:2693   .debug_str:00000000000002e4 .LASF0
     /tmp/cchCZVJj.s:2701   .debug_str:0000000000000312 .LASF1
     /tmp/cchCZVJj.s:2677   .debug_str:0000000000000273 .LASF2
     /tmp/cchCZVJj.s:2657   .debug_str:0000000000000201 .LASF4
     /tmp/cchCZVJj.s:2699   .debug_str:0000000000000300 .LASF3
     /tmp/cchCZVJj.s:2609   .debug_str:000000000000005d .LASF5
     /tmp/cchCZVJj.s:2705   .debug_str:000000000000032c .LASF6
     /tmp/cchCZVJj.s:2691   .debug_str:00000000000002d1 .LASF7
     /tmp/cchCZVJj.s:2719   .debug_str:0000000000000372 .LASF8
     /tmp/cchCZVJj.s:2615   .debug_str:0000000000000081 .LASF9
     /tmp/cchCZVJj.s:2731   .debug_str:00000000000003b5 .LASF10
     /tmp/cchCZVJj.s:2621   .debug_str:00000000000000a5 .LASF11
     /tmp/cchCZVJj.s:2671   .debug_str:000000000000024c .LASF14
     /tmp/cchCZVJj.s:2727   .debug_str:000000000000039b .LASF12
     /tmp/cchCZVJj.s:2769   .debug_str:0000000000000589 .LASF13
     /tmp/cchCZVJj.s:2601   .debug_str:000000000000001e .LASF15
     /tmp/cchCZVJj.s:2631   .debug_str:000000000000011b .LASF16
     /tmp/cchCZVJj.s:2725   .debug_str:000000000000038f .LASF18
     /tmp/cchCZVJj.s:2707   .debug_str:000000000000033f .LASF48
     /tmp/cchCZVJj.s:2647   .debug_str:000000000000017b .LASF50
     /tmp/cchCZVJj.s:2679   .debug_str:0000000000000281 .LASF17
     /tmp/cchCZVJj.s:2653   .debug_str:00000000000001c2 .LASF19
     /tmp/cchCZVJj.s:2667   .debug_str:0000000000000223 .LASF20
     /tmp/cchCZVJj.s:2625   .debug_str:00000000000000c0 .LASF21
     /tmp/cchCZVJj.s:2611   .debug_str:0000000000000064 .LASF78
     /tmp/cchCZVJj.s:2757   .debug_str:0000000000000533 .LASF22
     /tmp/cchCZVJj.s:2605   .debug_str:000000000000002f .LASF23
     /tmp/cchCZVJj.s:2733   .debug_str:00000000000003cb .LASF79
     /tmp/cchCZVJj.s:2687   .debug_str:00000000000002b9 .LASF80
     /tmp/cchCZVJj.s:2635   .debug_str:0000000000000134 .LASF81
     /tmp/cchCZVJj.s:2597   .debug_str:0000000000000000 .LASF24
     /tmp/cchCZVJj.s:2749   .debug_str:00000000000004e5 .LASF25
     /tmp/cchCZVJj.s:2765   .debug_str:0000000000000566 .LASF43
     /tmp/cchCZVJj.s:2685   .debug_str:000000000000029b .LASF45
     /tmp/cchCZVJj.s:2661   .debug_str:0000000000000211 .LASF26
     /tmp/cchCZVJj.s:2665   .debug_str:000000000000021e .LASF27
     /tmp/cchCZVJj.s:2697   .debug_str:00000000000002fa .LASF28
     /tmp/cchCZVJj.s:2663   .debug_str:0000000000000216 .LASF29
     /tmp/cchCZVJj.s:2659   .debug_str:0000000000000208 .LASF30
     /tmp/cchCZVJj.s:2673   .debug_str:0000000000000251 .LASF31
     /tmp/cchCZVJj.s:2649   .debug_str:0000000000000192 .LASF33
     /tmp/cchCZVJj.s:2761   .debug_str:000000000000054c .LASF38
     /tmp/cchCZVJj.s:2655   .debug_str:00000000000001d9 .LASF82
     /tmp/cchCZVJj.s:2695   .debug_str:00000000000002f1 .LASF32
     /tmp/cchCZVJj.s:2637   .debug_str:000000000000013c .LASF34
     /tmp/cchCZVJj.s:2717   .debug_str:0000000000000368 .LASF35
     /tmp/cchCZVJj.s:2623   .debug_str:00000000000000bb .LASF36
GAS LISTING /tmp/cchCZVJj.s 			page 17


     /tmp/cchCZVJj.s:2683   .debug_str:0000000000000296 .LASF37
     /tmp/cchCZVJj.s:2629   .debug_str:0000000000000107 .LASF83
     /tmp/cchCZVJj.s:2613   .debug_str:0000000000000069 .LASF84
     /tmp/cchCZVJj.s:2641   .debug_str:0000000000000154 .LASF39
     /tmp/cchCZVJj.s:2607   .debug_str:0000000000000058 .LASF40
     /tmp/cchCZVJj.s:2743   .debug_str:00000000000004ca .LASF41
     /tmp/cchCZVJj.s:2681   .debug_str:000000000000028d .LASF42
     /tmp/cchCZVJj.s:2745   .debug_str:00000000000004cf .LASF44
     /tmp/cchCZVJj.s:2627   .debug_str:00000000000000e6 .LASF46
     /tmp/cchCZVJj.s:2747   .debug_str:00000000000004d9 .LASF47
     /tmp/cchCZVJj.s:2669   .debug_str:0000000000000230 .LASF85
     /tmp/cchCZVJj.s:2739   .debug_str:00000000000004aa .LASF49
     /tmp/cchCZVJj.s:2767   .debug_str:0000000000000570 .LASF51
     /tmp/cchCZVJj.s:2721   .debug_str:0000000000000381 .LASF52
     /tmp/cchCZVJj.s:2771   .debug_str:000000000000058e .LASF53
     /tmp/cchCZVJj.s:2639   .debug_str:000000000000014f .LASF54
     /tmp/cchCZVJj.s:2715   .debug_str:0000000000000360 .LASF55
     /tmp/cchCZVJj.s:2711   .debug_str:0000000000000354 .LASF56
     /tmp/cchCZVJj.s:2713   .debug_str:000000000000035b .LASF57
     /tmp/cchCZVJj.s:2645   .debug_str:0000000000000171 .LASF58
     /tmp/cchCZVJj.s:2675   .debug_str:000000000000025f .LASF59
     /tmp/cchCZVJj.s:2603   .debug_str:0000000000000026 .LASF60
     /tmp/cchCZVJj.s:2651   .debug_str:00000000000001ab .LASF61
     /tmp/cchCZVJj.s:2755   .debug_str:0000000000000529 .LASF62
     /tmp/cchCZVJj.s:2737   .debug_str:0000000000000496 .LASF63
     /tmp/cchCZVJj.s:2619   .debug_str:000000000000009d .LASF64
     /tmp/cchCZVJj.s:2599   .debug_str:0000000000000008 .LASF65
     /tmp/cchCZVJj.s:2759   .debug_str:0000000000000543 .LASF66
     /tmp/cchCZVJj.s:2729   .debug_str:00000000000003a0 .LASF67
     /tmp/cchCZVJj.s:2689   .debug_str:00000000000002c9 .LASF68
     /tmp/cchCZVJj.s:2633   .debug_str:0000000000000120 .LASF69
     /tmp/cchCZVJj.s:2709   .debug_str:000000000000034a .LASF70
     /tmp/cchCZVJj.s:2741   .debug_str:00000000000004b4 .LASF71
     /tmp/cchCZVJj.s:425    .text:000000000000026c .LFB11
     /tmp/cchCZVJj.s:490    .text:00000000000002cc .LFE11
     /tmp/cchCZVJj.s:2703   .debug_str:0000000000000325 .LASF72
     /tmp/cchCZVJj.s:2297   .debug_loc:0000000000000000 .LLST12
     /tmp/cchCZVJj.s:458    .text:000000000000029c .LBB3
     /tmp/cchCZVJj.s:470    .text:00000000000002b0 .LBE3
     /tmp/cchCZVJj.s:2333   .debug_loc:000000000000008b .LLST13
     /tmp/cchCZVJj.s:462    .text:00000000000002a4 .LVL43
     /tmp/cchCZVJj.s:469    .text:00000000000002b0 .LVL44
     /tmp/cchCZVJj.s:339    .text:00000000000001e8 .LFB10
     /tmp/cchCZVJj.s:419    .text:000000000000026c .LFE10
     /tmp/cchCZVJj.s:2340   .debug_loc:00000000000000ae .LLST10
     /tmp/cchCZVJj.s:2387   .debug_loc:0000000000000162 .LLST11
     /tmp/cchCZVJj.s:384    .text:0000000000000230 .LVL34
     /tmp/cchCZVJj.s:393    .text:0000000000000248 .LVL35
     /tmp/cchCZVJj.s:258    .text:000000000000016c .LFB9
     /tmp/cchCZVJj.s:333    .text:00000000000001e8 .LFE9
     /tmp/cchCZVJj.s:2723   .debug_str:000000000000038a .LASF74
     /tmp/cchCZVJj.s:2422   .debug_loc:00000000000001fb .LLST8
     /tmp/cchCZVJj.s:2444   .debug_loc:000000000000025a .LLST9
     /tmp/cchCZVJj.s:2753   .debug_str:0000000000000523 .LASF73
     /tmp/cchCZVJj.s:279    .text:0000000000000194 .LVL21
     /tmp/cchCZVJj.s:283    .text:00000000000001a0 .LVL22
     /tmp/cchCZVJj.s:177    .text:00000000000000ec .LFB8
GAS LISTING /tmp/cchCZVJj.s 			page 18


     /tmp/cchCZVJj.s:252    .text:000000000000016c .LFE8
     /tmp/cchCZVJj.s:2466   .debug_loc:00000000000002b9 .LLST6
     /tmp/cchCZVJj.s:2493   .debug_loc:000000000000032c .LLST7
     /tmp/cchCZVJj.s:198    .text:0000000000000110 .LVL13
     /tmp/cchCZVJj.s:211    .text:0000000000000128 .LVL14
     /tmp/cchCZVJj.s:216    .text:0000000000000134 .LVL15
     /tmp/cchCZVJj.s:224    .text:0000000000000140 .LVL16
     /tmp/cchCZVJj.s:228    .text:000000000000014c .LVL17
     /tmp/cchCZVJj.s:108    .text:0000000000000088 .LFB7
     /tmp/cchCZVJj.s:171    .text:00000000000000ec .LFE7
     /tmp/cchCZVJj.s:2504   .debug_loc:0000000000000362 .LLST3
     /tmp/cchCZVJj.s:2522   .debug_loc:00000000000003ae .LLST4
     /tmp/cchCZVJj.s:2529   .debug_loc:00000000000003d1 .LLST5
     /tmp/cchCZVJj.s:142    .text:00000000000000bc .LVL9
     /tmp/cchCZVJj.s:146    .text:00000000000000c8 .LVL10
     /tmp/cchCZVJj.s:65     .text:000000000000004c .LFB6
     /tmp/cchCZVJj.s:102    .text:0000000000000088 .LFE6
     /tmp/cchCZVJj.s:2536   .debug_loc:00000000000003f4 .LLST1
     /tmp/cchCZVJj.s:2554   .debug_loc:0000000000000440 .LLST2
     /tmp/cchCZVJj.s:85     .text:0000000000000070 .LVL5
     /tmp/cchCZVJj.s:13     .text:0000000000000000 .LFB5
     /tmp/cchCZVJj.s:59     .text:000000000000004c .LFE5
     /tmp/cchCZVJj.s:2568   .debug_loc:0000000000000479 .LLST0
     /tmp/cchCZVJj.s:32     .text:0000000000000020 .LVL1
     /tmp/cchCZVJj.s:36     .text:000000000000002c .LVL2
     /tmp/cchCZVJj.s:2643   .debug_str:000000000000015c .LASF86
     /tmp/cchCZVJj.s:2617   .debug_str:000000000000008d .LASF87
     /tmp/cchCZVJj.s:428    .text:000000000000026c .LVL40
     /tmp/cchCZVJj.s:443    .text:0000000000000288 .LVL41
     /tmp/cchCZVJj.s:446    .text:000000000000028c .LVL42
     /tmp/cchCZVJj.s:483    .text:00000000000002c4 .LVL45
     /tmp/cchCZVJj.s:487    .text:00000000000002c8 .LVL46
     /tmp/cchCZVJj.s:342    .text:00000000000001e8 .LVL26
     /tmp/cchCZVJj.s:360    .text:0000000000000204 .LVL30
     /tmp/cchCZVJj.s:362    .text:0000000000000208 .LVL31
     /tmp/cchCZVJj.s:405    .text:000000000000025c .LVL36
     /tmp/cchCZVJj.s:409    .text:0000000000000260 .LVL37
     /tmp/cchCZVJj.s:411    .text:0000000000000264 .LVL38
     /tmp/cchCZVJj.s:415    .text:0000000000000268 .LVL39
     /tmp/cchCZVJj.s:348    .text:00000000000001f0 .LVL27
     /tmp/cchCZVJj.s:352    .text:00000000000001f4 .LVL28
     /tmp/cchCZVJj.s:354    .text:00000000000001f8 .LVL29
     /tmp/cchCZVJj.s:368    .text:0000000000000214 .LVL32
     /tmp/cchCZVJj.s:375    .text:0000000000000220 .LVL33
     /tmp/cchCZVJj.s:261    .text:000000000000016c .LVL20
     /tmp/cchCZVJj.s:316    .text:00000000000001d0 .LVL23
     /tmp/cchCZVJj.s:323    .text:00000000000001dc .LVL25
     /tmp/cchCZVJj.s:319    .text:00000000000001d4 .LVL24
     /tmp/cchCZVJj.s:180    .text:00000000000000ec .LVL12
     /tmp/cchCZVJj.s:244    .text:0000000000000164 .LVL18
     /tmp/cchCZVJj.s:248    .text:0000000000000168 .LVL19
     /tmp/cchCZVJj.s:111    .text:0000000000000088 .LVL7
     /tmp/cchCZVJj.s:164    .text:00000000000000e4 .LVL11
     /tmp/cchCZVJj.s:132    .text:00000000000000ac .LVL8
     /tmp/cchCZVJj.s:68     .text:000000000000004c .LVL3
     /tmp/cchCZVJj.s:83     .text:0000000000000068 .LVL4
     /tmp/cchCZVJj.s:97     .text:0000000000000080 .LVL6
GAS LISTING /tmp/cchCZVJj.s 			page 19


     /tmp/cchCZVJj.s:17     .text:0000000000000000 .LVL0
     /tmp/cchCZVJj.s:500    .debug_info:0000000000000000 .Ldebug_info0

UNDEFINED SYMBOLS
_ZN8MemAlloc11getInstanceEv
_ZN8MemAlloc9mem_allocEm
_ZN8MemAlloc8mem_freeEPv
_ZN9Scheduler3putEP3TCB
_ZN3TCB7runningE
_Z15thread_dispatchv
