GAS LISTING /tmp/cc76TpVP.s 			page 1


   1              		.file	"semaphore.cpp"
   2              		.option pic
   3              		.option norelax
   4              		.text
   5              	.Ltext0:
   6              		.align	2
   7              		.globl	_ZN4_sem4openEPPS_j
   9              	_ZN4_sem4openEPPS_j:
  10              	.LFB0:
  11              		.file 1 "src/semaphore.cpp"
   1:src/semaphore.cpp **** /**
   2:src/semaphore.cpp ****  * @file semaphore.cpp
   3:src/semaphore.cpp ****  * @author stcksmsh (vukicevickosta@gmail.com)
   4:src/semaphore.cpp ****  * @brief implementation of the _sem class
   5:src/semaphore.cpp ****  * @version 0.1
   6:src/semaphore.cpp ****  * @date 2024-01-02
   7:src/semaphore.cpp ****  * 
   8:src/semaphore.cpp ****  * @copyright Copyright (c) 2024
   9:src/semaphore.cpp ****  * 
  10:src/semaphore.cpp ****  */
  11:src/semaphore.cpp **** 
  12:src/semaphore.cpp **** #include "semaphore.h"
  13:src/semaphore.cpp **** #include "syscalls_c.h"
  14:src/semaphore.cpp **** #include "assert.h"
  15:src/semaphore.cpp **** #include "sched.h"
  16:src/semaphore.cpp **** 
  17:src/semaphore.cpp **** void _sem::open(_sem** handle, unsigned init){
  12              		.loc 1 17 46
  13              		.cfi_startproc
  14              	.LVL0:
  15 0000 130101FF 		addi	sp,sp,-16
  16              		.cfi_def_cfa_offset 16
  17 0004 23348100 		sd	s0,8(sp)
  18              		.cfi_offset 8, -8
  19 0008 13040101 		addi	s0,sp,16
  20              		.cfi_def_cfa 8, 0
  18:src/semaphore.cpp ****     (*handle)->blockHead = nullptr;
  21              		.loc 1 18 5
  22              		.loc 1 18 6 is_stmt 0
  23 000c 83370500 		ld	a5,0(a0)
  24              		.loc 1 18 26
  25 0010 23B00700 		sd	zero,0(a5)
  19:src/semaphore.cpp ****     (*handle)->blockTail = nullptr;
  26              		.loc 1 19 5 is_stmt 1
  27              		.loc 1 19 6 is_stmt 0
  28 0014 83370500 		ld	a5,0(a0)
  29              		.loc 1 19 26
  30 0018 23B40700 		sd	zero,8(a5)
  20:src/semaphore.cpp ****     (*handle)->value = init;
  31              		.loc 1 20 5 is_stmt 1
  32              		.loc 1 20 6 is_stmt 0
  33 001c 83370500 		ld	a5,0(a0)
  34              		.loc 1 20 22
  35 0020 23A8B700 		sw	a1,16(a5)
  21:src/semaphore.cpp **** }
  36              		.loc 1 21 1
  37 0024 03348100 		ld	s0,8(sp)
GAS LISTING /tmp/cc76TpVP.s 			page 2


  38              		.cfi_restore 8
  39              		.cfi_def_cfa 2, 16
  40 0028 13010101 		addi	sp,sp,16
  41              		.cfi_def_cfa_offset 0
  42 002c 67800000 		jr	ra
  43              		.cfi_endproc
  44              	.LFE0:
  46              		.align	2
  47              		.globl	_ZN4_sem5closeEPS_
  49              	_ZN4_sem5closeEPS_:
  50              	.LFB1:
  22:src/semaphore.cpp **** 
  23:src/semaphore.cpp **** void _sem::close(sem_t id){
  51              		.loc 1 23 27 is_stmt 1
  52              		.cfi_startproc
  53              	.LVL1:
  54 0030 130101FE 		addi	sp,sp,-32
  55              		.cfi_def_cfa_offset 32
  56 0034 233C1100 		sd	ra,24(sp)
  57 0038 23388100 		sd	s0,16(sp)
  58 003c 23349100 		sd	s1,8(sp)
  59              		.cfi_offset 1, -8
  60              		.cfi_offset 8, -16
  61              		.cfi_offset 9, -24
  62 0040 13040102 		addi	s0,sp,32
  63              		.cfi_def_cfa 8, 0
  64 0044 93040500 		mv	s1,a0
  65              	.LVL2:
  66              	.L5:
  24:src/semaphore.cpp ****     while(id->blockHead != nullptr){
  67              		.loc 1 24 5
  68              		.loc 1 24 25
  69              		.loc 1 24 15 is_stmt 0
  70 0048 83B70400 		ld	a5,0(s1)
  71              		.loc 1 24 25
  72 004c 63880702 		beqz	a5,.L3
  25:src/semaphore.cpp ****         id->blockHead->pThread->setClosed(true);
  73              		.loc 1 25 9 is_stmt 1
  74              		.loc 1 25 42 is_stmt 0
  75 0050 93051000 		li	a1,1
  76 0054 03B50700 		ld	a0,0(a5)
  77 0058 97000000 		call	_ZN7_thread9setClosedEb@plt
  77      E7800000 
  78              	.LVL3:
  26:src/semaphore.cpp ****         mem_free(id->blockHead);
  79              		.loc 1 26 9 is_stmt 1
  80              		.loc 1 26 17 is_stmt 0
  81 0060 03B50400 		ld	a0,0(s1)
  82 0064 97000000 		call	_Z8mem_freePv@plt
  82      E7800000 
  83              	.LVL4:
  27:src/semaphore.cpp ****         id->blockHead = id->blockHead->pNext;
  84              		.loc 1 27 9 is_stmt 1
  85              		.loc 1 27 29 is_stmt 0
  86 006c 83B70400 		ld	a5,0(s1)
  87              		.loc 1 27 40
  88 0070 83B78700 		ld	a5,8(a5)
GAS LISTING /tmp/cc76TpVP.s 			page 3


  89              		.loc 1 27 23
  90 0074 23B0F400 		sd	a5,0(s1)
  24:src/semaphore.cpp ****         id->blockHead->pThread->setClosed(true);
  91              		.loc 1 24 5
  92 0078 6FF01FFD 		j	.L5
  93              	.L3:
  28:src/semaphore.cpp ****     }
  29:src/semaphore.cpp **** }
  94              		.loc 1 29 1
  95 007c 83308101 		ld	ra,24(sp)
  96              		.cfi_restore 1
  97 0080 03340101 		ld	s0,16(sp)
  98              		.cfi_restore 8
  99              		.cfi_def_cfa 2, 32
 100 0084 83348100 		ld	s1,8(sp)
 101              		.cfi_restore 9
 102              	.LVL5:
 103 0088 13010102 		addi	sp,sp,32
 104              		.cfi_def_cfa_offset 0
 105 008c 67800000 		jr	ra
 106              		.cfi_endproc
 107              	.LFE1:
 109              		.align	2
 110              		.globl	_ZN4_sem4waitEPS_
 112              	_ZN4_sem4waitEPS_:
 113              	.LFB2:
  30:src/semaphore.cpp **** 
  31:src/semaphore.cpp **** void _sem::wait(sem_t id){
 114              		.loc 1 31 26 is_stmt 1
 115              		.cfi_startproc
 116              	.LVL6:
  32:src/semaphore.cpp ****     id->value--;
 117              		.loc 1 32 5
 118              		.loc 1 32 9 is_stmt 0
 119 0090 83270501 		lw	a5,16(a0)
 120              		.loc 1 32 14
 121 0094 9B87F7FF 		addiw	a5,a5,-1
 122 0098 2328F500 		sw	a5,16(a0)
  33:src/semaphore.cpp ****     if(id->value < 0){
 123              		.loc 1 33 5 is_stmt 1
 124              	.LBB2:
 125 009c 13970702 		slli	a4,a5,32
 126 00a0 63440700 		bltz	a4,.L15
 127 00a4 67800000 		ret
 128              	.L15:
 129              	.LBE2:
  31:src/semaphore.cpp ****     id->value--;
 130              		.loc 1 31 26 is_stmt 0
 131 00a8 130101FE 		addi	sp,sp,-32
 132              		.cfi_def_cfa_offset 32
 133 00ac 233C1100 		sd	ra,24(sp)
 134 00b0 23388100 		sd	s0,16(sp)
 135 00b4 23349100 		sd	s1,8(sp)
 136              		.cfi_offset 1, -8
 137              		.cfi_offset 8, -16
 138              		.cfi_offset 9, -24
 139 00b8 13040102 		addi	s0,sp,32
GAS LISTING /tmp/cc76TpVP.s 			page 4


 140              		.cfi_def_cfa 8, 0
 141 00bc 93040500 		mv	s1,a0
 142              	.LBB5:
 143              	.LBB3:
  34:src/semaphore.cpp ****         blockedThreadList* pNewBlock = (blockedThreadList*)mem_alloc(sizeof(blockedThreadList));
 144              		.loc 1 34 9 is_stmt 1
 145              		.loc 1 34 69 is_stmt 0
 146 00c0 13050001 		li	a0,16
 147              	.LVL7:
 148 00c4 97000000 		call	_Z9mem_allocm@plt
 148      E7800000 
 149              	.LVL8:
  35:src/semaphore.cpp ****         pNewBlock->pThread = _thread::currentThread;
 150              		.loc 1 35 9 is_stmt 1
 151              		.loc 1 35 28 is_stmt 0
 152 00cc 97070000 		la	a5,_ZN7_thread13currentThreadE
 152      83B70700 
 153 00d4 83B70700 		ld	a5,0(a5)
 154 00d8 2330F500 		sd	a5,0(a0)
  36:src/semaphore.cpp ****         pNewBlock->pNext = nullptr;
 155              		.loc 1 36 9 is_stmt 1
 156              		.loc 1 36 26 is_stmt 0
 157 00dc 23340500 		sd	zero,8(a0)
  37:src/semaphore.cpp ****         if(id->blockHead == nullptr){
 158              		.loc 1 37 9 is_stmt 1
 159              		.loc 1 37 16 is_stmt 0
 160 00e0 83B70400 		ld	a5,0(s1)
 161              		.loc 1 37 9
 162 00e4 63820704 		beqz	a5,.L16
  38:src/semaphore.cpp ****             id->blockHead = pNewBlock;
  39:src/semaphore.cpp ****             id->blockTail = pNewBlock;
  40:src/semaphore.cpp ****         }else{
  41:src/semaphore.cpp ****             id->blockTail->pNext = pNewBlock;
 163              		.loc 1 41 13 is_stmt 1
 164              		.loc 1 41 17 is_stmt 0
 165 00e8 83B78400 		ld	a5,8(s1)
 166              		.loc 1 41 34
 167 00ec 23B4A700 		sd	a0,8(a5)
  42:src/semaphore.cpp ****             id->blockTail = pNewBlock;
 168              		.loc 1 42 13 is_stmt 1
 169              		.loc 1 42 27 is_stmt 0
 170 00f0 23B4A400 		sd	a0,8(s1)
 171              	.L10:
  43:src/semaphore.cpp ****         }
  44:src/semaphore.cpp ****         _thread::currentThread->setBlocked(true);
 172              		.loc 1 44 9 is_stmt 1
 173              		.loc 1 44 43 is_stmt 0
 174 00f4 93051000 		li	a1,1
 175 00f8 97070000 		la	a5,_ZN7_thread13currentThreadE
 175      83B70700 
 176 0100 03B50700 		ld	a0,0(a5)
 177              	.LVL9:
 178 0104 97000000 		call	_ZN7_thread10setBlockedEb@plt
 178      E7800000 
 179              	.LVL10:
  45:src/semaphore.cpp ****         _thread::dispatch();
 180              		.loc 1 45 9 is_stmt 1
GAS LISTING /tmp/cc76TpVP.s 			page 5


 181              		.loc 1 45 26 is_stmt 0
 182 010c 97000000 		call	_ZN7_thread8dispatchEv@plt
 182      E7800000 
 183              	.LVL11:
 184              	.LBE3:
 185              	.LBE5:
  46:src/semaphore.cpp ****     }
  47:src/semaphore.cpp **** }
 186              		.loc 1 47 1
 187 0114 83308101 		ld	ra,24(sp)
 188              		.cfi_remember_state
 189              		.cfi_restore 1
 190 0118 03340101 		ld	s0,16(sp)
 191              		.cfi_restore 8
 192              		.cfi_def_cfa 2, 32
 193 011c 83348100 		ld	s1,8(sp)
 194              		.cfi_restore 9
 195              	.LVL12:
 196 0120 13010102 		addi	sp,sp,32
 197              		.cfi_def_cfa_offset 0
 198 0124 67800000 		jr	ra
 199              	.LVL13:
 200              	.L16:
 201              		.cfi_restore_state
 202              	.LBB6:
 203              	.LBB4:
  38:src/semaphore.cpp ****             id->blockTail = pNewBlock;
 204              		.loc 1 38 13 is_stmt 1
  38:src/semaphore.cpp ****             id->blockTail = pNewBlock;
 205              		.loc 1 38 27 is_stmt 0
 206 0128 23B0A400 		sd	a0,0(s1)
  39:src/semaphore.cpp ****         }else{
 207              		.loc 1 39 13 is_stmt 1
  39:src/semaphore.cpp ****         }else{
 208              		.loc 1 39 27 is_stmt 0
 209 012c 23B4A400 		sd	a0,8(s1)
 210 0130 6FF05FFC 		j	.L10
 211              	.LBE4:
 212              	.LBE6:
 213              		.cfi_endproc
 214              	.LFE2:
 216              		.align	2
 217              		.globl	_ZN4_sem6signalEPS_
 219              	_ZN4_sem6signalEPS_:
 220              	.LFB3:
  48:src/semaphore.cpp **** 
  49:src/semaphore.cpp **** void _sem::signal(sem_t id){
 221              		.loc 1 49 28 is_stmt 1
 222              		.cfi_startproc
 223              	.LVL14:
  50:src/semaphore.cpp ****     id->value++;
 224              		.loc 1 50 5
 225              		.loc 1 50 9 is_stmt 0
 226 0134 83270501 		lw	a5,16(a0)
 227              		.loc 1 50 14
 228 0138 9B871700 		addiw	a5,a5,1
 229 013c 1B870700 		sext.w	a4,a5
GAS LISTING /tmp/cc76TpVP.s 			page 6


 230 0140 2328F500 		sw	a5,16(a0)
  51:src/semaphore.cpp ****     if(id->value <= 0){
 231              		.loc 1 51 5 is_stmt 1
 232              	.LBB7:
 233 0144 6354E000 		blez	a4,.L24
 234 0148 67800000 		ret
 235              	.L24:
 236              	.LBE7:
  49:src/semaphore.cpp ****     id->value++;
 237              		.loc 1 49 28 is_stmt 0
 238 014c 130101FE 		addi	sp,sp,-32
 239              		.cfi_def_cfa_offset 32
 240 0150 233C1100 		sd	ra,24(sp)
 241 0154 23388100 		sd	s0,16(sp)
 242 0158 23349100 		sd	s1,8(sp)
 243              		.cfi_offset 1, -8
 244              		.cfi_offset 8, -16
 245              		.cfi_offset 9, -24
 246 015c 13040102 		addi	s0,sp,32
 247              		.cfi_def_cfa 8, 0
 248              	.LBB10:
 249              	.LBB8:
  52:src/semaphore.cpp ****         blockedThreadList* pUnblock = id->blockHead;
 250              		.loc 1 52 9 is_stmt 1
 251              		.loc 1 52 28 is_stmt 0
 252 0160 83340500 		ld	s1,0(a0)
 253              	.LVL15:
  53:src/semaphore.cpp ****         id->blockHead = id->blockHead->pNext;
 254              		.loc 1 53 9 is_stmt 1
 255              		.loc 1 53 40 is_stmt 0
 256 0164 83B78400 		ld	a5,8(s1)
 257              		.loc 1 53 23
 258 0168 2330F500 		sd	a5,0(a0)
  54:src/semaphore.cpp ****         if(id->blockHead == nullptr){
 259              		.loc 1 54 9 is_stmt 1
 260 016c 63800704 		beqz	a5,.L25
 261              	.L19:
  55:src/semaphore.cpp ****             id->blockTail = nullptr;
  56:src/semaphore.cpp ****         }
  57:src/semaphore.cpp ****         pUnblock->pThread->setBlocked(false);
 262              		.loc 1 57 9
 263              		.loc 1 57 38 is_stmt 0
 264 0170 93050000 		li	a1,0
 265 0174 03B50400 		ld	a0,0(s1)
 266              	.LVL16:
 267 0178 97000000 		call	_ZN7_thread10setBlockedEb@plt
 267      E7800000 
 268              	.LVL17:
  58:src/semaphore.cpp ****         Scheduler::put(pUnblock->pThread);
 269              		.loc 1 58 9 is_stmt 1
 270              		.loc 1 58 23 is_stmt 0
 271 0180 03B50400 		ld	a0,0(s1)
 272 0184 97000000 		call	_ZN9Scheduler3putEP7_thread@plt
 272      E7800000 
 273              	.LVL18:
  59:src/semaphore.cpp ****         mem_free(pUnblock);
 274              		.loc 1 59 9 is_stmt 1
GAS LISTING /tmp/cc76TpVP.s 			page 7


 275              		.loc 1 59 17 is_stmt 0
 276 018c 13850400 		mv	a0,s1
 277 0190 97000000 		call	_Z8mem_freePv@plt
 277      E7800000 
 278              	.LVL19:
 279              	.LBE8:
 280              	.LBE10:
  60:src/semaphore.cpp ****     }
  61:src/semaphore.cpp **** }...
 281              		.loc 1 61 1
 282 0198 83308101 		ld	ra,24(sp)
 283              		.cfi_remember_state
 284              		.cfi_restore 1
 285 019c 03340101 		ld	s0,16(sp)
 286              		.cfi_restore 8
 287              		.cfi_def_cfa 2, 32
 288 01a0 83348100 		ld	s1,8(sp)
 289              		.cfi_restore 9
 290              	.LVL20:
 291 01a4 13010102 		addi	sp,sp,32
 292              		.cfi_def_cfa_offset 0
 293 01a8 67800000 		jr	ra
 294              	.LVL21:
 295              	.L25:
 296              		.cfi_restore_state
 297              	.LBB11:
 298              	.LBB9:
  55:src/semaphore.cpp ****             id->blockTail = nullptr;
 299              		.loc 1 55 13 is_stmt 1
  55:src/semaphore.cpp ****             id->blockTail = nullptr;
 300              		.loc 1 55 27 is_stmt 0
 301 01ac 23340500 		sd	zero,8(a0)
 302 01b0 6FF01FFC 		j	.L19
 303              	.LBE9:
 304              	.LBE11:
 305              		.cfi_endproc
 306              	.LFE3:
 308              	.Letext0:
 309              		.file 2 "./lib/hw.h"
 310              		.file 3 "./h/thread.h"
 311              		.file 4 "./h/semaphore.h"
 312              		.file 5 "./h/sched.h"
 313              		.file 6 "./h/syscalls_c.h"
GAS LISTING /tmp/cc76TpVP.s 			page 8


DEFINED SYMBOLS
                            *ABS*:0000000000000000 semaphore.cpp
     /tmp/cc76TpVP.s:9      .text:0000000000000000 _ZN4_sem4openEPPS_j
     /tmp/cc76TpVP.s:13     .text:0000000000000000 .L0 
     /tmp/cc76TpVP.s:15     .text:0000000000000000 .L0 
     /tmp/cc76TpVP.s:16     .text:0000000000000004 .L0 
     /tmp/cc76TpVP.s:18     .text:0000000000000008 .L0 
     /tmp/cc76TpVP.s:20     .text:000000000000000c .L0 
     /tmp/cc76TpVP.s:22     .text:000000000000000c .L0 
     /tmp/cc76TpVP.s:23     .text:000000000000000c .L0 
     /tmp/cc76TpVP.s:25     .text:0000000000000010 .L0 
     /tmp/cc76TpVP.s:27     .text:0000000000000014 .L0 
     /tmp/cc76TpVP.s:28     .text:0000000000000014 .L0 
     /tmp/cc76TpVP.s:30     .text:0000000000000018 .L0 
     /tmp/cc76TpVP.s:32     .text:000000000000001c .L0 
     /tmp/cc76TpVP.s:33     .text:000000000000001c .L0 
     /tmp/cc76TpVP.s:35     .text:0000000000000020 .L0 
     /tmp/cc76TpVP.s:37     .text:0000000000000024 .L0 
     /tmp/cc76TpVP.s:38     .text:0000000000000028 .L0 
     /tmp/cc76TpVP.s:39     .text:0000000000000028 .L0 
     /tmp/cc76TpVP.s:41     .text:000000000000002c .L0 
     /tmp/cc76TpVP.s:43     .text:0000000000000030 .L0 
     /tmp/cc76TpVP.s:49     .text:0000000000000030 _ZN4_sem5closeEPS_
     /tmp/cc76TpVP.s:52     .text:0000000000000030 .L0 
     /tmp/cc76TpVP.s:54     .text:0000000000000030 .L0 
     /tmp/cc76TpVP.s:55     .text:0000000000000034 .L0 
     /tmp/cc76TpVP.s:59     .text:0000000000000040 .L0 
     /tmp/cc76TpVP.s:60     .text:0000000000000040 .L0 
     /tmp/cc76TpVP.s:61     .text:0000000000000040 .L0 
     /tmp/cc76TpVP.s:63     .text:0000000000000044 .L0 
     /tmp/cc76TpVP.s:68     .text:0000000000000048 .L0 
     /tmp/cc76TpVP.s:69     .text:0000000000000048 .L0 
     /tmp/cc76TpVP.s:70     .text:0000000000000048 .L0 
     /tmp/cc76TpVP.s:72     .text:000000000000004c .L0 
     /tmp/cc76TpVP.s:74     .text:0000000000000050 .L0 
     /tmp/cc76TpVP.s:75     .text:0000000000000050 .L0 
     /tmp/cc76TpVP.s:80     .text:0000000000000060 .L0 
     /tmp/cc76TpVP.s:81     .text:0000000000000060 .L0 
     /tmp/cc76TpVP.s:85     .text:000000000000006c .L0 
     /tmp/cc76TpVP.s:86     .text:000000000000006c .L0 
     /tmp/cc76TpVP.s:88     .text:0000000000000070 .L0 
     /tmp/cc76TpVP.s:90     .text:0000000000000074 .L0 
     /tmp/cc76TpVP.s:92     .text:0000000000000078 .L0 
     /tmp/cc76TpVP.s:95     .text:000000000000007c .L0 
     /tmp/cc76TpVP.s:96     .text:0000000000000080 .L0 
     /tmp/cc76TpVP.s:98     .text:0000000000000084 .L0 
     /tmp/cc76TpVP.s:99     .text:0000000000000084 .L0 
     /tmp/cc76TpVP.s:101    .text:0000000000000088 .L0 
     /tmp/cc76TpVP.s:104    .text:000000000000008c .L0 
     /tmp/cc76TpVP.s:106    .text:0000000000000090 .L0 
     /tmp/cc76TpVP.s:112    .text:0000000000000090 _ZN4_sem4waitEPS_
     /tmp/cc76TpVP.s:115    .text:0000000000000090 .L0 
     /tmp/cc76TpVP.s:117    .text:0000000000000090 .L0 
     /tmp/cc76TpVP.s:118    .text:0000000000000090 .L0 
     /tmp/cc76TpVP.s:119    .text:0000000000000090 .L0 
     /tmp/cc76TpVP.s:121    .text:0000000000000094 .L0 
     /tmp/cc76TpVP.s:125    .text:000000000000009c .L0 
GAS LISTING /tmp/cc76TpVP.s 			page 9


     /tmp/cc76TpVP.s:131    .text:00000000000000a8 .L0 
     /tmp/cc76TpVP.s:132    .text:00000000000000ac .L0 
     /tmp/cc76TpVP.s:136    .text:00000000000000b8 .L0 
     /tmp/cc76TpVP.s:137    .text:00000000000000b8 .L0 
     /tmp/cc76TpVP.s:138    .text:00000000000000b8 .L0 
     /tmp/cc76TpVP.s:140    .text:00000000000000bc .L0 
     /tmp/cc76TpVP.s:145    .text:00000000000000c0 .L0 
     /tmp/cc76TpVP.s:146    .text:00000000000000c0 .L0 
     /tmp/cc76TpVP.s:151    .text:00000000000000cc .L0 
     /tmp/cc76TpVP.s:152    .text:00000000000000cc .L0 
     /tmp/cc76TpVP.s:156    .text:00000000000000dc .L0 
     /tmp/cc76TpVP.s:157    .text:00000000000000dc .L0 
     /tmp/cc76TpVP.s:159    .text:00000000000000e0 .L0 
     /tmp/cc76TpVP.s:160    .text:00000000000000e0 .L0 
     /tmp/cc76TpVP.s:162    .text:00000000000000e4 .L0 
     /tmp/cc76TpVP.s:164    .text:00000000000000e8 .L0 
     /tmp/cc76TpVP.s:165    .text:00000000000000e8 .L0 
     /tmp/cc76TpVP.s:167    .text:00000000000000ec .L0 
     /tmp/cc76TpVP.s:169    .text:00000000000000f0 .L0 
     /tmp/cc76TpVP.s:170    .text:00000000000000f0 .L0 
     /tmp/cc76TpVP.s:173    .text:00000000000000f4 .L0 
     /tmp/cc76TpVP.s:174    .text:00000000000000f4 .L0 
     /tmp/cc76TpVP.s:181    .text:000000000000010c .L0 
     /tmp/cc76TpVP.s:182    .text:000000000000010c .L0 
     /tmp/cc76TpVP.s:187    .text:0000000000000114 .L0 
     /tmp/cc76TpVP.s:188    .text:0000000000000118 .L0 
     /tmp/cc76TpVP.s:189    .text:0000000000000118 .L0 
     /tmp/cc76TpVP.s:191    .text:000000000000011c .L0 
     /tmp/cc76TpVP.s:192    .text:000000000000011c .L0 
     /tmp/cc76TpVP.s:194    .text:0000000000000120 .L0 
     /tmp/cc76TpVP.s:197    .text:0000000000000124 .L0 
     /tmp/cc76TpVP.s:201    .text:0000000000000128 .L0 
     /tmp/cc76TpVP.s:205    .text:0000000000000128 .L0 
     /tmp/cc76TpVP.s:206    .text:0000000000000128 .L0 
     /tmp/cc76TpVP.s:208    .text:000000000000012c .L0 
     /tmp/cc76TpVP.s:209    .text:000000000000012c .L0 
     /tmp/cc76TpVP.s:213    .text:0000000000000134 .L0 
     /tmp/cc76TpVP.s:219    .text:0000000000000134 _ZN4_sem6signalEPS_
     /tmp/cc76TpVP.s:222    .text:0000000000000134 .L0 
     /tmp/cc76TpVP.s:224    .text:0000000000000134 .L0 
     /tmp/cc76TpVP.s:225    .text:0000000000000134 .L0 
     /tmp/cc76TpVP.s:226    .text:0000000000000134 .L0 
     /tmp/cc76TpVP.s:228    .text:0000000000000138 .L0 
     /tmp/cc76TpVP.s:233    .text:0000000000000144 .L0 
     /tmp/cc76TpVP.s:238    .text:000000000000014c .L0 
     /tmp/cc76TpVP.s:239    .text:0000000000000150 .L0 
     /tmp/cc76TpVP.s:243    .text:000000000000015c .L0 
     /tmp/cc76TpVP.s:244    .text:000000000000015c .L0 
     /tmp/cc76TpVP.s:245    .text:000000000000015c .L0 
     /tmp/cc76TpVP.s:247    .text:0000000000000160 .L0 
     /tmp/cc76TpVP.s:251    .text:0000000000000160 .L0 
     /tmp/cc76TpVP.s:252    .text:0000000000000160 .L0 
     /tmp/cc76TpVP.s:255    .text:0000000000000164 .L0 
     /tmp/cc76TpVP.s:256    .text:0000000000000164 .L0 
     /tmp/cc76TpVP.s:258    .text:0000000000000168 .L0 
     /tmp/cc76TpVP.s:260    .text:000000000000016c .L0 
     /tmp/cc76TpVP.s:263    .text:0000000000000170 .L0 
GAS LISTING /tmp/cc76TpVP.s 			page 10


     /tmp/cc76TpVP.s:264    .text:0000000000000170 .L0 
     /tmp/cc76TpVP.s:270    .text:0000000000000180 .L0 
     /tmp/cc76TpVP.s:271    .text:0000000000000180 .L0 
     /tmp/cc76TpVP.s:275    .text:000000000000018c .L0 
     /tmp/cc76TpVP.s:276    .text:000000000000018c .L0 
     /tmp/cc76TpVP.s:282    .text:0000000000000198 .L0 
     /tmp/cc76TpVP.s:283    .text:000000000000019c .L0 
     /tmp/cc76TpVP.s:284    .text:000000000000019c .L0 
     /tmp/cc76TpVP.s:286    .text:00000000000001a0 .L0 
     /tmp/cc76TpVP.s:287    .text:00000000000001a0 .L0 
     /tmp/cc76TpVP.s:289    .text:00000000000001a4 .L0 
     /tmp/cc76TpVP.s:292    .text:00000000000001a8 .L0 
     /tmp/cc76TpVP.s:296    .text:00000000000001ac .L0 
     /tmp/cc76TpVP.s:300    .text:00000000000001ac .L0 
     /tmp/cc76TpVP.s:301    .text:00000000000001ac .L0 
     /tmp/cc76TpVP.s:305    .text:00000000000001b4 .L0 
     /tmp/cc76TpVP.s:314    .text:00000000000001b4 .L0 
     /tmp/cc76TpVP.s:152    .text:00000000000000cc .L0 
     /tmp/cc76TpVP.s:175    .text:00000000000000f8 .L0 
     /tmp/cc76TpVP.s:93     .text:000000000000007c .L3
     /tmp/cc76TpVP.s:66     .text:0000000000000048 .L5
     /tmp/cc76TpVP.s:128    .text:00000000000000a8 .L15
     /tmp/cc76TpVP.s:200    .text:0000000000000128 .L16
     /tmp/cc76TpVP.s:171    .text:00000000000000f4 .L10
     /tmp/cc76TpVP.s:235    .text:000000000000014c .L24
     /tmp/cc76TpVP.s:295    .text:00000000000001ac .L25
     /tmp/cc76TpVP.s:261    .text:0000000000000170 .L19
     /tmp/cc76TpVP.s:1241   .debug_abbrev:0000000000000000 .Ldebug_abbrev0
     /tmp/cc76TpVP.s:2207   .debug_str:00000000000003d2 .LASF79
     /tmp/cc76TpVP.s:2115   .debug_str:000000000000017d .LASF80
     /tmp/cc76TpVP.s:2065   .debug_str:0000000000000064 .LASF81
     /tmp/cc76TpVP.s:5      .text:0000000000000000 .Ltext0
     /tmp/cc76TpVP.s:308    .text:00000000000001b4 .Letext0
     /tmp/cc76TpVP.s:2051   .debug_line:0000000000000000 .Ldebug_line0
     /tmp/cc76TpVP.s:2159   .debug_str:0000000000000287 .LASF0
     /tmp/cc76TpVP.s:2171   .debug_str:00000000000002f2 .LASF1
     /tmp/cc76TpVP.s:2145   .debug_str:000000000000021e .LASF2
     /tmp/cc76TpVP.s:2195   .debug_str:000000000000038e .LASF3
     /tmp/cc76TpVP.s:2123   .debug_str:00000000000001b0 .LASF4
     /tmp/cc76TpVP.s:2197   .debug_str:0000000000000395 .LASF5
     /tmp/cc76TpVP.s:2079   .debug_str:00000000000000bf .LASF6
     /tmp/cc76TpVP.s:2099   .debug_str:000000000000012d .LASF7
     /tmp/cc76TpVP.s:2173   .debug_str:0000000000000305 .LASF8
     /tmp/cc76TpVP.s:2157   .debug_str:0000000000000274 .LASF9
     /tmp/cc76TpVP.s:2217   .debug_str:00000000000004d0 .LASF10
     /tmp/cc76TpVP.s:2111   .debug_str:0000000000000169 .LASF11
     /tmp/cc76TpVP.s:2183   .debug_str:0000000000000339 .LASF12
     /tmp/cc76TpVP.s:2211   .debug_str:00000000000004a0 .LASF13
     /tmp/cc76TpVP.s:2081   .debug_str:00000000000000c6 .LASF14
     /tmp/cc76TpVP.s:2061   .debug_str:000000000000002f .LASF15
     /tmp/cc76TpVP.s:2087   .debug_str:00000000000000ea .LASF16
     /tmp/cc76TpVP.s:2193   .debug_str:0000000000000378 .LASF17
     /tmp/cc76TpVP.s:2093   .debug_str:000000000000010c .LASF18
     /tmp/cc76TpVP.s:2119   .debug_str:00000000000001a3 .LASF46
     /tmp/cc76TpVP.s:2149   .debug_str:0000000000000231 .LASF20
     /tmp/cc76TpVP.s:2191   .debug_str:0000000000000370 .LASF19
     /tmp/cc76TpVP.s:2151   .debug_str:0000000000000240 .LASF21
GAS LISTING /tmp/cc76TpVP.s 			page 11


     /tmp/cc76TpVP.s:2175   .debug_str:0000000000000318 .LASF22
     /tmp/cc76TpVP.s:2233   .debug_str:0000000000000549 .LASF23
     /tmp/cc76TpVP.s:2135   .debug_str:00000000000001ee .LASF25
     /tmp/cc76TpVP.s:2063   .debug_str:000000000000003f .LASF27
     /tmp/cc76TpVP.s:2109   .debug_str:0000000000000164 .LASF24
     /tmp/cc76TpVP.s:2137   .debug_str:00000000000001f5 .LASF82
     /tmp/cc76TpVP.s:2221   .debug_str:00000000000004f8 .LASF83
     /tmp/cc76TpVP.s:2161   .debug_str:0000000000000294 .LASF84
     /tmp/cc76TpVP.s:2205   .debug_str:00000000000003bb .LASF85
     /tmp/cc76TpVP.s:2199   .debug_str:00000000000003a7 .LASF26
     /tmp/cc76TpVP.s:2131   .debug_str:00000000000001d2 .LASF28
     /tmp/cc76TpVP.s:2101   .debug_str:0000000000000134 .LASF86
     /tmp/cc76TpVP.s:2067   .debug_str:0000000000000071 .LASF29
     /tmp/cc76TpVP.s:2239   .debug_str:0000000000000558 .LASF30
     /tmp/cc76TpVP.s:2083   .debug_str:00000000000000d6 .LASF31
     /tmp/cc76TpVP.s:2075   .debug_str:000000000000009d .LASF32
     /tmp/cc76TpVP.s:2219   .debug_str:00000000000004e0 .LASF52
     /tmp/cc76TpVP.s:2201   .debug_str:00000000000003ac .LASF87
     /tmp/cc76TpVP.s:2189   .debug_str:000000000000035a .LASF88
     /tmp/cc76TpVP.s:2165   .debug_str:00000000000002a8 .LASF33
     /tmp/cc76TpVP.s:2231   .debug_str:0000000000000540 .LASF34
     /tmp/cc76TpVP.s:2125   .debug_str:00000000000001b7 .LASF35
     /tmp/cc76TpVP.s:2141   .debug_str:000000000000020c .LASF36
     /tmp/cc76TpVP.s:2143   .debug_str:0000000000000217 .LASF37
     /tmp/cc76TpVP.s:2055   .debug_str:0000000000000009 .LASF38
     /tmp/cc76TpVP.s:2185   .debug_str:0000000000000348 .LASF39
     /tmp/cc76TpVP.s:2127   .debug_str:00000000000001c0 .LASF40
     /tmp/cc76TpVP.s:2229   .debug_str:0000000000000537 .LASF41
     /tmp/cc76TpVP.s:2179   .debug_str:0000000000000326 .LASF42
     /tmp/cc76TpVP.s:2133   .debug_str:00000000000001e7 .LASF43
     /tmp/cc76TpVP.s:2225   .debug_str:0000000000000511 .LASF89
     /tmp/cc76TpVP.s:2169   .debug_str:00000000000002be .LASF90
     /tmp/cc76TpVP.s:2071   .debug_str:000000000000008e .LASF44
     /tmp/cc76TpVP.s:2053   .debug_str:0000000000000000 .LASF45
     /tmp/cc76TpVP.s:2121   .debug_str:00000000000001ab .LASF47
     /tmp/cc76TpVP.s:2139   .debug_str:00000000000001fa .LASF48
     /tmp/cc76TpVP.s:2107   .debug_str:000000000000015c .LASF49
     /tmp/cc76TpVP.s:2113   .debug_str:0000000000000177 .LASF50
     /tmp/cc76TpVP.s:2215   .debug_str:00000000000004cb .LASF51
     /tmp/cc76TpVP.s:2059   .debug_str:000000000000001b .LASF53
     /tmp/cc76TpVP.s:2223   .debug_str:000000000000050b .LASF54
     /tmp/cc76TpVP.s:2153   .debug_str:000000000000024f .LASF55
     /tmp/cc76TpVP.s:2235   .debug_str:000000000000054e .LASF56
     /tmp/cc76TpVP.s:2155   .debug_str:0000000000000262 .LASF57
     /tmp/cc76TpVP.s:2177   .debug_str:000000000000031f .LASF58
     /tmp/cc76TpVP.s:2103   .debug_str:0000000000000142 .LASF59
     /tmp/cc76TpVP.s:2077   .debug_str:00000000000000b5 .LASF60
     /tmp/cc76TpVP.s:2209   .debug_str:0000000000000496 .LASF61
     /tmp/cc76TpVP.s:2095   .debug_str:0000000000000122 .LASF62
     /tmp/cc76TpVP.s:2105   .debug_str:0000000000000156 .LASF63
     /tmp/cc76TpVP.s:2181   .debug_str:000000000000032f .LASF64
     /tmp/cc76TpVP.s:2163   .debug_str:000000000000029d .LASF65
     /tmp/cc76TpVP.s:2069   .debug_str:000000000000007c .LASF66
     /tmp/cc76TpVP.s:2213   .debug_str:00000000000004af .LASF91
     /tmp/cc76TpVP.s:2117   .debug_str:000000000000018f .LASF92
     /tmp/cc76TpVP.s:2089   .debug_str:00000000000000f6 .LASF67
     /tmp/cc76TpVP.s:2227   .debug_str:000000000000051f .LASF93
GAS LISTING /tmp/cc76TpVP.s 			page 12


     /tmp/cc76TpVP.s:2097   .debug_str:0000000000000128 .LASF68
     /tmp/cc76TpVP.s:2147   .debug_str:000000000000022c .LASF69
     /tmp/cc76TpVP.s:2085   .debug_str:00000000000000e0 .LASF70
     /tmp/cc76TpVP.s:220    .text:0000000000000134 .LFB3
     /tmp/cc76TpVP.s:306    .text:00000000000001b4 .LFE3
     /tmp/cc76TpVP.s:1944   .debug_loc:0000000000000000 .LLST3
     /tmp/cc76TpVP.s:2037   .debug_ranges:0000000000000000 .Ldebug_ranges0
     /tmp/cc76TpVP.s:2129   .debug_str:00000000000001c9 .LASF71
     /tmp/cc76TpVP.s:1962   .debug_loc:000000000000004c .LLST4
     /tmp/cc76TpVP.s:268    .text:0000000000000180 .LVL17
     /tmp/cc76TpVP.s:273    .text:000000000000018c .LVL18
     /tmp/cc76TpVP.s:278    .text:0000000000000198 .LVL19
     /tmp/cc76TpVP.s:113    .text:0000000000000090 .LFB2
     /tmp/cc76TpVP.s:214    .text:0000000000000134 .LFE2
     /tmp/cc76TpVP.s:1973   .debug_loc:0000000000000082 .LLST1
     /tmp/cc76TpVP.s:2073   .debug_str:0000000000000093 .LASF72
     /tmp/cc76TpVP.s:1995   .debug_loc:00000000000000e1 .LLST2
     /tmp/cc76TpVP.s:149    .text:00000000000000cc .LVL8
     /tmp/cc76TpVP.s:179    .text:000000000000010c .LVL10
     /tmp/cc76TpVP.s:183    .text:0000000000000114 .LVL11
     /tmp/cc76TpVP.s:50     .text:0000000000000030 .LFB1
     /tmp/cc76TpVP.s:107    .text:0000000000000090 .LFE1
     /tmp/cc76TpVP.s:2006   .debug_loc:0000000000000117 .LLST0
     /tmp/cc76TpVP.s:78     .text:0000000000000060 .LVL3
     /tmp/cc76TpVP.s:83     .text:000000000000006c .LVL4
     /tmp/cc76TpVP.s:10     .text:0000000000000000 .LFB0
     /tmp/cc76TpVP.s:44     .text:0000000000000030 .LFE0
     /tmp/cc76TpVP.s:2203   .debug_str:00000000000003b4 .LASF73
     /tmp/cc76TpVP.s:2237   .debug_str:0000000000000553 .LASF74
     /tmp/cc76TpVP.s:2167   .debug_str:00000000000002b0 .LASF75
     /tmp/cc76TpVP.s:2187   .debug_str:0000000000000351 .LASF77
     /tmp/cc76TpVP.s:2091   .debug_str:00000000000000fe .LASF76
     /tmp/cc76TpVP.s:2057   .debug_str:0000000000000011 .LASF78
     /tmp/cc76TpVP.s:223    .text:0000000000000134 .LVL14
     /tmp/cc76TpVP.s:266    .text:0000000000000178 .LVL16
     /tmp/cc76TpVP.s:294    .text:00000000000001ac .LVL21
     /tmp/cc76TpVP.s:253    .text:0000000000000164 .LVL15
     /tmp/cc76TpVP.s:290    .text:00000000000001a4 .LVL20
     /tmp/cc76TpVP.s:116    .text:0000000000000090 .LVL6
     /tmp/cc76TpVP.s:147    .text:00000000000000c4 .LVL7
     /tmp/cc76TpVP.s:195    .text:0000000000000120 .LVL12
     /tmp/cc76TpVP.s:199    .text:0000000000000128 .LVL13
     /tmp/cc76TpVP.s:177    .text:0000000000000104 .LVL9
     /tmp/cc76TpVP.s:53     .text:0000000000000030 .LVL1
     /tmp/cc76TpVP.s:65     .text:0000000000000048 .LVL2
     /tmp/cc76TpVP.s:102    .text:0000000000000088 .LVL5
     /tmp/cc76TpVP.s:315    .debug_info:0000000000000000 .Ldebug_info0
     /tmp/cc76TpVP.s:143    .text:00000000000000c0 .LBB3
     /tmp/cc76TpVP.s:184    .text:0000000000000114 .LBE3
     /tmp/cc76TpVP.s:203    .text:0000000000000128 .LBB4
     /tmp/cc76TpVP.s:211    .text:0000000000000134 .LBE4
     /tmp/cc76TpVP.s:249    .text:0000000000000160 .LBB8
     /tmp/cc76TpVP.s:279    .text:0000000000000198 .LBE8
     /tmp/cc76TpVP.s:298    .text:00000000000001ac .LBB9
     /tmp/cc76TpVP.s:303    .text:00000000000001b4 .LBE9

UNDEFINED SYMBOLS
GAS LISTING /tmp/cc76TpVP.s 			page 13


_ZN7_thread9setClosedEb
_Z8mem_freePv
_Z9mem_allocm
_ZN7_thread13currentThreadE
_ZN7_thread10setBlockedEb
_ZN7_thread8dispatchEv
_ZN9Scheduler3putEP7_thread
