GAS LISTING /tmp/cc76TpVP.s 			page 1


   1              		.file	"semaphore.cpp"
   2              		.option pic
   3              		.option norelax
   4              		.text
   5              	.Ltext0:
   6              		.align	2
   7              		.globl	_ZN4_sem4openEPPS_j
   9              	_ZN4_sem4openEPPS_j:
  10              	.LFB0:
  11              		.file 1 "src/semaphore.cpp"
   1:src/semaphore.cpp **** /**
   2:src/semaphore.cpp ****  * @file semaphore.cpp
   3:src/semaphore.cpp ****  * @author stcksmsh (vukicevickosta@gmail.com)
   4:src/semaphore.cpp ****  * @brief implementation of the _sem class
   5:src/semaphore.cpp ****  * @version 0.1
   6:src/semaphore.cpp ****  * @date 2024-01-02
   7:src/semaphore.cpp ****  * 
   8:src/semaphore.cpp ****  * @copyright Copyright (c) 2024
   9:src/semaphore.cpp ****  * 
  10:src/semaphore.cpp ****  */
  11:src/semaphore.cpp **** 
  12:src/semaphore.cpp **** #include "semaphore.h"
  13:src/semaphore.cpp **** #include "syscalls_c.h"
  14:src/semaphore.cpp **** #include "assert.h"
  15:src/semaphore.cpp **** #include "sched.h"
  16:src/semaphore.cpp **** 
  17:src/semaphore.cpp **** void _sem::open(_sem** handle, unsigned init){
  12              		.loc 1 17 46
  13              		.cfi_startproc
  14              	.LVL0:
  15 0000 130101FF 		addi	sp,sp,-16
  16              		.cfi_def_cfa_offset 16
  17 0004 23348100 		sd	s0,8(sp)
  18              		.cfi_offset 8, -8
  19 0008 13040101 		addi	s0,sp,16
  20              		.cfi_def_cfa 8, 0
  18:src/semaphore.cpp ****     (*handle)->blockHead = nullptr;
  21              		.loc 1 18 5
  22              		.loc 1 18 6 is_stmt 0
  23 000c 83370500 		ld	a5,0(a0)
  24              		.loc 1 18 26
  25 0010 23B00700 		sd	zero,0(a5)
  19:src/semaphore.cpp ****     (*handle)->blockTail = nullptr;
  26              		.loc 1 19 5 is_stmt 1
  27              		.loc 1 19 6 is_stmt 0
  28 0014 83370500 		ld	a5,0(a0)
  29              		.loc 1 19 26
  30 0018 23B40700 		sd	zero,8(a5)
  20:src/semaphore.cpp ****     (*handle)->value = init;
  31              		.loc 1 20 5 is_stmt 1
  32              		.loc 1 20 6 is_stmt 0
  33 001c 83370500 		ld	a5,0(a0)
  34              		.loc 1 20 22
  35 0020 23A8B700 		sw	a1,16(a5)
  21:src/semaphore.cpp **** }
  36              		.loc 1 21 1
  37 0024 03348100 		ld	s0,8(sp)
GAS LISTING /tmp/cc76TpVP.s 			page 2


  38              		.cfi_restore 8
  39              		.cfi_def_cfa 2, 16
  40 0028 13010101 		addi	sp,sp,16
  41              		.cfi_def_cfa_offset 0
  42 002c 67800000 		jr	ra
  43              		.cfi_endproc
  44              	.LFE0:
  46              		.align	2
  47              		.globl	_ZN4_sem5closeEPS_
  49              	_ZN4_sem5closeEPS_:
  50              	.LFB1:
  22:src/semaphore.cpp **** 
  23:src/semaphore.cpp **** void _sem::close(sem_t id){
  51              		.loc 1 23 27 is_stmt 1
  52              		.cfi_startproc
  53              	.LVL1:
  54 0030 130101FE 		addi	sp,sp,-32
  55              		.cfi_def_cfa_offset 32
  56 0034 233C1100 		sd	ra,24(sp)
  57 0038 23388100 		sd	s0,16(sp)
  58 003c 23349100 		sd	s1,8(sp)
  59              		.cfi_offset 1, -8
  60              		.cfi_offset 8, -16
  61              		.cfi_offset 9, -24
  62 0040 13040102 		addi	s0,sp,32
  63              		.cfi_def_cfa 8, 0
  64 0044 93040500 		mv	s1,a0
  65              	.LVL2:
  66              	.L5:
  24:src/semaphore.cpp ****     while(id->blockHead != nullptr){
  67              		.loc 1 24 5
  68              		.loc 1 24 25
  69              		.loc 1 24 15 is_stmt 0
  70 0048 83B70400 		ld	a5,0(s1)
  71              		.loc 1 24 25
  72 004c 63880702 		beqz	a5,.L3
  25:src/semaphore.cpp ****         id->blockHead->pThread->setClosed(true);
  73              		.loc 1 25 9 is_stmt 1
  74              		.loc 1 25 42 is_stmt 0
  75 0050 93051000 		li	a1,1
  76 0054 03B50700 		ld	a0,0(a5)
  77 0058 97000000 		call	_ZN7_thread9setClosedEb@plt
  77      E7800000 
  78              	.LVL3:
  26:src/semaphore.cpp ****         mem_free(id->blockHead);
  79              		.loc 1 26 9 is_stmt 1
  80              		.loc 1 26 17 is_stmt 0
  81 0060 03B50400 		ld	a0,0(s1)
  82 0064 97000000 		call	_Z8mem_freePv@plt
  82      E7800000 
  83              	.LVL4:
  27:src/semaphore.cpp ****         id->blockHead = id->blockHead->pNext;
  84              		.loc 1 27 9 is_stmt 1
  85              		.loc 1 27 29 is_stmt 0
  86 006c 83B70400 		ld	a5,0(s1)
  87              		.loc 1 27 40
  88 0070 83B78700 		ld	a5,8(a5)
GAS LISTING /tmp/cc76TpVP.s 			page 3


  89              		.loc 1 27 23
  90 0074 23B0F400 		sd	a5,0(s1)
  24:src/semaphore.cpp ****         id->blockHead->pThread->setClosed(true);
  91              		.loc 1 24 5
  92 0078 6FF01FFD 		j	.L5
  93              	.L3:
  28:src/semaphore.cpp ****     }
  29:src/semaphore.cpp **** }
  94              		.loc 1 29 1
  95 007c 83308101 		ld	ra,24(sp)
  96              		.cfi_restore 1
  97 0080 03340101 		ld	s0,16(sp)
  98              		.cfi_restore 8
  99              		.cfi_def_cfa 2, 32
 100 0084 83348100 		ld	s1,8(sp)
 101              		.cfi_restore 9
 102              	.LVL5:
 103 0088 13010102 		addi	sp,sp,32
 104              		.cfi_def_cfa_offset 0
 105 008c 67800000 		jr	ra
 106              		.cfi_endproc
 107              	.LFE1:
 109              		.align	2
 110              		.globl	_ZN4_sem4waitEPS_
 112              	_ZN4_sem4waitEPS_:
 113              	.LFB2:
  30:src/semaphore.cpp **** 
  31:src/semaphore.cpp **** void _sem::wait(sem_t id){
 114              		.loc 1 31 26 is_stmt 1
 115              		.cfi_startproc
 116              	.LVL6:
  32:src/semaphore.cpp ****     id->value--;
 117              		.loc 1 32 5
 118              		.loc 1 32 9 is_stmt 0
 119 0090 83270501 		lw	a5,16(a0)
 120              		.loc 1 32 14
 121 0094 9B87F7FF 		addiw	a5,a5,-1
 122 0098 2328F500 		sw	a5,16(a0)
  33:src/semaphore.cpp ****     if(id->value < 0){
 123              		.loc 1 33 5 is_stmt 1
 124              	.LBB2:
 125 009c 13970702 		slli	a4,a5,32
 126 00a0 63440700 		bltz	a4,.L15
 127 00a4 67800000 		ret
 128              	.L15:
 129              	.LBE2:
  31:src/semaphore.cpp ****     id->value--;
 130              		.loc 1 31 26 is_stmt 0
 131 00a8 130101FE 		addi	sp,sp,-32
 132              		.cfi_def_cfa_offset 32
 133 00ac 233C1100 		sd	ra,24(sp)
 134 00b0 23388100 		sd	s0,16(sp)
 135 00b4 23349100 		sd	s1,8(sp)
 136              		.cfi_offset 1, -8
 137              		.cfi_offset 8, -16
 138              		.cfi_offset 9, -24
 139 00b8 13040102 		addi	s0,sp,32
GAS LISTING /tmp/cc76TpVP.s 			page 4


 140              		.cfi_def_cfa 8, 0
 141 00bc 93040500 		mv	s1,a0
 142              	.LBB5:
 143              	.LBB3:
  34:src/semaphore.cpp ****         blockedThreadList* pNewBlock = (blockedThreadList*)mem_alloc(sizeof(blockedThreadList));
 144              		.loc 1 34 9 is_stmt 1
 145              		.loc 1 34 69 is_stmt 0
 146 00c0 13050001 		li	a0,16
 147              	.LVL7:
 148 00c4 97000000 		call	_Z9mem_allocm@plt
 148      E7800000 
 149              	.LVL8:
  35:src/semaphore.cpp ****         pNewBlock->pThread = _thread::currentThread;
 150              		.loc 1 35 9 is_stmt 1
 151              		.loc 1 35 28 is_stmt 0
 152 00cc 97070000 		la	a5,_ZN7_thread13currentThreadE
 152      83B70700 
 153 00d4 83B70700 		ld	a5,0(a5)
 154 00d8 2330F500 		sd	a5,0(a0)
  36:src/semaphore.cpp ****         pNewBlock->pNext = nullptr;
 155              		.loc 1 36 9 is_stmt 1
 156              		.loc 1 36 26 is_stmt 0
 157 00dc 23340500 		sd	zero,8(a0)
  37:src/semaphore.cpp ****         if(id->blockHead == nullptr){
 158              		.loc 1 37 9 is_stmt 1
 159              		.loc 1 37 16 is_stmt 0
 160 00e0 83B70400 		ld	a5,0(s1)
 161              		.loc 1 37 9
 162 00e4 63820704 		beqz	a5,.L16
  38:src/semaphore.cpp ****             id->blockHead = pNewBlock;
  39:src/semaphore.cpp ****             id->blockTail = pNewBlock;
  40:src/semaphore.cpp ****         }else{
  41:src/semaphore.cpp ****             id->blockTail->pNext = pNewBlock;
 163              		.loc 1 41 13 is_stmt 1
 164              		.loc 1 41 17 is_stmt 0
 165 00e8 83B78400 		ld	a5,8(s1)
 166              		.loc 1 41 34
 167 00ec 23B4A700 		sd	a0,8(a5)
  42:src/semaphore.cpp ****             id->blockTail = pNewBlock;
 168              		.loc 1 42 13 is_stmt 1
 169              		.loc 1 42 27 is_stmt 0
 170 00f0 23B4A400 		sd	a0,8(s1)
 171              	.L10:
  43:src/semaphore.cpp ****         }
  44:src/semaphore.cpp ****         _thread::currentThread->setBlocked(true);
 172              		.loc 1 44 9 is_stmt 1
 173              		.loc 1 44 43 is_stmt 0
 174 00f4 93051000 		li	a1,1
 175 00f8 97070000 		la	a5,_ZN7_thread13currentThreadE
 175      83B70700 
 176 0100 03B50700 		ld	a0,0(a5)
 177              	.LVL9:
 178 0104 97000000 		call	_ZN7_thread10setBlockedEb@plt
 178      E7800000 
 179              	.LVL10:
  45:src/semaphore.cpp ****         _thread::dispatch();
 180              		.loc 1 45 9 is_stmt 1
GAS LISTING /tmp/cc76TpVP.s 			page 5


 181              		.loc 1 45 26 is_stmt 0
 182 010c 97000000 		call	_ZN7_thread8dispatchEv@plt
 182      E7800000 
 183              	.LVL11:
 184              	.LBE3:
 185              	.LBE5:
  46:src/semaphore.cpp ****     }
  47:src/semaphore.cpp **** }
 186              		.loc 1 47 1
 187 0114 83308101 		ld	ra,24(sp)
 188              		.cfi_remember_state
 189              		.cfi_restore 1
 190 0118 03340101 		ld	s0,16(sp)
 191              		.cfi_restore 8
 192              		.cfi_def_cfa 2, 32
 193 011c 83348100 		ld	s1,8(sp)
 194              		.cfi_restore 9
 195              	.LVL12:
 196 0120 13010102 		addi	sp,sp,32
 197              		.cfi_def_cfa_offset 0
 198 0124 67800000 		jr	ra
 199              	.LVL13:
 200              	.L16:
 201              		.cfi_restore_state
 202              	.LBB6:
 203              	.LBB4:
  38:src/semaphore.cpp ****             id->blockTail = pNewBlock;
 204              		.loc 1 38 13 is_stmt 1
  38:src/semaphore.cpp ****             id->blockTail = pNewBlock;
 205              		.loc 1 38 27 is_stmt 0
 206 0128 23B0A400 		sd	a0,0(s1)
  39:src/semaphore.cpp ****         }else{
 207              		.loc 1 39 13 is_stmt 1
  39:src/semaphore.cpp ****         }else{
 208              		.loc 1 39 27 is_stmt 0
 209 012c 23B4A400 		sd	a0,8(s1)
 210 0130 6FF05FFC 		j	.L10
 211              	.LBE4:
 212              	.LBE6:
 213              		.cfi_endproc
 214              	.LFE2:
 216              		.align	2
 217              		.globl	_ZN4_sem6signalEPS_
 219              	_ZN4_sem6signalEPS_:
 220              	.LFB3:
  48:src/semaphore.cpp **** 
  49:src/semaphore.cpp **** void _sem::signal(sem_t id){
 221              		.loc 1 49 28 is_stmt 1
 222              		.cfi_startproc
 223              	.LVL14:
  50:src/semaphore.cpp ****     id->value++;
 224              		.loc 1 50 5
 225              		.loc 1 50 9 is_stmt 0
 226 0134 83270501 		lw	a5,16(a0)
 227              		.loc 1 50 14
 228 0138 9B871700 		addiw	a5,a5,1
 229 013c 1B870700 		sext.w	a4,a5
GAS LISTING /tmp/cc76TpVP.s 			page 6


 230 0140 2328F500 		sw	a5,16(a0)
  51:src/semaphore.cpp ****     if(id->value <= 0){
 231              		.loc 1 51 5 is_stmt 1
 232              	.LBB7:
 233 0144 6354E000 		blez	a4,.L24
 234 0148 67800000 		ret
 235              	.L24:
 236              	.LBE7:
  49:src/semaphore.cpp ****     id->value++;
 237              		.loc 1 49 28 is_stmt 0
 238 014c 130101FE 		addi	sp,sp,-32
 239              		.cfi_def_cfa_offset 32
 240 0150 233C1100 		sd	ra,24(sp)
 241 0154 23388100 		sd	s0,16(sp)
 242 0158 23349100 		sd	s1,8(sp)
 243              		.cfi_offset 1, -8
 244              		.cfi_offset 8, -16
 245              		.cfi_offset 9, -24
 246 015c 13040102 		addi	s0,sp,32
 247              		.cfi_def_cfa 8, 0
 248              	.LBB10:
 249              	.LBB8:
  52:src/semaphore.cpp ****         blockedThreadList* pUnblock = id->blockHead;
 250              		.loc 1 52 9 is_stmt 1
 251              		.loc 1 52 28 is_stmt 0
 252 0160 83340500 		ld	s1,0(a0)
 253              	.LVL15:
  53:src/semaphore.cpp ****         id->blockHead = id->blockHead->pNext;
 254              		.loc 1 53 9 is_stmt 1
 255              		.loc 1 53 40 is_stmt 0
 256 0164 83B78400 		ld	a5,8(s1)
 257              		.loc 1 53 23
 258 0168 2330F500 		sd	a5,0(a0)
  54:src/semaphore.cpp ****         if(id->blockHead == nullptr){
 259              		.loc 1 54 9 is_stmt 1
 260 016c 63800704 		beqz	a5,.L25
 261              	.L19:
  55:src/semaphore.cpp ****             id->blockTail = nullptr;
  56:src/semaphore.cpp ****         }
  57:src/semaphore.cpp ****         pUnblock->pThread->setBlocked(false);
 262              		.loc 1 57 9
 263              		.loc 1 57 38 is_stmt 0
 264 0170 93050000 		li	a1,0
 265 0174 03B50400 		ld	a0,0(s1)
 266              	.LVL16:
 267 0178 97000000 		call	_ZN7_thread10setBlockedEb@plt
 267      E7800000 
 268              	.LVL17:
  58:src/semaphore.cpp ****         Scheduler::put(pUnblock->pThread);
 269              		.loc 1 58 9 is_stmt 1
 270              		.loc 1 58 23 is_stmt 0
 271 0180 03B50400 		ld	a0,0(s1)
 272 0184 97000000 		call	_ZN9Scheduler3putEP7_thread@plt
 272      E7800000 
 273              	.LVL18:
  59:src/semaphore.cpp ****         mem_free(pUnblock);
 274              		.loc 1 59 9 is_stmt 1
GAS LISTING /tmp/cc76TpVP.s 			page 7


 275              		.loc 1 59 17 is_stmt 0
 276 018c 13850400 		mv	a0,s1
 277 0190 97000000 		call	_Z8mem_freePv@plt
 277      E7800000 
 278              	.LVL19:
 279              	.LBE8:
 280              	.LBE10:
  60:src/semaphore.cpp ****     }
  61:src/semaphore.cpp **** }...
 281              		.loc 1 61 1
 282 0198 83308101 		ld	ra,24(sp)
 283              		.cfi_remember_state
 284              		.cfi_restore 1
 285 019c 03340101 		ld	s0,16(sp)
 286              		.cfi_restore 8
 287              		.cfi_def_cfa 2, 32
 288 01a0 83348100 		ld	s1,8(sp)
 289              		.cfi_restore 9
 290              	.LVL20:
 291 01a4 13010102 		addi	sp,sp,32
 292              		.cfi_def_cfa_offset 0
 293 01a8 67800000 		jr	ra
 294              	.LVL21:
 295              	.L25:
 296              		.cfi_restore_state
 297              	.LBB11:
 298              	.LBB9:
  55:src/semaphore.cpp ****             id->blockTail = nullptr;
 299              		.loc 1 55 13 is_stmt 1
  55:src/semaphore.cpp ****             id->blockTail = nullptr;
 300              		.loc 1 55 27 is_stmt 0
 301 01ac 23340500 		sd	zero,8(a0)
 302 01b0 6FF01FFC 		j	.L19
 303              	.LBE9:
 304              	.LBE11:
 305              		.cfi_endproc
 306              	.LFE3:
 308              	.Letext0:
 309              		.file 2 "./lib/hw.h"
 310              		.file 3 "./h/thread.h"
 311              		.file 4 "./h/semaphore.h"
 312              		.file 5 "./h/sched.h"
 313              		.file 6 "./h/syscalls_c.h"
GAS LISTING /tmp/cc76TpVP.s 			page 8

