GAS LISTING /tmp/ccuPG569.s 			page 1


   1              		.file	"syscall_cpp.cpp"
   2              		.option nopic
   3              		.option norelax
   4              		.attribute arch, "rv64i2p0_m2p0_a2p0"
   5              		.attribute unaligned_access, 0
   6              		.attribute stack_align, 16
   7              		.text
   8              	.Ltext0:
   9              		.section	.text._ZN6Thread3runEv,"axG",@progbits,_ZN6Thread3runEv,comdat
  10              		.align	2
  11              		.weak	_ZN6Thread3runEv
  13              	_ZN6Thread3runEv:
  14              	.LFB0:
  15              		.file 1 "src/../h/syscall_cpp.hpp"
   1:src/../h/syscall_cpp.hpp **** //
   2:src/../h/syscall_cpp.hpp **** // Created by os on 8/13/22.
   3:src/../h/syscall_cpp.hpp **** //
   4:src/../h/syscall_cpp.hpp **** 
   5:src/../h/syscall_cpp.hpp **** #ifndef VASKOZABATA_SYSCALL_CPP_HPP
   6:src/../h/syscall_cpp.hpp **** #define VASKOZABATA_SYSCALL_CPP_HPP
   7:src/../h/syscall_cpp.hpp **** #include "syscall_c.h"
   8:src/../h/syscall_cpp.hpp **** void* operator new (size_t);
   9:src/../h/syscall_cpp.hpp **** void operator delete (void*)noexcept;
  10:src/../h/syscall_cpp.hpp **** class Thread {
  11:src/../h/syscall_cpp.hpp **** public:
  12:src/../h/syscall_cpp.hpp ****     Thread (void (*body)(void*), void* arg);
  13:src/../h/syscall_cpp.hpp ****     virtual ~Thread ();
  14:src/../h/syscall_cpp.hpp ****     int start ();
  15:src/../h/syscall_cpp.hpp ****     static void dispatch ();
  16:src/../h/syscall_cpp.hpp ****     //static int sleep (time_t);
  17:src/../h/syscall_cpp.hpp **** protected:
  18:src/../h/syscall_cpp.hpp ****     Thread ();
  19:src/../h/syscall_cpp.hpp ****     virtual void run () {}
  16              		.loc 1 19 18
  17              		.cfi_startproc
  18              	.LVL0:
  19 0000 130101FF 		addi	sp,sp,-16
  20              		.cfi_def_cfa_offset 16
  21 0004 23348100 		sd	s0,8(sp)
  22              		.cfi_offset 8, -8
  23 0008 13040101 		addi	s0,sp,16
  24              		.cfi_def_cfa 8, 0
  25              		.loc 1 19 26 is_stmt 0
  26 000c 03348100 		ld	s0,8(sp)
  27              		.cfi_restore 8
  28              		.cfi_def_cfa 2, 16
  29 0010 13010101 		addi	sp,sp,16
  30              		.cfi_def_cfa_offset 0
  31 0014 67800000 		jr	ra
  32              		.cfi_endproc
  33              	.LFE0:
  35              		.text
  36              		.align	2
  37              		.globl	_ZN6Thread10threadwrapEPv
  39              	_ZN6Thread10threadwrapEPv:
  40              	.LFB15:
  41              		.file 2 "src/syscall_cpp.cpp"
GAS LISTING /tmp/ccuPG569.s 			page 2


   1:src/syscall_cpp.cpp **** //
   2:src/syscall_cpp.cpp **** // Created by os on 8/13/22.
   3:src/syscall_cpp.cpp **** #include "../h/syscall_cpp.hpp"
   4:src/syscall_cpp.cpp **** #include "../h/syscall_c.h"
   5:src/syscall_cpp.cpp **** #include "../h/tcb.hpp"
   6:src/syscall_cpp.cpp **** Thread::Thread(void (*body)(void *), void *arg){
   7:src/syscall_cpp.cpp ****     thread_createCPP(&myHandle,body,arg);
   8:src/syscall_cpp.cpp **** }
   9:src/syscall_cpp.cpp **** 
  10:src/syscall_cpp.cpp **** Thread::~Thread() {
  11:src/syscall_cpp.cpp ****     delete myHandle;
  12:src/syscall_cpp.cpp **** }
  13:src/syscall_cpp.cpp **** 
  14:src/syscall_cpp.cpp **** void Thread::dispatch() {
  15:src/syscall_cpp.cpp **** 
  16:src/syscall_cpp.cpp ****     thread_dispatch();
  17:src/syscall_cpp.cpp **** }
  18:src/syscall_cpp.cpp **** 
  19:src/syscall_cpp.cpp **** int Thread::start() {
  20:src/syscall_cpp.cpp ****    Scheduler::put(myHandle);
  21:src/syscall_cpp.cpp ****    return 0;
  22:src/syscall_cpp.cpp **** }
  23:src/syscall_cpp.cpp **** 
  24:src/syscall_cpp.cpp **** void Thread::threadwrap(void *thr) {
  42              		.loc 2 24 36 is_stmt 1
  43              		.cfi_startproc
  44              	.LVL1:
  45 0000 130101FF 		addi	sp,sp,-16
  46              		.cfi_def_cfa_offset 16
  47 0004 23341100 		sd	ra,8(sp)
  48 0008 23308100 		sd	s0,0(sp)
  49              		.cfi_offset 1, -8
  50              		.cfi_offset 8, -16
  51 000c 13040101 		addi	s0,sp,16
  52              		.cfi_def_cfa 8, 0
  25:src/syscall_cpp.cpp ****     Thread* thrd=(Thread*)thr;
  53              		.loc 2 25 5
  54              	.LVL2:
  26:src/syscall_cpp.cpp ****     thrd->run();
  55              		.loc 2 26 5
  56              		.loc 2 26 15 is_stmt 0
  57 0010 83370500 		ld	a5,0(a0)
  58 0014 83B70701 		ld	a5,16(a5)
  59              		.loc 2 26 14
  60 0018 E7800700 		jalr	a5
  61              	.LVL3:
  27:src/syscall_cpp.cpp **** 
  28:src/syscall_cpp.cpp **** }
  62              		.loc 2 28 1
  63 001c 83308100 		ld	ra,8(sp)
  64              		.cfi_restore 1
  65 0020 03340100 		ld	s0,0(sp)
  66              		.cfi_restore 8
  67              		.cfi_def_cfa 2, 16
  68 0024 13010101 		addi	sp,sp,16
  69              		.cfi_def_cfa_offset 0
  70 0028 67800000 		jr	ra
GAS LISTING /tmp/ccuPG569.s 			page 3


  71              		.cfi_endproc
  72              	.LFE15:
  74              		.align	2
  75              		.globl	_ZN9SemaphoreD2Ev
  77              	_ZN9SemaphoreD2Ev:
  78              	.LFB25:
  29:src/syscall_cpp.cpp **** 
  30:src/syscall_cpp.cpp **** Thread::Thread() {
  31:src/syscall_cpp.cpp **** 
  32:src/syscall_cpp.cpp **** 
  33:src/syscall_cpp.cpp ****     thread_createCPP(&myHandle, threadwrap, this);
  34:src/syscall_cpp.cpp **** }
  35:src/syscall_cpp.cpp **** 
  36:src/syscall_cpp.cpp **** char Console::getc() {
  37:src/syscall_cpp.cpp ****     return __getc();
  38:src/syscall_cpp.cpp **** }
  39:src/syscall_cpp.cpp **** 
  40:src/syscall_cpp.cpp **** void Console::putc(char cr) {
  41:src/syscall_cpp.cpp **** 
  42:src/syscall_cpp.cpp ****     __putc(cr);
  43:src/syscall_cpp.cpp **** }
  44:src/syscall_cpp.cpp **** 
  45:src/syscall_cpp.cpp **** Semaphore::Semaphore(unsigned int init) {
  46:src/syscall_cpp.cpp ****     sem_open(&myHandle,init);
  47:src/syscall_cpp.cpp **** }
  48:src/syscall_cpp.cpp **** 
  49:src/syscall_cpp.cpp **** Semaphore::~Semaphore() {
  79              		.loc 2 49 1 is_stmt 1
  80              		.cfi_startproc
  81              		.cfi_personality 0x9b,DW.ref.__gxx_personality_v0
  82              		.cfi_lsda 0x1b,.LLSDA25
  83              	.LVL4:
  84 002c 130101FF 		addi	sp,sp,-16
  85              		.cfi_def_cfa_offset 16
  86 0030 23341100 		sd	ra,8(sp)
  87 0034 23308100 		sd	s0,0(sp)
  88              		.cfi_offset 1, -8
  89              		.cfi_offset 8, -16
  90 0038 13040101 		addi	s0,sp,16
  91              		.cfi_def_cfa 8, 0
  92              	.LBB2:
  93              		.loc 2 49 23 is_stmt 0
  94 003c 97070000 		lla	a5,_ZTV9Semaphore+16
  94      93870700 
  95 0044 2330F500 		sd	a5,0(a0)
  50:src/syscall_cpp.cpp **** 
  51:src/syscall_cpp.cpp ****     sem_close(myHandle);
  96              		.loc 2 51 5 is_stmt 1
  97              		.loc 2 51 14 is_stmt 0
  98 0048 03358500 		ld	a0,8(a0)
  99              	.LVL5:
 100 004c 97000000 		call	_Z9sem_closeP3Sem
 100      E7800000 
 101              	.LVL6:
 102              	.LBE2:
  52:src/syscall_cpp.cpp **** }
 103              		.loc 2 52 1
GAS LISTING /tmp/ccuPG569.s 			page 4


 104 0054 83308100 		ld	ra,8(sp)
 105              		.cfi_restore 1
 106 0058 03340100 		ld	s0,0(sp)
 107              		.cfi_restore 8
 108              		.cfi_def_cfa 2, 16
 109 005c 13010101 		addi	sp,sp,16
 110              		.cfi_def_cfa_offset 0
 111 0060 67800000 		jr	ra
 112              		.cfi_endproc
 113              	.LFE25:
 114              		.globl	__gxx_personality_v0
 115              		.section	.gcc_except_table,"aw",@progbits
 116              	.LLSDA25:
 117 0000 FF       		.byte	0xff
 118 0001 FF       		.byte	0xff
 119 0002 03       		.byte	0x3
 120 0003 00       		.byte	0
 121              		.text
 123              		.globl	_ZN9SemaphoreD1Ev
 124              		.set	_ZN9SemaphoreD1Ev,_ZN9SemaphoreD2Ev
 125              		.align	2
 126              		.globl	_ZN6ThreadC2EPFvPvES0_
 128              	_ZN6ThreadC2EPFvPvES0_:
 129              	.LFB7:
   6:src/syscall_cpp.cpp ****     thread_createCPP(&myHandle,body,arg);
 130              		.loc 2 6 1 is_stmt 1
 131              		.cfi_startproc
 132              	.LVL7:
 133 0064 130101FF 		addi	sp,sp,-16
 134              		.cfi_def_cfa_offset 16
 135 0068 23341100 		sd	ra,8(sp)
 136 006c 23308100 		sd	s0,0(sp)
 137              		.cfi_offset 1, -8
 138              		.cfi_offset 8, -16
 139 0070 13040101 		addi	s0,sp,16
 140              		.cfi_def_cfa 8, 0
 141              	.LBB3:
   6:src/syscall_cpp.cpp ****     thread_createCPP(&myHandle,body,arg);
 142              		.loc 2 6 47 is_stmt 0
 143 0074 97070000 		lla	a5,_ZTV6Thread+16
 143      93870700 
 144 007c 2330F500 		sd	a5,0(a0)
   7:src/syscall_cpp.cpp **** }
 145              		.loc 2 7 5 is_stmt 1
   7:src/syscall_cpp.cpp **** }
 146              		.loc 2 7 21 is_stmt 0
 147 0080 13058500 		addi	a0,a0,8
 148              	.LVL8:
 149 0084 97000000 		call	_Z16thread_createCPPPP3TCBPFvPvES2_
 149      E7800000 
 150              	.LVL9:
 151              	.LBE3:
   8:src/syscall_cpp.cpp **** 
 152              		.loc 2 8 1
 153 008c 83308100 		ld	ra,8(sp)
 154              		.cfi_restore 1
 155 0090 03340100 		ld	s0,0(sp)
GAS LISTING /tmp/ccuPG569.s 			page 5


 156              		.cfi_restore 8
 157              		.cfi_def_cfa 2, 16
 158 0094 13010101 		addi	sp,sp,16
 159              		.cfi_def_cfa_offset 0
 160 0098 67800000 		jr	ra
 161              		.cfi_endproc
 162              	.LFE7:
 164              		.globl	_ZN6ThreadC1EPFvPvES0_
 165              		.set	_ZN6ThreadC1EPFvPvES0_,_ZN6ThreadC2EPFvPvES0_
 166              		.align	2
 167              		.globl	_ZN6Thread8dispatchEv
 169              	_ZN6Thread8dispatchEv:
 170              	.LFB13:
  14:src/syscall_cpp.cpp **** 
 171              		.loc 2 14 25 is_stmt 1
 172              		.cfi_startproc
 173 009c 130101FF 		addi	sp,sp,-16
 174              		.cfi_def_cfa_offset 16
 175 00a0 23341100 		sd	ra,8(sp)
 176 00a4 23308100 		sd	s0,0(sp)
 177              		.cfi_offset 1, -8
 178              		.cfi_offset 8, -16
 179 00a8 13040101 		addi	s0,sp,16
 180              		.cfi_def_cfa 8, 0
  16:src/syscall_cpp.cpp **** }
 181              		.loc 2 16 5
  16:src/syscall_cpp.cpp **** }
 182              		.loc 2 16 20 is_stmt 0
 183 00ac 97000000 		call	_Z15thread_dispatchv
 183      E7800000 
 184              	.LVL10:
  17:src/syscall_cpp.cpp **** 
 185              		.loc 2 17 1
 186 00b4 83308100 		ld	ra,8(sp)
 187              		.cfi_restore 1
 188 00b8 03340100 		ld	s0,0(sp)
 189              		.cfi_restore 8
 190              		.cfi_def_cfa 2, 16
 191 00bc 13010101 		addi	sp,sp,16
 192              		.cfi_def_cfa_offset 0
 193 00c0 67800000 		jr	ra
 194              		.cfi_endproc
 195              	.LFE13:
 197              		.align	2
 198              		.globl	_ZN6Thread5startEv
 200              	_ZN6Thread5startEv:
 201              	.LFB14:
  19:src/syscall_cpp.cpp ****    Scheduler::put(myHandle);
 202              		.loc 2 19 21 is_stmt 1
 203              		.cfi_startproc
 204              	.LVL11:
 205 00c4 130101FF 		addi	sp,sp,-16
 206              		.cfi_def_cfa_offset 16
 207 00c8 23341100 		sd	ra,8(sp)
 208 00cc 23308100 		sd	s0,0(sp)
 209              		.cfi_offset 1, -8
 210              		.cfi_offset 8, -16
GAS LISTING /tmp/ccuPG569.s 			page 6


 211 00d0 13040101 		addi	s0,sp,16
 212              		.cfi_def_cfa 8, 0
  20:src/syscall_cpp.cpp ****    return 0;
 213              		.loc 2 20 4
  20:src/syscall_cpp.cpp ****    return 0;
 214              		.loc 2 20 18 is_stmt 0
 215 00d4 03358500 		ld	a0,8(a0)
 216              	.LVL12:
 217 00d8 97000000 		call	_ZN9Scheduler3putEP3TCB
 217      E7800000 
 218              	.LVL13:
  21:src/syscall_cpp.cpp **** }
 219              		.loc 2 21 4 is_stmt 1
  22:src/syscall_cpp.cpp **** 
 220              		.loc 2 22 1 is_stmt 0
 221 00e0 13050000 		li	a0,0
 222 00e4 83308100 		ld	ra,8(sp)
 223              		.cfi_restore 1
 224 00e8 03340100 		ld	s0,0(sp)
 225              		.cfi_restore 8
 226              		.cfi_def_cfa 2, 16
 227 00ec 13010101 		addi	sp,sp,16
 228              		.cfi_def_cfa_offset 0
 229 00f0 67800000 		jr	ra
 230              		.cfi_endproc
 231              	.LFE14:
 233              		.align	2
 234              		.globl	_ZN6ThreadC2Ev
 236              	_ZN6ThreadC2Ev:
 237              	.LFB17:
  30:src/syscall_cpp.cpp **** 
 238              		.loc 2 30 1 is_stmt 1
 239              		.cfi_startproc
 240              	.LVL14:
 241 00f4 130101FF 		addi	sp,sp,-16
 242              		.cfi_def_cfa_offset 16
 243 00f8 23341100 		sd	ra,8(sp)
 244 00fc 23308100 		sd	s0,0(sp)
 245              		.cfi_offset 1, -8
 246              		.cfi_offset 8, -16
 247 0100 13040101 		addi	s0,sp,16
 248              		.cfi_def_cfa 8, 0
 249              	.LBB4:
  30:src/syscall_cpp.cpp **** 
 250              		.loc 2 30 16 is_stmt 0
 251 0104 97070000 		lla	a5,_ZTV6Thread+16
 251      93870700 
 252 010c 2330F500 		sd	a5,0(a0)
  33:src/syscall_cpp.cpp **** }
 253              		.loc 2 33 5 is_stmt 1
  33:src/syscall_cpp.cpp **** }
 254              		.loc 2 33 21 is_stmt 0
 255 0110 13060500 		mv	a2,a0
 256 0114 97050000 		lla	a1,_ZN6Thread10threadwrapEPv
 256      93850500 
 257 011c 13058500 		addi	a0,a0,8
 258              	.LVL15:
GAS LISTING /tmp/ccuPG569.s 			page 7


 259 0120 97000000 		call	_Z16thread_createCPPPP3TCBPFvPvES2_
 259      E7800000 
 260              	.LVL16:
 261              	.LBE4:
  34:src/syscall_cpp.cpp **** 
 262              		.loc 2 34 1
 263 0128 83308100 		ld	ra,8(sp)
 264              		.cfi_restore 1
 265 012c 03340100 		ld	s0,0(sp)
 266              		.cfi_restore 8
 267              		.cfi_def_cfa 2, 16
 268 0130 13010101 		addi	sp,sp,16
 269              		.cfi_def_cfa_offset 0
 270 0134 67800000 		jr	ra
 271              		.cfi_endproc
 272              	.LFE17:
 274              		.globl	_ZN6ThreadC1Ev
 275              		.set	_ZN6ThreadC1Ev,_ZN6ThreadC2Ev
 276              		.align	2
 277              		.globl	_ZN7Console4getcEv
 279              	_ZN7Console4getcEv:
 280              	.LFB19:
  36:src/syscall_cpp.cpp ****     return __getc();
 281              		.loc 2 36 22 is_stmt 1
 282              		.cfi_startproc
 283 0138 130101FF 		addi	sp,sp,-16
 284              		.cfi_def_cfa_offset 16
 285 013c 23341100 		sd	ra,8(sp)
 286 0140 23308100 		sd	s0,0(sp)
 287              		.cfi_offset 1, -8
 288              		.cfi_offset 8, -16
 289 0144 13040101 		addi	s0,sp,16
 290              		.cfi_def_cfa 8, 0
  37:src/syscall_cpp.cpp **** }
 291              		.loc 2 37 5
  37:src/syscall_cpp.cpp **** }
 292              		.loc 2 37 18 is_stmt 0
 293 0148 97000000 		call	__getc
 293      E7800000 
 294              	.LVL17:
  38:src/syscall_cpp.cpp **** 
 295              		.loc 2 38 1
 296 0150 83308100 		ld	ra,8(sp)
 297              		.cfi_restore 1
 298 0154 03340100 		ld	s0,0(sp)
 299              		.cfi_restore 8
 300              		.cfi_def_cfa 2, 16
 301 0158 13010101 		addi	sp,sp,16
 302              		.cfi_def_cfa_offset 0
 303 015c 67800000 		jr	ra
 304              		.cfi_endproc
 305              	.LFE19:
 307              		.align	2
 308              		.globl	_ZN7Console4putcEc
 310              	_ZN7Console4putcEc:
 311              	.LFB20:
  40:src/syscall_cpp.cpp **** 
GAS LISTING /tmp/ccuPG569.s 			page 8


 312              		.loc 2 40 29 is_stmt 1
 313              		.cfi_startproc
 314              	.LVL18:
 315 0160 130101FF 		addi	sp,sp,-16
 316              		.cfi_def_cfa_offset 16
 317 0164 23341100 		sd	ra,8(sp)
 318 0168 23308100 		sd	s0,0(sp)
 319              		.cfi_offset 1, -8
 320              		.cfi_offset 8, -16
 321 016c 13040101 		addi	s0,sp,16
 322              		.cfi_def_cfa 8, 0
  42:src/syscall_cpp.cpp **** }
 323              		.loc 2 42 5
  42:src/syscall_cpp.cpp **** }
 324              		.loc 2 42 11 is_stmt 0
 325 0170 97000000 		call	__putc
 325      E7800000 
 326              	.LVL19:
  43:src/syscall_cpp.cpp **** 
 327              		.loc 2 43 1
 328 0178 83308100 		ld	ra,8(sp)
 329              		.cfi_restore 1
 330 017c 03340100 		ld	s0,0(sp)
 331              		.cfi_restore 8
 332              		.cfi_def_cfa 2, 16
 333 0180 13010101 		addi	sp,sp,16
 334              		.cfi_def_cfa_offset 0
 335 0184 67800000 		jr	ra
 336              		.cfi_endproc
 337              	.LFE20:
 339              		.align	2
 340              		.globl	_ZN9SemaphoreC2Ej
 342              	_ZN9SemaphoreC2Ej:
 343              	.LFB22:
  45:src/syscall_cpp.cpp ****     sem_open(&myHandle,init);
 344              		.loc 2 45 1 is_stmt 1
 345              		.cfi_startproc
 346              	.LVL20:
 347 0188 130101FF 		addi	sp,sp,-16
 348              		.cfi_def_cfa_offset 16
 349 018c 23341100 		sd	ra,8(sp)
 350 0190 23308100 		sd	s0,0(sp)
 351              		.cfi_offset 1, -8
 352              		.cfi_offset 8, -16
 353 0194 13040101 		addi	s0,sp,16
 354              		.cfi_def_cfa 8, 0
 355              	.LBB5:
  45:src/syscall_cpp.cpp ****     sem_open(&myHandle,init);
 356              		.loc 2 45 39 is_stmt 0
 357 0198 97070000 		lla	a5,_ZTV9Semaphore+16
 357      93870700 
 358 01a0 2330F500 		sd	a5,0(a0)
  46:src/syscall_cpp.cpp **** }
 359              		.loc 2 46 5 is_stmt 1
  46:src/syscall_cpp.cpp **** }
 360              		.loc 2 46 13 is_stmt 0
 361 01a4 13058500 		addi	a0,a0,8
GAS LISTING /tmp/ccuPG569.s 			page 9


 362              	.LVL21:
 363 01a8 97000000 		call	_Z8sem_openPP3Semj
 363      E7800000 
 364              	.LVL22:
 365              	.LBE5:
  47:src/syscall_cpp.cpp **** 
 366              		.loc 2 47 1
 367 01b0 83308100 		ld	ra,8(sp)
 368              		.cfi_restore 1
 369 01b4 03340100 		ld	s0,0(sp)
 370              		.cfi_restore 8
 371              		.cfi_def_cfa 2, 16
 372 01b8 13010101 		addi	sp,sp,16
 373              		.cfi_def_cfa_offset 0
 374 01bc 67800000 		jr	ra
 375              		.cfi_endproc
 376              	.LFE22:
 378              		.globl	_ZN9SemaphoreC1Ej
 379              		.set	_ZN9SemaphoreC1Ej,_ZN9SemaphoreC2Ej
 380              		.align	2
 381              		.globl	_ZN9Semaphore4waitEv
 383              	_ZN9Semaphore4waitEv:
 384              	.LFB28:
  53:src/syscall_cpp.cpp **** 
  54:src/syscall_cpp.cpp **** int Semaphore::wait() {
 385              		.loc 2 54 23 is_stmt 1
 386              		.cfi_startproc
 387              	.LVL23:
 388 01c0 130101FF 		addi	sp,sp,-16
 389              		.cfi_def_cfa_offset 16
 390 01c4 23341100 		sd	ra,8(sp)
 391 01c8 23308100 		sd	s0,0(sp)
 392              		.cfi_offset 1, -8
 393              		.cfi_offset 8, -16
 394 01cc 13040101 		addi	s0,sp,16
 395              		.cfi_def_cfa 8, 0
  55:src/syscall_cpp.cpp ****     return sem_wait(myHandle);
 396              		.loc 2 55 5
 397              		.loc 2 55 20 is_stmt 0
 398 01d0 03358500 		ld	a0,8(a0)
 399              	.LVL24:
 400 01d4 97000000 		call	_Z8sem_waitP3Sem
 400      E7800000 
 401              	.LVL25:
  56:src/syscall_cpp.cpp **** }
 402              		.loc 2 56 1
 403 01dc 83308100 		ld	ra,8(sp)
 404              		.cfi_restore 1
 405 01e0 03340100 		ld	s0,0(sp)
 406              		.cfi_restore 8
 407              		.cfi_def_cfa 2, 16
 408 01e4 13010101 		addi	sp,sp,16
 409              		.cfi_def_cfa_offset 0
 410 01e8 67800000 		jr	ra
 411              		.cfi_endproc
 412              	.LFE28:
 414              		.align	2
GAS LISTING /tmp/ccuPG569.s 			page 10


 415              		.globl	_ZN9Semaphore6signalEv
 417              	_ZN9Semaphore6signalEv:
 418              	.LFB29:
  57:src/syscall_cpp.cpp **** 
  58:src/syscall_cpp.cpp **** int Semaphore::signal() {
 419              		.loc 2 58 25 is_stmt 1
 420              		.cfi_startproc
 421              	.LVL26:
 422 01ec 130101FF 		addi	sp,sp,-16
 423              		.cfi_def_cfa_offset 16
 424 01f0 23341100 		sd	ra,8(sp)
 425 01f4 23308100 		sd	s0,0(sp)
 426              		.cfi_offset 1, -8
 427              		.cfi_offset 8, -16
 428 01f8 13040101 		addi	s0,sp,16
 429              		.cfi_def_cfa 8, 0
  59:src/syscall_cpp.cpp ****     return sem_signal(myHandle);
 430              		.loc 2 59 5
 431              		.loc 2 59 22 is_stmt 0
 432 01fc 03358500 		ld	a0,8(a0)
 433              	.LVL27:
 434 0200 97000000 		call	_Z10sem_signalP3Sem
 434      E7800000 
 435              	.LVL28:
  60:src/syscall_cpp.cpp **** }
 436              		.loc 2 60 1
 437 0208 83308100 		ld	ra,8(sp)
 438              		.cfi_restore 1
 439 020c 03340100 		ld	s0,0(sp)
 440              		.cfi_restore 8
 441              		.cfi_def_cfa 2, 16
 442 0210 13010101 		addi	sp,sp,16
 443              		.cfi_def_cfa_offset 0
 444 0214 67800000 		jr	ra
 445              		.cfi_endproc
 446              	.LFE29:
 448              		.align	2
 449              		.globl	_Znwm
 451              	_Znwm:
 452              	.LFB30:
  61:src/syscall_cpp.cpp **** //
  62:src/syscall_cpp.cpp **** 
  63:src/syscall_cpp.cpp **** void *operator new(size_t sz) {
 453              		.loc 2 63 31 is_stmt 1
 454              		.cfi_startproc
 455              	.LVL29:
 456 0218 130101FF 		addi	sp,sp,-16
 457              		.cfi_def_cfa_offset 16
 458 021c 23341100 		sd	ra,8(sp)
 459 0220 23308100 		sd	s0,0(sp)
 460              		.cfi_offset 1, -8
 461              		.cfi_offset 8, -16
 462 0224 13040101 		addi	s0,sp,16
 463              		.cfi_def_cfa 8, 0
  64:src/syscall_cpp.cpp ****     return mem_alloc(sz);
 464              		.loc 2 64 5
 465              		.loc 2 64 21 is_stmt 0
GAS LISTING /tmp/ccuPG569.s 			page 11


 466 0228 97000000 		call	_Z9mem_allocm
 466      E7800000 
 467              	.LVL30:
  65:src/syscall_cpp.cpp **** }
 468              		.loc 2 65 1
 469 0230 83308100 		ld	ra,8(sp)
 470              		.cfi_restore 1
 471 0234 03340100 		ld	s0,0(sp)
 472              		.cfi_restore 8
 473              		.cfi_def_cfa 2, 16
 474 0238 13010101 		addi	sp,sp,16
 475              		.cfi_def_cfa_offset 0
 476 023c 67800000 		jr	ra
 477              		.cfi_endproc
 478              	.LFE30:
 480              		.align	2
 481              		.globl	_ZdlPv
 483              	_ZdlPv:
 484              	.LFB31:
  66:src/syscall_cpp.cpp **** 
  67:src/syscall_cpp.cpp **** void operator delete(void * adr) noexcept{
 485              		.loc 2 67 42 is_stmt 1
 486              		.cfi_startproc
 487              		.cfi_personality 0x9b,DW.ref.__gxx_personality_v0
 488              		.cfi_lsda 0x1b,.LLSDA31
 489              	.LVL31:
 490 0240 130101FF 		addi	sp,sp,-16
 491              		.cfi_def_cfa_offset 16
 492 0244 23341100 		sd	ra,8(sp)
 493 0248 23308100 		sd	s0,0(sp)
 494              		.cfi_offset 1, -8
 495              		.cfi_offset 8, -16
 496 024c 13040101 		addi	s0,sp,16
 497              		.cfi_def_cfa 8, 0
  68:src/syscall_cpp.cpp **** 
  69:src/syscall_cpp.cpp ****     mem_free(adr);
 498              		.loc 2 69 5
 499              		.loc 2 69 13 is_stmt 0
 500 0250 97000000 		call	_Z8mem_freePv
 500      E7800000 
 501              	.LVL32:
  70:src/syscall_cpp.cpp **** }
 502              		.loc 2 70 1
 503 0258 83308100 		ld	ra,8(sp)
 504              		.cfi_restore 1
 505 025c 03340100 		ld	s0,0(sp)
 506              		.cfi_restore 8
 507              		.cfi_def_cfa 2, 16
 508 0260 13010101 		addi	sp,sp,16
 509              		.cfi_def_cfa_offset 0
 510 0264 67800000 		jr	ra
 511              		.cfi_endproc
 512              	.LFE31:
 513              		.section	.gcc_except_table
 514              	.LLSDA31:
 515 0004 FF       		.byte	0xff
 516 0005 FF       		.byte	0xff
GAS LISTING /tmp/ccuPG569.s 			page 12


 517 0006 03       		.byte	0x3
 518 0007 00       		.byte	0
 519              		.text
 521              		.align	2
 522              		.globl	_ZN6ThreadD2Ev
 524              	_ZN6ThreadD2Ev:
 525              	.LFB10:
  10:src/syscall_cpp.cpp ****     delete myHandle;
 526              		.loc 2 10 1 is_stmt 1
 527              		.cfi_startproc
 528              		.cfi_personality 0x9b,DW.ref.__gxx_personality_v0
 529              		.cfi_lsda 0x1b,.LLSDA10
 530              	.LVL33:
 531 0268 130101FE 		addi	sp,sp,-32
 532              		.cfi_def_cfa_offset 32
 533 026c 233C1100 		sd	ra,24(sp)
 534 0270 23388100 		sd	s0,16(sp)
 535 0274 23349100 		sd	s1,8(sp)
 536              		.cfi_offset 1, -8
 537              		.cfi_offset 8, -16
 538              		.cfi_offset 9, -24
 539 0278 13040102 		addi	s0,sp,32
 540              		.cfi_def_cfa 8, 0
 541              	.LBB10:
  10:src/syscall_cpp.cpp ****     delete myHandle;
 542              		.loc 2 10 17 is_stmt 0
 543 027c 97070000 		lla	a5,_ZTV6Thread+16
 543      93870700 
 544 0284 2330F500 		sd	a5,0(a0)
  11:src/syscall_cpp.cpp **** }
 545              		.loc 2 11 5 is_stmt 1
  11:src/syscall_cpp.cpp **** }
 546              		.loc 2 11 12 is_stmt 0
 547 0288 83348500 		ld	s1,8(a0)
  11:src/syscall_cpp.cpp **** }
 548              		.loc 2 11 5
 549 028c 63820402 		beq	s1,zero,.L29
 550              	.LVL34:
 551              	.LBB11:
 552              	.LBB12:
 553              		.file 3 "src/../h/tcb.hpp"
   1:src/../h/tcb.hpp **** //
   2:src/../h/tcb.hpp **** //
   3:src/../h/tcb.hpp **** 
   4:src/../h/tcb.hpp **** #ifndef OS1_VEZBE07_RISCV_CONTEXT_SWITCH_2_INTERRUPT_TCB_HPP
   5:src/../h/tcb.hpp **** #define OS1_VEZBE07_RISCV_CONTEXT_SWITCH_2_INTERRUPT_TCB_HPP
   6:src/../h/tcb.hpp **** 
   7:src/../h/tcb.hpp **** #include "../lib/hw.h"
   8:src/../h/tcb.hpp **** #include "scheduler.hpp"
   9:src/../h/tcb.hpp **** #include "MemAllocator.h"
  10:src/../h/tcb.hpp **** 
  11:src/../h/tcb.hpp **** // Thread Control Block
  12:src/../h/tcb.hpp **** class TCB
  13:src/../h/tcb.hpp **** {
  14:src/../h/tcb.hpp **** public:
  15:src/../h/tcb.hpp ****     ~TCB() {
  16:src/../h/tcb.hpp **** 
GAS LISTING /tmp/ccuPG569.s 			page 13


  17:src/../h/tcb.hpp ****         MemAlloc::getInstance().mem_free(stack);
 554              		.loc 3 17 9 is_stmt 1
 555              		.loc 3 17 31 is_stmt 0
 556 0290 97000000 		call	_ZN8MemAlloc11getInstanceEv
 556      E7800000 
 557              	.LVL35:
 558              		.loc 3 17 41
 559 0298 83B58401 		ld	a1,24(s1)
 560 029c 97000000 		call	_ZN8MemAlloc8mem_freeEPv
 560      E7800000 
 561              	.LVL36:
 562              	.LBE12:
 563              	.LBE11:
  11:src/syscall_cpp.cpp **** }
 564              		.loc 2 11 12
 565 02a4 13850400 		mv	a0,s1
 566 02a8 97000000 		call	_ZdlPv
 566      E7800000 
 567              	.LVL37:
 568              	.L29:
 569              	.LBE10:
  12:src/syscall_cpp.cpp **** 
 570              		.loc 2 12 1
 571 02b0 83308101 		ld	ra,24(sp)
 572              		.cfi_restore 1
 573 02b4 03340101 		ld	s0,16(sp)
 574              		.cfi_restore 8
 575              		.cfi_def_cfa 2, 32
 576 02b8 83348100 		ld	s1,8(sp)
 577              		.cfi_restore 9
 578 02bc 13010102 		addi	sp,sp,32
 579              		.cfi_def_cfa_offset 0
 580 02c0 67800000 		jr	ra
 581              		.cfi_endproc
 582              	.LFE10:
 583              		.section	.gcc_except_table
 584              	.LLSDA10:
 585 0008 FF       		.byte	0xff
 586 0009 FF       		.byte	0xff
 587 000a 03       		.byte	0x3
 588 000b 00       		.byte	0
 589              		.text
 591              		.globl	_ZN6ThreadD1Ev
 592              		.set	_ZN6ThreadD1Ev,_ZN6ThreadD2Ev
 593              		.align	2
 594              		.globl	_ZN6ThreadD0Ev
 596              	_ZN6ThreadD0Ev:
 597              	.LFB12:
  10:src/syscall_cpp.cpp ****     delete myHandle;
 598              		.loc 2 10 1 is_stmt 1
 599              		.cfi_startproc
 600              	.LVL38:
 601 02c4 130101FE 		addi	sp,sp,-32
 602              		.cfi_def_cfa_offset 32
 603 02c8 233C1100 		sd	ra,24(sp)
 604 02cc 23388100 		sd	s0,16(sp)
 605 02d0 23349100 		sd	s1,8(sp)
GAS LISTING /tmp/ccuPG569.s 			page 14


 606              		.cfi_offset 1, -8
 607              		.cfi_offset 8, -16
 608              		.cfi_offset 9, -24
 609 02d4 13040102 		addi	s0,sp,32
 610              		.cfi_def_cfa 8, 0
 611 02d8 93040500 		mv	s1,a0
  12:src/syscall_cpp.cpp **** 
 612              		.loc 2 12 1 is_stmt 0
 613 02dc 97000000 		call	_ZN6ThreadD1Ev
 613      E7800000 
 614              	.LVL39:
 615 02e4 13850400 		mv	a0,s1
 616 02e8 97000000 		call	_ZdlPv
 616      E7800000 
 617              	.LVL40:
 618 02f0 83308101 		ld	ra,24(sp)
 619              		.cfi_restore 1
 620 02f4 03340101 		ld	s0,16(sp)
 621              		.cfi_restore 8
 622              		.cfi_def_cfa 2, 32
 623 02f8 83348100 		ld	s1,8(sp)
 624              		.cfi_restore 9
 625              	.LVL41:
 626 02fc 13010102 		addi	sp,sp,32
 627              		.cfi_def_cfa_offset 0
 628 0300 67800000 		jr	ra
 629              		.cfi_endproc
 630              	.LFE12:
 632              		.align	2
 633              		.globl	_ZN9SemaphoreD0Ev
 635              	_ZN9SemaphoreD0Ev:
 636              	.LFB27:
  49:src/syscall_cpp.cpp **** 
 637              		.loc 2 49 1 is_stmt 1
 638              		.cfi_startproc
 639              	.LVL42:
 640 0304 130101FE 		addi	sp,sp,-32
 641              		.cfi_def_cfa_offset 32
 642 0308 233C1100 		sd	ra,24(sp)
 643 030c 23388100 		sd	s0,16(sp)
 644 0310 23349100 		sd	s1,8(sp)
 645              		.cfi_offset 1, -8
 646              		.cfi_offset 8, -16
 647              		.cfi_offset 9, -24
 648 0314 13040102 		addi	s0,sp,32
 649              		.cfi_def_cfa 8, 0
 650 0318 93040500 		mv	s1,a0
  52:src/syscall_cpp.cpp **** 
 651              		.loc 2 52 1 is_stmt 0
 652 031c 97000000 		call	_ZN9SemaphoreD1Ev
 652      E7800000 
 653              	.LVL43:
 654 0324 13850400 		mv	a0,s1
 655 0328 97000000 		call	_ZdlPv
 655      E7800000 
 656              	.LVL44:
 657 0330 83308101 		ld	ra,24(sp)
GAS LISTING /tmp/ccuPG569.s 			page 15


 658              		.cfi_restore 1
 659 0334 03340101 		ld	s0,16(sp)
 660              		.cfi_restore 8
 661              		.cfi_def_cfa 2, 32
 662 0338 83348100 		ld	s1,8(sp)
 663              		.cfi_restore 9
 664              	.LVL45:
 665 033c 13010102 		addi	sp,sp,32
 666              		.cfi_def_cfa_offset 0
 667 0340 67800000 		jr	ra
 668              		.cfi_endproc
 669              	.LFE27:
 671              		.weak	_ZTV6Thread
 672              		.section	.rodata._ZTV6Thread,"aG",@progbits,_ZTV6Thread,comdat
 673              		.align	3
 676              	_ZTV6Thread:
 677 0000 00000000 		.dword	0
 677      00000000 
 678 0008 00000000 		.dword	0
 678      00000000 
 679 0010 00000000 		.dword	_ZN6ThreadD1Ev
 679      00000000 
 680 0018 00000000 		.dword	_ZN6ThreadD0Ev
 680      00000000 
 681 0020 00000000 		.dword	_ZN6Thread3runEv
 681      00000000 
 682              		.weak	_ZTV9Semaphore
 683              		.section	.rodata._ZTV9Semaphore,"aG",@progbits,_ZTV9Semaphore,comdat
 684              		.align	3
 687              	_ZTV9Semaphore:
 688 0000 00000000 		.dword	0
 688      00000000 
 689 0008 00000000 		.dword	0
 689      00000000 
 690 0010 00000000 		.dword	_ZN9SemaphoreD1Ev
 690      00000000 
 691 0018 00000000 		.dword	_ZN9SemaphoreD0Ev
 691      00000000 
 692              		.text
 693              	.Letext0:
 694              		.file 4 "src/../h/../lib/hw.h"
 695              		.file 5 "src/../h/syscall_c.h"
 696              		.file 6 "src/../h/scheduler.hpp"
 697              		.file 7 "src/../h/MemAllocator.h"
 698              		.file 8 "src/../h/../lib/console.h"
 3795              		.align	3
 3798              	DW.ref.__gxx_personality_v0:
 3799 0000 00000000 		.dword	__gxx_personality_v0
 3799      00000000 
 3800              		.ident	"GCC: () 10.2.0"
GAS LISTING /tmp/ccuPG569.s 			page 16

