GAS LISTING /tmp/cc5ObEm4.s 			page 1


   1              		.file	"syscalls_c.cpp"
   2              		.option pic
   3              		.option norelax
   4              		.text
   5              	.Ltext0:
   6              		.align	2
   7              		.globl	_Z9mem_allocm
   9              	_Z9mem_allocm:
  10              	.LFB0:
  11              		.file 1 "src/syscalls_c.cpp"
   1:src/syscalls_c.cpp **** /**
   2:src/syscalls_c.cpp ****  * @file syscalls_c.cpp
   3:src/syscalls_c.cpp ****  * @author stcksmsh (vukicevickosta@gmail.com)
   4:src/syscalls_c.cpp ****  * @brief function declarations for the syscalls
   5:src/syscalls_c.cpp ****  * @version 0.1
   6:src/syscalls_c.cpp ****  * @date 2024-01-01
   7:src/syscalls_c.cpp ****  * 
   8:src/syscalls_c.cpp ****  * @copyright Copyright (c) 2024
   9:src/syscalls_c.cpp ****  * 
  10:src/syscalls_c.cpp ****  */
  11:src/syscalls_c.cpp **** 
  12:src/syscalls_c.cpp **** #include "syscalls_c.h"
  13:src/syscalls_c.cpp **** 
  14:src/syscalls_c.cpp **** void* mem_alloc ( size_t nSize ){
  12              		.loc 1 14 33
  13              		.cfi_startproc
  14              	.LVL0:
  15 0000 130101FF 		addi	sp,sp,-16
  16              		.cfi_def_cfa_offset 16
  17 0004 23348100 		sd	s0,8(sp)
  18              		.cfi_offset 8, -8
  19 0008 13040101 		addi	s0,sp,16
  20              		.cfi_def_cfa 8, 0
  15:src/syscalls_c.cpp ****     /// round nSize to the next multiple of MEM_BLOCK_SIZE and then divide by MEM_BLOCK_SIZE
  16:src/syscalls_c.cpp ****     nSize = (nSize + MEM_BLOCK_SIZE - 1) / MEM_BLOCK_SIZE;
  21              		.loc 1 16 5
  22              		.loc 1 16 37 is_stmt 0
  23 000c 1305F503 		addi	a0,a0,63
  24              	.LVL1:
  25              		.loc 1 16 11
  26 0010 13556500 		srli	a0,a0,6
  27              	.LVL2:
  17:src/syscalls_c.cpp ****     __asm__ volatile ("mv a1, %0" :: "r"(nSize));
  28              		.loc 1 17 5 is_stmt 1
  29              		.loc 1 17 49 is_stmt 0
  30              	#APP
  31              	# 17 "src/syscalls_c.cpp" 1
  18              	    __asm__ volatile ("li a0, 0x1");
  32              		mv a1, a0
  33              	# 0 "" 2
  34              		.loc 1 18 5 is_stmt 1
  35              		.loc 1 18 36 is_stmt 0
  36              	# 18 "src/syscalls_c.cpp" 1
  19              	    __asm__ volatile ("ecall");
  37              		li a0, 0x1
  38              	# 0 "" 2
  39              		.loc 1 19 5 is_stmt 1
GAS LISTING /tmp/cc5ObEm4.s 			page 2


  40              		.loc 1 19 31 is_stmt 0
  41              	# 19 "src/syscalls_c.cpp" 1
  20              	    uint64 pAddress;
  42              		ecall
  43              	# 0 "" 2
  44              		.loc 1 20 5 is_stmt 1
  21:src/syscalls_c.cpp ****     __asm__ volatile ("mv %0, a0" : "=r"(pAddress));
  45              		.loc 1 21 5
  46              		.loc 1 21 52 is_stmt 0
  47              	# 21 "src/syscalls_c.cpp" 1
  22              	    return (void*)pAddress;
  48              		mv a0, a0
  49              	# 0 "" 2
  50              	.LVL3:
  51              		.loc 1 22 5 is_stmt 1
  23:src/syscalls_c.cpp **** }
  52              		.loc 1 23 1 is_stmt 0
  53              	#NO_APP
  54 0024 03348100 		ld	s0,8(sp)
  55              		.cfi_restore 8
  56              		.cfi_def_cfa 2, 16
  57 0028 13010101 		addi	sp,sp,16
  58              		.cfi_def_cfa_offset 0
  59 002c 67800000 		jr	ra
  60              		.cfi_endproc
  61              	.LFE0:
  63              		.align	2
  64              		.globl	_Z8mem_freePv
  66              	_Z8mem_freePv:
  67              	.LFB1:
  24:src/syscalls_c.cpp **** 
  25:src/syscalls_c.cpp **** int mem_free ( void* pAddress ){
  68              		.loc 1 25 32 is_stmt 1
  69              		.cfi_startproc
  70              	.LVL4:
  71 0030 130101FF 		addi	sp,sp,-16
  72              		.cfi_def_cfa_offset 16
  73 0034 23348100 		sd	s0,8(sp)
  74              		.cfi_offset 8, -8
  75 0038 13040101 		addi	s0,sp,16
  76              		.cfi_def_cfa 8, 0
  26:src/syscalls_c.cpp ****     __asm__ volatile ("mv a1, %0" :: "r"(pAddress));
  77              		.loc 1 26 5
  78              		.loc 1 26 52 is_stmt 0
  79              	#APP
  80              	# 26 "src/syscalls_c.cpp" 1
  27              	    __asm__ volatile ("li a0, 0x2");
  81              		mv a1, a0
  82              	# 0 "" 2
  83              		.loc 1 27 5 is_stmt 1
  84              		.loc 1 27 36 is_stmt 0
  85              	# 27 "src/syscalls_c.cpp" 1
  28              	    __asm__ volatile ("ecall");
  86              		li a0, 0x2
  87              	# 0 "" 2
  88              		.loc 1 28 5 is_stmt 1
  89              		.loc 1 28 31 is_stmt 0
GAS LISTING /tmp/cc5ObEm4.s 			page 3


  90              	# 28 "src/syscalls_c.cpp" 1
  29              	    int nResult;
  91              		ecall
  92              	# 0 "" 2
  93              		.loc 1 29 5 is_stmt 1
  30:src/syscalls_c.cpp ****     __asm__ volatile ("mv %0, a0" : "=r"(nResult));
  94              		.loc 1 30 5
  95              		.loc 1 30 51 is_stmt 0
  96              	# 30 "src/syscalls_c.cpp" 1
  31              	    return nResult;
  97              		mv a0, a0
  98              	# 0 "" 2
  99              	.LVL5:
 100              		.loc 1 31 5 is_stmt 1
  32:src/syscalls_c.cpp **** 
  33:src/syscalls_c.cpp **** }
 101              		.loc 1 33 1 is_stmt 0
 102              	#NO_APP
 103 004c 1B050500 		sext.w	a0,a0
 104 0050 03348100 		ld	s0,8(sp)
 105              		.cfi_restore 8
 106              		.cfi_def_cfa 2, 16
 107 0054 13010101 		addi	sp,sp,16
 108              		.cfi_def_cfa_offset 0
 109 0058 67800000 		jr	ra
 110              		.cfi_endproc
 111              	.LFE1:
 113              		.align	2
 114              		.globl	_Z13thread_createPP7_threadPFvPvES2_
 116              	_Z13thread_createPP7_threadPFvPvES2_:
 117              	.LFB2:
  34:src/syscalls_c.cpp **** 
  35:src/syscalls_c.cpp **** 
  36:src/syscalls_c.cpp **** int thread_create ( thread_t* handle, void(*function)(void*), void* arg ) {
 118              		.loc 1 36 75 is_stmt 1
 119              		.cfi_startproc
 120              	.LVL6:
 121 005c 130101FF 		addi	sp,sp,-16
 122              		.cfi_def_cfa_offset 16
 123 0060 23348100 		sd	s0,8(sp)
 124              		.cfi_offset 8, -8
 125 0064 13040101 		addi	s0,sp,16
 126              		.cfi_def_cfa 8, 0
  37:src/syscalls_c.cpp ****     // void* stack_space = (void*)((uint64)HeapManager::getInstance().heapAllocate(DEFAULT_STACK_SI
  38:src/syscalls_c.cpp ****     // __asm__ volatile ("mv a4, %0" : : "r"((uint64)stack_space));
  39:src/syscalls_c.cpp ****     __asm__ volatile("mv a3,%0" : : "r" ((uint64)arg));
 127              		.loc 1 39 5
 128              		.loc 1 39 55 is_stmt 0
 129              	#APP
 130              	# 39 "src/syscalls_c.cpp" 1
  40              	    __asm__ volatile("mv a2,%0" : : "r" ((uint64)function));
 131              		mv a3,a2
 132              	# 0 "" 2
 133              		.loc 1 40 5 is_stmt 1
 134              		.loc 1 40 60 is_stmt 0
 135              	# 40 "src/syscalls_c.cpp" 1
  41              	    __asm__ volatile("mv a1,%0" : : "r" ((uint64)handle));
GAS LISTING /tmp/cc5ObEm4.s 			page 4


 136              		mv a2,a1
 137              	# 0 "" 2
 138              		.loc 1 41 5 is_stmt 1
 139              		.loc 1 41 58 is_stmt 0
 140              	# 41 "src/syscalls_c.cpp" 1
  42              	    __asm__ volatile("li a0,0x11");
 141              		mv a1,a0
 142              	# 0 "" 2
 143              		.loc 1 42 5 is_stmt 1
 144              		.loc 1 42 35 is_stmt 0
 145              	# 42 "src/syscalls_c.cpp" 1
  43              	    __asm__ volatile("ecall");
 146              		li a0,0x11
 147              	# 0 "" 2
 148              		.loc 1 43 5 is_stmt 1
 149              		.loc 1 43 30 is_stmt 0
 150              	# 43 "src/syscalls_c.cpp" 1
  44              	    uint64 returnValue;
 151              		ecall
 152              	# 0 "" 2
 153              		.loc 1 44 5 is_stmt 1
  45:src/syscalls_c.cpp ****     __asm__ volatile("mv %0, a0" : "=r" (returnValue));
 154              		.loc 1 45 5
 155              		.loc 1 45 55 is_stmt 0
 156              	# 45 "src/syscalls_c.cpp" 1
  46              	    return (int)returnValue;
 157              		mv a0, a0
 158              	# 0 "" 2
 159              	.LVL7:
 160              		.loc 1 46 5 is_stmt 1
  47:src/syscalls_c.cpp **** }
 161              		.loc 1 47 1 is_stmt 0
 162              	#NO_APP
 163 0080 1B050500 		sext.w	a0,a0
 164              	.LVL8:
 165 0084 03348100 		ld	s0,8(sp)
 166              		.cfi_restore 8
 167              		.cfi_def_cfa 2, 16
 168 0088 13010101 		addi	sp,sp,16
 169              		.cfi_def_cfa_offset 0
 170 008c 67800000 		jr	ra
 171              		.cfi_endproc
 172              	.LFE2:
 174              		.align	2
 175              		.globl	_Z11thread_exitv
 177              	_Z11thread_exitv:
 178              	.LFB3:
  48:src/syscalls_c.cpp **** 
  49:src/syscalls_c.cpp **** // int thread_createCPP ( thread_t*, void(*)(void*), void* );
  50:src/syscalls_c.cpp **** 
  51:src/syscalls_c.cpp **** int thread_exit (){
 179              		.loc 1 51 19 is_stmt 1
 180              		.cfi_startproc
 181 0090 130101FF 		addi	sp,sp,-16
 182              		.cfi_def_cfa_offset 16
 183 0094 23348100 		sd	s0,8(sp)
 184              		.cfi_offset 8, -8
GAS LISTING /tmp/cc5ObEm4.s 			page 5


 185 0098 13040101 		addi	s0,sp,16
 186              		.cfi_def_cfa 8, 0
  52:src/syscalls_c.cpp ****     __asm__ volatile("li a0,0x12");
 187              		.loc 1 52 5
 188              		.loc 1 52 35 is_stmt 0
 189              	#APP
 190              	# 52 "src/syscalls_c.cpp" 1
  53              	    __asm__ volatile("ecall");
 191              		li a0,0x12
 192              	# 0 "" 2
 193              		.loc 1 53 5 is_stmt 1
 194              		.loc 1 53 30 is_stmt 0
 195              	# 53 "src/syscalls_c.cpp" 1
  54              	    return 0;
 196              		ecall
 197              	# 0 "" 2
 198              		.loc 1 54 5 is_stmt 1
  55:src/syscalls_c.cpp **** }
 199              		.loc 1 55 1 is_stmt 0
 200              	#NO_APP
 201 00a4 13050000 		li	a0,0
 202 00a8 03348100 		ld	s0,8(sp)
 203              		.cfi_restore 8
 204              		.cfi_def_cfa 2, 16
 205 00ac 13010101 		addi	sp,sp,16
 206              		.cfi_def_cfa_offset 0
 207 00b0 67800000 		jr	ra
 208              		.cfi_endproc
 209              	.LFE3:
 211              		.align	2
 212              		.globl	_Z15thread_dispatchv
 214              	_Z15thread_dispatchv:
 215              	.LFB4:
  56:src/syscalls_c.cpp **** 
  57:src/syscalls_c.cpp **** void thread_dispatch () {
 216              		.loc 1 57 25 is_stmt 1
 217              		.cfi_startproc
 218 00b4 130101FF 		addi	sp,sp,-16
 219              		.cfi_def_cfa_offset 16
 220 00b8 23348100 		sd	s0,8(sp)
 221              		.cfi_offset 8, -8
 222 00bc 13040101 		addi	s0,sp,16
 223              		.cfi_def_cfa 8, 0
  58:src/syscalls_c.cpp ****     __asm__ volatile("li a0,0x13");
 224              		.loc 1 58 5
 225              		.loc 1 58 35 is_stmt 0
 226              	#APP
 227              	# 58 "src/syscalls_c.cpp" 1
  59              	    __asm__ volatile("ecall");
 228              		li a0,0x13
 229              	# 0 "" 2
 230              		.loc 1 59 5 is_stmt 1
 231              		.loc 1 59 30 is_stmt 0
 232              	# 59 "src/syscalls_c.cpp" 1
  60              	}
 233              		ecall
 234              	# 0 "" 2
GAS LISTING /tmp/cc5ObEm4.s 			page 6


 235              		.loc 1 60 1
 236              	#NO_APP
 237 00c8 03348100 		ld	s0,8(sp)
 238              		.cfi_restore 8
 239              		.cfi_def_cfa 2, 16
 240 00cc 13010101 		addi	sp,sp,16
 241              		.cfi_def_cfa_offset 0
 242 00d0 67800000 		jr	ra
 243              		.cfi_endproc
 244              	.LFE4:
 246              		.align	2
 247              		.globl	_Z11thread_joinP7_thread
 249              	_Z11thread_joinP7_thread:
 250              	.LFB5:
  61:src/syscalls_c.cpp **** 
  62:src/syscalls_c.cpp **** void thread_join ( thread_t handle ) {
 251              		.loc 1 62 38 is_stmt 1
 252              		.cfi_startproc
 253              	.LVL9:
 254 00d4 130101FF 		addi	sp,sp,-16
 255              		.cfi_def_cfa_offset 16
 256 00d8 23348100 		sd	s0,8(sp)
 257              		.cfi_offset 8, -8
 258 00dc 13040101 		addi	s0,sp,16
 259              		.cfi_def_cfa 8, 0
  63:src/syscalls_c.cpp ****     __asm__ volatile("mv a1, %0" : : "r"((uint64)handle));
 260              		.loc 1 63 5
 261              		.loc 1 63 58 is_stmt 0
 262              	#APP
 263              	# 63 "src/syscalls_c.cpp" 1
  64              	    __asm__ volatile("li a0, 0x14");
 264              		mv a1, a0
 265              	# 0 "" 2
 266              		.loc 1 64 5 is_stmt 1
 267              		.loc 1 64 36 is_stmt 0
 268              	# 64 "src/syscalls_c.cpp" 1
  65              	    __asm__ volatile("ecall");
 269              		li a0, 0x14
 270              	# 0 "" 2
 271              		.loc 1 65 5 is_stmt 1
 272              		.loc 1 65 30 is_stmt 0
 273              	# 65 "src/syscalls_c.cpp" 1
  66              	}
 274              		ecall
 275              	# 0 "" 2
 276              		.loc 1 66 1
 277              	#NO_APP
 278 00ec 03348100 		ld	s0,8(sp)
 279              		.cfi_restore 8
 280              		.cfi_def_cfa 2, 16
 281 00f0 13010101 		addi	sp,sp,16
 282              		.cfi_def_cfa_offset 0
 283 00f4 67800000 		jr	ra
 284              		.cfi_endproc
 285              	.LFE5:
 287              		.align	2
 288              		.globl	_Z10time_sleepm
GAS LISTING /tmp/cc5ObEm4.s 			page 7


 290              	_Z10time_sleepm:
 291              	.LFB6:
  67:src/syscalls_c.cpp **** 
  68:src/syscalls_c.cpp **** int time_sleep( time_t duration ) {
 292              		.loc 1 68 35 is_stmt 1
 293              		.cfi_startproc
 294              	.LVL10:
 295 00f8 130101FF 		addi	sp,sp,-16
 296              		.cfi_def_cfa_offset 16
 297 00fc 23348100 		sd	s0,8(sp)
 298              		.cfi_offset 8, -8
 299 0100 13040101 		addi	s0,sp,16
 300              		.cfi_def_cfa 8, 0
  69:src/syscalls_c.cpp ****     __asm__ volatile("mv a1, %0" : : "r"(duration));
 301              		.loc 1 69 5
 302              		.loc 1 69 52 is_stmt 0
 303              	#APP
 304              	# 69 "src/syscalls_c.cpp" 1
  70              	    __asm__ volatile("li a0, 0x31");
 305              		mv a1, a0
 306              	# 0 "" 2
 307              		.loc 1 70 5 is_stmt 1
 308              		.loc 1 70 36 is_stmt 0
 309              	# 70 "src/syscalls_c.cpp" 1
  71              	    __asm__ volatile("ecall");
 310              		li a0, 0x31
 311              	# 0 "" 2
 312              		.loc 1 71 5 is_stmt 1
 313              		.loc 1 71 30 is_stmt 0
 314              	# 71 "src/syscalls_c.cpp" 1
  72              	    uint64 returnValue;
 315              		ecall
 316              	# 0 "" 2
 317              		.loc 1 72 5 is_stmt 1
  73:src/syscalls_c.cpp ****     __asm__ volatile("mv %0, a0" : "=r"(returnValue));
 318              		.loc 1 73 5
 319              		.loc 1 73 54 is_stmt 0
 320              	# 73 "src/syscalls_c.cpp" 1
  74              	    return (int)returnValue;
 321              		mv a0, a0
 322              	# 0 "" 2
 323              	.LVL11:
 324              		.loc 1 74 5 is_stmt 1
  75:src/syscalls_c.cpp **** }
 325              		.loc 1 75 1 is_stmt 0
 326              	#NO_APP
 327 0114 1B050500 		sext.w	a0,a0
 328              	.LVL12:
 329 0118 03348100 		ld	s0,8(sp)
 330              		.cfi_restore 8
 331              		.cfi_def_cfa 2, 16
 332 011c 13010101 		addi	sp,sp,16
 333              		.cfi_def_cfa_offset 0
 334 0120 67800000 		jr	ra
 335              		.cfi_endproc
 336              	.LFE6:
 338              		.align	2
GAS LISTING /tmp/cc5ObEm4.s 			page 8


 339              		.globl	_Z8sem_openPP4_semj
 341              	_Z8sem_openPP4_semj:
 342              	.LFB7:
  76:src/syscalls_c.cpp **** 
  77:src/syscalls_c.cpp **** int sem_open ( sem_t* handle, unsigned init ) {
 343              		.loc 1 77 47 is_stmt 1
 344              		.cfi_startproc
 345              	.LVL13:
 346 0124 130101FF 		addi	sp,sp,-16
 347              		.cfi_def_cfa_offset 16
 348 0128 23348100 		sd	s0,8(sp)
 349              		.cfi_offset 8, -8
 350 012c 13040101 		addi	s0,sp,16
 351              		.cfi_def_cfa 8, 0
  78:src/syscalls_c.cpp ****     __asm__ volatile("mv a2, %0"::"r"((uint64)init));
 352              		.loc 1 78 5
 353              		.loc 1 78 39 is_stmt 0
 354 0130 93950502 		slli	a1,a1,32
 355              	.LVL14:
 356 0134 93D50502 		srli	a1,a1,32
 357              		.loc 1 78 53
 358              	#APP
 359              	# 78 "src/syscalls_c.cpp" 1
  79              	
  80:src/syscalls_c.cpp ****     __asm__ volatile("mv a1,%0":: "r"((uint64)handle));
 360              		mv a2, a1
 361              	# 0 "" 2
 362              		.loc 1 80 5 is_stmt 1
 363              		.loc 1 80 55 is_stmt 0
 364              	# 80 "src/syscalls_c.cpp" 1
  81              	    __asm__ volatile("li a0,0x21");
 365              		mv a1,a0
 366              	# 0 "" 2
 367              		.loc 1 81 5 is_stmt 1
 368              		.loc 1 81 35 is_stmt 0
 369              	# 81 "src/syscalls_c.cpp" 1
  82              	    __asm__ volatile("ecall");
 370              		li a0,0x21
 371              	# 0 "" 2
 372              		.loc 1 82 5 is_stmt 1
 373              		.loc 1 82 30 is_stmt 0
 374              	# 82 "src/syscalls_c.cpp" 1
  83              	    uint64 returnValue;
 375              		ecall
 376              	# 0 "" 2
 377              		.loc 1 83 5 is_stmt 1
  84:src/syscalls_c.cpp ****     __asm__ volatile("mv %0, a0" : "=r" (returnValue));
 378              		.loc 1 84 5
 379              		.loc 1 84 55 is_stmt 0
 380              	# 84 "src/syscalls_c.cpp" 1
  85              	    return (int)returnValue;
 381              		mv a0, a0
 382              	# 0 "" 2
 383              	.LVL15:
 384              		.loc 1 85 5 is_stmt 1
  86:src/syscalls_c.cpp **** }
 385              		.loc 1 86 1 is_stmt 0
GAS LISTING /tmp/cc5ObEm4.s 			page 9


 386              	#NO_APP
 387 014c 1B050500 		sext.w	a0,a0
 388              	.LVL16:
 389 0150 03348100 		ld	s0,8(sp)
 390              		.cfi_restore 8
 391              		.cfi_def_cfa 2, 16
 392 0154 13010101 		addi	sp,sp,16
 393              		.cfi_def_cfa_offset 0
 394 0158 67800000 		jr	ra
 395              		.cfi_endproc
 396              	.LFE7:
 398              		.align	2
 399              		.globl	_Z9sem_closeP4_sem
 401              	_Z9sem_closeP4_sem:
 402              	.LFB8:
  87:src/syscalls_c.cpp **** 
  88:src/syscalls_c.cpp **** int sem_close ( sem_t handle ) {
 403              		.loc 1 88 32 is_stmt 1
 404              		.cfi_startproc
 405              	.LVL17:
 406 015c 130101FF 		addi	sp,sp,-16
 407              		.cfi_def_cfa_offset 16
 408 0160 23348100 		sd	s0,8(sp)
 409              		.cfi_offset 8, -8
 410 0164 13040101 		addi	s0,sp,16
 411              		.cfi_def_cfa 8, 0
  89:src/syscalls_c.cpp ****     __asm__ volatile("mv a1,%0"::"r"((uint64)handle));
 412              		.loc 1 89 5
 413              		.loc 1 89 54 is_stmt 0
 414              	#APP
 415              	# 89 "src/syscalls_c.cpp" 1
  90              	    __asm__ volatile("li a0,0x22");
 416              		mv a1,a0
 417              	# 0 "" 2
 418              		.loc 1 90 5 is_stmt 1
 419              		.loc 1 90 35 is_stmt 0
 420              	# 90 "src/syscalls_c.cpp" 1
  91              	    __asm__ volatile("ecall");
 421              		li a0,0x22
 422              	# 0 "" 2
 423              		.loc 1 91 5 is_stmt 1
 424              		.loc 1 91 30 is_stmt 0
 425              	# 91 "src/syscalls_c.cpp" 1
  92              	    uint64 returnValue;
 426              		ecall
 427              	# 0 "" 2
 428              		.loc 1 92 5 is_stmt 1
  93:src/syscalls_c.cpp ****     __asm__ volatile("mv %0, a0" : "=r" (returnValue));
 429              		.loc 1 93 5
 430              		.loc 1 93 55 is_stmt 0
 431              	# 93 "src/syscalls_c.cpp" 1
  94              	    return (int)returnValue;
 432              		mv a0, a0
 433              	# 0 "" 2
 434              	.LVL18:
 435              		.loc 1 94 5 is_stmt 1
  95:src/syscalls_c.cpp **** }
GAS LISTING /tmp/cc5ObEm4.s 			page 10


 436              		.loc 1 95 1 is_stmt 0
 437              	#NO_APP
 438 0178 1B050500 		sext.w	a0,a0
 439              	.LVL19:
 440 017c 03348100 		ld	s0,8(sp)
 441              		.cfi_restore 8
 442              		.cfi_def_cfa 2, 16
 443 0180 13010101 		addi	sp,sp,16
 444              		.cfi_def_cfa_offset 0
 445 0184 67800000 		jr	ra
 446              		.cfi_endproc
 447              	.LFE8:
 449              		.align	2
 450              		.globl	_Z8sem_waitP4_sem
 452              	_Z8sem_waitP4_sem:
 453              	.LFB9:
  96:src/syscalls_c.cpp **** 
  97:src/syscalls_c.cpp **** int sem_wait ( sem_t handle ) {
 454              		.loc 1 97 31 is_stmt 1
 455              		.cfi_startproc
 456              	.LVL20:
 457 0188 130101FF 		addi	sp,sp,-16
 458              		.cfi_def_cfa_offset 16
 459 018c 23348100 		sd	s0,8(sp)
 460              		.cfi_offset 8, -8
 461 0190 13040101 		addi	s0,sp,16
 462              		.cfi_def_cfa 8, 0
  98:src/syscalls_c.cpp ****     __asm__ volatile("mv a1,%0"::"r"((uint64)handle));
 463              		.loc 1 98 5
 464              		.loc 1 98 54 is_stmt 0
 465              	#APP
 466              	# 98 "src/syscalls_c.cpp" 1
  99              	    __asm__ volatile("li a0,0x23");
 467              		mv a1,a0
 468              	# 0 "" 2
 469              		.loc 1 99 5 is_stmt 1
 470              		.loc 1 99 35 is_stmt 0
 471              	# 99 "src/syscalls_c.cpp" 1
 100              	    __asm__ volatile("ecall");
 472              		li a0,0x23
 473              	# 0 "" 2
 474              		.loc 1 100 5 is_stmt 1
 475              		.loc 1 100 30 is_stmt 0
 476              	# 100 "src/syscalls_c.cpp" 1
 101              	    uint64 returnValue;
 477              		ecall
 478              	# 0 "" 2
 479              		.loc 1 101 5 is_stmt 1
 102:src/syscalls_c.cpp ****     __asm__ volatile("mv %0, a0" : "=r" (returnValue));
 480              		.loc 1 102 5
 481              		.loc 1 102 55 is_stmt 0
 482              	# 102 "src/syscalls_c.cpp" 1
 103              	    return (int)returnValue;
 483              		mv a0, a0
 484              	# 0 "" 2
 485              	.LVL21:
 486              		.loc 1 103 5 is_stmt 1
GAS LISTING /tmp/cc5ObEm4.s 			page 11


 104:src/syscalls_c.cpp **** }
 487              		.loc 1 104 1 is_stmt 0
 488              	#NO_APP
 489 01a4 1B050500 		sext.w	a0,a0
 490              	.LVL22:
 491 01a8 03348100 		ld	s0,8(sp)
 492              		.cfi_restore 8
 493              		.cfi_def_cfa 2, 16
 494 01ac 13010101 		addi	sp,sp,16
 495              		.cfi_def_cfa_offset 0
 496 01b0 67800000 		jr	ra
 497              		.cfi_endproc
 498              	.LFE9:
 500              		.align	2
 501              		.globl	_Z10sem_signalP4_sem
 503              	_Z10sem_signalP4_sem:
 504              	.LFB10:
 105:src/syscalls_c.cpp **** 
 106:src/syscalls_c.cpp **** int sem_signal ( sem_t handle ) {
 505              		.loc 1 106 33 is_stmt 1
 506              		.cfi_startproc
 507              	.LVL23:
 508 01b4 130101FF 		addi	sp,sp,-16
 509              		.cfi_def_cfa_offset 16
 510 01b8 23348100 		sd	s0,8(sp)
 511              		.cfi_offset 8, -8
 512 01bc 13040101 		addi	s0,sp,16
 513              		.cfi_def_cfa 8, 0
 107:src/syscalls_c.cpp ****     __asm__ volatile("mv a1,%0"::"r"((uint64)handle));
 514              		.loc 1 107 5
 515              		.loc 1 107 54 is_stmt 0
 516              	#APP
 517              	# 107 "src/syscalls_c.cpp" 1
 108              	    __asm__ volatile("li a0,0x24");
 518              		mv a1,a0
 519              	# 0 "" 2
 520              		.loc 1 108 5 is_stmt 1
 521              		.loc 1 108 35 is_stmt 0
 522              	# 108 "src/syscalls_c.cpp" 1
 109              	    __asm__ volatile("ecall");
 523              		li a0,0x24
 524              	# 0 "" 2
 525              		.loc 1 109 5 is_stmt 1
 526              		.loc 1 109 30 is_stmt 0
 527              	# 109 "src/syscalls_c.cpp" 1
 110              	    uint64 returnValue;
 528              		ecall
 529              	# 0 "" 2
 530              		.loc 1 110 5 is_stmt 1
 111:src/syscalls_c.cpp ****     __asm__ volatile("mv %0, a0" : "=r" (returnValue));
 531              		.loc 1 111 5
 532              		.loc 1 111 55 is_stmt 0
 533              	# 111 "src/syscalls_c.cpp" 1
 112              	    return (int)returnValue;
 534              		mv a0, a0
 535              	# 0 "" 2
 536              	.LVL24:
GAS LISTING /tmp/cc5ObEm4.s 			page 12


 537              		.loc 1 112 5 is_stmt 1
 113:src/syscalls_c.cpp **** }
 538              		.loc 1 113 1 is_stmt 0
 539              	#NO_APP
 540 01d0 1B050500 		sext.w	a0,a0
 541              	.LVL25:
 542 01d4 03348100 		ld	s0,8(sp)
 543              		.cfi_restore 8
 544              		.cfi_def_cfa 2, 16
 545 01d8 13010101 		addi	sp,sp,16
 546              		.cfi_def_cfa_offset 0
 547 01dc 67800000 		jr	ra
 548              		.cfi_endproc
 549              	.LFE10:
 551              		.align	2
 552              		.globl	_Z4getcv
 554              	_Z4getcv:
 555              	.LFB11:
 114:src/syscalls_c.cpp **** 
 115:src/syscalls_c.cpp **** char getc() {
 556              		.loc 1 115 13 is_stmt 1
 557              		.cfi_startproc
 558 01e0 130101FF 		addi	sp,sp,-16
 559              		.cfi_def_cfa_offset 16
 560 01e4 23348100 		sd	s0,8(sp)
 561              		.cfi_offset 8, -8
 562 01e8 13040101 		addi	s0,sp,16
 563              		.cfi_def_cfa 8, 0
 116:src/syscalls_c.cpp ****     __asm__ volatile ("li a0, 0x41");
 564              		.loc 1 116 5
 565              		.loc 1 116 37 is_stmt 0
 566              	#APP
 567              	# 116 "src/syscalls_c.cpp" 1
 117              	    __asm__ volatile ("ecall");
 568              		li a0, 0x41
 569              	# 0 "" 2
 570              		.loc 1 117 5 is_stmt 1
 571              		.loc 1 117 31 is_stmt 0
 572              	# 117 "src/syscalls_c.cpp" 1
 118              	    char chr;
 573              		ecall
 574              	# 0 "" 2
 575              		.loc 1 118 5 is_stmt 1
 119:src/syscalls_c.cpp ****     __asm__ volatile ("mv %0, a0" : "=r"(chr));
 576              		.loc 1 119 5
 577              		.loc 1 119 47 is_stmt 0
 578              	# 119 "src/syscalls_c.cpp" 1
 120              	    return chr;
 579              		mv a0, a0
 580              	# 0 "" 2
 581              	.LVL26:
 582              		.loc 1 120 5 is_stmt 1
 121:src/syscalls_c.cpp **** }
 583              		.loc 1 121 1 is_stmt 0
 584              	#NO_APP
 585 01f8 1375F50F 		andi	a0,a0,0xff
 586 01fc 03348100 		ld	s0,8(sp)
GAS LISTING /tmp/cc5ObEm4.s 			page 13


 587              		.cfi_restore 8
 588              		.cfi_def_cfa 2, 16
 589 0200 13010101 		addi	sp,sp,16
 590              		.cfi_def_cfa_offset 0
 591 0204 67800000 		jr	ra
 592              		.cfi_endproc
 593              	.LFE11:
 595              		.align	2
 596              		.globl	_Z4putcc
 598              	_Z4putcc:
 599              	.LFB12:
 122:src/syscalls_c.cpp **** 
 123:src/syscalls_c.cpp **** #include "console.h"
 124:src/syscalls_c.cpp **** 
 125:src/syscalls_c.cpp **** void putc(char chr ) {
 600              		.loc 1 125 22 is_stmt 1
 601              		.cfi_startproc
 602              	.LVL27:
 603 0208 130101FF 		addi	sp,sp,-16
 604              		.cfi_def_cfa_offset 16
 605 020c 23348100 		sd	s0,8(sp)
 606              		.cfi_offset 8, -8
 607 0210 13040101 		addi	s0,sp,16
 608              		.cfi_def_cfa 8, 0
 126:src/syscalls_c.cpp ****     __asm__ volatile("mv a1,%0"::"r"(chr));
 609              		.loc 1 126 5
 610              		.loc 1 126 43 is_stmt 0
 611              	#APP
 612              	# 126 "src/syscalls_c.cpp" 1
 127              	    __asm__ volatile("li a0,0x42");
 613              		mv a1,a0
 614              	# 0 "" 2
 615              		.loc 1 127 5 is_stmt 1
 616              		.loc 1 127 35 is_stmt 0
 617              	# 127 "src/syscalls_c.cpp" 1
 128              	    __asm__ volatile("ecall");
 618              		li a0,0x42
 619              	# 0 "" 2
 620              		.loc 1 128 5 is_stmt 1
 621              		.loc 1 128 30 is_stmt 0
 622              	# 128 "src/syscalls_c.cpp" 1
 129              	}...
 623              		ecall
 624              	# 0 "" 2
 625              		.loc 1 129 1
 626              	#NO_APP
 627 0220 03348100 		ld	s0,8(sp)
 628              		.cfi_restore 8
 629              		.cfi_def_cfa 2, 16
 630 0224 13010101 		addi	sp,sp,16
 631              		.cfi_def_cfa_offset 0
 632 0228 67800000 		jr	ra
 633              		.cfi_endproc
 634              	.LFE12:
 636              	.Letext0:
 637              		.file 2 "./lib/hw.h"
 638              		.file 3 "./h/syscalls_c.h"
GAS LISTING /tmp/cc5ObEm4.s 			page 14


GAS LISTING /tmp/cc5ObEm4.s 			page 15


DEFINED SYMBOLS
                            *ABS*:0000000000000000 syscalls_c.cpp
     /tmp/cc5ObEm4.s:9      .text:0000000000000000 _Z9mem_allocm
     /tmp/cc5ObEm4.s:13     .text:0000000000000000 .L0 
     /tmp/cc5ObEm4.s:15     .text:0000000000000000 .L0 
     /tmp/cc5ObEm4.s:16     .text:0000000000000004 .L0 
     /tmp/cc5ObEm4.s:18     .text:0000000000000008 .L0 
     /tmp/cc5ObEm4.s:20     .text:000000000000000c .L0 
     /tmp/cc5ObEm4.s:22     .text:000000000000000c .L0 
     /tmp/cc5ObEm4.s:23     .text:000000000000000c .L0 
     /tmp/cc5ObEm4.s:26     .text:0000000000000010 .L0 
     /tmp/cc5ObEm4.s:29     .text:0000000000000014 .L0 
  src/syscalls_c.cpp:17     .text:0000000000000014 .L0 
     /tmp/cc5ObEm4.s:35     .text:0000000000000018 .L0 
  src/syscalls_c.cpp:18     .text:0000000000000018 .L0 
     /tmp/cc5ObEm4.s:40     .text:000000000000001c .L0 
  src/syscalls_c.cpp:19     .text:000000000000001c .L0 
     /tmp/cc5ObEm4.s:45     .text:0000000000000020 .L0 
     /tmp/cc5ObEm4.s:46     .text:0000000000000020 .L0 
  src/syscalls_c.cpp:21     .text:0000000000000020 .L0 
     /tmp/cc5ObEm4.s:52     .text:0000000000000024 .L0 
     /tmp/cc5ObEm4.s:54     .text:0000000000000024 .L0 
     /tmp/cc5ObEm4.s:55     .text:0000000000000028 .L0 
     /tmp/cc5ObEm4.s:56     .text:0000000000000028 .L0 
     /tmp/cc5ObEm4.s:58     .text:000000000000002c .L0 
     /tmp/cc5ObEm4.s:60     .text:0000000000000030 .L0 
     /tmp/cc5ObEm4.s:66     .text:0000000000000030 _Z8mem_freePv
     /tmp/cc5ObEm4.s:69     .text:0000000000000030 .L0 
     /tmp/cc5ObEm4.s:71     .text:0000000000000030 .L0 
     /tmp/cc5ObEm4.s:72     .text:0000000000000034 .L0 
     /tmp/cc5ObEm4.s:74     .text:0000000000000038 .L0 
     /tmp/cc5ObEm4.s:76     .text:000000000000003c .L0 
     /tmp/cc5ObEm4.s:78     .text:000000000000003c .L0 
  src/syscalls_c.cpp:26     .text:000000000000003c .L0 
     /tmp/cc5ObEm4.s:84     .text:0000000000000040 .L0 
  src/syscalls_c.cpp:27     .text:0000000000000040 .L0 
     /tmp/cc5ObEm4.s:89     .text:0000000000000044 .L0 
  src/syscalls_c.cpp:28     .text:0000000000000044 .L0 
     /tmp/cc5ObEm4.s:94     .text:0000000000000048 .L0 
     /tmp/cc5ObEm4.s:95     .text:0000000000000048 .L0 
  src/syscalls_c.cpp:30     .text:0000000000000048 .L0 
     /tmp/cc5ObEm4.s:101    .text:000000000000004c .L0 
     /tmp/cc5ObEm4.s:103    .text:000000000000004c .L0 
     /tmp/cc5ObEm4.s:105    .text:0000000000000054 .L0 
     /tmp/cc5ObEm4.s:106    .text:0000000000000054 .L0 
     /tmp/cc5ObEm4.s:108    .text:0000000000000058 .L0 
     /tmp/cc5ObEm4.s:110    .text:000000000000005c .L0 
     /tmp/cc5ObEm4.s:116    .text:000000000000005c _Z13thread_createPP7_threadPFvPvES2_
     /tmp/cc5ObEm4.s:119    .text:000000000000005c .L0 
     /tmp/cc5ObEm4.s:121    .text:000000000000005c .L0 
     /tmp/cc5ObEm4.s:122    .text:0000000000000060 .L0 
     /tmp/cc5ObEm4.s:124    .text:0000000000000064 .L0 
     /tmp/cc5ObEm4.s:126    .text:0000000000000068 .L0 
     /tmp/cc5ObEm4.s:128    .text:0000000000000068 .L0 
  src/syscalls_c.cpp:39     .text:0000000000000068 .L0 
     /tmp/cc5ObEm4.s:134    .text:000000000000006c .L0 
  src/syscalls_c.cpp:40     .text:000000000000006c .L0 
GAS LISTING /tmp/cc5ObEm4.s 			page 16


     /tmp/cc5ObEm4.s:139    .text:0000000000000070 .L0 
  src/syscalls_c.cpp:41     .text:0000000000000070 .L0 
     /tmp/cc5ObEm4.s:144    .text:0000000000000074 .L0 
  src/syscalls_c.cpp:42     .text:0000000000000074 .L0 
     /tmp/cc5ObEm4.s:149    .text:0000000000000078 .L0 
  src/syscalls_c.cpp:43     .text:0000000000000078 .L0 
     /tmp/cc5ObEm4.s:154    .text:000000000000007c .L0 
     /tmp/cc5ObEm4.s:155    .text:000000000000007c .L0 
  src/syscalls_c.cpp:45     .text:000000000000007c .L0 
     /tmp/cc5ObEm4.s:161    .text:0000000000000080 .L0 
     /tmp/cc5ObEm4.s:163    .text:0000000000000080 .L0 
     /tmp/cc5ObEm4.s:166    .text:0000000000000088 .L0 
     /tmp/cc5ObEm4.s:167    .text:0000000000000088 .L0 
     /tmp/cc5ObEm4.s:169    .text:000000000000008c .L0 
     /tmp/cc5ObEm4.s:171    .text:0000000000000090 .L0 
     /tmp/cc5ObEm4.s:177    .text:0000000000000090 _Z11thread_exitv
     /tmp/cc5ObEm4.s:180    .text:0000000000000090 .L0 
     /tmp/cc5ObEm4.s:181    .text:0000000000000090 .L0 
     /tmp/cc5ObEm4.s:182    .text:0000000000000094 .L0 
     /tmp/cc5ObEm4.s:184    .text:0000000000000098 .L0 
     /tmp/cc5ObEm4.s:186    .text:000000000000009c .L0 
     /tmp/cc5ObEm4.s:188    .text:000000000000009c .L0 
  src/syscalls_c.cpp:52     .text:000000000000009c .L0 
     /tmp/cc5ObEm4.s:194    .text:00000000000000a0 .L0 
  src/syscalls_c.cpp:53     .text:00000000000000a0 .L0 
     /tmp/cc5ObEm4.s:199    .text:00000000000000a4 .L0 
     /tmp/cc5ObEm4.s:201    .text:00000000000000a4 .L0 
     /tmp/cc5ObEm4.s:203    .text:00000000000000ac .L0 
     /tmp/cc5ObEm4.s:204    .text:00000000000000ac .L0 
     /tmp/cc5ObEm4.s:206    .text:00000000000000b0 .L0 
     /tmp/cc5ObEm4.s:208    .text:00000000000000b4 .L0 
     /tmp/cc5ObEm4.s:214    .text:00000000000000b4 _Z15thread_dispatchv
     /tmp/cc5ObEm4.s:217    .text:00000000000000b4 .L0 
     /tmp/cc5ObEm4.s:218    .text:00000000000000b4 .L0 
     /tmp/cc5ObEm4.s:219    .text:00000000000000b8 .L0 
     /tmp/cc5ObEm4.s:221    .text:00000000000000bc .L0 
     /tmp/cc5ObEm4.s:223    .text:00000000000000c0 .L0 
     /tmp/cc5ObEm4.s:225    .text:00000000000000c0 .L0 
  src/syscalls_c.cpp:58     .text:00000000000000c0 .L0 
     /tmp/cc5ObEm4.s:231    .text:00000000000000c4 .L0 
  src/syscalls_c.cpp:59     .text:00000000000000c4 .L0 
     /tmp/cc5ObEm4.s:237    .text:00000000000000c8 .L0 
     /tmp/cc5ObEm4.s:238    .text:00000000000000cc .L0 
     /tmp/cc5ObEm4.s:239    .text:00000000000000cc .L0 
     /tmp/cc5ObEm4.s:241    .text:00000000000000d0 .L0 
     /tmp/cc5ObEm4.s:243    .text:00000000000000d4 .L0 
     /tmp/cc5ObEm4.s:249    .text:00000000000000d4 _Z11thread_joinP7_thread
     /tmp/cc5ObEm4.s:252    .text:00000000000000d4 .L0 
     /tmp/cc5ObEm4.s:254    .text:00000000000000d4 .L0 
     /tmp/cc5ObEm4.s:255    .text:00000000000000d8 .L0 
     /tmp/cc5ObEm4.s:257    .text:00000000000000dc .L0 
     /tmp/cc5ObEm4.s:259    .text:00000000000000e0 .L0 
     /tmp/cc5ObEm4.s:261    .text:00000000000000e0 .L0 
  src/syscalls_c.cpp:63     .text:00000000000000e0 .L0 
     /tmp/cc5ObEm4.s:267    .text:00000000000000e4 .L0 
  src/syscalls_c.cpp:64     .text:00000000000000e4 .L0 
     /tmp/cc5ObEm4.s:272    .text:00000000000000e8 .L0 
GAS LISTING /tmp/cc5ObEm4.s 			page 17


  src/syscalls_c.cpp:65     .text:00000000000000e8 .L0 
     /tmp/cc5ObEm4.s:278    .text:00000000000000ec .L0 
     /tmp/cc5ObEm4.s:279    .text:00000000000000f0 .L0 
     /tmp/cc5ObEm4.s:280    .text:00000000000000f0 .L0 
     /tmp/cc5ObEm4.s:282    .text:00000000000000f4 .L0 
     /tmp/cc5ObEm4.s:284    .text:00000000000000f8 .L0 
     /tmp/cc5ObEm4.s:290    .text:00000000000000f8 _Z10time_sleepm
     /tmp/cc5ObEm4.s:293    .text:00000000000000f8 .L0 
     /tmp/cc5ObEm4.s:295    .text:00000000000000f8 .L0 
     /tmp/cc5ObEm4.s:296    .text:00000000000000fc .L0 
     /tmp/cc5ObEm4.s:298    .text:0000000000000100 .L0 
     /tmp/cc5ObEm4.s:300    .text:0000000000000104 .L0 
     /tmp/cc5ObEm4.s:302    .text:0000000000000104 .L0 
  src/syscalls_c.cpp:69     .text:0000000000000104 .L0 
     /tmp/cc5ObEm4.s:308    .text:0000000000000108 .L0 
  src/syscalls_c.cpp:70     .text:0000000000000108 .L0 
     /tmp/cc5ObEm4.s:313    .text:000000000000010c .L0 
  src/syscalls_c.cpp:71     .text:000000000000010c .L0 
     /tmp/cc5ObEm4.s:318    .text:0000000000000110 .L0 
     /tmp/cc5ObEm4.s:319    .text:0000000000000110 .L0 
  src/syscalls_c.cpp:73     .text:0000000000000110 .L0 
     /tmp/cc5ObEm4.s:325    .text:0000000000000114 .L0 
     /tmp/cc5ObEm4.s:327    .text:0000000000000114 .L0 
     /tmp/cc5ObEm4.s:330    .text:000000000000011c .L0 
     /tmp/cc5ObEm4.s:331    .text:000000000000011c .L0 
     /tmp/cc5ObEm4.s:333    .text:0000000000000120 .L0 
     /tmp/cc5ObEm4.s:335    .text:0000000000000124 .L0 
     /tmp/cc5ObEm4.s:341    .text:0000000000000124 _Z8sem_openPP4_semj
     /tmp/cc5ObEm4.s:344    .text:0000000000000124 .L0 
     /tmp/cc5ObEm4.s:346    .text:0000000000000124 .L0 
     /tmp/cc5ObEm4.s:347    .text:0000000000000128 .L0 
     /tmp/cc5ObEm4.s:349    .text:000000000000012c .L0 
     /tmp/cc5ObEm4.s:351    .text:0000000000000130 .L0 
     /tmp/cc5ObEm4.s:353    .text:0000000000000130 .L0 
     /tmp/cc5ObEm4.s:354    .text:0000000000000130 .L0 
  src/syscalls_c.cpp:78     .text:0000000000000138 .L0 
     /tmp/cc5ObEm4.s:363    .text:000000000000013c .L0 
  src/syscalls_c.cpp:80     .text:000000000000013c .L0 
     /tmp/cc5ObEm4.s:368    .text:0000000000000140 .L0 
  src/syscalls_c.cpp:81     .text:0000000000000140 .L0 
     /tmp/cc5ObEm4.s:373    .text:0000000000000144 .L0 
  src/syscalls_c.cpp:82     .text:0000000000000144 .L0 
     /tmp/cc5ObEm4.s:378    .text:0000000000000148 .L0 
     /tmp/cc5ObEm4.s:379    .text:0000000000000148 .L0 
  src/syscalls_c.cpp:84     .text:0000000000000148 .L0 
     /tmp/cc5ObEm4.s:385    .text:000000000000014c .L0 
     /tmp/cc5ObEm4.s:387    .text:000000000000014c .L0 
     /tmp/cc5ObEm4.s:390    .text:0000000000000154 .L0 
     /tmp/cc5ObEm4.s:391    .text:0000000000000154 .L0 
     /tmp/cc5ObEm4.s:393    .text:0000000000000158 .L0 
     /tmp/cc5ObEm4.s:395    .text:000000000000015c .L0 
     /tmp/cc5ObEm4.s:401    .text:000000000000015c _Z9sem_closeP4_sem
     /tmp/cc5ObEm4.s:404    .text:000000000000015c .L0 
     /tmp/cc5ObEm4.s:406    .text:000000000000015c .L0 
     /tmp/cc5ObEm4.s:407    .text:0000000000000160 .L0 
     /tmp/cc5ObEm4.s:409    .text:0000000000000164 .L0 
     /tmp/cc5ObEm4.s:411    .text:0000000000000168 .L0 
GAS LISTING /tmp/cc5ObEm4.s 			page 18


     /tmp/cc5ObEm4.s:413    .text:0000000000000168 .L0 
  src/syscalls_c.cpp:89     .text:0000000000000168 .L0 
     /tmp/cc5ObEm4.s:419    .text:000000000000016c .L0 
  src/syscalls_c.cpp:90     .text:000000000000016c .L0 
     /tmp/cc5ObEm4.s:424    .text:0000000000000170 .L0 
  src/syscalls_c.cpp:91     .text:0000000000000170 .L0 
     /tmp/cc5ObEm4.s:429    .text:0000000000000174 .L0 
     /tmp/cc5ObEm4.s:430    .text:0000000000000174 .L0 
  src/syscalls_c.cpp:93     .text:0000000000000174 .L0 
     /tmp/cc5ObEm4.s:436    .text:0000000000000178 .L0 
     /tmp/cc5ObEm4.s:438    .text:0000000000000178 .L0 
     /tmp/cc5ObEm4.s:441    .text:0000000000000180 .L0 
     /tmp/cc5ObEm4.s:442    .text:0000000000000180 .L0 
     /tmp/cc5ObEm4.s:444    .text:0000000000000184 .L0 
     /tmp/cc5ObEm4.s:446    .text:0000000000000188 .L0 
     /tmp/cc5ObEm4.s:452    .text:0000000000000188 _Z8sem_waitP4_sem
     /tmp/cc5ObEm4.s:455    .text:0000000000000188 .L0 
     /tmp/cc5ObEm4.s:457    .text:0000000000000188 .L0 
     /tmp/cc5ObEm4.s:458    .text:000000000000018c .L0 
     /tmp/cc5ObEm4.s:460    .text:0000000000000190 .L0 
     /tmp/cc5ObEm4.s:462    .text:0000000000000194 .L0 
     /tmp/cc5ObEm4.s:464    .text:0000000000000194 .L0 
  src/syscalls_c.cpp:98     .text:0000000000000194 .L0 
     /tmp/cc5ObEm4.s:470    .text:0000000000000198 .L0 
  src/syscalls_c.cpp:99     .text:0000000000000198 .L0 
     /tmp/cc5ObEm4.s:475    .text:000000000000019c .L0 
  src/syscalls_c.cpp:100    .text:000000000000019c .L0 
     /tmp/cc5ObEm4.s:480    .text:00000000000001a0 .L0 
     /tmp/cc5ObEm4.s:481    .text:00000000000001a0 .L0 
  src/syscalls_c.cpp:102    .text:00000000000001a0 .L0 
     /tmp/cc5ObEm4.s:487    .text:00000000000001a4 .L0 
     /tmp/cc5ObEm4.s:489    .text:00000000000001a4 .L0 
     /tmp/cc5ObEm4.s:492    .text:00000000000001ac .L0 
     /tmp/cc5ObEm4.s:493    .text:00000000000001ac .L0 
     /tmp/cc5ObEm4.s:495    .text:00000000000001b0 .L0 
     /tmp/cc5ObEm4.s:497    .text:00000000000001b4 .L0 
     /tmp/cc5ObEm4.s:503    .text:00000000000001b4 _Z10sem_signalP4_sem
     /tmp/cc5ObEm4.s:506    .text:00000000000001b4 .L0 
     /tmp/cc5ObEm4.s:508    .text:00000000000001b4 .L0 
     /tmp/cc5ObEm4.s:509    .text:00000000000001b8 .L0 
     /tmp/cc5ObEm4.s:511    .text:00000000000001bc .L0 
     /tmp/cc5ObEm4.s:513    .text:00000000000001c0 .L0 
     /tmp/cc5ObEm4.s:515    .text:00000000000001c0 .L0 
  src/syscalls_c.cpp:107    .text:00000000000001c0 .L0 
     /tmp/cc5ObEm4.s:521    .text:00000000000001c4 .L0 
  src/syscalls_c.cpp:108    .text:00000000000001c4 .L0 
     /tmp/cc5ObEm4.s:526    .text:00000000000001c8 .L0 
  src/syscalls_c.cpp:109    .text:00000000000001c8 .L0 
     /tmp/cc5ObEm4.s:531    .text:00000000000001cc .L0 
     /tmp/cc5ObEm4.s:532    .text:00000000000001cc .L0 
  src/syscalls_c.cpp:111    .text:00000000000001cc .L0 
     /tmp/cc5ObEm4.s:538    .text:00000000000001d0 .L0 
     /tmp/cc5ObEm4.s:540    .text:00000000000001d0 .L0 
     /tmp/cc5ObEm4.s:543    .text:00000000000001d8 .L0 
     /tmp/cc5ObEm4.s:544    .text:00000000000001d8 .L0 
     /tmp/cc5ObEm4.s:546    .text:00000000000001dc .L0 
     /tmp/cc5ObEm4.s:548    .text:00000000000001e0 .L0 
GAS LISTING /tmp/cc5ObEm4.s 			page 19


     /tmp/cc5ObEm4.s:554    .text:00000000000001e0 _Z4getcv
     /tmp/cc5ObEm4.s:557    .text:00000000000001e0 .L0 
     /tmp/cc5ObEm4.s:558    .text:00000000000001e0 .L0 
     /tmp/cc5ObEm4.s:559    .text:00000000000001e4 .L0 
     /tmp/cc5ObEm4.s:561    .text:00000000000001e8 .L0 
     /tmp/cc5ObEm4.s:563    .text:00000000000001ec .L0 
     /tmp/cc5ObEm4.s:565    .text:00000000000001ec .L0 
  src/syscalls_c.cpp:116    .text:00000000000001ec .L0 
     /tmp/cc5ObEm4.s:571    .text:00000000000001f0 .L0 
  src/syscalls_c.cpp:117    .text:00000000000001f0 .L0 
     /tmp/cc5ObEm4.s:576    .text:00000000000001f4 .L0 
     /tmp/cc5ObEm4.s:577    .text:00000000000001f4 .L0 
  src/syscalls_c.cpp:119    .text:00000000000001f4 .L0 
     /tmp/cc5ObEm4.s:583    .text:00000000000001f8 .L0 
     /tmp/cc5ObEm4.s:585    .text:00000000000001f8 .L0 
     /tmp/cc5ObEm4.s:587    .text:0000000000000200 .L0 
     /tmp/cc5ObEm4.s:588    .text:0000000000000200 .L0 
     /tmp/cc5ObEm4.s:590    .text:0000000000000204 .L0 
     /tmp/cc5ObEm4.s:592    .text:0000000000000208 .L0 
     /tmp/cc5ObEm4.s:598    .text:0000000000000208 _Z4putcc
     /tmp/cc5ObEm4.s:601    .text:0000000000000208 .L0 
     /tmp/cc5ObEm4.s:603    .text:0000000000000208 .L0 
     /tmp/cc5ObEm4.s:604    .text:000000000000020c .L0 
     /tmp/cc5ObEm4.s:606    .text:0000000000000210 .L0 
     /tmp/cc5ObEm4.s:608    .text:0000000000000214 .L0 
     /tmp/cc5ObEm4.s:610    .text:0000000000000214 .L0 
  src/syscalls_c.cpp:126    .text:0000000000000214 .L0 
     /tmp/cc5ObEm4.s:616    .text:0000000000000218 .L0 
  src/syscalls_c.cpp:127    .text:0000000000000218 .L0 
     /tmp/cc5ObEm4.s:621    .text:000000000000021c .L0 
  src/syscalls_c.cpp:128    .text:000000000000021c .L0 
     /tmp/cc5ObEm4.s:627    .text:0000000000000220 .L0 
     /tmp/cc5ObEm4.s:628    .text:0000000000000224 .L0 
     /tmp/cc5ObEm4.s:629    .text:0000000000000224 .L0 
     /tmp/cc5ObEm4.s:631    .text:0000000000000228 .L0 
     /tmp/cc5ObEm4.s:633    .text:000000000000022c .L0 
     /tmp/cc5ObEm4.s:639    .text:000000000000022c .L0 
     /tmp/cc5ObEm4.s:1137   .debug_abbrev:0000000000000000 .Ldebug_abbrev0
     /tmp/cc5ObEm4.s:1795   .debug_str:0000000000000198 .LASF53
     /tmp/cc5ObEm4.s:1765   .debug_str:00000000000000c5 .LASF54
     /tmp/cc5ObEm4.s:1823   .debug_str:00000000000002f9 .LASF55
     /tmp/cc5ObEm4.s:5      .text:0000000000000000 .Ltext0
     /tmp/cc5ObEm4.s:636    .text:000000000000022c .Letext0
     /tmp/cc5ObEm4.s:1733   .debug_line:0000000000000000 .Ldebug_line0
     /tmp/cc5ObEm4.s:1803   .debug_str:0000000000000278 .LASF0
     /tmp/cc5ObEm4.s:1777   .debug_str:000000000000011b .LASF1
     /tmp/cc5ObEm4.s:1769   .debug_str:00000000000000ec .LASF2
     /tmp/cc5ObEm4.s:1749   .debug_str:0000000000000050 .LASF4
     /tmp/cc5ObEm4.s:1775   .debug_str:0000000000000109 .LASF3
     /tmp/cc5ObEm4.s:1739   .debug_str:0000000000000021 .LASF5
     /tmp/cc5ObEm4.s:1811   .debug_str:00000000000002aa .LASF6
     /tmp/cc5ObEm4.s:1737   .debug_str:000000000000000e .LASF7
     /tmp/cc5ObEm4.s:1761   .debug_str:00000000000000a0 .LASF8
     /tmp/cc5ObEm4.s:1813   .debug_str:00000000000002b1 .LASF9
     /tmp/cc5ObEm4.s:1747   .debug_str:0000000000000042 .LASF10
     /tmp/cc5ObEm4.s:1853   .debug_str:00000000000003ca .LASF11
     /tmp/cc5ObEm4.s:1851   .debug_str:00000000000003bb .LASF12
GAS LISTING /tmp/cc5ObEm4.s 			page 20


     /tmp/cc5ObEm4.s:1839   .debug_str:000000000000036a .LASF13
     /tmp/cc5ObEm4.s:1821   .debug_str:00000000000002e9 .LASF14
     /tmp/cc5ObEm4.s:1783   .debug_str:0000000000000140 .LASF15
     /tmp/cc5ObEm4.s:1755   .debug_str:000000000000006f .LASF16
     /tmp/cc5ObEm4.s:1815   .debug_str:00000000000002c1 .LASF17
     /tmp/cc5ObEm4.s:1817   .debug_str:00000000000002d7 .LASF18
     /tmp/cc5ObEm4.s:1829   .debug_str:000000000000032a .LASF20
     /tmp/cc5ObEm4.s:1743   .debug_str:0000000000000034 .LASF19
     /tmp/cc5ObEm4.s:1797   .debug_str:000000000000025c .LASF21
     /tmp/cc5ObEm4.s:1827   .debug_str:0000000000000325 .LASF39
     /tmp/cc5ObEm4.s:1779   .debug_str:000000000000012e .LASF41
     /tmp/cc5ObEm4.s:599    .text:0000000000000208 .LFB12
     /tmp/cc5ObEm4.s:634    .text:000000000000022c .LFE12
     /tmp/cc5ObEm4.s:1807   .debug_str:0000000000000290 .LASF22
     /tmp/cc5ObEm4.s:1771   .debug_str:00000000000000fa .LASF23
     /tmp/cc5ObEm4.s:1845   .debug_str:0000000000000390 .LASF25
     /tmp/cc5ObEm4.s:555    .text:00000000000001e0 .LFB11
     /tmp/cc5ObEm4.s:593    .text:0000000000000208 .LFE11
     /tmp/cc5ObEm4.s:1789   .debug_str:000000000000015f .LASF24
     /tmp/cc5ObEm4.s:1809   .debug_str:0000000000000295 .LASF26
     /tmp/cc5ObEm4.s:504    .text:00000000000001b4 .LFB10
     /tmp/cc5ObEm4.s:549    .text:00000000000001e0 .LFE10
     /tmp/cc5ObEm4.s:1787   .debug_str:0000000000000158 .LASF27
     /tmp/cc5ObEm4.s:1538   .debug_loc:0000000000000000 .LLST13
     /tmp/cc5ObEm4.s:1785   .debug_str:000000000000014c .LASF28
     /tmp/cc5ObEm4.s:1552   .debug_loc:0000000000000039 .LLST14
     /tmp/cc5ObEm4.s:1799   .debug_str:0000000000000261 .LASF29
     /tmp/cc5ObEm4.s:1763   .debug_str:00000000000000b3 .LASF30
     /tmp/cc5ObEm4.s:453    .text:0000000000000188 .LFB9
     /tmp/cc5ObEm4.s:498    .text:00000000000001b4 .LFE9
     /tmp/cc5ObEm4.s:1559   .debug_loc:000000000000005c .LLST11
     /tmp/cc5ObEm4.s:1573   .debug_loc:0000000000000095 .LLST12
     /tmp/cc5ObEm4.s:1773   .debug_str:00000000000000ff .LASF31
     /tmp/cc5ObEm4.s:1751   .debug_str:0000000000000057 .LASF32
     /tmp/cc5ObEm4.s:402    .text:000000000000015c .LFB8
     /tmp/cc5ObEm4.s:447    .text:0000000000000188 .LFE8
     /tmp/cc5ObEm4.s:1580   .debug_loc:00000000000000b8 .LLST9
     /tmp/cc5ObEm4.s:1594   .debug_loc:00000000000000f1 .LLST10
     /tmp/cc5ObEm4.s:1833   .debug_str:0000000000000342 .LASF33
     /tmp/cc5ObEm4.s:1767   .debug_str:00000000000000d8 .LASF34
     /tmp/cc5ObEm4.s:342    .text:0000000000000124 .LFB7
     /tmp/cc5ObEm4.s:396    .text:000000000000015c .LFE7
     /tmp/cc5ObEm4.s:1601   .debug_loc:0000000000000114 .LLST6
     /tmp/cc5ObEm4.s:1753   .debug_str:000000000000006a .LASF35
     /tmp/cc5ObEm4.s:1615   .debug_loc:000000000000014d .LLST7
     /tmp/cc5ObEm4.s:1629   .debug_loc:0000000000000186 .LLST8
     /tmp/cc5ObEm4.s:1805   .debug_str:0000000000000285 .LASF36
     /tmp/cc5ObEm4.s:1831   .debug_str:0000000000000332 .LASF37
     /tmp/cc5ObEm4.s:291    .text:00000000000000f8 .LFB6
     /tmp/cc5ObEm4.s:336    .text:0000000000000124 .LFE6
     /tmp/cc5ObEm4.s:1791   .debug_str:000000000000016a .LASF38
     /tmp/cc5ObEm4.s:1636   .debug_loc:00000000000001a9 .LLST4
     /tmp/cc5ObEm4.s:1650   .debug_loc:00000000000001e2 .LLST5
     /tmp/cc5ObEm4.s:1741   .debug_str:0000000000000028 .LASF40
     /tmp/cc5ObEm4.s:1847   .debug_str:0000000000000399 .LASF42
     /tmp/cc5ObEm4.s:250    .text:00000000000000d4 .LFB5
     /tmp/cc5ObEm4.s:285    .text:00000000000000f8 .LFE5
GAS LISTING /tmp/cc5ObEm4.s 			page 21


     /tmp/cc5ObEm4.s:1825   .debug_str:0000000000000315 .LASF56
     /tmp/cc5ObEm4.s:1759   .debug_str:000000000000008b .LASF57
     /tmp/cc5ObEm4.s:215    .text:00000000000000b4 .LFB4
     /tmp/cc5ObEm4.s:244    .text:00000000000000d4 .LFE4
     /tmp/cc5ObEm4.s:1841   .debug_str:000000000000037a .LASF58
     /tmp/cc5ObEm4.s:1837   .debug_str:0000000000000359 .LASF59
     /tmp/cc5ObEm4.s:178    .text:0000000000000090 .LFB3
     /tmp/cc5ObEm4.s:209    .text:00000000000000b4 .LFE3
     /tmp/cc5ObEm4.s:1835   .debug_str:000000000000034b .LASF43
     /tmp/cc5ObEm4.s:1793   .debug_str:0000000000000173 .LASF44
     /tmp/cc5ObEm4.s:117    .text:000000000000005c .LFB2
     /tmp/cc5ObEm4.s:172    .text:0000000000000090 .LFE2
     /tmp/cc5ObEm4.s:1657   .debug_loc:0000000000000205 .LLST2
     /tmp/cc5ObEm4.s:1849   .debug_str:00000000000003b2 .LASF45
     /tmp/cc5ObEm4.s:1671   .debug_loc:000000000000023e .LLST3
     /tmp/cc5ObEm4.s:1819   .debug_str:00000000000002e0 .LASF46
     /tmp/cc5ObEm4.s:1735   .debug_str:0000000000000000 .LASF47
     /tmp/cc5ObEm4.s:67     .text:0000000000000030 .LFB1
     /tmp/cc5ObEm4.s:111    .text:000000000000005c .LFE1
     /tmp/cc5ObEm4.s:1781   .debug_str:0000000000000137 .LASF48
     /tmp/cc5ObEm4.s:1678   .debug_loc:0000000000000261 .LLST1
     /tmp/cc5ObEm4.s:1745   .debug_str:000000000000003a .LASF49
     /tmp/cc5ObEm4.s:1843   .debug_str:0000000000000386 .LASF50
     /tmp/cc5ObEm4.s:1801   .debug_str:000000000000026a .LASF51
     /tmp/cc5ObEm4.s:10     .text:0000000000000000 .LFB0
     /tmp/cc5ObEm4.s:61     .text:0000000000000030 .LFE0
     /tmp/cc5ObEm4.s:1757   .debug_str:0000000000000085 .LASF52
     /tmp/cc5ObEm4.s:1692   .debug_loc:000000000000029a .LLST0
     /tmp/cc5ObEm4.s:507    .text:00000000000001b4 .LVL23
     /tmp/cc5ObEm4.s:536    .text:00000000000001d0 .LVL24
     /tmp/cc5ObEm4.s:541    .text:00000000000001d4 .LVL25
     /tmp/cc5ObEm4.s:456    .text:0000000000000188 .LVL20
     /tmp/cc5ObEm4.s:485    .text:00000000000001a4 .LVL21
     /tmp/cc5ObEm4.s:490    .text:00000000000001a8 .LVL22
     /tmp/cc5ObEm4.s:405    .text:000000000000015c .LVL17
     /tmp/cc5ObEm4.s:434    .text:0000000000000178 .LVL18
     /tmp/cc5ObEm4.s:439    .text:000000000000017c .LVL19
     /tmp/cc5ObEm4.s:345    .text:0000000000000124 .LVL13
     /tmp/cc5ObEm4.s:383    .text:000000000000014c .LVL15
     /tmp/cc5ObEm4.s:355    .text:0000000000000134 .LVL14
     /tmp/cc5ObEm4.s:388    .text:0000000000000150 .LVL16
     /tmp/cc5ObEm4.s:294    .text:00000000000000f8 .LVL10
     /tmp/cc5ObEm4.s:323    .text:0000000000000114 .LVL11
     /tmp/cc5ObEm4.s:328    .text:0000000000000118 .LVL12
     /tmp/cc5ObEm4.s:120    .text:000000000000005c .LVL6
     /tmp/cc5ObEm4.s:159    .text:0000000000000080 .LVL7
     /tmp/cc5ObEm4.s:164    .text:0000000000000084 .LVL8
     /tmp/cc5ObEm4.s:70     .text:0000000000000030 .LVL4
     /tmp/cc5ObEm4.s:99     .text:000000000000004c .LVL5
     /tmp/cc5ObEm4.s:14     .text:0000000000000000 .LVL0
     /tmp/cc5ObEm4.s:24     .text:0000000000000010 .LVL1
     /tmp/cc5ObEm4.s:27     .text:0000000000000014 .LVL2
     /tmp/cc5ObEm4.s:50     .text:0000000000000024 .LVL3
     /tmp/cc5ObEm4.s:640    .debug_info:0000000000000000 .Ldebug_info0

NO UNDEFINED SYMBOLS
