GAS LISTING /tmp/ccRumti5.s 			page 1


   1              		.file	"syscalls_c.cpp"
   2              		.option pic
   3              		.option norelax
   4              		.text
   5              	.Ltext0:
   6              		.align	2
   7              		.globl	_Z9mem_allocm
   9              	_Z9mem_allocm:
  10              	.LFB0:
  11              		.file 1 "src/syscalls_c.cpp"
   1:src/syscalls_c.cpp **** /**
   2:src/syscalls_c.cpp ****  * @file syscalls_c.cpp
   3:src/syscalls_c.cpp ****  * @author stcksmsh (vukicevickosta@gmail.com)
   4:src/syscalls_c.cpp ****  * @brief function declarations for the syscalls
   5:src/syscalls_c.cpp ****  * @version 0.1
   6:src/syscalls_c.cpp ****  * @date 2024-01-01
   7:src/syscalls_c.cpp ****  * 
   8:src/syscalls_c.cpp ****  * @copyright Copyright (c) 2024
   9:src/syscalls_c.cpp ****  * 
  10:src/syscalls_c.cpp ****  */
  11:src/syscalls_c.cpp **** 
  12:src/syscalls_c.cpp **** #include "syscalls_c.h"
  13:src/syscalls_c.cpp **** #include "console.h"
  14:src/syscalls_c.cpp **** 
  15:src/syscalls_c.cpp **** void* mem_alloc ( size_t nSize ){
  12              		.loc 1 15 33
  13              		.cfi_startproc
  14              	.LVL0:
  15 0000 130101FF 		addi	sp,sp,-16
  16              		.cfi_def_cfa_offset 16
  17 0004 23348100 		sd	s0,8(sp)
  18              		.cfi_offset 8, -8
  19 0008 13040101 		addi	s0,sp,16
  20              		.cfi_def_cfa 8, 0
  16:src/syscalls_c.cpp ****     /// round nSize to the next multiple of MEM_BLOCK_SIZE and then divide by MEM_BLOCK_SIZE
  17:src/syscalls_c.cpp ****     nSize = (nSize + MEM_BLOCK_SIZE - 1) / MEM_BLOCK_SIZE;
  21              		.loc 1 17 5
  22              		.loc 1 17 37 is_stmt 0
  23 000c 1305F503 		addi	a0,a0,63
  24              	.LVL1:
  25              		.loc 1 17 11
  26 0010 13556500 		srli	a0,a0,6
  27              	.LVL2:
  18:src/syscalls_c.cpp ****     __asm__ volatile ("mv a1, %0" :: "r"(nSize));
  28              		.loc 1 18 5 is_stmt 1
  29              		.loc 1 18 49 is_stmt 0
  30              	#APP
  31              	# 18 "src/syscalls_c.cpp" 1
  19              	    __asm__ volatile ("li a0, 0x1");
  32              		mv a1, a0
  33              	# 0 "" 2
  34              		.loc 1 19 5 is_stmt 1
  35              		.loc 1 19 36 is_stmt 0
  36              	# 19 "src/syscalls_c.cpp" 1
  20              	    __asm__ volatile ("ecall");
  37              		li a0, 0x1
  38              	# 0 "" 2
GAS LISTING /tmp/ccRumti5.s 			page 2


  39              		.loc 1 20 5 is_stmt 1
  40              		.loc 1 20 31 is_stmt 0
  41              	# 20 "src/syscalls_c.cpp" 1
  21              	    uint64 pAddress;
  42              		ecall
  43              	# 0 "" 2
  44              		.loc 1 21 5 is_stmt 1
  22:src/syscalls_c.cpp ****     __asm__ volatile ("mv %0, a0" : "=r"(pAddress));
  45              		.loc 1 22 5
  46              		.loc 1 22 52 is_stmt 0
  47              	# 22 "src/syscalls_c.cpp" 1
  23              	    return (void*)pAddress;
  48              		mv a0, a0
  49              	# 0 "" 2
  50              	.LVL3:
  51              		.loc 1 23 5 is_stmt 1
  24:src/syscalls_c.cpp **** }
  52              		.loc 1 24 1 is_stmt 0
  53              	#NO_APP
  54 0024 03348100 		ld	s0,8(sp)
  55              		.cfi_restore 8
  56              		.cfi_def_cfa 2, 16
  57 0028 13010101 		addi	sp,sp,16
  58              		.cfi_def_cfa_offset 0
  59 002c 67800000 		jr	ra
  60              		.cfi_endproc
  61              	.LFE0:
  63              		.align	2
  64              		.globl	_Z8mem_freePv
  66              	_Z8mem_freePv:
  67              	.LFB1:
  25:src/syscalls_c.cpp **** 
  26:src/syscalls_c.cpp **** int mem_free ( void* pAddress ){
  68              		.loc 1 26 32 is_stmt 1
  69              		.cfi_startproc
  70              	.LVL4:
  71 0030 130101FF 		addi	sp,sp,-16
  72              		.cfi_def_cfa_offset 16
  73 0034 23348100 		sd	s0,8(sp)
  74              		.cfi_offset 8, -8
  75 0038 13040101 		addi	s0,sp,16
  76              		.cfi_def_cfa 8, 0
  27:src/syscalls_c.cpp ****     __asm__ volatile ("mv a1, %0" :: "r"(pAddress));
  77              		.loc 1 27 5
  78              		.loc 1 27 52 is_stmt 0
  79              	#APP
  80              	# 27 "src/syscalls_c.cpp" 1
  28              	    __asm__ volatile ("li a0, 0x2");
  81              		mv a1, a0
  82              	# 0 "" 2
  83              		.loc 1 28 5 is_stmt 1
  84              		.loc 1 28 36 is_stmt 0
  85              	# 28 "src/syscalls_c.cpp" 1
  29              	    __asm__ volatile ("ecall");
  86              		li a0, 0x2
  87              	# 0 "" 2
  88              		.loc 1 29 5 is_stmt 1
GAS LISTING /tmp/ccRumti5.s 			page 3


  89              		.loc 1 29 31 is_stmt 0
  90              	# 29 "src/syscalls_c.cpp" 1
  30              	    int nResult;
  91              		ecall
  92              	# 0 "" 2
  93              		.loc 1 30 5 is_stmt 1
  31:src/syscalls_c.cpp ****     __asm__ volatile ("mv %0, a0" : "=r"(nResult));
  94              		.loc 1 31 5
  95              		.loc 1 31 51 is_stmt 0
  96              	# 31 "src/syscalls_c.cpp" 1
  32              	    return nResult;
  97              		mv a0, a0
  98              	# 0 "" 2
  99              	.LVL5:
 100              		.loc 1 32 5 is_stmt 1
  33:src/syscalls_c.cpp **** 
  34:src/syscalls_c.cpp **** }
 101              		.loc 1 34 1 is_stmt 0
 102              	#NO_APP
 103 004c 1B050500 		sext.w	a0,a0
 104 0050 03348100 		ld	s0,8(sp)
 105              		.cfi_restore 8
 106              		.cfi_def_cfa 2, 16
 107 0054 13010101 		addi	sp,sp,16
 108              		.cfi_def_cfa_offset 0
 109 0058 67800000 		jr	ra
 110              		.cfi_endproc
 111              	.LFE1:
 113              		.align	2
 114              		.globl	_Z13thread_createPP7_threadPFvPvES2_
 116              	_Z13thread_createPP7_threadPFvPvES2_:
 117              	.LFB2:
  35:src/syscalls_c.cpp **** 
  36:src/syscalls_c.cpp **** 
  37:src/syscalls_c.cpp **** int thread_create ( thread_t* handle, void(*function)(void*), void* arg ) {
 118              		.loc 1 37 75 is_stmt 1
 119              		.cfi_startproc
 120              	.LVL6:
 121 005c 130101FD 		addi	sp,sp,-48
 122              		.cfi_def_cfa_offset 48
 123 0060 23341102 		sd	ra,40(sp)
 124 0064 23308102 		sd	s0,32(sp)
 125 0068 233C9100 		sd	s1,24(sp)
 126 006c 23382101 		sd	s2,16(sp)
 127 0070 23343101 		sd	s3,8(sp)
 128              		.cfi_offset 1, -8
 129              		.cfi_offset 8, -16
 130              		.cfi_offset 9, -24
 131              		.cfi_offset 18, -32
 132              		.cfi_offset 19, -40
 133 0074 13040103 		addi	s0,sp,48
 134              		.cfi_def_cfa 8, 0
 135 0078 93040500 		mv	s1,a0
 136 007c 13890500 		mv	s2,a1
 137 0080 93090600 		mv	s3,a2
  38:src/syscalls_c.cpp ****     void *stack_space = mem_alloc(DEFAULT_STACK_SIZE);
 138              		.loc 1 38 5
GAS LISTING /tmp/ccRumti5.s 			page 4


 139              		.loc 1 38 34 is_stmt 0
 140 0084 37150000 		li	a0,4096
 141              	.LVL7:
 142 0088 97000000 		call	_Z9mem_allocm
 142      E7800000 
 143              	.LVL8:
  39:src/syscalls_c.cpp ****     /// now we move the pointer up, since SP points to the first free location, and grows down
  40:src/syscalls_c.cpp ****     __asm__ volatile ("mv a4, %0" : : "r"((uint64)stack_space + DEFAULT_STACK_SIZE));
 144              		.loc 1 40 5 is_stmt 1
 145              		.loc 1 40 63 is_stmt 0
 146 0090 B7170000 		li	a5,4096
 147 0094 3305F500 		add	a0,a0,a5
 148              	.LVL9:
 149              		.loc 1 40 85
 150              	#APP
 151              	# 40 "src/syscalls_c.cpp" 1
  41              	    __asm__ volatile("mv a3,%0" : : "r" ((uint64)arg));
 152              		mv a4, a0
 153              	# 0 "" 2
 154              		.loc 1 41 5 is_stmt 1
 155              		.loc 1 41 55 is_stmt 0
 156              	# 41 "src/syscalls_c.cpp" 1
  42              	    __asm__ volatile("mv a2,%0" : : "r" ((uint64)function));
 157              		mv a3,s3
 158              	# 0 "" 2
 159              		.loc 1 42 5 is_stmt 1
 160              		.loc 1 42 60 is_stmt 0
 161              	# 42 "src/syscalls_c.cpp" 1
  43              	    __asm__ volatile("mv a1,%0" : : "r" ((uint64)handle));
 162              		mv a2,s2
 163              	# 0 "" 2
 164              		.loc 1 43 5 is_stmt 1
 165              		.loc 1 43 58 is_stmt 0
 166              	# 43 "src/syscalls_c.cpp" 1
  44              	    __asm__ volatile("li a0,0x11");
 167              		mv a1,s1
 168              	# 0 "" 2
 169              		.loc 1 44 5 is_stmt 1
 170              		.loc 1 44 35 is_stmt 0
 171              	# 44 "src/syscalls_c.cpp" 1
  45              	    __asm__ volatile("ecall");
 172              		li a0,0x11
 173              	# 0 "" 2
 174              		.loc 1 45 5 is_stmt 1
 175              		.loc 1 45 30 is_stmt 0
 176              	# 45 "src/syscalls_c.cpp" 1
  46              	    uint64 returnValue;
 177              		ecall
 178              	# 0 "" 2
 179              		.loc 1 46 5 is_stmt 1
  47:src/syscalls_c.cpp ****     __asm__ volatile("mv %0, a0" : "=r" (returnValue));
 180              		.loc 1 47 5
 181              		.loc 1 47 55 is_stmt 0
 182              	# 47 "src/syscalls_c.cpp" 1
  48              	    return (int)returnValue;
 183              		mv a0, a0
 184              	# 0 "" 2
GAS LISTING /tmp/ccRumti5.s 			page 5


 185              	.LVL10:
 186              		.loc 1 48 5 is_stmt 1
  49:src/syscalls_c.cpp **** }
 187              		.loc 1 49 1 is_stmt 0
 188              	#NO_APP
 189 00b4 1B050500 		sext.w	a0,a0
 190              	.LVL11:
 191 00b8 83308102 		ld	ra,40(sp)
 192              		.cfi_restore 1
 193 00bc 03340102 		ld	s0,32(sp)
 194              		.cfi_restore 8
 195              		.cfi_def_cfa 2, 48
 196 00c0 83348101 		ld	s1,24(sp)
 197              		.cfi_restore 9
 198              	.LVL12:
 199 00c4 03390101 		ld	s2,16(sp)
 200              		.cfi_restore 18
 201              	.LVL13:
 202 00c8 83398100 		ld	s3,8(sp)
 203              		.cfi_restore 19
 204              	.LVL14:
 205 00cc 13010103 		addi	sp,sp,48
 206              		.cfi_def_cfa_offset 0
 207 00d0 67800000 		jr	ra
 208              		.cfi_endproc
 209              	.LFE2:
 211              		.align	2
 212              		.globl	_Z11thread_exitv
 214              	_Z11thread_exitv:
 215              	.LFB3:
  50:src/syscalls_c.cpp **** 
  51:src/syscalls_c.cpp **** // int thread_createCPP ( thread_t*, void(*)(void*), void* );
  52:src/syscalls_c.cpp **** 
  53:src/syscalls_c.cpp **** int thread_exit (){
 216              		.loc 1 53 19 is_stmt 1
 217              		.cfi_startproc
 218 00d4 130101FF 		addi	sp,sp,-16
 219              		.cfi_def_cfa_offset 16
 220 00d8 23348100 		sd	s0,8(sp)
 221              		.cfi_offset 8, -8
 222 00dc 13040101 		addi	s0,sp,16
 223              		.cfi_def_cfa 8, 0
  54:src/syscalls_c.cpp ****     __asm__ volatile("li a0,0x12");
 224              		.loc 1 54 5
 225              		.loc 1 54 35 is_stmt 0
 226              	#APP
 227              	# 54 "src/syscalls_c.cpp" 1
  55              	    __asm__ volatile("ecall");
 228              		li a0,0x12
 229              	# 0 "" 2
 230              		.loc 1 55 5 is_stmt 1
 231              		.loc 1 55 30 is_stmt 0
 232              	# 55 "src/syscalls_c.cpp" 1
  56              	    return 0;
 233              		ecall
 234              	# 0 "" 2
 235              		.loc 1 56 5 is_stmt 1
GAS LISTING /tmp/ccRumti5.s 			page 6


  57:src/syscalls_c.cpp **** }
 236              		.loc 1 57 1 is_stmt 0
 237              	#NO_APP
 238 00e8 13050000 		li	a0,0
 239 00ec 03348100 		ld	s0,8(sp)
 240              		.cfi_restore 8
 241              		.cfi_def_cfa 2, 16
 242 00f0 13010101 		addi	sp,sp,16
 243              		.cfi_def_cfa_offset 0
 244 00f4 67800000 		jr	ra
 245              		.cfi_endproc
 246              	.LFE3:
 248              		.align	2
 249              		.globl	_Z15thread_dispatchv
 251              	_Z15thread_dispatchv:
 252              	.LFB4:
  58:src/syscalls_c.cpp **** 
  59:src/syscalls_c.cpp **** void thread_dispatch () {
 253              		.loc 1 59 25 is_stmt 1
 254              		.cfi_startproc
 255 00f8 130101FF 		addi	sp,sp,-16
 256              		.cfi_def_cfa_offset 16
 257 00fc 23348100 		sd	s0,8(sp)
 258              		.cfi_offset 8, -8
 259 0100 13040101 		addi	s0,sp,16
 260              		.cfi_def_cfa 8, 0
  60:src/syscalls_c.cpp ****     __asm__ volatile("li a0,0x13");
 261              		.loc 1 60 5
 262              		.loc 1 60 35 is_stmt 0
 263              	#APP
 264              	# 60 "src/syscalls_c.cpp" 1
  61              	    __asm__ volatile("ecall");
 265              		li a0,0x13
 266              	# 0 "" 2
 267              		.loc 1 61 5 is_stmt 1
 268              		.loc 1 61 30 is_stmt 0
 269              	# 61 "src/syscalls_c.cpp" 1
  62              	}
 270              		ecall
 271              	# 0 "" 2
 272              		.loc 1 62 1
 273              	#NO_APP
 274 010c 03348100 		ld	s0,8(sp)
 275              		.cfi_restore 8
 276              		.cfi_def_cfa 2, 16
 277 0110 13010101 		addi	sp,sp,16
 278              		.cfi_def_cfa_offset 0
 279 0114 67800000 		jr	ra
 280              		.cfi_endproc
 281              	.LFE4:
 283              		.align	2
 284              		.globl	_Z11thread_joinP7_thread
 286              	_Z11thread_joinP7_thread:
 287              	.LFB5:
  63:src/syscalls_c.cpp **** 
  64:src/syscalls_c.cpp **** void thread_join ( thread_t handle ) {
 288              		.loc 1 64 38 is_stmt 1
GAS LISTING /tmp/ccRumti5.s 			page 7


 289              		.cfi_startproc
 290              	.LVL15:
 291 0118 130101FF 		addi	sp,sp,-16
 292              		.cfi_def_cfa_offset 16
 293 011c 23348100 		sd	s0,8(sp)
 294              		.cfi_offset 8, -8
 295 0120 13040101 		addi	s0,sp,16
 296              		.cfi_def_cfa 8, 0
  65:src/syscalls_c.cpp ****     __asm__ volatile("mv a1, %0" : : "r"((uint64)handle));
 297              		.loc 1 65 5
 298              		.loc 1 65 58 is_stmt 0
 299              	#APP
 300              	# 65 "src/syscalls_c.cpp" 1
  66              	    __asm__ volatile("li a0, 0x14");
 301              		mv a1, a0
 302              	# 0 "" 2
 303              		.loc 1 66 5 is_stmt 1
 304              		.loc 1 66 36 is_stmt 0
 305              	# 66 "src/syscalls_c.cpp" 1
  67              	    __asm__ volatile("ecall");
 306              		li a0, 0x14
 307              	# 0 "" 2
 308              		.loc 1 67 5 is_stmt 1
 309              		.loc 1 67 30 is_stmt 0
 310              	# 67 "src/syscalls_c.cpp" 1
  68              	}
 311              		ecall
 312              	# 0 "" 2
 313              		.loc 1 68 1
 314              	#NO_APP
 315 0130 03348100 		ld	s0,8(sp)
 316              		.cfi_restore 8
 317              		.cfi_def_cfa 2, 16
 318 0134 13010101 		addi	sp,sp,16
 319              		.cfi_def_cfa_offset 0
 320 0138 67800000 		jr	ra
 321              		.cfi_endproc
 322              	.LFE5:
 324              		.align	2
 325              		.globl	_Z10time_sleepm
 327              	_Z10time_sleepm:
 328              	.LFB6:
  69:src/syscalls_c.cpp **** 
  70:src/syscalls_c.cpp **** int time_sleep( time_t duration ) {
 329              		.loc 1 70 35 is_stmt 1
 330              		.cfi_startproc
 331              	.LVL16:
 332 013c 130101FF 		addi	sp,sp,-16
 333              		.cfi_def_cfa_offset 16
 334 0140 23348100 		sd	s0,8(sp)
 335              		.cfi_offset 8, -8
 336 0144 13040101 		addi	s0,sp,16
 337              		.cfi_def_cfa 8, 0
  71:src/syscalls_c.cpp ****     __asm__ volatile("mv a1, %0" : : "r"(duration));
 338              		.loc 1 71 5
 339              		.loc 1 71 52 is_stmt 0
 340              	#APP
GAS LISTING /tmp/ccRumti5.s 			page 8


 341              	# 71 "src/syscalls_c.cpp" 1
  72              	    __asm__ volatile("li a0, 0x31");
 342              		mv a1, a0
 343              	# 0 "" 2
 344              		.loc 1 72 5 is_stmt 1
 345              		.loc 1 72 36 is_stmt 0
 346              	# 72 "src/syscalls_c.cpp" 1
  73              	    __asm__ volatile("ecall");
 347              		li a0, 0x31
 348              	# 0 "" 2
 349              		.loc 1 73 5 is_stmt 1
 350              		.loc 1 73 30 is_stmt 0
 351              	# 73 "src/syscalls_c.cpp" 1
  74              	    uint64 returnValue;
 352              		ecall
 353              	# 0 "" 2
 354              		.loc 1 74 5 is_stmt 1
  75:src/syscalls_c.cpp ****     __asm__ volatile("mv %0, a0" : "=r"(returnValue));
 355              		.loc 1 75 5
 356              		.loc 1 75 54 is_stmt 0
 357              	# 75 "src/syscalls_c.cpp" 1
  76              	    return (int)returnValue;
 358              		mv a0, a0
 359              	# 0 "" 2
 360              	.LVL17:
 361              		.loc 1 76 5 is_stmt 1
  77:src/syscalls_c.cpp **** }
 362              		.loc 1 77 1 is_stmt 0
 363              	#NO_APP
 364 0158 1B050500 		sext.w	a0,a0
 365              	.LVL18:
 366 015c 03348100 		ld	s0,8(sp)
 367              		.cfi_restore 8
 368              		.cfi_def_cfa 2, 16
 369 0160 13010101 		addi	sp,sp,16
 370              		.cfi_def_cfa_offset 0
 371 0164 67800000 		jr	ra
 372              		.cfi_endproc
 373              	.LFE6:
 375              		.align	2
 376              		.globl	_Z8sem_openPP4_semj
 378              	_Z8sem_openPP4_semj:
 379              	.LFB7:
  78:src/syscalls_c.cpp **** 
  79:src/syscalls_c.cpp **** int sem_open ( sem_t* handle, unsigned init ) {
 380              		.loc 1 79 47 is_stmt 1
 381              		.cfi_startproc
 382              	.LVL19:
 383 0168 130101FF 		addi	sp,sp,-16
 384              		.cfi_def_cfa_offset 16
 385 016c 23348100 		sd	s0,8(sp)
 386              		.cfi_offset 8, -8
 387 0170 13040101 		addi	s0,sp,16
 388              		.cfi_def_cfa 8, 0
  80:src/syscalls_c.cpp ****     __asm__ volatile("mv a2, %0"::"r"((uint64)init));
 389              		.loc 1 80 5
 390              		.loc 1 80 39 is_stmt 0
GAS LISTING /tmp/ccRumti5.s 			page 9


 391 0174 93950502 		slli	a1,a1,32
 392              	.LVL20:
 393 0178 93D50502 		srli	a1,a1,32
 394              		.loc 1 80 53
 395              	#APP
 396              	# 80 "src/syscalls_c.cpp" 1
  81              	
  82:src/syscalls_c.cpp ****     __asm__ volatile("mv a1,%0":: "r"((uint64)handle));
 397              		mv a2, a1
 398              	# 0 "" 2
 399              		.loc 1 82 5 is_stmt 1
 400              		.loc 1 82 55 is_stmt 0
 401              	# 82 "src/syscalls_c.cpp" 1
  83              	    __asm__ volatile("li a0,0x21");
 402              		mv a1,a0
 403              	# 0 "" 2
 404              		.loc 1 83 5 is_stmt 1
 405              		.loc 1 83 35 is_stmt 0
 406              	# 83 "src/syscalls_c.cpp" 1
  84              	    __asm__ volatile("ecall");
 407              		li a0,0x21
 408              	# 0 "" 2
 409              		.loc 1 84 5 is_stmt 1
 410              		.loc 1 84 30 is_stmt 0
 411              	# 84 "src/syscalls_c.cpp" 1
  85              	    uint64 returnValue;
 412              		ecall
 413              	# 0 "" 2
 414              		.loc 1 85 5 is_stmt 1
  86:src/syscalls_c.cpp ****     __asm__ volatile("mv %0, a0" : "=r" (returnValue));
 415              		.loc 1 86 5
 416              		.loc 1 86 55 is_stmt 0
 417              	# 86 "src/syscalls_c.cpp" 1
  87              	    return (int)returnValue;
 418              		mv a0, a0
 419              	# 0 "" 2
 420              	.LVL21:
 421              		.loc 1 87 5 is_stmt 1
  88:src/syscalls_c.cpp **** }
 422              		.loc 1 88 1 is_stmt 0
 423              	#NO_APP
 424 0190 1B050500 		sext.w	a0,a0
 425              	.LVL22:
 426 0194 03348100 		ld	s0,8(sp)
 427              		.cfi_restore 8
 428              		.cfi_def_cfa 2, 16
 429 0198 13010101 		addi	sp,sp,16
 430              		.cfi_def_cfa_offset 0
 431 019c 67800000 		jr	ra
 432              		.cfi_endproc
 433              	.LFE7:
 435              		.align	2
 436              		.globl	_Z9sem_closeP4_sem
 438              	_Z9sem_closeP4_sem:
 439              	.LFB8:
  89:src/syscalls_c.cpp **** 
  90:src/syscalls_c.cpp **** int sem_close ( sem_t handle ) {
GAS LISTING /tmp/ccRumti5.s 			page 10


 440              		.loc 1 90 32 is_stmt 1
 441              		.cfi_startproc
 442              	.LVL23:
 443 01a0 130101FF 		addi	sp,sp,-16
 444              		.cfi_def_cfa_offset 16
 445 01a4 23348100 		sd	s0,8(sp)
 446              		.cfi_offset 8, -8
 447 01a8 13040101 		addi	s0,sp,16
 448              		.cfi_def_cfa 8, 0
  91:src/syscalls_c.cpp ****     __asm__ volatile("mv a1,%0"::"r"((uint64)handle));
 449              		.loc 1 91 5
 450              		.loc 1 91 54 is_stmt 0
 451              	#APP
 452              	# 91 "src/syscalls_c.cpp" 1
  92              	    __asm__ volatile("li a0,0x22");
 453              		mv a1,a0
 454              	# 0 "" 2
 455              		.loc 1 92 5 is_stmt 1
 456              		.loc 1 92 35 is_stmt 0
 457              	# 92 "src/syscalls_c.cpp" 1
  93              	    __asm__ volatile("ecall");
 458              		li a0,0x22
 459              	# 0 "" 2
 460              		.loc 1 93 5 is_stmt 1
 461              		.loc 1 93 30 is_stmt 0
 462              	# 93 "src/syscalls_c.cpp" 1
  94              	    uint64 returnValue;
 463              		ecall
 464              	# 0 "" 2
 465              		.loc 1 94 5 is_stmt 1
  95:src/syscalls_c.cpp ****     __asm__ volatile("mv %0, a0" : "=r" (returnValue));
 466              		.loc 1 95 5
 467              		.loc 1 95 55 is_stmt 0
 468              	# 95 "src/syscalls_c.cpp" 1
  96              	    return (int)returnValue;
 469              		mv a0, a0
 470              	# 0 "" 2
 471              	.LVL24:
 472              		.loc 1 96 5 is_stmt 1
  97:src/syscalls_c.cpp **** }
 473              		.loc 1 97 1 is_stmt 0
 474              	#NO_APP
 475 01bc 1B050500 		sext.w	a0,a0
 476              	.LVL25:
 477 01c0 03348100 		ld	s0,8(sp)
 478              		.cfi_restore 8
 479              		.cfi_def_cfa 2, 16
 480 01c4 13010101 		addi	sp,sp,16
 481              		.cfi_def_cfa_offset 0
 482 01c8 67800000 		jr	ra
 483              		.cfi_endproc
 484              	.LFE8:
 486              		.align	2
 487              		.globl	_Z8sem_waitP4_sem
 489              	_Z8sem_waitP4_sem:
 490              	.LFB9:
  98:src/syscalls_c.cpp **** 
GAS LISTING /tmp/ccRumti5.s 			page 11


  99:src/syscalls_c.cpp **** int sem_wait ( sem_t handle ) {
 491              		.loc 1 99 31 is_stmt 1
 492              		.cfi_startproc
 493              	.LVL26:
 494 01cc 130101FF 		addi	sp,sp,-16
 495              		.cfi_def_cfa_offset 16
 496 01d0 23348100 		sd	s0,8(sp)
 497              		.cfi_offset 8, -8
 498 01d4 13040101 		addi	s0,sp,16
 499              		.cfi_def_cfa 8, 0
 100:src/syscalls_c.cpp ****     __asm__ volatile("mv a1,%0"::"r"((uint64)handle));
 500              		.loc 1 100 5
 501              		.loc 1 100 54 is_stmt 0
 502              	#APP
 503              	# 100 "src/syscalls_c.cpp" 1
 101              	    __asm__ volatile("li a0,0x23");
 504              		mv a1,a0
 505              	# 0 "" 2
 506              		.loc 1 101 5 is_stmt 1
 507              		.loc 1 101 35 is_stmt 0
 508              	# 101 "src/syscalls_c.cpp" 1
 102              	    __asm__ volatile("ecall");
 509              		li a0,0x23
 510              	# 0 "" 2
 511              		.loc 1 102 5 is_stmt 1
 512              		.loc 1 102 30 is_stmt 0
 513              	# 102 "src/syscalls_c.cpp" 1
 103              	    uint64 returnValue;
 514              		ecall
 515              	# 0 "" 2
 516              		.loc 1 103 5 is_stmt 1
 104:src/syscalls_c.cpp ****     __asm__ volatile("mv %0, a0" : "=r" (returnValue));
 517              		.loc 1 104 5
 518              		.loc 1 104 55 is_stmt 0
 519              	# 104 "src/syscalls_c.cpp" 1
 105              	    return (int)returnValue;
 520              		mv a0, a0
 521              	# 0 "" 2
 522              	.LVL27:
 523              		.loc 1 105 5 is_stmt 1
 106:src/syscalls_c.cpp **** }
 524              		.loc 1 106 1 is_stmt 0
 525              	#NO_APP
 526 01e8 1B050500 		sext.w	a0,a0
 527              	.LVL28:
 528 01ec 03348100 		ld	s0,8(sp)
 529              		.cfi_restore 8
 530              		.cfi_def_cfa 2, 16
 531 01f0 13010101 		addi	sp,sp,16
 532              		.cfi_def_cfa_offset 0
 533 01f4 67800000 		jr	ra
 534              		.cfi_endproc
 535              	.LFE9:
 537              		.align	2
 538              		.globl	_Z10sem_signalP4_sem
 540              	_Z10sem_signalP4_sem:
 541              	.LFB10:
GAS LISTING /tmp/ccRumti5.s 			page 12


 107:src/syscalls_c.cpp **** 
 108:src/syscalls_c.cpp **** int sem_signal ( sem_t handle ) {
 542              		.loc 1 108 33 is_stmt 1
 543              		.cfi_startproc
 544              	.LVL29:
 545 01f8 130101FF 		addi	sp,sp,-16
 546              		.cfi_def_cfa_offset 16
 547 01fc 23348100 		sd	s0,8(sp)
 548              		.cfi_offset 8, -8
 549 0200 13040101 		addi	s0,sp,16
 550              		.cfi_def_cfa 8, 0
 109:src/syscalls_c.cpp ****     __asm__ volatile("mv a1,%0"::"r"((uint64)handle));
 551              		.loc 1 109 5
 552              		.loc 1 109 54 is_stmt 0
 553              	#APP
 554              	# 109 "src/syscalls_c.cpp" 1
 110              	    __asm__ volatile("li a0,0x24");
 555              		mv a1,a0
 556              	# 0 "" 2
 557              		.loc 1 110 5 is_stmt 1
 558              		.loc 1 110 35 is_stmt 0
 559              	# 110 "src/syscalls_c.cpp" 1
 111              	    __asm__ volatile("ecall");
 560              		li a0,0x24
 561              	# 0 "" 2
 562              		.loc 1 111 5 is_stmt 1
 563              		.loc 1 111 30 is_stmt 0
 564              	# 111 "src/syscalls_c.cpp" 1
 112              	    uint64 returnValue;
 565              		ecall
 566              	# 0 "" 2
 567              		.loc 1 112 5 is_stmt 1
 113:src/syscalls_c.cpp ****     __asm__ volatile("mv %0, a0" : "=r" (returnValue));
 568              		.loc 1 113 5
 569              		.loc 1 113 55 is_stmt 0
 570              	# 113 "src/syscalls_c.cpp" 1
 114              	    return (int)returnValue;
 571              		mv a0, a0
 572              	# 0 "" 2
 573              	.LVL30:
 574              		.loc 1 114 5 is_stmt 1
 115:src/syscalls_c.cpp **** }
 575              		.loc 1 115 1 is_stmt 0
 576              	#NO_APP
 577 0214 1B050500 		sext.w	a0,a0
 578              	.LVL31:
 579 0218 03348100 		ld	s0,8(sp)
 580              		.cfi_restore 8
 581              		.cfi_def_cfa 2, 16
 582 021c 13010101 		addi	sp,sp,16
 583              		.cfi_def_cfa_offset 0
 584 0220 67800000 		jr	ra
 585              		.cfi_endproc
 586              	.LFE10:
 588              		.align	2
 589              		.globl	_Z4getcv
 591              	_Z4getcv:
GAS LISTING /tmp/ccRumti5.s 			page 13


 592              	.LFB11:
 116:src/syscalls_c.cpp **** 
 117:src/syscalls_c.cpp **** char getc() {
 593              		.loc 1 117 13 is_stmt 1
 594              		.cfi_startproc
 595 0224 130101FF 		addi	sp,sp,-16
 596              		.cfi_def_cfa_offset 16
 597 0228 23348100 		sd	s0,8(sp)
 598              		.cfi_offset 8, -8
 599 022c 13040101 		addi	s0,sp,16
 600              		.cfi_def_cfa 8, 0
 118:src/syscalls_c.cpp ****     __asm__ volatile ("li a0, 0x41");
 601              		.loc 1 118 5
 602              		.loc 1 118 37 is_stmt 0
 603              	#APP
 604              	# 118 "src/syscalls_c.cpp" 1
 119              	    __asm__ volatile ("ecall");
 605              		li a0, 0x41
 606              	# 0 "" 2
 607              		.loc 1 119 5 is_stmt 1
 608              		.loc 1 119 31 is_stmt 0
 609              	# 119 "src/syscalls_c.cpp" 1
 120              	    char chr;
 610              		ecall
 611              	# 0 "" 2
 612              		.loc 1 120 5 is_stmt 1
 121:src/syscalls_c.cpp ****     __asm__ volatile ("mv %0, a0" : "=r"(chr));
 613              		.loc 1 121 5
 614              		.loc 1 121 47 is_stmt 0
 615              	# 121 "src/syscalls_c.cpp" 1
 122              	    return chr;
 616              		mv a0, a0
 617              	# 0 "" 2
 618              	.LVL32:
 619              		.loc 1 122 5 is_stmt 1
 123:src/syscalls_c.cpp **** }
 620              		.loc 1 123 1 is_stmt 0
 621              	#NO_APP
 622 023c 1375F50F 		andi	a0,a0,0xff
 623 0240 03348100 		ld	s0,8(sp)
 624              		.cfi_restore 8
 625              		.cfi_def_cfa 2, 16
 626 0244 13010101 		addi	sp,sp,16
 627              		.cfi_def_cfa_offset 0
 628 0248 67800000 		jr	ra
 629              		.cfi_endproc
 630              	.LFE11:
 632              		.align	2
 633              		.globl	_Z4putcc
 635              	_Z4putcc:
 636              	.LFB12:
 124:src/syscalls_c.cpp **** 
 125:src/syscalls_c.cpp **** #include "console.h"
 126:src/syscalls_c.cpp **** 
 127:src/syscalls_c.cpp **** void putc(char chr ) {
 637              		.loc 1 127 22 is_stmt 1
 638              		.cfi_startproc
GAS LISTING /tmp/ccRumti5.s 			page 14


 639              	.LVL33:
 640 024c 130101FF 		addi	sp,sp,-16
 641              		.cfi_def_cfa_offset 16
 642 0250 23348100 		sd	s0,8(sp)
 643              		.cfi_offset 8, -8
 644 0254 13040101 		addi	s0,sp,16
 645              		.cfi_def_cfa 8, 0
 128:src/syscalls_c.cpp ****     __asm__ volatile("mv a1,%0"::"r"(chr));
 646              		.loc 1 128 5
 647              		.loc 1 128 43 is_stmt 0
 648              	#APP
 649              	# 128 "src/syscalls_c.cpp" 1
 129              	    __asm__ volatile("li a0,0x42");
 650              		mv a1,a0
 651              	# 0 "" 2
 652              		.loc 1 129 5 is_stmt 1
 653              		.loc 1 129 35 is_stmt 0
 654              	# 129 "src/syscalls_c.cpp" 1
 130              	    __asm__ volatile("ecall");
 655              		li a0,0x42
 656              	# 0 "" 2
 657              		.loc 1 130 5 is_stmt 1
 658              		.loc 1 130 30 is_stmt 0
 659              	# 130 "src/syscalls_c.cpp" 1
 131              	}...
 660              		ecall
 661              	# 0 "" 2
 662              		.loc 1 131 1
 663              	#NO_APP
 664 0264 03348100 		ld	s0,8(sp)
 665              		.cfi_restore 8
 666              		.cfi_def_cfa 2, 16
 667 0268 13010101 		addi	sp,sp,16
 668              		.cfi_def_cfa_offset 0
 669 026c 67800000 		jr	ra
 670              		.cfi_endproc
 671              	.LFE12:
 673              	.Letext0:
 674              		.file 2 "./lib/hw.h"
 675              		.file 3 "./h/syscalls_c.h"
GAS LISTING /tmp/ccRumti5.s 			page 15


DEFINED SYMBOLS
                            *ABS*:0000000000000000 syscalls_c.cpp
     /tmp/ccRumti5.s:9      .text:0000000000000000 _Z9mem_allocm
     /tmp/ccRumti5.s:13     .text:0000000000000000 .L0 
     /tmp/ccRumti5.s:15     .text:0000000000000000 .L0 
     /tmp/ccRumti5.s:16     .text:0000000000000004 .L0 
     /tmp/ccRumti5.s:18     .text:0000000000000008 .L0 
     /tmp/ccRumti5.s:20     .text:000000000000000c .L0 
     /tmp/ccRumti5.s:22     .text:000000000000000c .L0 
     /tmp/ccRumti5.s:23     .text:000000000000000c .L0 
     /tmp/ccRumti5.s:26     .text:0000000000000010 .L0 
     /tmp/ccRumti5.s:29     .text:0000000000000014 .L0 
  src/syscalls_c.cpp:18     .text:0000000000000014 .L0 
     /tmp/ccRumti5.s:35     .text:0000000000000018 .L0 
  src/syscalls_c.cpp:19     .text:0000000000000018 .L0 
     /tmp/ccRumti5.s:40     .text:000000000000001c .L0 
  src/syscalls_c.cpp:20     .text:000000000000001c .L0 
     /tmp/ccRumti5.s:45     .text:0000000000000020 .L0 
     /tmp/ccRumti5.s:46     .text:0000000000000020 .L0 
  src/syscalls_c.cpp:22     .text:0000000000000020 .L0 
     /tmp/ccRumti5.s:52     .text:0000000000000024 .L0 
     /tmp/ccRumti5.s:54     .text:0000000000000024 .L0 
     /tmp/ccRumti5.s:55     .text:0000000000000028 .L0 
     /tmp/ccRumti5.s:56     .text:0000000000000028 .L0 
     /tmp/ccRumti5.s:58     .text:000000000000002c .L0 
     /tmp/ccRumti5.s:60     .text:0000000000000030 .L0 
     /tmp/ccRumti5.s:66     .text:0000000000000030 _Z8mem_freePv
     /tmp/ccRumti5.s:69     .text:0000000000000030 .L0 
     /tmp/ccRumti5.s:71     .text:0000000000000030 .L0 
     /tmp/ccRumti5.s:72     .text:0000000000000034 .L0 
     /tmp/ccRumti5.s:74     .text:0000000000000038 .L0 
     /tmp/ccRumti5.s:76     .text:000000000000003c .L0 
     /tmp/ccRumti5.s:78     .text:000000000000003c .L0 
  src/syscalls_c.cpp:27     .text:000000000000003c .L0 
     /tmp/ccRumti5.s:84     .text:0000000000000040 .L0 
  src/syscalls_c.cpp:28     .text:0000000000000040 .L0 
     /tmp/ccRumti5.s:89     .text:0000000000000044 .L0 
  src/syscalls_c.cpp:29     .text:0000000000000044 .L0 
     /tmp/ccRumti5.s:94     .text:0000000000000048 .L0 
     /tmp/ccRumti5.s:95     .text:0000000000000048 .L0 
  src/syscalls_c.cpp:31     .text:0000000000000048 .L0 
     /tmp/ccRumti5.s:101    .text:000000000000004c .L0 
     /tmp/ccRumti5.s:103    .text:000000000000004c .L0 
     /tmp/ccRumti5.s:105    .text:0000000000000054 .L0 
     /tmp/ccRumti5.s:106    .text:0000000000000054 .L0 
     /tmp/ccRumti5.s:108    .text:0000000000000058 .L0 
     /tmp/ccRumti5.s:110    .text:000000000000005c .L0 
     /tmp/ccRumti5.s:116    .text:000000000000005c _Z13thread_createPP7_threadPFvPvES2_
     /tmp/ccRumti5.s:119    .text:000000000000005c .L0 
     /tmp/ccRumti5.s:121    .text:000000000000005c .L0 
     /tmp/ccRumti5.s:122    .text:0000000000000060 .L0 
     /tmp/ccRumti5.s:128    .text:0000000000000074 .L0 
     /tmp/ccRumti5.s:129    .text:0000000000000074 .L0 
     /tmp/ccRumti5.s:130    .text:0000000000000074 .L0 
     /tmp/ccRumti5.s:131    .text:0000000000000074 .L0 
     /tmp/ccRumti5.s:132    .text:0000000000000074 .L0 
     /tmp/ccRumti5.s:134    .text:0000000000000078 .L0 
GAS LISTING /tmp/ccRumti5.s 			page 16


     /tmp/ccRumti5.s:139    .text:0000000000000084 .L0 
     /tmp/ccRumti5.s:140    .text:0000000000000084 .L0 
     /tmp/ccRumti5.s:145    .text:0000000000000090 .L0 
     /tmp/ccRumti5.s:146    .text:0000000000000090 .L0 
  src/syscalls_c.cpp:40     .text:0000000000000098 .L0 
     /tmp/ccRumti5.s:155    .text:000000000000009c .L0 
  src/syscalls_c.cpp:41     .text:000000000000009c .L0 
     /tmp/ccRumti5.s:160    .text:00000000000000a0 .L0 
  src/syscalls_c.cpp:42     .text:00000000000000a0 .L0 
     /tmp/ccRumti5.s:165    .text:00000000000000a4 .L0 
  src/syscalls_c.cpp:43     .text:00000000000000a4 .L0 
     /tmp/ccRumti5.s:170    .text:00000000000000a8 .L0 
  src/syscalls_c.cpp:44     .text:00000000000000a8 .L0 
     /tmp/ccRumti5.s:175    .text:00000000000000ac .L0 
  src/syscalls_c.cpp:45     .text:00000000000000ac .L0 
     /tmp/ccRumti5.s:180    .text:00000000000000b0 .L0 
     /tmp/ccRumti5.s:181    .text:00000000000000b0 .L0 
  src/syscalls_c.cpp:47     .text:00000000000000b0 .L0 
     /tmp/ccRumti5.s:187    .text:00000000000000b4 .L0 
     /tmp/ccRumti5.s:189    .text:00000000000000b4 .L0 
     /tmp/ccRumti5.s:192    .text:00000000000000bc .L0 
     /tmp/ccRumti5.s:194    .text:00000000000000c0 .L0 
     /tmp/ccRumti5.s:195    .text:00000000000000c0 .L0 
     /tmp/ccRumti5.s:197    .text:00000000000000c4 .L0 
     /tmp/ccRumti5.s:200    .text:00000000000000c8 .L0 
     /tmp/ccRumti5.s:203    .text:00000000000000cc .L0 
     /tmp/ccRumti5.s:206    .text:00000000000000d0 .L0 
     /tmp/ccRumti5.s:208    .text:00000000000000d4 .L0 
     /tmp/ccRumti5.s:214    .text:00000000000000d4 _Z11thread_exitv
     /tmp/ccRumti5.s:217    .text:00000000000000d4 .L0 
     /tmp/ccRumti5.s:218    .text:00000000000000d4 .L0 
     /tmp/ccRumti5.s:219    .text:00000000000000d8 .L0 
     /tmp/ccRumti5.s:221    .text:00000000000000dc .L0 
     /tmp/ccRumti5.s:223    .text:00000000000000e0 .L0 
     /tmp/ccRumti5.s:225    .text:00000000000000e0 .L0 
  src/syscalls_c.cpp:54     .text:00000000000000e0 .L0 
     /tmp/ccRumti5.s:231    .text:00000000000000e4 .L0 
  src/syscalls_c.cpp:55     .text:00000000000000e4 .L0 
     /tmp/ccRumti5.s:236    .text:00000000000000e8 .L0 
     /tmp/ccRumti5.s:238    .text:00000000000000e8 .L0 
     /tmp/ccRumti5.s:240    .text:00000000000000f0 .L0 
     /tmp/ccRumti5.s:241    .text:00000000000000f0 .L0 
     /tmp/ccRumti5.s:243    .text:00000000000000f4 .L0 
     /tmp/ccRumti5.s:245    .text:00000000000000f8 .L0 
     /tmp/ccRumti5.s:251    .text:00000000000000f8 _Z15thread_dispatchv
     /tmp/ccRumti5.s:254    .text:00000000000000f8 .L0 
     /tmp/ccRumti5.s:255    .text:00000000000000f8 .L0 
     /tmp/ccRumti5.s:256    .text:00000000000000fc .L0 
     /tmp/ccRumti5.s:258    .text:0000000000000100 .L0 
     /tmp/ccRumti5.s:260    .text:0000000000000104 .L0 
     /tmp/ccRumti5.s:262    .text:0000000000000104 .L0 
  src/syscalls_c.cpp:60     .text:0000000000000104 .L0 
     /tmp/ccRumti5.s:268    .text:0000000000000108 .L0 
  src/syscalls_c.cpp:61     .text:0000000000000108 .L0 
     /tmp/ccRumti5.s:274    .text:000000000000010c .L0 
     /tmp/ccRumti5.s:275    .text:0000000000000110 .L0 
     /tmp/ccRumti5.s:276    .text:0000000000000110 .L0 
GAS LISTING /tmp/ccRumti5.s 			page 17


     /tmp/ccRumti5.s:278    .text:0000000000000114 .L0 
     /tmp/ccRumti5.s:280    .text:0000000000000118 .L0 
     /tmp/ccRumti5.s:286    .text:0000000000000118 _Z11thread_joinP7_thread
     /tmp/ccRumti5.s:289    .text:0000000000000118 .L0 
     /tmp/ccRumti5.s:291    .text:0000000000000118 .L0 
     /tmp/ccRumti5.s:292    .text:000000000000011c .L0 
     /tmp/ccRumti5.s:294    .text:0000000000000120 .L0 
     /tmp/ccRumti5.s:296    .text:0000000000000124 .L0 
     /tmp/ccRumti5.s:298    .text:0000000000000124 .L0 
  src/syscalls_c.cpp:65     .text:0000000000000124 .L0 
     /tmp/ccRumti5.s:304    .text:0000000000000128 .L0 
  src/syscalls_c.cpp:66     .text:0000000000000128 .L0 
     /tmp/ccRumti5.s:309    .text:000000000000012c .L0 
  src/syscalls_c.cpp:67     .text:000000000000012c .L0 
     /tmp/ccRumti5.s:315    .text:0000000000000130 .L0 
     /tmp/ccRumti5.s:316    .text:0000000000000134 .L0 
     /tmp/ccRumti5.s:317    .text:0000000000000134 .L0 
     /tmp/ccRumti5.s:319    .text:0000000000000138 .L0 
     /tmp/ccRumti5.s:321    .text:000000000000013c .L0 
     /tmp/ccRumti5.s:327    .text:000000000000013c _Z10time_sleepm
     /tmp/ccRumti5.s:330    .text:000000000000013c .L0 
     /tmp/ccRumti5.s:332    .text:000000000000013c .L0 
     /tmp/ccRumti5.s:333    .text:0000000000000140 .L0 
     /tmp/ccRumti5.s:335    .text:0000000000000144 .L0 
     /tmp/ccRumti5.s:337    .text:0000000000000148 .L0 
     /tmp/ccRumti5.s:339    .text:0000000000000148 .L0 
  src/syscalls_c.cpp:71     .text:0000000000000148 .L0 
     /tmp/ccRumti5.s:345    .text:000000000000014c .L0 
  src/syscalls_c.cpp:72     .text:000000000000014c .L0 
     /tmp/ccRumti5.s:350    .text:0000000000000150 .L0 
  src/syscalls_c.cpp:73     .text:0000000000000150 .L0 
     /tmp/ccRumti5.s:355    .text:0000000000000154 .L0 
     /tmp/ccRumti5.s:356    .text:0000000000000154 .L0 
  src/syscalls_c.cpp:75     .text:0000000000000154 .L0 
     /tmp/ccRumti5.s:362    .text:0000000000000158 .L0 
     /tmp/ccRumti5.s:364    .text:0000000000000158 .L0 
     /tmp/ccRumti5.s:367    .text:0000000000000160 .L0 
     /tmp/ccRumti5.s:368    .text:0000000000000160 .L0 
     /tmp/ccRumti5.s:370    .text:0000000000000164 .L0 
     /tmp/ccRumti5.s:372    .text:0000000000000168 .L0 
     /tmp/ccRumti5.s:378    .text:0000000000000168 _Z8sem_openPP4_semj
     /tmp/ccRumti5.s:381    .text:0000000000000168 .L0 
     /tmp/ccRumti5.s:383    .text:0000000000000168 .L0 
     /tmp/ccRumti5.s:384    .text:000000000000016c .L0 
     /tmp/ccRumti5.s:386    .text:0000000000000170 .L0 
     /tmp/ccRumti5.s:388    .text:0000000000000174 .L0 
     /tmp/ccRumti5.s:390    .text:0000000000000174 .L0 
     /tmp/ccRumti5.s:391    .text:0000000000000174 .L0 
  src/syscalls_c.cpp:80     .text:000000000000017c .L0 
     /tmp/ccRumti5.s:400    .text:0000000000000180 .L0 
  src/syscalls_c.cpp:82     .text:0000000000000180 .L0 
     /tmp/ccRumti5.s:405    .text:0000000000000184 .L0 
  src/syscalls_c.cpp:83     .text:0000000000000184 .L0 
     /tmp/ccRumti5.s:410    .text:0000000000000188 .L0 
  src/syscalls_c.cpp:84     .text:0000000000000188 .L0 
     /tmp/ccRumti5.s:415    .text:000000000000018c .L0 
     /tmp/ccRumti5.s:416    .text:000000000000018c .L0 
GAS LISTING /tmp/ccRumti5.s 			page 18


  src/syscalls_c.cpp:86     .text:000000000000018c .L0 
     /tmp/ccRumti5.s:422    .text:0000000000000190 .L0 
     /tmp/ccRumti5.s:424    .text:0000000000000190 .L0 
     /tmp/ccRumti5.s:427    .text:0000000000000198 .L0 
     /tmp/ccRumti5.s:428    .text:0000000000000198 .L0 
     /tmp/ccRumti5.s:430    .text:000000000000019c .L0 
     /tmp/ccRumti5.s:432    .text:00000000000001a0 .L0 
     /tmp/ccRumti5.s:438    .text:00000000000001a0 _Z9sem_closeP4_sem
     /tmp/ccRumti5.s:441    .text:00000000000001a0 .L0 
     /tmp/ccRumti5.s:443    .text:00000000000001a0 .L0 
     /tmp/ccRumti5.s:444    .text:00000000000001a4 .L0 
     /tmp/ccRumti5.s:446    .text:00000000000001a8 .L0 
     /tmp/ccRumti5.s:448    .text:00000000000001ac .L0 
     /tmp/ccRumti5.s:450    .text:00000000000001ac .L0 
  src/syscalls_c.cpp:91     .text:00000000000001ac .L0 
     /tmp/ccRumti5.s:456    .text:00000000000001b0 .L0 
  src/syscalls_c.cpp:92     .text:00000000000001b0 .L0 
     /tmp/ccRumti5.s:461    .text:00000000000001b4 .L0 
  src/syscalls_c.cpp:93     .text:00000000000001b4 .L0 
     /tmp/ccRumti5.s:466    .text:00000000000001b8 .L0 
     /tmp/ccRumti5.s:467    .text:00000000000001b8 .L0 
  src/syscalls_c.cpp:95     .text:00000000000001b8 .L0 
     /tmp/ccRumti5.s:473    .text:00000000000001bc .L0 
     /tmp/ccRumti5.s:475    .text:00000000000001bc .L0 
     /tmp/ccRumti5.s:478    .text:00000000000001c4 .L0 
     /tmp/ccRumti5.s:479    .text:00000000000001c4 .L0 
     /tmp/ccRumti5.s:481    .text:00000000000001c8 .L0 
     /tmp/ccRumti5.s:483    .text:00000000000001cc .L0 
     /tmp/ccRumti5.s:489    .text:00000000000001cc _Z8sem_waitP4_sem
     /tmp/ccRumti5.s:492    .text:00000000000001cc .L0 
     /tmp/ccRumti5.s:494    .text:00000000000001cc .L0 
     /tmp/ccRumti5.s:495    .text:00000000000001d0 .L0 
     /tmp/ccRumti5.s:497    .text:00000000000001d4 .L0 
     /tmp/ccRumti5.s:499    .text:00000000000001d8 .L0 
     /tmp/ccRumti5.s:501    .text:00000000000001d8 .L0 
  src/syscalls_c.cpp:100    .text:00000000000001d8 .L0 
     /tmp/ccRumti5.s:507    .text:00000000000001dc .L0 
  src/syscalls_c.cpp:101    .text:00000000000001dc .L0 
     /tmp/ccRumti5.s:512    .text:00000000000001e0 .L0 
  src/syscalls_c.cpp:102    .text:00000000000001e0 .L0 
     /tmp/ccRumti5.s:517    .text:00000000000001e4 .L0 
     /tmp/ccRumti5.s:518    .text:00000000000001e4 .L0 
  src/syscalls_c.cpp:104    .text:00000000000001e4 .L0 
     /tmp/ccRumti5.s:524    .text:00000000000001e8 .L0 
     /tmp/ccRumti5.s:526    .text:00000000000001e8 .L0 
     /tmp/ccRumti5.s:529    .text:00000000000001f0 .L0 
     /tmp/ccRumti5.s:530    .text:00000000000001f0 .L0 
     /tmp/ccRumti5.s:532    .text:00000000000001f4 .L0 
     /tmp/ccRumti5.s:534    .text:00000000000001f8 .L0 
     /tmp/ccRumti5.s:540    .text:00000000000001f8 _Z10sem_signalP4_sem
     /tmp/ccRumti5.s:543    .text:00000000000001f8 .L0 
     /tmp/ccRumti5.s:545    .text:00000000000001f8 .L0 
     /tmp/ccRumti5.s:546    .text:00000000000001fc .L0 
     /tmp/ccRumti5.s:548    .text:0000000000000200 .L0 
     /tmp/ccRumti5.s:550    .text:0000000000000204 .L0 
     /tmp/ccRumti5.s:552    .text:0000000000000204 .L0 
  src/syscalls_c.cpp:109    .text:0000000000000204 .L0 
GAS LISTING /tmp/ccRumti5.s 			page 19


     /tmp/ccRumti5.s:558    .text:0000000000000208 .L0 
  src/syscalls_c.cpp:110    .text:0000000000000208 .L0 
     /tmp/ccRumti5.s:563    .text:000000000000020c .L0 
  src/syscalls_c.cpp:111    .text:000000000000020c .L0 
     /tmp/ccRumti5.s:568    .text:0000000000000210 .L0 
     /tmp/ccRumti5.s:569    .text:0000000000000210 .L0 
  src/syscalls_c.cpp:113    .text:0000000000000210 .L0 
     /tmp/ccRumti5.s:575    .text:0000000000000214 .L0 
     /tmp/ccRumti5.s:577    .text:0000000000000214 .L0 
     /tmp/ccRumti5.s:580    .text:000000000000021c .L0 
     /tmp/ccRumti5.s:581    .text:000000000000021c .L0 
     /tmp/ccRumti5.s:583    .text:0000000000000220 .L0 
     /tmp/ccRumti5.s:585    .text:0000000000000224 .L0 
     /tmp/ccRumti5.s:591    .text:0000000000000224 _Z4getcv
     /tmp/ccRumti5.s:594    .text:0000000000000224 .L0 
     /tmp/ccRumti5.s:595    .text:0000000000000224 .L0 
     /tmp/ccRumti5.s:596    .text:0000000000000228 .L0 
     /tmp/ccRumti5.s:598    .text:000000000000022c .L0 
     /tmp/ccRumti5.s:600    .text:0000000000000230 .L0 
     /tmp/ccRumti5.s:602    .text:0000000000000230 .L0 
  src/syscalls_c.cpp:118    .text:0000000000000230 .L0 
     /tmp/ccRumti5.s:608    .text:0000000000000234 .L0 
  src/syscalls_c.cpp:119    .text:0000000000000234 .L0 
     /tmp/ccRumti5.s:613    .text:0000000000000238 .L0 
     /tmp/ccRumti5.s:614    .text:0000000000000238 .L0 
  src/syscalls_c.cpp:121    .text:0000000000000238 .L0 
     /tmp/ccRumti5.s:620    .text:000000000000023c .L0 
     /tmp/ccRumti5.s:622    .text:000000000000023c .L0 
     /tmp/ccRumti5.s:624    .text:0000000000000244 .L0 
     /tmp/ccRumti5.s:625    .text:0000000000000244 .L0 
     /tmp/ccRumti5.s:627    .text:0000000000000248 .L0 
     /tmp/ccRumti5.s:629    .text:000000000000024c .L0 
     /tmp/ccRumti5.s:635    .text:000000000000024c _Z4putcc
     /tmp/ccRumti5.s:638    .text:000000000000024c .L0 
     /tmp/ccRumti5.s:640    .text:000000000000024c .L0 
     /tmp/ccRumti5.s:641    .text:0000000000000250 .L0 
     /tmp/ccRumti5.s:643    .text:0000000000000254 .L0 
     /tmp/ccRumti5.s:645    .text:0000000000000258 .L0 
     /tmp/ccRumti5.s:647    .text:0000000000000258 .L0 
  src/syscalls_c.cpp:128    .text:0000000000000258 .L0 
     /tmp/ccRumti5.s:653    .text:000000000000025c .L0 
  src/syscalls_c.cpp:129    .text:000000000000025c .L0 
     /tmp/ccRumti5.s:658    .text:0000000000000260 .L0 
  src/syscalls_c.cpp:130    .text:0000000000000260 .L0 
     /tmp/ccRumti5.s:664    .text:0000000000000264 .L0 
     /tmp/ccRumti5.s:665    .text:0000000000000268 .L0 
     /tmp/ccRumti5.s:666    .text:0000000000000268 .L0 
     /tmp/ccRumti5.s:668    .text:000000000000026c .L0 
     /tmp/ccRumti5.s:670    .text:0000000000000270 .L0 
     /tmp/ccRumti5.s:676    .text:0000000000000270 .L0 
     /tmp/ccRumti5.s:1189   .debug_abbrev:0000000000000000 .Ldebug_abbrev0
     /tmp/ccRumti5.s:1935   .debug_str:0000000000000198 .LASF54
     /tmp/ccRumti5.s:1905   .debug_str:00000000000000c5 .LASF55
     /tmp/ccRumti5.s:1963   .debug_str:00000000000002f9 .LASF56
     /tmp/ccRumti5.s:5      .text:0000000000000000 .Ltext0
     /tmp/ccRumti5.s:673    .text:0000000000000270 .Letext0
     /tmp/ccRumti5.s:1873   .debug_line:0000000000000000 .Ldebug_line0
GAS LISTING /tmp/ccRumti5.s 			page 20


     /tmp/ccRumti5.s:1943   .debug_str:0000000000000278 .LASF0
     /tmp/ccRumti5.s:1917   .debug_str:000000000000011b .LASF1
     /tmp/ccRumti5.s:1909   .debug_str:00000000000000ec .LASF2
     /tmp/ccRumti5.s:1889   .debug_str:0000000000000050 .LASF4
     /tmp/ccRumti5.s:1915   .debug_str:0000000000000109 .LASF3
     /tmp/ccRumti5.s:1879   .debug_str:0000000000000021 .LASF5
     /tmp/ccRumti5.s:1951   .debug_str:00000000000002aa .LASF6
     /tmp/ccRumti5.s:1877   .debug_str:000000000000000e .LASF7
     /tmp/ccRumti5.s:1901   .debug_str:00000000000000a0 .LASF8
     /tmp/ccRumti5.s:1953   .debug_str:00000000000002b1 .LASF9
     /tmp/ccRumti5.s:1887   .debug_str:0000000000000042 .LASF10
     /tmp/ccRumti5.s:1995   .debug_str:00000000000003d6 .LASF11
     /tmp/ccRumti5.s:1993   .debug_str:00000000000003c7 .LASF12
     /tmp/ccRumti5.s:1981   .debug_str:0000000000000376 .LASF13
     /tmp/ccRumti5.s:1961   .debug_str:00000000000002e9 .LASF14
     /tmp/ccRumti5.s:1923   .debug_str:0000000000000140 .LASF15
     /tmp/ccRumti5.s:1895   .debug_str:000000000000006f .LASF16
     /tmp/ccRumti5.s:1955   .debug_str:00000000000002c1 .LASF17
     /tmp/ccRumti5.s:1957   .debug_str:00000000000002d7 .LASF18
     /tmp/ccRumti5.s:1971   .debug_str:0000000000000336 .LASF20
     /tmp/ccRumti5.s:1883   .debug_str:0000000000000034 .LASF19
     /tmp/ccRumti5.s:1937   .debug_str:000000000000025c .LASF21
     /tmp/ccRumti5.s:1969   .debug_str:0000000000000331 .LASF39
     /tmp/ccRumti5.s:1919   .debug_str:000000000000012e .LASF41
     /tmp/ccRumti5.s:636    .text:000000000000024c .LFB12
     /tmp/ccRumti5.s:671    .text:0000000000000270 .LFE12
     /tmp/ccRumti5.s:1947   .debug_str:0000000000000290 .LASF22
     /tmp/ccRumti5.s:1911   .debug_str:00000000000000fa .LASF23
     /tmp/ccRumti5.s:1987   .debug_str:000000000000039c .LASF25
     /tmp/ccRumti5.s:592    .text:0000000000000224 .LFB11
     /tmp/ccRumti5.s:630    .text:000000000000024c .LFE11
     /tmp/ccRumti5.s:1929   .debug_str:000000000000015f .LASF24
     /tmp/ccRumti5.s:1949   .debug_str:0000000000000295 .LASF26
     /tmp/ccRumti5.s:541    .text:00000000000001f8 .LFB10
     /tmp/ccRumti5.s:586    .text:0000000000000224 .LFE10
     /tmp/ccRumti5.s:1927   .debug_str:0000000000000158 .LASF27
     /tmp/ccRumti5.s:1625   .debug_loc:0000000000000000 .LLST16
     /tmp/ccRumti5.s:1925   .debug_str:000000000000014c .LASF28
     /tmp/ccRumti5.s:1639   .debug_loc:0000000000000039 .LLST17
     /tmp/ccRumti5.s:1939   .debug_str:0000000000000261 .LASF29
     /tmp/ccRumti5.s:1903   .debug_str:00000000000000b3 .LASF30
     /tmp/ccRumti5.s:490    .text:00000000000001cc .LFB9
     /tmp/ccRumti5.s:535    .text:00000000000001f8 .LFE9
     /tmp/ccRumti5.s:1646   .debug_loc:000000000000005c .LLST14
     /tmp/ccRumti5.s:1660   .debug_loc:0000000000000095 .LLST15
     /tmp/ccRumti5.s:1913   .debug_str:00000000000000ff .LASF31
     /tmp/ccRumti5.s:1891   .debug_str:0000000000000057 .LASF32
     /tmp/ccRumti5.s:439    .text:00000000000001a0 .LFB8
     /tmp/ccRumti5.s:484    .text:00000000000001cc .LFE8
     /tmp/ccRumti5.s:1667   .debug_loc:00000000000000b8 .LLST12
     /tmp/ccRumti5.s:1681   .debug_loc:00000000000000f1 .LLST13
     /tmp/ccRumti5.s:1975   .debug_str:000000000000034e .LASF33
     /tmp/ccRumti5.s:1907   .debug_str:00000000000000d8 .LASF34
     /tmp/ccRumti5.s:379    .text:0000000000000168 .LFB7
     /tmp/ccRumti5.s:433    .text:00000000000001a0 .LFE7
     /tmp/ccRumti5.s:1688   .debug_loc:0000000000000114 .LLST9
     /tmp/ccRumti5.s:1893   .debug_str:000000000000006a .LASF35
GAS LISTING /tmp/ccRumti5.s 			page 21


     /tmp/ccRumti5.s:1702   .debug_loc:000000000000014d .LLST10
     /tmp/ccRumti5.s:1716   .debug_loc:0000000000000186 .LLST11
     /tmp/ccRumti5.s:1945   .debug_str:0000000000000285 .LASF36
     /tmp/ccRumti5.s:1973   .debug_str:000000000000033e .LASF37
     /tmp/ccRumti5.s:328    .text:000000000000013c .LFB6
     /tmp/ccRumti5.s:373    .text:0000000000000168 .LFE6
     /tmp/ccRumti5.s:1931   .debug_str:000000000000016a .LASF38
     /tmp/ccRumti5.s:1723   .debug_loc:00000000000001a9 .LLST7
     /tmp/ccRumti5.s:1737   .debug_loc:00000000000001e2 .LLST8
     /tmp/ccRumti5.s:1881   .debug_str:0000000000000028 .LASF40
     /tmp/ccRumti5.s:1989   .debug_str:00000000000003a5 .LASF42
     /tmp/ccRumti5.s:287    .text:0000000000000118 .LFB5
     /tmp/ccRumti5.s:322    .text:000000000000013c .LFE5
     /tmp/ccRumti5.s:1965   .debug_str:0000000000000315 .LASF57
     /tmp/ccRumti5.s:1899   .debug_str:000000000000008b .LASF58
     /tmp/ccRumti5.s:252    .text:00000000000000f8 .LFB4
     /tmp/ccRumti5.s:281    .text:0000000000000118 .LFE4
     /tmp/ccRumti5.s:1983   .debug_str:0000000000000386 .LASF59
     /tmp/ccRumti5.s:1979   .debug_str:0000000000000365 .LASF60
     /tmp/ccRumti5.s:215    .text:00000000000000d4 .LFB3
     /tmp/ccRumti5.s:246    .text:00000000000000f8 .LFE3
     /tmp/ccRumti5.s:1977   .debug_str:0000000000000357 .LASF43
     /tmp/ccRumti5.s:1933   .debug_str:0000000000000173 .LASF44
     /tmp/ccRumti5.s:117    .text:000000000000005c .LFB2
     /tmp/ccRumti5.s:209    .text:00000000000000d4 .LFE2
     /tmp/ccRumti5.s:1744   .debug_loc:0000000000000205 .LLST2
     /tmp/ccRumti5.s:1991   .debug_str:00000000000003be .LASF45
     /tmp/ccRumti5.s:1762   .debug_loc:0000000000000251 .LLST3
     /tmp/ccRumti5.s:1780   .debug_loc:000000000000029d .LLST4
     /tmp/ccRumti5.s:1967   .debug_str:0000000000000325 .LASF46
     /tmp/ccRumti5.s:1798   .debug_loc:00000000000002e9 .LLST5
     /tmp/ccRumti5.s:1811   .debug_loc:0000000000000322 .LLST6
     /tmp/ccRumti5.s:143    .text:0000000000000090 .LVL8
     /tmp/ccRumti5.s:1959   .debug_str:00000000000002e0 .LASF47
     /tmp/ccRumti5.s:1875   .debug_str:0000000000000000 .LASF48
     /tmp/ccRumti5.s:67     .text:0000000000000030 .LFB1
     /tmp/ccRumti5.s:111    .text:000000000000005c .LFE1
     /tmp/ccRumti5.s:1921   .debug_str:0000000000000137 .LASF49
     /tmp/ccRumti5.s:1818   .debug_loc:0000000000000345 .LLST1
     /tmp/ccRumti5.s:1885   .debug_str:000000000000003a .LASF50
     /tmp/ccRumti5.s:1985   .debug_str:0000000000000392 .LASF51
     /tmp/ccRumti5.s:1941   .debug_str:000000000000026a .LASF52
     /tmp/ccRumti5.s:10     .text:0000000000000000 .LFB0
     /tmp/ccRumti5.s:61     .text:0000000000000030 .LFE0
     /tmp/ccRumti5.s:1897   .debug_str:0000000000000085 .LASF53
     /tmp/ccRumti5.s:1832   .debug_loc:000000000000037e .LLST0
     /tmp/ccRumti5.s:544    .text:00000000000001f8 .LVL29
     /tmp/ccRumti5.s:573    .text:0000000000000214 .LVL30
     /tmp/ccRumti5.s:578    .text:0000000000000218 .LVL31
     /tmp/ccRumti5.s:493    .text:00000000000001cc .LVL26
     /tmp/ccRumti5.s:522    .text:00000000000001e8 .LVL27
     /tmp/ccRumti5.s:527    .text:00000000000001ec .LVL28
     /tmp/ccRumti5.s:442    .text:00000000000001a0 .LVL23
     /tmp/ccRumti5.s:471    .text:00000000000001bc .LVL24
     /tmp/ccRumti5.s:476    .text:00000000000001c0 .LVL25
     /tmp/ccRumti5.s:382    .text:0000000000000168 .LVL19
     /tmp/ccRumti5.s:420    .text:0000000000000190 .LVL21
GAS LISTING /tmp/ccRumti5.s 			page 22


     /tmp/ccRumti5.s:392    .text:0000000000000178 .LVL20
     /tmp/ccRumti5.s:425    .text:0000000000000194 .LVL22
     /tmp/ccRumti5.s:331    .text:000000000000013c .LVL16
     /tmp/ccRumti5.s:360    .text:0000000000000158 .LVL17
     /tmp/ccRumti5.s:365    .text:000000000000015c .LVL18
     /tmp/ccRumti5.s:120    .text:000000000000005c .LVL6
     /tmp/ccRumti5.s:141    .text:0000000000000088 .LVL7
     /tmp/ccRumti5.s:198    .text:00000000000000c4 .LVL12
     /tmp/ccRumti5.s:201    .text:00000000000000c8 .LVL13
     /tmp/ccRumti5.s:204    .text:00000000000000cc .LVL14
     /tmp/ccRumti5.s:148    .text:0000000000000098 .LVL9
     /tmp/ccRumti5.s:185    .text:00000000000000b4 .LVL10
     /tmp/ccRumti5.s:190    .text:00000000000000b8 .LVL11
     /tmp/ccRumti5.s:70     .text:0000000000000030 .LVL4
     /tmp/ccRumti5.s:99     .text:000000000000004c .LVL5
     /tmp/ccRumti5.s:14     .text:0000000000000000 .LVL0
     /tmp/ccRumti5.s:24     .text:0000000000000010 .LVL1
     /tmp/ccRumti5.s:27     .text:0000000000000014 .LVL2
     /tmp/ccRumti5.s:50     .text:0000000000000024 .LVL3
     /tmp/ccRumti5.s:677    .debug_info:0000000000000000 .Ldebug_info0

NO UNDEFINED SYMBOLS
