GAS LISTING /tmp/ccaUzDwz.s 			page 1


   1              		.file	"syscall_c.cpp"
   2              		.option nopic
   3              		.option norelax
   4              		.attribute arch, "rv64i2p0_m2p0_a2p0"
   5              		.attribute unaligned_access, 0
   6              		.attribute stack_align, 16
   7              		.text
   8              	.Ltext0:
   9              		.align	2
  10              		.globl	_Z9mem_allocm
  12              	_Z9mem_allocm:
  13              	.LFB0:
  14              		.file 1 "src/syscall_c.cpp"
   1:src/syscall_c.cpp **** //
   2:src/syscall_c.cpp **** // Created by os on 8/6/22.
   3:src/syscall_c.cpp **** #include "../h/syscall_c.h"
   4:src/syscall_c.cpp **** 
   5:src/syscall_c.cpp **** void *mem_alloc(size_t size) {
  15              		.loc 1 5 30
  16              		.cfi_startproc
  17              	.LVL0:
  18 0000 130101FF 		addi	sp,sp,-16
  19              		.cfi_def_cfa_offset 16
  20 0004 23348100 		sd	s0,8(sp)
  21              		.cfi_offset 8, -8
  22 0008 13040101 		addi	s0,sp,16
  23              		.cfi_def_cfa 8, 0
   6:src/syscall_c.cpp **** 
   7:src/syscall_c.cpp ****     uint64 oper=0x01;
  24              		.loc 1 7 5
  25              	.LVL1:
   8:src/syscall_c.cpp ****     size_t sz=(size+ MEM_BLOCK_SIZE-1)/MEM_BLOCK_SIZE;
  26              		.loc 1 8 5
  27              		.loc 1 8 36 is_stmt 0
  28 000c 1305F503 		addi	a0,a0,63
  29              	.LVL2:
  30              		.loc 1 8 12
  31 0010 13556500 		srli	a0,a0,6
  32              	.LVL3:
   9:src/syscall_c.cpp ****     __asm__ volatile ("mv a1,%[op]" : :[op]"r" (sz));
  33              		.loc 1 9 5 is_stmt 1
  34              	 #APP
  35              	# 9 "src/syscall_c.cpp" 1
  10              	    __asm__ volatile("mv a0,%[oc]" : :[oc]"r" (oper));
  36              		mv a1,a0
  37              	# 0 "" 2
  38              		.loc 1 10 5
  39              	 #NO_APP
  40 0018 93071000 		li	a5,1
  41              	 #APP
  42              	# 10 "src/syscall_c.cpp" 1
  11              	    __asm__ volatile ("ecall");
  43              		mv a0,a5
  44              	# 0 "" 2
  45              		.loc 1 11 5
  46              	# 11 "src/syscall_c.cpp" 1
  12              	    uint64 x;
GAS LISTING /tmp/ccaUzDwz.s 			page 2


  47              		ecall
  48              	# 0 "" 2
  49              		.loc 1 12 5
  13:src/syscall_c.cpp ****     __asm__ volatile("mv %[rx1], a0" : [rx1]"=r" (x));
  50              		.loc 1 13 5
  51              	# 13 "src/syscall_c.cpp" 1
  14              	    return (void*) x;
  52              		mv a0, a0
  53              	# 0 "" 2
  54              	.LVL4:
  55              		.loc 1 14 5
  15:src/syscall_c.cpp **** }
  56              		.loc 1 15 1 is_stmt 0
  57              	 #NO_APP
  58 0028 03348100 		ld	s0,8(sp)
  59              		.cfi_restore 8
  60              		.cfi_def_cfa 2, 16
  61 002c 13010101 		addi	sp,sp,16
  62              		.cfi_def_cfa_offset 0
  63 0030 67800000 		jr	ra
  64              		.cfi_endproc
  65              	.LFE0:
  67              		.align	2
  68              		.globl	_Z8mem_freePv
  70              	_Z8mem_freePv:
  71              	.LFB1:
  16:src/syscall_c.cpp **** 
  17:src/syscall_c.cpp **** int mem_free(void * adr) {
  72              		.loc 1 17 26 is_stmt 1
  73              		.cfi_startproc
  74              	.LVL5:
  75 0034 130101FF 		addi	sp,sp,-16
  76              		.cfi_def_cfa_offset 16
  77 0038 23348100 		sd	s0,8(sp)
  78              		.cfi_offset 8, -8
  79 003c 13040101 		addi	s0,sp,16
  80              		.cfi_def_cfa 8, 0
  18:src/syscall_c.cpp ****     void* adr2=adr;
  81              		.loc 1 18 5
  82              	.LVL6:
  19:src/syscall_c.cpp ****     __asm__ volatile ("mv a1,%[opt]": :[opt]"r" (adr2));
  83              		.loc 1 19 5
  84              	 #APP
  85              	# 19 "src/syscall_c.cpp" 1
  20              	    __asm__ volatile("li a0,0x02");
  86              		mv a1,a0
  87              	# 0 "" 2
  88              		.loc 1 20 5
  89              	# 20 "src/syscall_c.cpp" 1
  21              	    __asm__ volatile ("ecall");
  90              		li a0,0x02
  91              	# 0 "" 2
  92              		.loc 1 21 5
  93              	# 21 "src/syscall_c.cpp" 1
  22              	    uint64 x;
  94              		ecall
  95              	# 0 "" 2
GAS LISTING /tmp/ccaUzDwz.s 			page 3


  96              		.loc 1 22 5
  23:src/syscall_c.cpp ****     __asm__ volatile("mv %[rx12], a0" : [rx12]"=r" (x));
  97              		.loc 1 23 5
  98              	# 23 "src/syscall_c.cpp" 1
  24              	    return x;
  99              		mv a0, a0
 100              	# 0 "" 2
 101              	.LVL7:
 102              		.loc 1 24 5
  25:src/syscall_c.cpp **** }
 103              		.loc 1 25 1 is_stmt 0
 104              	 #NO_APP
 105 0050 1B050500 		sext.w	a0,a0
 106              	.LVL8:
 107 0054 03348100 		ld	s0,8(sp)
 108              		.cfi_restore 8
 109              		.cfi_def_cfa 2, 16
 110 0058 13010101 		addi	sp,sp,16
 111              		.cfi_def_cfa_offset 0
 112 005c 67800000 		jr	ra
 113              		.cfi_endproc
 114              	.LFE1:
 116              		.align	2
 117              		.globl	_Z13thread_createPP3TCBPFvPvES2_
 119              	_Z13thread_createPP3TCBPFvPvES2_:
 120              	.LFB2:
  26:src/syscall_c.cpp **** 
  27:src/syscall_c.cpp **** int thread_create(thread_t *handle, void (*start_routine)(void *), void *arg) {
 121              		.loc 1 27 79 is_stmt 1
 122              		.cfi_startproc
 123              	.LVL9:
 124 0060 130101FF 		addi	sp,sp,-16
 125              		.cfi_def_cfa_offset 16
 126 0064 23348100 		sd	s0,8(sp)
 127              		.cfi_offset 8, -8
 128 0068 13040101 		addi	s0,sp,16
 129              		.cfi_def_cfa 8, 0
  28:src/syscall_c.cpp ****     void* arguments=arg;
 130              		.loc 1 28 5
 131              	.LVL10:
  29:src/syscall_c.cpp ****     __asm__ volatile("mv a3,%[arguments]": :[arguments]"r" (arguments));
 132              		.loc 1 29 5
 133              	 #APP
 134              	# 29 "src/syscall_c.cpp" 1
  30              	    void(*sr)(void*)=start_routine;
 135              		mv a3,a2
 136              	# 0 "" 2
 137              		.loc 1 30 5
 138              	.LVL11:
  31:src/syscall_c.cpp ****     __asm__ volatile("mv a2,%[startr]": :[startr]"r" (sr));
 139              		.loc 1 31 5
 140              	# 31 "src/syscall_c.cpp" 1
  32              	    thread_t* h=handle;
 141              		mv a2,a1
 142              	# 0 "" 2
 143              		.loc 1 32 5
 144              	.LVL12:
GAS LISTING /tmp/ccaUzDwz.s 			page 4


  33:src/syscall_c.cpp ****     __asm__ volatile("mv a1,%[h]": :[h]"r" (h));
 145              		.loc 1 33 5
 146              	# 33 "src/syscall_c.cpp" 1
  34              	    __asm__ volatile("li a0,0x11");
 147              		mv a1,a0
 148              	# 0 "" 2
 149              		.loc 1 34 5
 150              	# 34 "src/syscall_c.cpp" 1
  35              	    __asm__ volatile("ecall");
 151              		li a0,0x11
 152              	# 0 "" 2
 153              		.loc 1 35 5
 154              	# 35 "src/syscall_c.cpp" 1
  36              	    int ret;
 155              		ecall
 156              	# 0 "" 2
 157              		.loc 1 36 5
  37:src/syscall_c.cpp ****     __asm__ volatile("mv %[ret], a0" : [ret]"=r" (ret));
 158              		.loc 1 37 5
 159              	# 37 "src/syscall_c.cpp" 1
  38              	    return ret;
 160              		mv a0, a0
 161              	# 0 "" 2
 162              	.LVL13:
 163              		.loc 1 38 5
  39:src/syscall_c.cpp **** }
 164              		.loc 1 39 1 is_stmt 0
 165              	 #NO_APP
 166 0084 1B050500 		sext.w	a0,a0
 167 0088 03348100 		ld	s0,8(sp)
 168              		.cfi_restore 8
 169              		.cfi_def_cfa 2, 16
 170 008c 13010101 		addi	sp,sp,16
 171              		.cfi_def_cfa_offset 0
 172 0090 67800000 		jr	ra
 173              		.cfi_endproc
 174              	.LFE2:
 176              		.align	2
 177              		.globl	_Z16thread_createCPPPP3TCBPFvPvES2_
 179              	_Z16thread_createCPPPP3TCBPFvPvES2_:
 180              	.LFB3:
  40:src/syscall_c.cpp **** 
  41:src/syscall_c.cpp **** int thread_createCPP(thread_t *handle, void (*start_routine)(void *), void *arg) {
 181              		.loc 1 41 82 is_stmt 1
 182              		.cfi_startproc
 183              	.LVL14:
 184 0094 130101FF 		addi	sp,sp,-16
 185              		.cfi_def_cfa_offset 16
 186 0098 23348100 		sd	s0,8(sp)
 187              		.cfi_offset 8, -8
 188 009c 13040101 		addi	s0,sp,16
 189              		.cfi_def_cfa 8, 0
  42:src/syscall_c.cpp ****     void* arguments=arg;
 190              		.loc 1 42 5
 191              	.LVL15:
  43:src/syscall_c.cpp ****     __asm__ volatile("mv a3,%[arguments]": :[arguments]"r" (arguments));
 192              		.loc 1 43 5
GAS LISTING /tmp/ccaUzDwz.s 			page 5


 193              	 #APP
 194              	# 43 "src/syscall_c.cpp" 1
  44              	    void(*sr)(void*)=start_routine;
 195              		mv a3,a2
 196              	# 0 "" 2
 197              		.loc 1 44 5
 198              	.LVL16:
  45:src/syscall_c.cpp ****     __asm__ volatile("mv a2,%[startr]": :[startr]"r" (sr));
 199              		.loc 1 45 5
 200              	# 45 "src/syscall_c.cpp" 1
  46              	    thread_t* h=handle;
 201              		mv a2,a1
 202              	# 0 "" 2
 203              		.loc 1 46 5
 204              	.LVL17:
  47:src/syscall_c.cpp ****     __asm__ volatile("mv a1,%[h]": :[h]"r" (h));
 205              		.loc 1 47 5
 206              	# 47 "src/syscall_c.cpp" 1
  48              	    __asm__ volatile("li a0,0x14");
 207              		mv a1,a0
 208              	# 0 "" 2
 209              		.loc 1 48 5
 210              	# 48 "src/syscall_c.cpp" 1
  49              	    __asm__ volatile("ecall");
 211              		li a0,0x14
 212              	# 0 "" 2
 213              		.loc 1 49 5
 214              	# 49 "src/syscall_c.cpp" 1
  50              	    int ret;
 215              		ecall
 216              	# 0 "" 2
 217              		.loc 1 50 5
  51:src/syscall_c.cpp ****     __asm__ volatile("mv %[ret], a0" : [ret]"=r" (ret));
 218              		.loc 1 51 5
 219              	# 51 "src/syscall_c.cpp" 1
  52              	    return ret;
 220              		mv a0, a0
 221              	# 0 "" 2
 222              	.LVL18:
 223              		.loc 1 52 5
  53:src/syscall_c.cpp **** }
 224              		.loc 1 53 1 is_stmt 0
 225              	 #NO_APP
 226 00b8 1B050500 		sext.w	a0,a0
 227 00bc 03348100 		ld	s0,8(sp)
 228              		.cfi_restore 8
 229              		.cfi_def_cfa 2, 16
 230 00c0 13010101 		addi	sp,sp,16
 231              		.cfi_def_cfa_offset 0
 232 00c4 67800000 		jr	ra
 233              		.cfi_endproc
 234              	.LFE3:
 236              		.align	2
 237              		.globl	_Z15thread_dispatchv
 239              	_Z15thread_dispatchv:
 240              	.LFB4:
  54:src/syscall_c.cpp **** 
GAS LISTING /tmp/ccaUzDwz.s 			page 6


  55:src/syscall_c.cpp **** void thread_dispatch() {
 241              		.loc 1 55 24 is_stmt 1
 242              		.cfi_startproc
 243 00c8 130101FF 		addi	sp,sp,-16
 244              		.cfi_def_cfa_offset 16
 245 00cc 23348100 		sd	s0,8(sp)
 246              		.cfi_offset 8, -8
 247 00d0 13040101 		addi	s0,sp,16
 248              		.cfi_def_cfa 8, 0
  56:src/syscall_c.cpp ****     __asm__ volatile("li a0,0x13");
 249              		.loc 1 56 5
 250              	 #APP
 251              	# 56 "src/syscall_c.cpp" 1
  57              	    __asm__ volatile("ecall");
 252              		li a0,0x13
 253              	# 0 "" 2
 254              		.loc 1 57 5
 255              	# 57 "src/syscall_c.cpp" 1
  58              	    return;
 256              		ecall
 257              	# 0 "" 2
 258              		.loc 1 58 5
  59:src/syscall_c.cpp **** }
 259              		.loc 1 59 1 is_stmt 0
 260              	 #NO_APP
 261 00dc 03348100 		ld	s0,8(sp)
 262              		.cfi_restore 8
 263              		.cfi_def_cfa 2, 16
 264 00e0 13010101 		addi	sp,sp,16
 265              		.cfi_def_cfa_offset 0
 266 00e4 67800000 		jr	ra
 267              		.cfi_endproc
 268              	.LFE4:
 270              		.align	2
 271              		.globl	_Z11thread_exitv
 273              	_Z11thread_exitv:
 274              	.LFB5:
  60:src/syscall_c.cpp **** 
  61:src/syscall_c.cpp **** int thread_exit() {
 275              		.loc 1 61 19 is_stmt 1
 276              		.cfi_startproc
 277 00e8 130101FF 		addi	sp,sp,-16
 278              		.cfi_def_cfa_offset 16
 279 00ec 23348100 		sd	s0,8(sp)
 280              		.cfi_offset 8, -8
 281 00f0 13040101 		addi	s0,sp,16
 282              		.cfi_def_cfa 8, 0
  62:src/syscall_c.cpp ****     __asm__ volatile("li a0,0x12");
 283              		.loc 1 62 5
 284              	 #APP
 285              	# 62 "src/syscall_c.cpp" 1
  63              	    __asm__ volatile("ecall");
 286              		li a0,0x12
 287              	# 0 "" 2
 288              		.loc 1 63 5
 289              	# 63 "src/syscall_c.cpp" 1
  64              	    return 0;
GAS LISTING /tmp/ccaUzDwz.s 			page 7


 290              		ecall
 291              	# 0 "" 2
 292              		.loc 1 64 5
  65:src/syscall_c.cpp **** }
 293              		.loc 1 65 1 is_stmt 0
 294              	 #NO_APP
 295 00fc 13050000 		li	a0,0
 296 0100 03348100 		ld	s0,8(sp)
 297              		.cfi_restore 8
 298              		.cfi_def_cfa 2, 16
 299 0104 13010101 		addi	sp,sp,16
 300              		.cfi_def_cfa_offset 0
 301 0108 67800000 		jr	ra
 302              		.cfi_endproc
 303              	.LFE5:
 305              		.align	2
 306              		.globl	_Z8sem_openPP3Semj
 308              	_Z8sem_openPP3Semj:
 309              	.LFB6:
  66:src/syscall_c.cpp **** //
  67:src/syscall_c.cpp **** int sem_open(sem_t *handle, unsigned int init) {
 310              		.loc 1 67 48 is_stmt 1
 311              		.cfi_startproc
 312              	.LVL19:
 313 010c 130101FF 		addi	sp,sp,-16
 314              		.cfi_def_cfa_offset 16
 315 0110 23348100 		sd	s0,8(sp)
 316              		.cfi_offset 8, -8
 317 0114 13040101 		addi	s0,sp,16
 318              		.cfi_def_cfa 8, 0
  68:src/syscall_c.cpp ****     unsigned int in=init;
 319              		.loc 1 68 5
 320              	.LVL20:
  69:src/syscall_c.cpp ****     __asm__ volatile("mv a2,%[init]"::[init]"r"(in));
 321              		.loc 1 69 5
 322              	 #APP
 323              	# 69 "src/syscall_c.cpp" 1
  70              	    sem_t* h=handle;
 324              		mv a2,a1
 325              	# 0 "" 2
 326              		.loc 1 70 5
 327              	.LVL21:
  71:src/syscall_c.cpp ****     __asm__ volatile("mv a1,%[handle]"::[handle]"r"(h));
 328              		.loc 1 71 5
 329              	# 71 "src/syscall_c.cpp" 1
  72              	    __asm__ volatile("li a0,0x21");
 330              		mv a1,a0
 331              	# 0 "" 2
 332              		.loc 1 72 5
 333              	# 72 "src/syscall_c.cpp" 1
  73              	    __asm__ volatile("ecall");
 334              		li a0,0x21
 335              	# 0 "" 2
 336              		.loc 1 73 5
 337              	# 73 "src/syscall_c.cpp" 1
  74              	    int ret;
 338              		ecall
GAS LISTING /tmp/ccaUzDwz.s 			page 8


 339              	# 0 "" 2
 340              		.loc 1 74 5
  75:src/syscall_c.cpp ****     __asm__ volatile("mv %[ret], a0" : [ret]"=r" (ret));
 341              		.loc 1 75 5
 342              	# 75 "src/syscall_c.cpp" 1
  76              	    return ret;
 343              		mv a0, a0
 344              	# 0 "" 2
 345              	.LVL22:
 346              		.loc 1 76 5
  77:src/syscall_c.cpp **** }
 347              		.loc 1 77 1 is_stmt 0
 348              	 #NO_APP
 349 012c 1B050500 		sext.w	a0,a0
 350 0130 03348100 		ld	s0,8(sp)
 351              		.cfi_restore 8
 352              		.cfi_def_cfa 2, 16
 353 0134 13010101 		addi	sp,sp,16
 354              		.cfi_def_cfa_offset 0
 355 0138 67800000 		jr	ra
 356              		.cfi_endproc
 357              	.LFE6:
 359              		.align	2
 360              		.globl	_Z9sem_closeP3Sem
 362              	_Z9sem_closeP3Sem:
 363              	.LFB7:
  78:src/syscall_c.cpp **** 
  79:src/syscall_c.cpp **** int sem_close(sem_t handle) {
 364              		.loc 1 79 29 is_stmt 1
 365              		.cfi_startproc
 366              	.LVL23:
 367 013c 130101FF 		addi	sp,sp,-16
 368              		.cfi_def_cfa_offset 16
 369 0140 23348100 		sd	s0,8(sp)
 370              		.cfi_offset 8, -8
 371 0144 13040101 		addi	s0,sp,16
 372              		.cfi_def_cfa 8, 0
  80:src/syscall_c.cpp ****     sem_t h=handle;
 373              		.loc 1 80 5
 374              	.LVL24:
  81:src/syscall_c.cpp ****     __asm__ volatile("mv a1,%[handle]"::[handle]"r"(h));
 375              		.loc 1 81 5
 376              	 #APP
 377              	# 81 "src/syscall_c.cpp" 1
  82              	    __asm__ volatile("li a0,0x22");
 378              		mv a1,a0
 379              	# 0 "" 2
 380              		.loc 1 82 5
 381              	# 82 "src/syscall_c.cpp" 1
  83              	    __asm__ volatile("ecall");
 382              		li a0,0x22
 383              	# 0 "" 2
 384              		.loc 1 83 5
 385              	# 83 "src/syscall_c.cpp" 1
  84              	    int ret;
 386              		ecall
 387              	# 0 "" 2
GAS LISTING /tmp/ccaUzDwz.s 			page 9


 388              		.loc 1 84 5
  85:src/syscall_c.cpp ****     __asm__ volatile("mv %[ret], a0" : [ret]"=r" (ret));
 389              		.loc 1 85 5
 390              	# 85 "src/syscall_c.cpp" 1
  86              	    return ret;
 391              		mv a0, a0
 392              	# 0 "" 2
 393              	.LVL25:
 394              		.loc 1 86 5
  87:src/syscall_c.cpp **** }
 395              		.loc 1 87 1 is_stmt 0
 396              	 #NO_APP
 397 0158 1B050500 		sext.w	a0,a0
 398 015c 03348100 		ld	s0,8(sp)
 399              		.cfi_restore 8
 400              		.cfi_def_cfa 2, 16
 401 0160 13010101 		addi	sp,sp,16
 402              		.cfi_def_cfa_offset 0
 403 0164 67800000 		jr	ra
 404              		.cfi_endproc
 405              	.LFE7:
 407              		.align	2
 408              		.globl	_Z8sem_waitP3Sem
 410              	_Z8sem_waitP3Sem:
 411              	.LFB8:
  88:src/syscall_c.cpp **** 
  89:src/syscall_c.cpp **** int sem_wait(sem_t id) {
 412              		.loc 1 89 24 is_stmt 1
 413              		.cfi_startproc
 414              	.LVL26:
 415 0168 130101FF 		addi	sp,sp,-16
 416              		.cfi_def_cfa_offset 16
 417 016c 23348100 		sd	s0,8(sp)
 418              		.cfi_offset 8, -8
 419 0170 13040101 		addi	s0,sp,16
 420              		.cfi_def_cfa 8, 0
  90:src/syscall_c.cpp ****     sem_t h=id;
 421              		.loc 1 90 5
 422              	.LVL27:
  91:src/syscall_c.cpp ****     __asm__ volatile("mv a1,%[handle]"::[handle]"r"(h));
 423              		.loc 1 91 5
 424              	 #APP
 425              	# 91 "src/syscall_c.cpp" 1
  92              	    __asm__ volatile("li a0,0x23");
 426              		mv a1,a0
 427              	# 0 "" 2
 428              		.loc 1 92 5
 429              	# 92 "src/syscall_c.cpp" 1
  93              	    __asm__ volatile("ecall");
 430              		li a0,0x23
 431              	# 0 "" 2
 432              		.loc 1 93 5
 433              	# 93 "src/syscall_c.cpp" 1
  94              	    int ret;
 434              		ecall
 435              	# 0 "" 2
 436              		.loc 1 94 5
GAS LISTING /tmp/ccaUzDwz.s 			page 10


  95:src/syscall_c.cpp ****     __asm__ volatile("mv %[ret], a0" : [ret]"=r" (ret));
 437              		.loc 1 95 5
 438              	# 95 "src/syscall_c.cpp" 1
  96              	    return ret;
 439              		mv a0, a0
 440              	# 0 "" 2
 441              	.LVL28:
 442              		.loc 1 96 5
  97:src/syscall_c.cpp **** }
 443              		.loc 1 97 1 is_stmt 0
 444              	 #NO_APP
 445 0184 1B050500 		sext.w	a0,a0
 446 0188 03348100 		ld	s0,8(sp)
 447              		.cfi_restore 8
 448              		.cfi_def_cfa 2, 16
 449 018c 13010101 		addi	sp,sp,16
 450              		.cfi_def_cfa_offset 0
 451 0190 67800000 		jr	ra
 452              		.cfi_endproc
 453              	.LFE8:
 455              		.align	2
 456              		.globl	_Z10sem_signalP3Sem
 458              	_Z10sem_signalP3Sem:
 459              	.LFB9:
  98:src/syscall_c.cpp **** 
  99:src/syscall_c.cpp **** int sem_signal(sem_t id) {
 460              		.loc 1 99 26 is_stmt 1
 461              		.cfi_startproc
 462              	.LVL29:
 463 0194 130101FF 		addi	sp,sp,-16
 464              		.cfi_def_cfa_offset 16
 465 0198 23348100 		sd	s0,8(sp)
 466              		.cfi_offset 8, -8
 467 019c 13040101 		addi	s0,sp,16
 468              		.cfi_def_cfa 8, 0
 100:src/syscall_c.cpp ****     sem_t h=id;
 469              		.loc 1 100 5
 470              	.LVL30:
 101:src/syscall_c.cpp ****     __asm__ volatile("mv a1,%[handle]"::[handle]"r"(h));
 471              		.loc 1 101 5
 472              	 #APP
 473              	# 101 "src/syscall_c.cpp" 1
 102              	    __asm__ volatile("li a0,0x24");
 474              		mv a1,a0
 475              	# 0 "" 2
 476              		.loc 1 102 5
 477              	# 102 "src/syscall_c.cpp" 1
 103              	    __asm__ volatile("ecall");
 478              		li a0,0x24
 479              	# 0 "" 2
 480              		.loc 1 103 5
 481              	# 103 "src/syscall_c.cpp" 1
 104              	    int ret;
 482              		ecall
 483              	# 0 "" 2
 484              		.loc 1 104 5
 105:src/syscall_c.cpp ****     __asm__ volatile("mv %[ret], a0" : [ret]"=r" (ret));
GAS LISTING /tmp/ccaUzDwz.s 			page 11


 485              		.loc 1 105 5
 486              	# 105 "src/syscall_c.cpp" 1
 106              	    return ret;
 487              		mv a0, a0
 488              	# 0 "" 2
 489              	.LVL31:
 490              		.loc 1 106 5
 107:src/syscall_c.cpp **** }
 491              		.loc 1 107 1 is_stmt 0
 492              	 #NO_APP
 493 01b0 1B050500 		sext.w	a0,a0
 494 01b4 03348100 		ld	s0,8(sp)
 495              		.cfi_restore 8
 496              		.cfi_def_cfa 2, 16
 497 01b8 13010101 		addi	sp,sp,16
 498              		.cfi_def_cfa_offset 0
 499 01bc 67800000 		jr	ra
 500              		.cfi_endproc
 501              	.LFE9:
 503              		.align	2
 504              		.globl	_Z4getcv
 506              	_Z4getcv:
 507              	.LFB10:
 108:src/syscall_c.cpp **** char getc()
 109:src/syscall_c.cpp **** {
 508              		.loc 1 109 1 is_stmt 1
 509              		.cfi_startproc
 510 01c0 130101FF 		addi	sp,sp,-16
 511              		.cfi_def_cfa_offset 16
 512 01c4 23348100 		sd	s0,8(sp)
 513              		.cfi_offset 8, -8
 514 01c8 13040101 		addi	s0,sp,16
 515              		.cfi_def_cfa 8, 0
 110:src/syscall_c.cpp ****     __asm__ volatile("li a0,0x41");
 516              		.loc 1 110 5
 517              	 #APP
 518              	# 110 "src/syscall_c.cpp" 1
 111              	    __asm__ volatile("ecall");
 519              		li a0,0x41
 520              	# 0 "" 2
 521              		.loc 1 111 5
 522              	# 111 "src/syscall_c.cpp" 1
 112              	    int ret;
 523              		ecall
 524              	# 0 "" 2
 525              		.loc 1 112 5
 113:src/syscall_c.cpp ****     __asm__ volatile("mv %[ret], a0" : [ret]"=r" (ret));
 526              		.loc 1 113 5
 527              	# 113 "src/syscall_c.cpp" 1
 114              	    return ret;
 528              		mv a0, a0
 529              	# 0 "" 2
 530              	.LVL32:
 531              		.loc 1 114 5
 115:src/syscall_c.cpp **** }
 532              		.loc 1 115 1 is_stmt 0
 533              	 #NO_APP
GAS LISTING /tmp/ccaUzDwz.s 			page 12


 534 01d8 1375F50F 		andi	a0,a0,0xff
 535              	.LVL33:
 536 01dc 03348100 		ld	s0,8(sp)
 537              		.cfi_restore 8
 538              		.cfi_def_cfa 2, 16
 539 01e0 13010101 		addi	sp,sp,16
 540              		.cfi_def_cfa_offset 0
 541 01e4 67800000 		jr	ra
 542              		.cfi_endproc
 543              	.LFE10:
 545              		.align	2
 546              		.globl	_Z4putcc
 548              	_Z4putcc:
 549              	.LFB11:
 116:src/syscall_c.cpp **** void putc(char c)
 117:src/syscall_c.cpp **** {
 550              		.loc 1 117 1 is_stmt 1
 551              		.cfi_startproc
 552              	.LVL34:
 553 01e8 130101FF 		addi	sp,sp,-16
 554              		.cfi_def_cfa_offset 16
 555 01ec 23348100 		sd	s0,8(sp)
 556              		.cfi_offset 8, -8
 557 01f0 13040101 		addi	s0,sp,16
 558              		.cfi_def_cfa 8, 0
 118:src/syscall_c.cpp ****     char zh=c;
 559              		.loc 1 118 5
 560              	.LVL35:
 119:src/syscall_c.cpp ****     __asm__ volatile("mv a1,%[handle]"::[handle]"r"(zh));
 561              		.loc 1 119 5
 562              	 #APP
 563              	# 119 "src/syscall_c.cpp" 1
 120              	    __asm__ volatile("li a0,0x42");
 564              		mv a1,a0
 565              	# 0 "" 2
 566              		.loc 1 120 5
 567              	# 120 "src/syscall_c.cpp" 1
 121              	    __asm__ volatile("ecall");
 568              		li a0,0x42
 569              	# 0 "" 2
 570              		.loc 1 121 5
 571              	# 121 "src/syscall_c.cpp" 1
 122              	}
 572              		ecall
 573              	# 0 "" 2
 574              		.loc 1 122 1 is_stmt 0
 575              	 #NO_APP
 576 0200 03348100 		ld	s0,8(sp)
 577              		.cfi_restore 8
 578              		.cfi_def_cfa 2, 16
 579 0204 13010101 		addi	sp,sp,16
 580              		.cfi_def_cfa_offset 0
 581 0208 67800000 		jr	ra
 582              		.cfi_endproc
 583              	.LFE11:
 585              		.align	2
 586              		.globl	_Z10changeUserv
GAS LISTING /tmp/ccaUzDwz.s 			page 13


 588              	_Z10changeUserv:
 589              	.LFB12:
 123:src/syscall_c.cpp **** 
 124:src/syscall_c.cpp **** void changeUser() {
 590              		.loc 1 124 19 is_stmt 1
 591              		.cfi_startproc
 592 020c 130101FF 		addi	sp,sp,-16
 593              		.cfi_def_cfa_offset 16
 594 0210 23348100 		sd	s0,8(sp)
 595              		.cfi_offset 8, -8
 596 0214 13040101 		addi	s0,sp,16
 597              		.cfi_def_cfa 8, 0
 125:src/syscall_c.cpp ****     __asm__ volatile("li a0,0x25");
 598              		.loc 1 125 5
 599              	 #APP
 600              	# 125 "src/syscall_c.cpp" 1
 126              	    __asm__ volatile("ecall");
 601              		li a0,0x25
 602              	# 0 "" 2
 603              		.loc 1 126 5
 604              	# 126 "src/syscall_c.cpp" 1
 127              	    return;
 605              		ecall
 606              	# 0 "" 2
 607              		.loc 1 127 5
 128:src/syscall_c.cpp **** 
 129:src/syscall_c.cpp **** }
 608              		.loc 1 129 1 is_stmt 0
 609              	 #NO_APP
 610 0220 03348100 		ld	s0,8(sp)
 611              		.cfi_restore 8
 612              		.cfi_def_cfa 2, 16
 613 0224 13010101 		addi	sp,sp,16
 614              		.cfi_def_cfa_offset 0
 615 0228 67800000 		jr	ra
 616              		.cfi_endproc
 617              	.LFE12:
 619              	.Letext0:
 620              		.file 2 "src/../h/../lib/hw.h"
 621              		.file 3 "src/../h/syscall_c.h"
GAS LISTING /tmp/ccaUzDwz.s 			page 14

