GAS LISTING /tmp/ccaUzDwz.s 			page 1


   1              		.file	"syscall_c.cpp"
   2              		.option nopic
   3              		.option norelax
   4              		.attribute arch, "rv64i2p0_m2p0_a2p0"
   5              		.attribute unaligned_access, 0
   6              		.attribute stack_align, 16
   7              		.text
   8              	.Ltext0:
   9              		.align	2
  10              		.globl	_Z9mem_allocm
  12              	_Z9mem_allocm:
  13              	.LFB0:
  14              		.file 1 "src/syscall_c.cpp"
   1:src/syscall_c.cpp **** //
   2:src/syscall_c.cpp **** // Created by os on 8/6/22.
   3:src/syscall_c.cpp **** #include "../h/syscall_c.h"
   4:src/syscall_c.cpp **** 
   5:src/syscall_c.cpp **** void *mem_alloc(size_t size) {
  15              		.loc 1 5 30
  16              		.cfi_startproc
  17              	.LVL0:
  18 0000 130101FF 		addi	sp,sp,-16
  19              		.cfi_def_cfa_offset 16
  20 0004 23348100 		sd	s0,8(sp)
  21              		.cfi_offset 8, -8
  22 0008 13040101 		addi	s0,sp,16
  23              		.cfi_def_cfa 8, 0
   6:src/syscall_c.cpp **** 
   7:src/syscall_c.cpp ****     uint64 oper=0x01;
  24              		.loc 1 7 5
  25              	.LVL1:
   8:src/syscall_c.cpp ****     size_t sz=(size+ MEM_BLOCK_SIZE-1)/MEM_BLOCK_SIZE;
  26              		.loc 1 8 5
  27              		.loc 1 8 36 is_stmt 0
  28 000c 1305F503 		addi	a0,a0,63
  29              	.LVL2:
  30              		.loc 1 8 12
  31 0010 13556500 		srli	a0,a0,6
  32              	.LVL3:
   9:src/syscall_c.cpp ****     __asm__ volatile ("mv a1,%[op]" : :[op]"r" (sz));
  33              		.loc 1 9 5 is_stmt 1
  34              	 #APP
  35              	# 9 "src/syscall_c.cpp" 1
  10              	    __asm__ volatile("mv a0,%[oc]" : :[oc]"r" (oper));
  36              		mv a1,a0
  37              	# 0 "" 2
  38              		.loc 1 10 5
  39              	 #NO_APP
  40 0018 93071000 		li	a5,1
  41              	 #APP
  42              	# 10 "src/syscall_c.cpp" 1
  11              	    __asm__ volatile ("ecall");
  43              		mv a0,a5
  44              	# 0 "" 2
  45              		.loc 1 11 5
  46              	# 11 "src/syscall_c.cpp" 1
  12              	    uint64 x;
GAS LISTING /tmp/ccaUzDwz.s 			page 2


  47              		ecall
  48              	# 0 "" 2
  49              		.loc 1 12 5
  13:src/syscall_c.cpp ****     __asm__ volatile("mv %[rx1], a0" : [rx1]"=r" (x));
  50              		.loc 1 13 5
  51              	# 13 "src/syscall_c.cpp" 1
  14              	    return (void*) x;
  52              		mv a0, a0
  53              	# 0 "" 2
  54              	.LVL4:
  55              		.loc 1 14 5
  15:src/syscall_c.cpp **** }
  56              		.loc 1 15 1 is_stmt 0
  57              	 #NO_APP
  58 0028 03348100 		ld	s0,8(sp)
  59              		.cfi_restore 8
  60              		.cfi_def_cfa 2, 16
  61 002c 13010101 		addi	sp,sp,16
  62              		.cfi_def_cfa_offset 0
  63 0030 67800000 		jr	ra
  64              		.cfi_endproc
  65              	.LFE0:
  67              		.align	2
  68              		.globl	_Z8mem_freePv
  70              	_Z8mem_freePv:
  71              	.LFB1:
  16:src/syscall_c.cpp **** 
  17:src/syscall_c.cpp **** int mem_free(void * adr) {
  72              		.loc 1 17 26 is_stmt 1
  73              		.cfi_startproc
  74              	.LVL5:
  75 0034 130101FF 		addi	sp,sp,-16
  76              		.cfi_def_cfa_offset 16
  77 0038 23348100 		sd	s0,8(sp)
  78              		.cfi_offset 8, -8
  79 003c 13040101 		addi	s0,sp,16
  80              		.cfi_def_cfa 8, 0
  18:src/syscall_c.cpp ****     void* adr2=adr;
  81              		.loc 1 18 5
  82              	.LVL6:
  19:src/syscall_c.cpp ****     __asm__ volatile ("mv a1,%[opt]": :[opt]"r" (adr2));
  83              		.loc 1 19 5
  84              	 #APP
  85              	# 19 "src/syscall_c.cpp" 1
  20              	    __asm__ volatile("li a0,0x02");
  86              		mv a1,a0
  87              	# 0 "" 2
  88              		.loc 1 20 5
  89              	# 20 "src/syscall_c.cpp" 1
  21              	    __asm__ volatile ("ecall");
  90              		li a0,0x02
  91              	# 0 "" 2
  92              		.loc 1 21 5
  93              	# 21 "src/syscall_c.cpp" 1
  22              	    uint64 x;
  94              		ecall
  95              	# 0 "" 2
GAS LISTING /tmp/ccaUzDwz.s 			page 3


  96              		.loc 1 22 5
  23:src/syscall_c.cpp ****     __asm__ volatile("mv %[rx12], a0" : [rx12]"=r" (x));
  97              		.loc 1 23 5
  98              	# 23 "src/syscall_c.cpp" 1
  24              	    return x;
  99              		mv a0, a0
 100              	# 0 "" 2
 101              	.LVL7:
 102              		.loc 1 24 5
  25:src/syscall_c.cpp **** }
 103              		.loc 1 25 1 is_stmt 0
 104              	 #NO_APP
 105 0050 1B050500 		sext.w	a0,a0
 106              	.LVL8:
 107 0054 03348100 		ld	s0,8(sp)
 108              		.cfi_restore 8
 109              		.cfi_def_cfa 2, 16
 110 0058 13010101 		addi	sp,sp,16
 111              		.cfi_def_cfa_offset 0
 112 005c 67800000 		jr	ra
 113              		.cfi_endproc
 114              	.LFE1:
 116              		.align	2
 117              		.globl	_Z13thread_createPP3TCBPFvPvES2_
 119              	_Z13thread_createPP3TCBPFvPvES2_:
 120              	.LFB2:
  26:src/syscall_c.cpp **** 
  27:src/syscall_c.cpp **** int thread_create(thread_t *handle, void (*start_routine)(void *), void *arg) {
 121              		.loc 1 27 79 is_stmt 1
 122              		.cfi_startproc
 123              	.LVL9:
 124 0060 130101FF 		addi	sp,sp,-16
 125              		.cfi_def_cfa_offset 16
 126 0064 23348100 		sd	s0,8(sp)
 127              		.cfi_offset 8, -8
 128 0068 13040101 		addi	s0,sp,16
 129              		.cfi_def_cfa 8, 0
  28:src/syscall_c.cpp ****     void* arguments=arg;
 130              		.loc 1 28 5
 131              	.LVL10:
  29:src/syscall_c.cpp ****     __asm__ volatile("mv a3,%[arguments]": :[arguments]"r" (arguments));
 132              		.loc 1 29 5
 133              	 #APP
 134              	# 29 "src/syscall_c.cpp" 1
  30              	    void(*sr)(void*)=start_routine;
 135              		mv a3,a2
 136              	# 0 "" 2
 137              		.loc 1 30 5
 138              	.LVL11:
  31:src/syscall_c.cpp ****     __asm__ volatile("mv a2,%[startr]": :[startr]"r" (sr));
 139              		.loc 1 31 5
 140              	# 31 "src/syscall_c.cpp" 1
  32              	    thread_t* h=handle;
 141              		mv a2,a1
 142              	# 0 "" 2
 143              		.loc 1 32 5
 144              	.LVL12:
GAS LISTING /tmp/ccaUzDwz.s 			page 4


  33:src/syscall_c.cpp ****     __asm__ volatile("mv a1,%[h]": :[h]"r" (h));
 145              		.loc 1 33 5
 146              	# 33 "src/syscall_c.cpp" 1
  34              	    __asm__ volatile("li a0,0x11");
 147              		mv a1,a0
 148              	# 0 "" 2
 149              		.loc 1 34 5
 150              	# 34 "src/syscall_c.cpp" 1
  35              	    __asm__ volatile("ecall");
 151              		li a0,0x11
 152              	# 0 "" 2
 153              		.loc 1 35 5
 154              	# 35 "src/syscall_c.cpp" 1
  36              	    int ret;
 155              		ecall
 156              	# 0 "" 2
 157              		.loc 1 36 5
  37:src/syscall_c.cpp ****     __asm__ volatile("mv %[ret], a0" : [ret]"=r" (ret));
 158              		.loc 1 37 5
 159              	# 37 "src/syscall_c.cpp" 1
  38              	    return ret;
 160              		mv a0, a0
 161              	# 0 "" 2
 162              	.LVL13:
 163              		.loc 1 38 5
  39:src/syscall_c.cpp **** }
 164              		.loc 1 39 1 is_stmt 0
 165              	 #NO_APP
 166 0084 1B050500 		sext.w	a0,a0
 167 0088 03348100 		ld	s0,8(sp)
 168              		.cfi_restore 8
 169              		.cfi_def_cfa 2, 16
 170 008c 13010101 		addi	sp,sp,16
 171              		.cfi_def_cfa_offset 0
 172 0090 67800000 		jr	ra
 173              		.cfi_endproc
 174              	.LFE2:
 176              		.align	2
 177              		.globl	_Z16thread_createCPPPP3TCBPFvPvES2_
 179              	_Z16thread_createCPPPP3TCBPFvPvES2_:
 180              	.LFB3:
  40:src/syscall_c.cpp **** 
  41:src/syscall_c.cpp **** int thread_createCPP(thread_t *handle, void (*start_routine)(void *), void *arg) {
 181              		.loc 1 41 82 is_stmt 1
 182              		.cfi_startproc
 183              	.LVL14:
 184 0094 130101FF 		addi	sp,sp,-16
 185              		.cfi_def_cfa_offset 16
 186 0098 23348100 		sd	s0,8(sp)
 187              		.cfi_offset 8, -8
 188 009c 13040101 		addi	s0,sp,16
 189              		.cfi_def_cfa 8, 0
  42:src/syscall_c.cpp ****     void* arguments=arg;
 190              		.loc 1 42 5
 191              	.LVL15:
  43:src/syscall_c.cpp ****     __asm__ volatile("mv a3,%[arguments]": :[arguments]"r" (arguments));
 192              		.loc 1 43 5
GAS LISTING /tmp/ccaUzDwz.s 			page 5


 193              	 #APP
 194              	# 43 "src/syscall_c.cpp" 1
  44              	    void(*sr)(void*)=start_routine;
 195              		mv a3,a2
 196              	# 0 "" 2
 197              		.loc 1 44 5
 198              	.LVL16:
  45:src/syscall_c.cpp ****     __asm__ volatile("mv a2,%[startr]": :[startr]"r" (sr));
 199              		.loc 1 45 5
 200              	# 45 "src/syscall_c.cpp" 1
  46              	    thread_t* h=handle;
 201              		mv a2,a1
 202              	# 0 "" 2
 203              		.loc 1 46 5
 204              	.LVL17:
  47:src/syscall_c.cpp ****     __asm__ volatile("mv a1,%[h]": :[h]"r" (h));
 205              		.loc 1 47 5
 206              	# 47 "src/syscall_c.cpp" 1
  48              	    __asm__ volatile("li a0,0x14");
 207              		mv a1,a0
 208              	# 0 "" 2
 209              		.loc 1 48 5
 210              	# 48 "src/syscall_c.cpp" 1
  49              	    __asm__ volatile("ecall");
 211              		li a0,0x14
 212              	# 0 "" 2
 213              		.loc 1 49 5
 214              	# 49 "src/syscall_c.cpp" 1
  50              	    int ret;
 215              		ecall
 216              	# 0 "" 2
 217              		.loc 1 50 5
  51:src/syscall_c.cpp ****     __asm__ volatile("mv %[ret], a0" : [ret]"=r" (ret));
 218              		.loc 1 51 5
 219              	# 51 "src/syscall_c.cpp" 1
  52              	    return ret;
 220              		mv a0, a0
 221              	# 0 "" 2
 222              	.LVL18:
 223              		.loc 1 52 5
  53:src/syscall_c.cpp **** }
 224              		.loc 1 53 1 is_stmt 0
 225              	 #NO_APP
 226 00b8 1B050500 		sext.w	a0,a0
 227 00bc 03348100 		ld	s0,8(sp)
 228              		.cfi_restore 8
 229              		.cfi_def_cfa 2, 16
 230 00c0 13010101 		addi	sp,sp,16
 231              		.cfi_def_cfa_offset 0
 232 00c4 67800000 		jr	ra
 233              		.cfi_endproc
 234              	.LFE3:
 236              		.align	2
 237              		.globl	_Z15thread_dispatchv
 239              	_Z15thread_dispatchv:
 240              	.LFB4:
  54:src/syscall_c.cpp **** 
GAS LISTING /tmp/ccaUzDwz.s 			page 6


  55:src/syscall_c.cpp **** void thread_dispatch() {
 241              		.loc 1 55 24 is_stmt 1
 242              		.cfi_startproc
 243 00c8 130101FF 		addi	sp,sp,-16
 244              		.cfi_def_cfa_offset 16
 245 00cc 23348100 		sd	s0,8(sp)
 246              		.cfi_offset 8, -8
 247 00d0 13040101 		addi	s0,sp,16
 248              		.cfi_def_cfa 8, 0
  56:src/syscall_c.cpp ****     __asm__ volatile("li a0,0x13");
 249              		.loc 1 56 5
 250              	 #APP
 251              	# 56 "src/syscall_c.cpp" 1
  57              	    __asm__ volatile("ecall");
 252              		li a0,0x13
 253              	# 0 "" 2
 254              		.loc 1 57 5
 255              	# 57 "src/syscall_c.cpp" 1
  58              	    return;
 256              		ecall
 257              	# 0 "" 2
 258              		.loc 1 58 5
  59:src/syscall_c.cpp **** }
 259              		.loc 1 59 1 is_stmt 0
 260              	 #NO_APP
 261 00dc 03348100 		ld	s0,8(sp)
 262              		.cfi_restore 8
 263              		.cfi_def_cfa 2, 16
 264 00e0 13010101 		addi	sp,sp,16
 265              		.cfi_def_cfa_offset 0
 266 00e4 67800000 		jr	ra
 267              		.cfi_endproc
 268              	.LFE4:
 270              		.align	2
 271              		.globl	_Z11thread_exitv
 273              	_Z11thread_exitv:
 274              	.LFB5:
  60:src/syscall_c.cpp **** 
  61:src/syscall_c.cpp **** int thread_exit() {
 275              		.loc 1 61 19 is_stmt 1
 276              		.cfi_startproc
 277 00e8 130101FF 		addi	sp,sp,-16
 278              		.cfi_def_cfa_offset 16
 279 00ec 23348100 		sd	s0,8(sp)
 280              		.cfi_offset 8, -8
 281 00f0 13040101 		addi	s0,sp,16
 282              		.cfi_def_cfa 8, 0
  62:src/syscall_c.cpp ****     __asm__ volatile("li a0,0x12");
 283              		.loc 1 62 5
 284              	 #APP
 285              	# 62 "src/syscall_c.cpp" 1
  63              	    __asm__ volatile("ecall");
 286              		li a0,0x12
 287              	# 0 "" 2
 288              		.loc 1 63 5
 289              	# 63 "src/syscall_c.cpp" 1
  64              	    return 0;
GAS LISTING /tmp/ccaUzDwz.s 			page 7


 290              		ecall
 291              	# 0 "" 2
 292              		.loc 1 64 5
  65:src/syscall_c.cpp **** }
 293              		.loc 1 65 1 is_stmt 0
 294              	 #NO_APP
 295 00fc 13050000 		li	a0,0
 296 0100 03348100 		ld	s0,8(sp)
 297              		.cfi_restore 8
 298              		.cfi_def_cfa 2, 16
 299 0104 13010101 		addi	sp,sp,16
 300              		.cfi_def_cfa_offset 0
 301 0108 67800000 		jr	ra
 302              		.cfi_endproc
 303              	.LFE5:
 305              		.align	2
 306              		.globl	_Z8sem_openPP3Semj
 308              	_Z8sem_openPP3Semj:
 309              	.LFB6:
  66:src/syscall_c.cpp **** //
  67:src/syscall_c.cpp **** int sem_open(sem_t *handle, unsigned int init) {
 310              		.loc 1 67 48 is_stmt 1
 311              		.cfi_startproc
 312              	.LVL19:
 313 010c 130101FF 		addi	sp,sp,-16
 314              		.cfi_def_cfa_offset 16
 315 0110 23348100 		sd	s0,8(sp)
 316              		.cfi_offset 8, -8
 317 0114 13040101 		addi	s0,sp,16
 318              		.cfi_def_cfa 8, 0
  68:src/syscall_c.cpp ****     unsigned int in=init;
 319              		.loc 1 68 5
 320              	.LVL20:
  69:src/syscall_c.cpp ****     __asm__ volatile("mv a2,%[init]"::[init]"r"(in));
 321              		.loc 1 69 5
 322              	 #APP
 323              	# 69 "src/syscall_c.cpp" 1
  70              	    sem_t* h=handle;
 324              		mv a2,a1
 325              	# 0 "" 2
 326              		.loc 1 70 5
 327              	.LVL21:
  71:src/syscall_c.cpp ****     __asm__ volatile("mv a1,%[handle]"::[handle]"r"(h));
 328              		.loc 1 71 5
 329              	# 71 "src/syscall_c.cpp" 1
  72              	    __asm__ volatile("li a0,0x21");
 330              		mv a1,a0
 331              	# 0 "" 2
 332              		.loc 1 72 5
 333              	# 72 "src/syscall_c.cpp" 1
  73              	    __asm__ volatile("ecall");
 334              		li a0,0x21
 335              	# 0 "" 2
 336              		.loc 1 73 5
 337              	# 73 "src/syscall_c.cpp" 1
  74              	    int ret;
 338              		ecall
GAS LISTING /tmp/ccaUzDwz.s 			page 8


 339              	# 0 "" 2
 340              		.loc 1 74 5
  75:src/syscall_c.cpp ****     __asm__ volatile("mv %[ret], a0" : [ret]"=r" (ret));
 341              		.loc 1 75 5
 342              	# 75 "src/syscall_c.cpp" 1
  76              	    return ret;
 343              		mv a0, a0
 344              	# 0 "" 2
 345              	.LVL22:
 346              		.loc 1 76 5
  77:src/syscall_c.cpp **** }
 347              		.loc 1 77 1 is_stmt 0
 348              	 #NO_APP
 349 012c 1B050500 		sext.w	a0,a0
 350 0130 03348100 		ld	s0,8(sp)
 351              		.cfi_restore 8
 352              		.cfi_def_cfa 2, 16
 353 0134 13010101 		addi	sp,sp,16
 354              		.cfi_def_cfa_offset 0
 355 0138 67800000 		jr	ra
 356              		.cfi_endproc
 357              	.LFE6:
 359              		.align	2
 360              		.globl	_Z9sem_closeP3Sem
 362              	_Z9sem_closeP3Sem:
 363              	.LFB7:
  78:src/syscall_c.cpp **** 
  79:src/syscall_c.cpp **** int sem_close(sem_t handle) {
 364              		.loc 1 79 29 is_stmt 1
 365              		.cfi_startproc
 366              	.LVL23:
 367 013c 130101FF 		addi	sp,sp,-16
 368              		.cfi_def_cfa_offset 16
 369 0140 23348100 		sd	s0,8(sp)
 370              		.cfi_offset 8, -8
 371 0144 13040101 		addi	s0,sp,16
 372              		.cfi_def_cfa 8, 0
  80:src/syscall_c.cpp ****     sem_t h=handle;
 373              		.loc 1 80 5
 374              	.LVL24:
  81:src/syscall_c.cpp ****     __asm__ volatile("mv a1,%[handle]"::[handle]"r"(h));
 375              		.loc 1 81 5
 376              	 #APP
 377              	# 81 "src/syscall_c.cpp" 1
  82              	    __asm__ volatile("li a0,0x22");
 378              		mv a1,a0
 379              	# 0 "" 2
 380              		.loc 1 82 5
 381              	# 82 "src/syscall_c.cpp" 1
  83              	    __asm__ volatile("ecall");
 382              		li a0,0x22
 383              	# 0 "" 2
 384              		.loc 1 83 5
 385              	# 83 "src/syscall_c.cpp" 1
  84              	    int ret;
 386              		ecall
 387              	# 0 "" 2
GAS LISTING /tmp/ccaUzDwz.s 			page 9


 388              		.loc 1 84 5
  85:src/syscall_c.cpp ****     __asm__ volatile("mv %[ret], a0" : [ret]"=r" (ret));
 389              		.loc 1 85 5
 390              	# 85 "src/syscall_c.cpp" 1
  86              	    return ret;
 391              		mv a0, a0
 392              	# 0 "" 2
 393              	.LVL25:
 394              		.loc 1 86 5
  87:src/syscall_c.cpp **** }
 395              		.loc 1 87 1 is_stmt 0
 396              	 #NO_APP
 397 0158 1B050500 		sext.w	a0,a0
 398 015c 03348100 		ld	s0,8(sp)
 399              		.cfi_restore 8
 400              		.cfi_def_cfa 2, 16
 401 0160 13010101 		addi	sp,sp,16
 402              		.cfi_def_cfa_offset 0
 403 0164 67800000 		jr	ra
 404              		.cfi_endproc
 405              	.LFE7:
 407              		.align	2
 408              		.globl	_Z8sem_waitP3Sem
 410              	_Z8sem_waitP3Sem:
 411              	.LFB8:
  88:src/syscall_c.cpp **** 
  89:src/syscall_c.cpp **** int sem_wait(sem_t id) {
 412              		.loc 1 89 24 is_stmt 1
 413              		.cfi_startproc
 414              	.LVL26:
 415 0168 130101FF 		addi	sp,sp,-16
 416              		.cfi_def_cfa_offset 16
 417 016c 23348100 		sd	s0,8(sp)
 418              		.cfi_offset 8, -8
 419 0170 13040101 		addi	s0,sp,16
 420              		.cfi_def_cfa 8, 0
  90:src/syscall_c.cpp ****     sem_t h=id;
 421              		.loc 1 90 5
 422              	.LVL27:
  91:src/syscall_c.cpp ****     __asm__ volatile("mv a1,%[handle]"::[handle]"r"(h));
 423              		.loc 1 91 5
 424              	 #APP
 425              	# 91 "src/syscall_c.cpp" 1
  92              	    __asm__ volatile("li a0,0x23");
 426              		mv a1,a0
 427              	# 0 "" 2
 428              		.loc 1 92 5
 429              	# 92 "src/syscall_c.cpp" 1
  93              	    __asm__ volatile("ecall");
 430              		li a0,0x23
 431              	# 0 "" 2
 432              		.loc 1 93 5
 433              	# 93 "src/syscall_c.cpp" 1
  94              	    int ret;
 434              		ecall
 435              	# 0 "" 2
 436              		.loc 1 94 5
GAS LISTING /tmp/ccaUzDwz.s 			page 10


  95:src/syscall_c.cpp ****     __asm__ volatile("mv %[ret], a0" : [ret]"=r" (ret));
 437              		.loc 1 95 5
 438              	# 95 "src/syscall_c.cpp" 1
  96              	    return ret;
 439              		mv a0, a0
 440              	# 0 "" 2
 441              	.LVL28:
 442              		.loc 1 96 5
  97:src/syscall_c.cpp **** }
 443              		.loc 1 97 1 is_stmt 0
 444              	 #NO_APP
 445 0184 1B050500 		sext.w	a0,a0
 446 0188 03348100 		ld	s0,8(sp)
 447              		.cfi_restore 8
 448              		.cfi_def_cfa 2, 16
 449 018c 13010101 		addi	sp,sp,16
 450              		.cfi_def_cfa_offset 0
 451 0190 67800000 		jr	ra
 452              		.cfi_endproc
 453              	.LFE8:
 455              		.align	2
 456              		.globl	_Z10sem_signalP3Sem
 458              	_Z10sem_signalP3Sem:
 459              	.LFB9:
  98:src/syscall_c.cpp **** 
  99:src/syscall_c.cpp **** int sem_signal(sem_t id) {
 460              		.loc 1 99 26 is_stmt 1
 461              		.cfi_startproc
 462              	.LVL29:
 463 0194 130101FF 		addi	sp,sp,-16
 464              		.cfi_def_cfa_offset 16
 465 0198 23348100 		sd	s0,8(sp)
 466              		.cfi_offset 8, -8
 467 019c 13040101 		addi	s0,sp,16
 468              		.cfi_def_cfa 8, 0
 100:src/syscall_c.cpp ****     sem_t h=id;
 469              		.loc 1 100 5
 470              	.LVL30:
 101:src/syscall_c.cpp ****     __asm__ volatile("mv a1,%[handle]"::[handle]"r"(h));
 471              		.loc 1 101 5
 472              	 #APP
 473              	# 101 "src/syscall_c.cpp" 1
 102              	    __asm__ volatile("li a0,0x24");
 474              		mv a1,a0
 475              	# 0 "" 2
 476              		.loc 1 102 5
 477              	# 102 "src/syscall_c.cpp" 1
 103              	    __asm__ volatile("ecall");
 478              		li a0,0x24
 479              	# 0 "" 2
 480              		.loc 1 103 5
 481              	# 103 "src/syscall_c.cpp" 1
 104              	    int ret;
 482              		ecall
 483              	# 0 "" 2
 484              		.loc 1 104 5
 105:src/syscall_c.cpp ****     __asm__ volatile("mv %[ret], a0" : [ret]"=r" (ret));
GAS LISTING /tmp/ccaUzDwz.s 			page 11


 485              		.loc 1 105 5
 486              	# 105 "src/syscall_c.cpp" 1
 106              	    return ret;
 487              		mv a0, a0
 488              	# 0 "" 2
 489              	.LVL31:
 490              		.loc 1 106 5
 107:src/syscall_c.cpp **** }
 491              		.loc 1 107 1 is_stmt 0
 492              	 #NO_APP
 493 01b0 1B050500 		sext.w	a0,a0
 494 01b4 03348100 		ld	s0,8(sp)
 495              		.cfi_restore 8
 496              		.cfi_def_cfa 2, 16
 497 01b8 13010101 		addi	sp,sp,16
 498              		.cfi_def_cfa_offset 0
 499 01bc 67800000 		jr	ra
 500              		.cfi_endproc
 501              	.LFE9:
 503              		.align	2
 504              		.globl	_Z4getcv
 506              	_Z4getcv:
 507              	.LFB10:
 108:src/syscall_c.cpp **** char getc()
 109:src/syscall_c.cpp **** {
 508              		.loc 1 109 1 is_stmt 1
 509              		.cfi_startproc
 510 01c0 130101FF 		addi	sp,sp,-16
 511              		.cfi_def_cfa_offset 16
 512 01c4 23348100 		sd	s0,8(sp)
 513              		.cfi_offset 8, -8
 514 01c8 13040101 		addi	s0,sp,16
 515              		.cfi_def_cfa 8, 0
 110:src/syscall_c.cpp ****     __asm__ volatile("li a0,0x41");
 516              		.loc 1 110 5
 517              	 #APP
 518              	# 110 "src/syscall_c.cpp" 1
 111              	    __asm__ volatile("ecall");
 519              		li a0,0x41
 520              	# 0 "" 2
 521              		.loc 1 111 5
 522              	# 111 "src/syscall_c.cpp" 1
 112              	    int ret;
 523              		ecall
 524              	# 0 "" 2
 525              		.loc 1 112 5
 113:src/syscall_c.cpp ****     __asm__ volatile("mv %[ret], a0" : [ret]"=r" (ret));
 526              		.loc 1 113 5
 527              	# 113 "src/syscall_c.cpp" 1
 114              	    return ret;
 528              		mv a0, a0
 529              	# 0 "" 2
 530              	.LVL32:
 531              		.loc 1 114 5
 115:src/syscall_c.cpp **** }
 532              		.loc 1 115 1 is_stmt 0
 533              	 #NO_APP
GAS LISTING /tmp/ccaUzDwz.s 			page 12


 534 01d8 1375F50F 		andi	a0,a0,0xff
 535              	.LVL33:
 536 01dc 03348100 		ld	s0,8(sp)
 537              		.cfi_restore 8
 538              		.cfi_def_cfa 2, 16
 539 01e0 13010101 		addi	sp,sp,16
 540              		.cfi_def_cfa_offset 0
 541 01e4 67800000 		jr	ra
 542              		.cfi_endproc
 543              	.LFE10:
 545              		.align	2
 546              		.globl	_Z4putcc
 548              	_Z4putcc:
 549              	.LFB11:
 116:src/syscall_c.cpp **** void putc(char c)
 117:src/syscall_c.cpp **** {
 550              		.loc 1 117 1 is_stmt 1
 551              		.cfi_startproc
 552              	.LVL34:
 553 01e8 130101FF 		addi	sp,sp,-16
 554              		.cfi_def_cfa_offset 16
 555 01ec 23348100 		sd	s0,8(sp)
 556              		.cfi_offset 8, -8
 557 01f0 13040101 		addi	s0,sp,16
 558              		.cfi_def_cfa 8, 0
 118:src/syscall_c.cpp ****     char zh=c;
 559              		.loc 1 118 5
 560              	.LVL35:
 119:src/syscall_c.cpp ****     __asm__ volatile("mv a1,%[handle]"::[handle]"r"(zh));
 561              		.loc 1 119 5
 562              	 #APP
 563              	# 119 "src/syscall_c.cpp" 1
 120              	    __asm__ volatile("li a0,0x42");
 564              		mv a1,a0
 565              	# 0 "" 2
 566              		.loc 1 120 5
 567              	# 120 "src/syscall_c.cpp" 1
 121              	    __asm__ volatile("ecall");
 568              		li a0,0x42
 569              	# 0 "" 2
 570              		.loc 1 121 5
 571              	# 121 "src/syscall_c.cpp" 1
 122              	}
 572              		ecall
 573              	# 0 "" 2
 574              		.loc 1 122 1 is_stmt 0
 575              	 #NO_APP
 576 0200 03348100 		ld	s0,8(sp)
 577              		.cfi_restore 8
 578              		.cfi_def_cfa 2, 16
 579 0204 13010101 		addi	sp,sp,16
 580              		.cfi_def_cfa_offset 0
 581 0208 67800000 		jr	ra
 582              		.cfi_endproc
 583              	.LFE11:
 585              		.align	2
 586              		.globl	_Z10changeUserv
GAS LISTING /tmp/ccaUzDwz.s 			page 13


 588              	_Z10changeUserv:
 589              	.LFB12:
 123:src/syscall_c.cpp **** 
 124:src/syscall_c.cpp **** void changeUser() {
 590              		.loc 1 124 19 is_stmt 1
 591              		.cfi_startproc
 592 020c 130101FF 		addi	sp,sp,-16
 593              		.cfi_def_cfa_offset 16
 594 0210 23348100 		sd	s0,8(sp)
 595              		.cfi_offset 8, -8
 596 0214 13040101 		addi	s0,sp,16
 597              		.cfi_def_cfa 8, 0
 125:src/syscall_c.cpp ****     __asm__ volatile("li a0,0x25");
 598              		.loc 1 125 5
 599              	 #APP
 600              	# 125 "src/syscall_c.cpp" 1
 126              	    __asm__ volatile("ecall");
 601              		li a0,0x25
 602              	# 0 "" 2
 603              		.loc 1 126 5
 604              	# 126 "src/syscall_c.cpp" 1
 127              	    return;
 605              		ecall
 606              	# 0 "" 2
 607              		.loc 1 127 5
 128:src/syscall_c.cpp **** 
 129:src/syscall_c.cpp **** }
 608              		.loc 1 129 1 is_stmt 0
 609              	 #NO_APP
 610 0220 03348100 		ld	s0,8(sp)
 611              		.cfi_restore 8
 612              		.cfi_def_cfa 2, 16
 613 0224 13010101 		addi	sp,sp,16
 614              		.cfi_def_cfa_offset 0
 615 0228 67800000 		jr	ra
 616              		.cfi_endproc
 617              	.LFE12:
 619              	.Letext0:
 620              		.file 2 "src/../h/../lib/hw.h"
 621              		.file 3 "src/../h/syscall_c.h"
GAS LISTING /tmp/ccaUzDwz.s 			page 14


DEFINED SYMBOLS
                            *ABS*:0000000000000000 syscall_c.cpp
     /tmp/ccaUzDwz.s:12     .text:0000000000000000 _Z9mem_allocm
     /tmp/ccaUzDwz.s:16     .text:0000000000000000 .L0 
     /tmp/ccaUzDwz.s:18     .text:0000000000000000 .L0 
     /tmp/ccaUzDwz.s:19     .text:0000000000000004 .L0 
     /tmp/ccaUzDwz.s:21     .text:0000000000000008 .L0 
     /tmp/ccaUzDwz.s:23     .text:000000000000000c .L0 
     /tmp/ccaUzDwz.s:26     .text:000000000000000c .L0 
     /tmp/ccaUzDwz.s:27     .text:000000000000000c .L0 
     /tmp/ccaUzDwz.s:28     .text:000000000000000c .L0 
     /tmp/ccaUzDwz.s:31     .text:0000000000000010 .L0 
   src/syscall_c.cpp:9      .text:0000000000000014 .L0 
     /tmp/ccaUzDwz.s:40     .text:0000000000000018 .L0 
   src/syscall_c.cpp:11     .text:0000000000000020 .L0 
     /tmp/ccaUzDwz.s:50     .text:0000000000000024 .L0 
   src/syscall_c.cpp:13     .text:0000000000000024 .L0 
     /tmp/ccaUzDwz.s:56     .text:0000000000000028 .L0 
     /tmp/ccaUzDwz.s:58     .text:0000000000000028 .L0 
     /tmp/ccaUzDwz.s:59     .text:000000000000002c .L0 
     /tmp/ccaUzDwz.s:60     .text:000000000000002c .L0 
     /tmp/ccaUzDwz.s:62     .text:0000000000000030 .L0 
     /tmp/ccaUzDwz.s:64     .text:0000000000000034 .L0 
     /tmp/ccaUzDwz.s:70     .text:0000000000000034 _Z8mem_freePv
     /tmp/ccaUzDwz.s:73     .text:0000000000000034 .L0 
     /tmp/ccaUzDwz.s:75     .text:0000000000000034 .L0 
     /tmp/ccaUzDwz.s:76     .text:0000000000000038 .L0 
     /tmp/ccaUzDwz.s:78     .text:000000000000003c .L0 
     /tmp/ccaUzDwz.s:80     .text:0000000000000040 .L0 
     /tmp/ccaUzDwz.s:83     .text:0000000000000040 .L0 
   src/syscall_c.cpp:19     .text:0000000000000040 .L0 
   src/syscall_c.cpp:20     .text:0000000000000044 .L0 
   src/syscall_c.cpp:21     .text:0000000000000048 .L0 
     /tmp/ccaUzDwz.s:97     .text:000000000000004c .L0 
   src/syscall_c.cpp:23     .text:000000000000004c .L0 
     /tmp/ccaUzDwz.s:103    .text:0000000000000050 .L0 
     /tmp/ccaUzDwz.s:105    .text:0000000000000050 .L0 
     /tmp/ccaUzDwz.s:108    .text:0000000000000058 .L0 
     /tmp/ccaUzDwz.s:109    .text:0000000000000058 .L0 
     /tmp/ccaUzDwz.s:111    .text:000000000000005c .L0 
     /tmp/ccaUzDwz.s:113    .text:0000000000000060 .L0 
     /tmp/ccaUzDwz.s:119    .text:0000000000000060 _Z13thread_createPP3TCBPFvPvES2_
     /tmp/ccaUzDwz.s:122    .text:0000000000000060 .L0 
     /tmp/ccaUzDwz.s:124    .text:0000000000000060 .L0 
     /tmp/ccaUzDwz.s:125    .text:0000000000000064 .L0 
     /tmp/ccaUzDwz.s:127    .text:0000000000000068 .L0 
     /tmp/ccaUzDwz.s:129    .text:000000000000006c .L0 
     /tmp/ccaUzDwz.s:132    .text:000000000000006c .L0 
   src/syscall_c.cpp:29     .text:000000000000006c .L0 
     /tmp/ccaUzDwz.s:139    .text:0000000000000070 .L0 
   src/syscall_c.cpp:31     .text:0000000000000070 .L0 
     /tmp/ccaUzDwz.s:145    .text:0000000000000074 .L0 
   src/syscall_c.cpp:33     .text:0000000000000074 .L0 
   src/syscall_c.cpp:34     .text:0000000000000078 .L0 
   src/syscall_c.cpp:35     .text:000000000000007c .L0 
     /tmp/ccaUzDwz.s:158    .text:0000000000000080 .L0 
   src/syscall_c.cpp:37     .text:0000000000000080 .L0 
GAS LISTING /tmp/ccaUzDwz.s 			page 15


     /tmp/ccaUzDwz.s:164    .text:0000000000000084 .L0 
     /tmp/ccaUzDwz.s:166    .text:0000000000000084 .L0 
     /tmp/ccaUzDwz.s:168    .text:000000000000008c .L0 
     /tmp/ccaUzDwz.s:169    .text:000000000000008c .L0 
     /tmp/ccaUzDwz.s:171    .text:0000000000000090 .L0 
     /tmp/ccaUzDwz.s:173    .text:0000000000000094 .L0 
     /tmp/ccaUzDwz.s:179    .text:0000000000000094 _Z16thread_createCPPPP3TCBPFvPvES2_
     /tmp/ccaUzDwz.s:182    .text:0000000000000094 .L0 
     /tmp/ccaUzDwz.s:184    .text:0000000000000094 .L0 
     /tmp/ccaUzDwz.s:185    .text:0000000000000098 .L0 
     /tmp/ccaUzDwz.s:187    .text:000000000000009c .L0 
     /tmp/ccaUzDwz.s:189    .text:00000000000000a0 .L0 
     /tmp/ccaUzDwz.s:192    .text:00000000000000a0 .L0 
   src/syscall_c.cpp:43     .text:00000000000000a0 .L0 
     /tmp/ccaUzDwz.s:199    .text:00000000000000a4 .L0 
   src/syscall_c.cpp:45     .text:00000000000000a4 .L0 
     /tmp/ccaUzDwz.s:205    .text:00000000000000a8 .L0 
   src/syscall_c.cpp:47     .text:00000000000000a8 .L0 
   src/syscall_c.cpp:48     .text:00000000000000ac .L0 
   src/syscall_c.cpp:49     .text:00000000000000b0 .L0 
     /tmp/ccaUzDwz.s:218    .text:00000000000000b4 .L0 
   src/syscall_c.cpp:51     .text:00000000000000b4 .L0 
     /tmp/ccaUzDwz.s:224    .text:00000000000000b8 .L0 
     /tmp/ccaUzDwz.s:226    .text:00000000000000b8 .L0 
     /tmp/ccaUzDwz.s:228    .text:00000000000000c0 .L0 
     /tmp/ccaUzDwz.s:229    .text:00000000000000c0 .L0 
     /tmp/ccaUzDwz.s:231    .text:00000000000000c4 .L0 
     /tmp/ccaUzDwz.s:233    .text:00000000000000c8 .L0 
     /tmp/ccaUzDwz.s:239    .text:00000000000000c8 _Z15thread_dispatchv
     /tmp/ccaUzDwz.s:242    .text:00000000000000c8 .L0 
     /tmp/ccaUzDwz.s:243    .text:00000000000000c8 .L0 
     /tmp/ccaUzDwz.s:244    .text:00000000000000cc .L0 
     /tmp/ccaUzDwz.s:246    .text:00000000000000d0 .L0 
     /tmp/ccaUzDwz.s:248    .text:00000000000000d4 .L0 
   src/syscall_c.cpp:56     .text:00000000000000d4 .L0 
   src/syscall_c.cpp:57     .text:00000000000000d8 .L0 
     /tmp/ccaUzDwz.s:259    .text:00000000000000dc .L0 
     /tmp/ccaUzDwz.s:261    .text:00000000000000dc .L0 
     /tmp/ccaUzDwz.s:262    .text:00000000000000e0 .L0 
     /tmp/ccaUzDwz.s:263    .text:00000000000000e0 .L0 
     /tmp/ccaUzDwz.s:265    .text:00000000000000e4 .L0 
     /tmp/ccaUzDwz.s:267    .text:00000000000000e8 .L0 
     /tmp/ccaUzDwz.s:273    .text:00000000000000e8 _Z11thread_exitv
     /tmp/ccaUzDwz.s:276    .text:00000000000000e8 .L0 
     /tmp/ccaUzDwz.s:277    .text:00000000000000e8 .L0 
     /tmp/ccaUzDwz.s:278    .text:00000000000000ec .L0 
     /tmp/ccaUzDwz.s:280    .text:00000000000000f0 .L0 
     /tmp/ccaUzDwz.s:282    .text:00000000000000f4 .L0 
   src/syscall_c.cpp:62     .text:00000000000000f4 .L0 
   src/syscall_c.cpp:63     .text:00000000000000f8 .L0 
     /tmp/ccaUzDwz.s:293    .text:00000000000000fc .L0 
     /tmp/ccaUzDwz.s:295    .text:00000000000000fc .L0 
     /tmp/ccaUzDwz.s:297    .text:0000000000000104 .L0 
     /tmp/ccaUzDwz.s:298    .text:0000000000000104 .L0 
     /tmp/ccaUzDwz.s:300    .text:0000000000000108 .L0 
     /tmp/ccaUzDwz.s:302    .text:000000000000010c .L0 
     /tmp/ccaUzDwz.s:308    .text:000000000000010c _Z8sem_openPP3Semj
GAS LISTING /tmp/ccaUzDwz.s 			page 16


     /tmp/ccaUzDwz.s:311    .text:000000000000010c .L0 
     /tmp/ccaUzDwz.s:313    .text:000000000000010c .L0 
     /tmp/ccaUzDwz.s:314    .text:0000000000000110 .L0 
     /tmp/ccaUzDwz.s:316    .text:0000000000000114 .L0 
     /tmp/ccaUzDwz.s:318    .text:0000000000000118 .L0 
     /tmp/ccaUzDwz.s:321    .text:0000000000000118 .L0 
   src/syscall_c.cpp:69     .text:0000000000000118 .L0 
     /tmp/ccaUzDwz.s:328    .text:000000000000011c .L0 
   src/syscall_c.cpp:71     .text:000000000000011c .L0 
   src/syscall_c.cpp:72     .text:0000000000000120 .L0 
   src/syscall_c.cpp:73     .text:0000000000000124 .L0 
     /tmp/ccaUzDwz.s:341    .text:0000000000000128 .L0 
   src/syscall_c.cpp:75     .text:0000000000000128 .L0 
     /tmp/ccaUzDwz.s:347    .text:000000000000012c .L0 
     /tmp/ccaUzDwz.s:349    .text:000000000000012c .L0 
     /tmp/ccaUzDwz.s:351    .text:0000000000000134 .L0 
     /tmp/ccaUzDwz.s:352    .text:0000000000000134 .L0 
     /tmp/ccaUzDwz.s:354    .text:0000000000000138 .L0 
     /tmp/ccaUzDwz.s:356    .text:000000000000013c .L0 
     /tmp/ccaUzDwz.s:362    .text:000000000000013c _Z9sem_closeP3Sem
     /tmp/ccaUzDwz.s:365    .text:000000000000013c .L0 
     /tmp/ccaUzDwz.s:367    .text:000000000000013c .L0 
     /tmp/ccaUzDwz.s:368    .text:0000000000000140 .L0 
     /tmp/ccaUzDwz.s:370    .text:0000000000000144 .L0 
     /tmp/ccaUzDwz.s:372    .text:0000000000000148 .L0 
     /tmp/ccaUzDwz.s:375    .text:0000000000000148 .L0 
   src/syscall_c.cpp:81     .text:0000000000000148 .L0 
   src/syscall_c.cpp:82     .text:000000000000014c .L0 
   src/syscall_c.cpp:83     .text:0000000000000150 .L0 
     /tmp/ccaUzDwz.s:389    .text:0000000000000154 .L0 
   src/syscall_c.cpp:85     .text:0000000000000154 .L0 
     /tmp/ccaUzDwz.s:395    .text:0000000000000158 .L0 
     /tmp/ccaUzDwz.s:397    .text:0000000000000158 .L0 
     /tmp/ccaUzDwz.s:399    .text:0000000000000160 .L0 
     /tmp/ccaUzDwz.s:400    .text:0000000000000160 .L0 
     /tmp/ccaUzDwz.s:402    .text:0000000000000164 .L0 
     /tmp/ccaUzDwz.s:404    .text:0000000000000168 .L0 
     /tmp/ccaUzDwz.s:410    .text:0000000000000168 _Z8sem_waitP3Sem
     /tmp/ccaUzDwz.s:413    .text:0000000000000168 .L0 
     /tmp/ccaUzDwz.s:415    .text:0000000000000168 .L0 
     /tmp/ccaUzDwz.s:416    .text:000000000000016c .L0 
     /tmp/ccaUzDwz.s:418    .text:0000000000000170 .L0 
     /tmp/ccaUzDwz.s:420    .text:0000000000000174 .L0 
     /tmp/ccaUzDwz.s:423    .text:0000000000000174 .L0 
   src/syscall_c.cpp:91     .text:0000000000000174 .L0 
   src/syscall_c.cpp:92     .text:0000000000000178 .L0 
   src/syscall_c.cpp:93     .text:000000000000017c .L0 
     /tmp/ccaUzDwz.s:437    .text:0000000000000180 .L0 
   src/syscall_c.cpp:95     .text:0000000000000180 .L0 
     /tmp/ccaUzDwz.s:443    .text:0000000000000184 .L0 
     /tmp/ccaUzDwz.s:445    .text:0000000000000184 .L0 
     /tmp/ccaUzDwz.s:447    .text:000000000000018c .L0 
     /tmp/ccaUzDwz.s:448    .text:000000000000018c .L0 
     /tmp/ccaUzDwz.s:450    .text:0000000000000190 .L0 
     /tmp/ccaUzDwz.s:452    .text:0000000000000194 .L0 
     /tmp/ccaUzDwz.s:458    .text:0000000000000194 _Z10sem_signalP3Sem
     /tmp/ccaUzDwz.s:461    .text:0000000000000194 .L0 
GAS LISTING /tmp/ccaUzDwz.s 			page 17


     /tmp/ccaUzDwz.s:463    .text:0000000000000194 .L0 
     /tmp/ccaUzDwz.s:464    .text:0000000000000198 .L0 
     /tmp/ccaUzDwz.s:466    .text:000000000000019c .L0 
     /tmp/ccaUzDwz.s:468    .text:00000000000001a0 .L0 
     /tmp/ccaUzDwz.s:471    .text:00000000000001a0 .L0 
   src/syscall_c.cpp:101    .text:00000000000001a0 .L0 
   src/syscall_c.cpp:102    .text:00000000000001a4 .L0 
   src/syscall_c.cpp:103    .text:00000000000001a8 .L0 
     /tmp/ccaUzDwz.s:485    .text:00000000000001ac .L0 
   src/syscall_c.cpp:105    .text:00000000000001ac .L0 
     /tmp/ccaUzDwz.s:491    .text:00000000000001b0 .L0 
     /tmp/ccaUzDwz.s:493    .text:00000000000001b0 .L0 
     /tmp/ccaUzDwz.s:495    .text:00000000000001b8 .L0 
     /tmp/ccaUzDwz.s:496    .text:00000000000001b8 .L0 
     /tmp/ccaUzDwz.s:498    .text:00000000000001bc .L0 
     /tmp/ccaUzDwz.s:500    .text:00000000000001c0 .L0 
     /tmp/ccaUzDwz.s:506    .text:00000000000001c0 _Z4getcv
     /tmp/ccaUzDwz.s:509    .text:00000000000001c0 .L0 
     /tmp/ccaUzDwz.s:510    .text:00000000000001c0 .L0 
     /tmp/ccaUzDwz.s:511    .text:00000000000001c4 .L0 
     /tmp/ccaUzDwz.s:513    .text:00000000000001c8 .L0 
     /tmp/ccaUzDwz.s:515    .text:00000000000001cc .L0 
   src/syscall_c.cpp:110    .text:00000000000001cc .L0 
   src/syscall_c.cpp:111    .text:00000000000001d0 .L0 
     /tmp/ccaUzDwz.s:526    .text:00000000000001d4 .L0 
   src/syscall_c.cpp:113    .text:00000000000001d4 .L0 
     /tmp/ccaUzDwz.s:532    .text:00000000000001d8 .L0 
     /tmp/ccaUzDwz.s:534    .text:00000000000001d8 .L0 
     /tmp/ccaUzDwz.s:537    .text:00000000000001e0 .L0 
     /tmp/ccaUzDwz.s:538    .text:00000000000001e0 .L0 
     /tmp/ccaUzDwz.s:540    .text:00000000000001e4 .L0 
     /tmp/ccaUzDwz.s:542    .text:00000000000001e8 .L0 
     /tmp/ccaUzDwz.s:548    .text:00000000000001e8 _Z4putcc
     /tmp/ccaUzDwz.s:551    .text:00000000000001e8 .L0 
     /tmp/ccaUzDwz.s:553    .text:00000000000001e8 .L0 
     /tmp/ccaUzDwz.s:554    .text:00000000000001ec .L0 
     /tmp/ccaUzDwz.s:556    .text:00000000000001f0 .L0 
     /tmp/ccaUzDwz.s:558    .text:00000000000001f4 .L0 
     /tmp/ccaUzDwz.s:561    .text:00000000000001f4 .L0 
   src/syscall_c.cpp:119    .text:00000000000001f4 .L0 
   src/syscall_c.cpp:120    .text:00000000000001f8 .L0 
   src/syscall_c.cpp:121    .text:00000000000001fc .L0 
     /tmp/ccaUzDwz.s:576    .text:0000000000000200 .L0 
     /tmp/ccaUzDwz.s:577    .text:0000000000000204 .L0 
     /tmp/ccaUzDwz.s:578    .text:0000000000000204 .L0 
     /tmp/ccaUzDwz.s:580    .text:0000000000000208 .L0 
     /tmp/ccaUzDwz.s:582    .text:000000000000020c .L0 
     /tmp/ccaUzDwz.s:588    .text:000000000000020c _Z10changeUserv
     /tmp/ccaUzDwz.s:591    .text:000000000000020c .L0 
     /tmp/ccaUzDwz.s:592    .text:000000000000020c .L0 
     /tmp/ccaUzDwz.s:593    .text:0000000000000210 .L0 
     /tmp/ccaUzDwz.s:595    .text:0000000000000214 .L0 
     /tmp/ccaUzDwz.s:597    .text:0000000000000218 .L0 
   src/syscall_c.cpp:125    .text:0000000000000218 .L0 
   src/syscall_c.cpp:126    .text:000000000000021c .L0 
     /tmp/ccaUzDwz.s:608    .text:0000000000000220 .L0 
     /tmp/ccaUzDwz.s:610    .text:0000000000000220 .L0 
GAS LISTING /tmp/ccaUzDwz.s 			page 18


     /tmp/ccaUzDwz.s:611    .text:0000000000000224 .L0 
     /tmp/ccaUzDwz.s:612    .text:0000000000000224 .L0 
     /tmp/ccaUzDwz.s:614    .text:0000000000000228 .L0 
     /tmp/ccaUzDwz.s:616    .text:000000000000022c .L0 
     /tmp/ccaUzDwz.s:622    .text:000000000000022c .L0 
     /tmp/ccaUzDwz.s:1202   .debug_abbrev:0000000000000000 .Ldebug_abbrev0
     /tmp/ccaUzDwz.s:1918   .debug_str:0000000000000122 .LASF46
     /tmp/ccaUzDwz.s:1974   .debug_str:000000000000036c .LASF47
     /tmp/ccaUzDwz.s:1948   .debug_str:0000000000000297 .LASF48
     /tmp/ccaUzDwz.s:8      .text:0000000000000000 .Ltext0
     /tmp/ccaUzDwz.s:619    .text:000000000000022c .Letext0
     /tmp/ccaUzDwz.s:1874   .debug_line:0000000000000000 .Ldebug_line0
     /tmp/ccaUzDwz.s:1932   .debug_str:0000000000000232 .LASF0
     /tmp/ccaUzDwz.s:1908   .debug_str:00000000000000e2 .LASF1
     /tmp/ccaUzDwz.s:1902   .debug_str:00000000000000bd .LASF2
     /tmp/ccaUzDwz.s:1890   .debug_str:000000000000007a .LASF4
     /tmp/ccaUzDwz.s:1906   .debug_str:00000000000000d0 .LASF3
     /tmp/ccaUzDwz.s:1882   .debug_str:0000000000000033 .LASF5
     /tmp/ccaUzDwz.s:1880   .debug_str:0000000000000020 .LASF6
     /tmp/ccaUzDwz.s:1900   .debug_str:00000000000000aa .LASF7
     /tmp/ccaUzDwz.s:1976   .debug_str:000000000000037e .LASF8
     /tmp/ccaUzDwz.s:1912   .debug_str:00000000000000fe .LASF9
     /tmp/ccaUzDwz.s:1888   .debug_str:0000000000000064 .LASF10
     /tmp/ccaUzDwz.s:1938   .debug_str:0000000000000254 .LASF11
     /tmp/ccaUzDwz.s:1940   .debug_str:000000000000026a .LASF12
     /tmp/ccaUzDwz.s:1884   .debug_str:000000000000003a .LASF13
     /tmp/ccaUzDwz.s:1942   .debug_str:0000000000000273 .LASF27
     /tmp/ccaUzDwz.s:1936   .debug_str:0000000000000244 .LASF29
     /tmp/ccaUzDwz.s:589    .text:000000000000020c .LFB12
     /tmp/ccaUzDwz.s:617    .text:000000000000022c .LFE12
     /tmp/ccaUzDwz.s:1952   .debug_str:00000000000002ef .LASF40
     /tmp/ccaUzDwz.s:1910   .debug_str:00000000000000f5 .LASF42
     /tmp/ccaUzDwz.s:549    .text:00000000000001e8 .LFB11
     /tmp/ccaUzDwz.s:583    .text:000000000000020c .LFE11
     /tmp/ccaUzDwz.s:1934   .debug_str:000000000000023f .LASF14
     /tmp/ccaUzDwz.s:1904   .debug_str:00000000000000cb .LASF15
     /tmp/ccaUzDwz.s:1970   .debug_str:000000000000035e .LASF17
     /tmp/ccaUzDwz.s:507    .text:00000000000001c0 .LFB10
     /tmp/ccaUzDwz.s:543    .text:00000000000001e8 .LFE10
     /tmp/ccaUzDwz.s:1613   .debug_loc:0000000000000000 .LLST17
     /tmp/ccaUzDwz.s:1920   .debug_str:00000000000001e7 .LASF16
     /tmp/ccaUzDwz.s:1954   .debug_str:00000000000002f4 .LASF18
     /tmp/ccaUzDwz.s:459    .text:0000000000000194 .LFB9
     /tmp/ccaUzDwz.s:501    .text:00000000000001c0 .LFE9
     /tmp/ccaUzDwz.s:1620   .debug_loc:0000000000000023 .LLST15
     /tmp/ccaUzDwz.s:1634   .debug_loc:000000000000005c .LLST16
     /tmp/ccaUzDwz.s:1924   .debug_str:00000000000001f7 .LASF19
     /tmp/ccaUzDwz.s:1930   .debug_str:0000000000000221 .LASF20
     /tmp/ccaUzDwz.s:411    .text:0000000000000168 .LFB8
     /tmp/ccaUzDwz.s:453    .text:0000000000000194 .LFE8
     /tmp/ccaUzDwz.s:1648   .debug_loc:0000000000000095 .LLST13
     /tmp/ccaUzDwz.s:1662   .debug_loc:00000000000000ce .LLST14
     /tmp/ccaUzDwz.s:1964   .debug_str:000000000000033e .LASF21
     /tmp/ccaUzDwz.s:1878   .debug_str:000000000000000e .LASF22
     /tmp/ccaUzDwz.s:363    .text:000000000000013c .LFB7
     /tmp/ccaUzDwz.s:405    .text:0000000000000168 .LFE7
     /tmp/ccaUzDwz.s:1916   .debug_str:000000000000011b .LASF23
GAS LISTING /tmp/ccaUzDwz.s 			page 19


     /tmp/ccaUzDwz.s:1676   .debug_loc:0000000000000107 .LLST11
     /tmp/ccaUzDwz.s:1690   .debug_loc:0000000000000140 .LLST12
     /tmp/ccaUzDwz.s:1956   .debug_str:0000000000000308 .LASF24
     /tmp/ccaUzDwz.s:1926   .debug_str:0000000000000200 .LASF25
     /tmp/ccaUzDwz.s:309    .text:000000000000010c .LFB6
     /tmp/ccaUzDwz.s:357    .text:000000000000013c .LFE6
     /tmp/ccaUzDwz.s:1704   .debug_loc:0000000000000179 .LLST9
     /tmp/ccaUzDwz.s:1894   .debug_str:000000000000008b .LASF26
     /tmp/ccaUzDwz.s:1718   .debug_loc:00000000000001b2 .LLST10
     /tmp/ccaUzDwz.s:1966   .debug_str:0000000000000348 .LASF49
     /tmp/ccaUzDwz.s:1962   .debug_str:000000000000032d .LASF50
     /tmp/ccaUzDwz.s:274    .text:00000000000000e8 .LFB5
     /tmp/ccaUzDwz.s:303    .text:000000000000010c .LFE5
     /tmp/ccaUzDwz.s:1946   .debug_str:0000000000000287 .LASF28
     /tmp/ccaUzDwz.s:1896   .debug_str:0000000000000090 .LASF30
     /tmp/ccaUzDwz.s:240    .text:00000000000000c8 .LFB4
     /tmp/ccaUzDwz.s:268    .text:00000000000000e8 .LFE4
     /tmp/ccaUzDwz.s:1914   .debug_str:000000000000010a .LASF31
     /tmp/ccaUzDwz.s:1886   .debug_str:0000000000000040 .LASF32
     /tmp/ccaUzDwz.s:180    .text:0000000000000094 .LFB3
     /tmp/ccaUzDwz.s:234    .text:00000000000000c8 .LFE3
     /tmp/ccaUzDwz.s:1732   .debug_loc:00000000000001eb .LLST7
     /tmp/ccaUzDwz.s:1958   .debug_str:0000000000000311 .LASF33
     /tmp/ccaUzDwz.s:1892   .debug_str:0000000000000081 .LASF34
     /tmp/ccaUzDwz.s:1746   .debug_loc:0000000000000224 .LLST8
     /tmp/ccaUzDwz.s:1960   .debug_str:000000000000031f .LASF35
     /tmp/ccaUzDwz.s:1950   .debug_str:00000000000002ce .LASF36
     /tmp/ccaUzDwz.s:120    .text:0000000000000060 .LFB2
     /tmp/ccaUzDwz.s:174    .text:0000000000000094 .LFE2
     /tmp/ccaUzDwz.s:1760   .debug_loc:000000000000025d .LLST5
     /tmp/ccaUzDwz.s:1774   .debug_loc:0000000000000296 .LLST6
     /tmp/ccaUzDwz.s:1944   .debug_str:000000000000027e .LASF37
     /tmp/ccaUzDwz.s:1876   .debug_str:0000000000000000 .LASF38
     /tmp/ccaUzDwz.s:71     .text:0000000000000034 .LFB1
     /tmp/ccaUzDwz.s:114    .text:0000000000000060 .LFE1
     /tmp/ccaUzDwz.s:1788   .debug_loc:00000000000002cf .LLST2
     /tmp/ccaUzDwz.s:1898   .debug_str:00000000000000a5 .LASF39
     /tmp/ccaUzDwz.s:1802   .debug_loc:0000000000000308 .LLST3
     /tmp/ccaUzDwz.s:1816   .debug_loc:0000000000000341 .LLST4
     /tmp/ccaUzDwz.s:1968   .debug_str:0000000000000354 .LASF41
     /tmp/ccaUzDwz.s:1928   .debug_str:0000000000000213 .LASF43
     /tmp/ccaUzDwz.s:13     .text:0000000000000000 .LFB0
     /tmp/ccaUzDwz.s:65     .text:0000000000000034 .LFE0
     /tmp/ccaUzDwz.s:1972   .debug_str:0000000000000367 .LASF44
     /tmp/ccaUzDwz.s:1823   .debug_loc:0000000000000364 .LLST0
     /tmp/ccaUzDwz.s:1922   .debug_str:00000000000001f2 .LASF45
     /tmp/ccaUzDwz.s:1843   .debug_loc:00000000000003b2 .LLST1
     /tmp/ccaUzDwz.s:530    .text:00000000000001d8 .LVL32
     /tmp/ccaUzDwz.s:535    .text:00000000000001dc .LVL33
     /tmp/ccaUzDwz.s:462    .text:0000000000000194 .LVL29
     /tmp/ccaUzDwz.s:489    .text:00000000000001b0 .LVL31
     /tmp/ccaUzDwz.s:470    .text:00000000000001a0 .LVL30
     /tmp/ccaUzDwz.s:414    .text:0000000000000168 .LVL26
     /tmp/ccaUzDwz.s:441    .text:0000000000000184 .LVL28
     /tmp/ccaUzDwz.s:422    .text:0000000000000174 .LVL27
     /tmp/ccaUzDwz.s:366    .text:000000000000013c .LVL23
     /tmp/ccaUzDwz.s:393    .text:0000000000000158 .LVL25
GAS LISTING /tmp/ccaUzDwz.s 			page 20


     /tmp/ccaUzDwz.s:374    .text:0000000000000148 .LVL24
     /tmp/ccaUzDwz.s:312    .text:000000000000010c .LVL19
     /tmp/ccaUzDwz.s:345    .text:000000000000012c .LVL22
     /tmp/ccaUzDwz.s:327    .text:000000000000011c .LVL21
     /tmp/ccaUzDwz.s:183    .text:0000000000000094 .LVL14
     /tmp/ccaUzDwz.s:222    .text:00000000000000b8 .LVL18
     /tmp/ccaUzDwz.s:204    .text:00000000000000a8 .LVL17
     /tmp/ccaUzDwz.s:123    .text:0000000000000060 .LVL9
     /tmp/ccaUzDwz.s:162    .text:0000000000000084 .LVL13
     /tmp/ccaUzDwz.s:144    .text:0000000000000074 .LVL12
     /tmp/ccaUzDwz.s:74     .text:0000000000000034 .LVL5
     /tmp/ccaUzDwz.s:101    .text:0000000000000050 .LVL7
     /tmp/ccaUzDwz.s:82     .text:0000000000000040 .LVL6
     /tmp/ccaUzDwz.s:106    .text:0000000000000054 .LVL8
     /tmp/ccaUzDwz.s:17     .text:0000000000000000 .LVL0
     /tmp/ccaUzDwz.s:29     .text:0000000000000010 .LVL2
     /tmp/ccaUzDwz.s:32     .text:0000000000000014 .LVL3
     /tmp/ccaUzDwz.s:54     .text:0000000000000028 .LVL4
     /tmp/ccaUzDwz.s:623    .debug_info:0000000000000000 .Ldebug_info0

NO UNDEFINED SYMBOLS
