GAS LISTING /tmp/cckzflMV.s 			page 1


   1              		.file	"syscalls_c.cpp"
   2              		.option pic
   3              		.option norelax
   4              		.text
   5              	.Ltext0:
   6              		.align	2
   7              		.globl	_Z9mem_allocm
   9              	_Z9mem_allocm:
  10              	.LFB1:
  11              		.file 1 "src/syscalls_c.cpp"
   1:src/syscalls_c.cpp **** /**
   2:src/syscalls_c.cpp ****  * @file syscalls_c.cpp
   3:src/syscalls_c.cpp ****  * @author stcksmsh (vukicevickosta@gmail.com)
   4:src/syscalls_c.cpp ****  * @brief function declarations for the syscalls
   5:src/syscalls_c.cpp ****  * @version 0.1
   6:src/syscalls_c.cpp ****  * @date 2024-01-01
   7:src/syscalls_c.cpp ****  * 
   8:src/syscalls_c.cpp ****  * @copyright Copyright (c) 2024
   9:src/syscalls_c.cpp ****  * 
  10:src/syscalls_c.cpp ****  */
  11:src/syscalls_c.cpp **** 
  12:src/syscalls_c.cpp **** #include "heapManager.h"
  13:src/syscalls_c.cpp **** #include "syscalls_c.h"
  14:src/syscalls_c.cpp **** 
  15:src/syscalls_c.cpp **** void* mem_alloc ( size_t nSize ){
  12              		.loc 1 15 33
  13              		.cfi_startproc
  14              	.LVL0:
  15 0000 130101FF 		addi	sp,sp,-16
  16              		.cfi_def_cfa_offset 16
  17 0004 23348100 		sd	s0,8(sp)
  18              		.cfi_offset 8, -8
  19 0008 13040101 		addi	s0,sp,16
  20              		.cfi_def_cfa 8, 0
  16:src/syscalls_c.cpp ****     /// round nSize to the next multiple of MEM_BLOCK_SIZE and then divide by MEM_BLOCK_SIZE
  17:src/syscalls_c.cpp ****     nSize = (nSize + MEM_BLOCK_SIZE - 1) / MEM_BLOCK_SIZE;
  21              		.loc 1 17 5
  22              		.loc 1 17 37 is_stmt 0
  23 000c 1305F503 		addi	a0,a0,63
  24              	.LVL1:
  25              		.loc 1 17 11
  26 0010 13556500 		srli	a0,a0,6
  27              	.LVL2:
  18:src/syscalls_c.cpp ****     __asm__ volatile ("mv a1, %0" :: "r"(nSize));
  28              		.loc 1 18 5 is_stmt 1
  29              		.loc 1 18 49 is_stmt 0
  30              	#APP
  31              	# 18 "src/syscalls_c.cpp" 1
  19              	    __asm__ volatile ("li a0, 0x1");
  32              		mv a1, a0
  33              	# 0 "" 2
  34              		.loc 1 19 5 is_stmt 1
  35              		.loc 1 19 36 is_stmt 0
  36              	# 19 "src/syscalls_c.cpp" 1
  20              	    __asm__ volatile ("ecall");
  37              		li a0, 0x1
  38              	# 0 "" 2
GAS LISTING /tmp/cckzflMV.s 			page 2


  39              		.loc 1 20 5 is_stmt 1
  40              		.loc 1 20 31 is_stmt 0
  41              	# 20 "src/syscalls_c.cpp" 1
  21              	    uint64 pAddress;
  42              		ecall
  43              	# 0 "" 2
  44              		.loc 1 21 5 is_stmt 1
  22:src/syscalls_c.cpp ****     __asm__ volatile ("mv %0, a0" : "=r"(pAddress));
  45              		.loc 1 22 5
  46              		.loc 1 22 52 is_stmt 0
  47              	# 22 "src/syscalls_c.cpp" 1
  23              	    return (void*)pAddress;
  48              		mv a0, a0
  49              	# 0 "" 2
  50              	.LVL3:
  51              		.loc 1 23 5 is_stmt 1
  24:src/syscalls_c.cpp **** }
  52              		.loc 1 24 1 is_stmt 0
  53              	#NO_APP
  54 0024 03348100 		ld	s0,8(sp)
  55              		.cfi_restore 8
  56              		.cfi_def_cfa 2, 16
  57 0028 13010101 		addi	sp,sp,16
  58              		.cfi_def_cfa_offset 0
  59 002c 67800000 		jr	ra
  60              		.cfi_endproc
  61              	.LFE1:
  63              		.align	2
  64              		.globl	_Z8mem_freePv
  66              	_Z8mem_freePv:
  67              	.LFB2:
  25:src/syscalls_c.cpp **** 
  26:src/syscalls_c.cpp **** int mem_free ( void* pAddress ){
  68              		.loc 1 26 32 is_stmt 1
  69              		.cfi_startproc
  70              	.LVL4:
  71 0030 130101FF 		addi	sp,sp,-16
  72              		.cfi_def_cfa_offset 16
  73 0034 23348100 		sd	s0,8(sp)
  74              		.cfi_offset 8, -8
  75 0038 13040101 		addi	s0,sp,16
  76              		.cfi_def_cfa 8, 0
  27:src/syscalls_c.cpp ****     __asm__ volatile ("mv a1, %0" :: "r"(pAddress));
  77              		.loc 1 27 5
  78              		.loc 1 27 52 is_stmt 0
  79              	#APP
  80              	# 27 "src/syscalls_c.cpp" 1
  28              	    __asm__ volatile ("li a0, 0x2");
  81              		mv a1, a0
  82              	# 0 "" 2
  83              		.loc 1 28 5 is_stmt 1
  84              		.loc 1 28 36 is_stmt 0
  85              	# 28 "src/syscalls_c.cpp" 1
  29              	    __asm__ volatile ("ecall");
  86              		li a0, 0x2
  87              	# 0 "" 2
  88              		.loc 1 29 5 is_stmt 1
GAS LISTING /tmp/cckzflMV.s 			page 3


  89              		.loc 1 29 31 is_stmt 0
  90              	# 29 "src/syscalls_c.cpp" 1
  30              	    int nResult;
  91              		ecall
  92              	# 0 "" 2
  93              		.loc 1 30 5 is_stmt 1
  31:src/syscalls_c.cpp ****     __asm__ volatile ("mv %0, a0" : "=r"(nResult));
  94              		.loc 1 31 5
  95              		.loc 1 31 51 is_stmt 0
  96              	# 31 "src/syscalls_c.cpp" 1
  32              	    return nResult;
  97              		mv a0, a0
  98              	# 0 "" 2
  99              	.LVL5:
 100              		.loc 1 32 5 is_stmt 1
  33:src/syscalls_c.cpp **** 
  34:src/syscalls_c.cpp **** }
 101              		.loc 1 34 1 is_stmt 0
 102              	#NO_APP
 103 004c 1B050500 		sext.w	a0,a0
 104 0050 03348100 		ld	s0,8(sp)
 105              		.cfi_restore 8
 106              		.cfi_def_cfa 2, 16
 107 0054 13010101 		addi	sp,sp,16
 108              		.cfi_def_cfa_offset 0
 109 0058 67800000 		jr	ra
 110              		.cfi_endproc
 111              	.LFE2:
 113              		.align	2
 114              		.globl	_Z13thread_createPP7_threadPFvPvES2_
 116              	_Z13thread_createPP7_threadPFvPvES2_:
 117              	.LFB3:
  35:src/syscalls_c.cpp **** 
  36:src/syscalls_c.cpp **** 
  37:src/syscalls_c.cpp **** int thread_create ( thread_t* handle, void(*function)(void*), void* arg) {
 118              		.loc 1 37 74 is_stmt 1
 119              		.cfi_startproc
 120              	.LVL6:
 121 005c 130101FF 		addi	sp,sp,-16
 122              		.cfi_def_cfa_offset 16
 123 0060 23348100 		sd	s0,8(sp)
 124              		.cfi_offset 8, -8
 125 0064 13040101 		addi	s0,sp,16
 126              		.cfi_def_cfa 8, 0
  38:src/syscalls_c.cpp ****     // void* stack_space = (void*)((uint64)HeapManager::getInstance().heapAllocate(DEFAULT_STACK_SI
  39:src/syscalls_c.cpp ****     // __asm__ volatile ("mv a4, %0" : : "r"((uint64)stack_space));
  40:src/syscalls_c.cpp ****     __asm__ volatile("mv a3,%0" : : "r" ((uint64)arg));
 127              		.loc 1 40 5
 128              		.loc 1 40 55 is_stmt 0
 129              	#APP
 130              	# 40 "src/syscalls_c.cpp" 1
  41              	    __asm__ volatile("mv a2,%0" : : "r" ((uint64)function));
 131              		mv a3,a2
 132              	# 0 "" 2
 133              		.loc 1 41 5 is_stmt 1
 134              		.loc 1 41 60 is_stmt 0
 135              	# 41 "src/syscalls_c.cpp" 1
GAS LISTING /tmp/cckzflMV.s 			page 4


  42              	    __asm__ volatile("mv a1,%0" : : "r" ((uint64)handle));
 136              		mv a2,a1
 137              	# 0 "" 2
 138              		.loc 1 42 5 is_stmt 1
 139              		.loc 1 42 58 is_stmt 0
 140              	# 42 "src/syscalls_c.cpp" 1
  43              	    __asm__ volatile("li a0,0x11");
 141              		mv a1,a0
 142              	# 0 "" 2
 143              		.loc 1 43 5 is_stmt 1
 144              		.loc 1 43 35 is_stmt 0
 145              	# 43 "src/syscalls_c.cpp" 1
  44              	    __asm__ volatile("ecall");
 146              		li a0,0x11
 147              	# 0 "" 2
 148              		.loc 1 44 5 is_stmt 1
 149              		.loc 1 44 30 is_stmt 0
 150              	# 44 "src/syscalls_c.cpp" 1
  45              	    uint64 returnValue;
 151              		ecall
 152              	# 0 "" 2
 153              		.loc 1 45 5 is_stmt 1
  46:src/syscalls_c.cpp ****     __asm__ volatile("mv %0, a0" : "=r" (returnValue));
 154              		.loc 1 46 5
 155              		.loc 1 46 55 is_stmt 0
 156              	# 46 "src/syscalls_c.cpp" 1
  47              	    return (int)returnValue;
 157              		mv a0, a0
 158              	# 0 "" 2
 159              	.LVL7:
 160              		.loc 1 47 5 is_stmt 1
  48:src/syscalls_c.cpp **** }
 161              		.loc 1 48 1 is_stmt 0
 162              	#NO_APP
 163 0080 1B050500 		sext.w	a0,a0
 164              	.LVL8:
 165 0084 03348100 		ld	s0,8(sp)
 166              		.cfi_restore 8
 167              		.cfi_def_cfa 2, 16
 168 0088 13010101 		addi	sp,sp,16
 169              		.cfi_def_cfa_offset 0
 170 008c 67800000 		jr	ra
 171              		.cfi_endproc
 172              	.LFE3:
 174              		.align	2
 175              		.globl	_Z11thread_exitv
 177              	_Z11thread_exitv:
 178              	.LFB4:
  49:src/syscalls_c.cpp **** 
  50:src/syscalls_c.cpp **** // int thread_createCPP ( thread_t*, void(*)(void*), void* );
  51:src/syscalls_c.cpp **** 
  52:src/syscalls_c.cpp **** int thread_exit (){
 179              		.loc 1 52 19 is_stmt 1
 180              		.cfi_startproc
 181 0090 130101FF 		addi	sp,sp,-16
 182              		.cfi_def_cfa_offset 16
 183 0094 23348100 		sd	s0,8(sp)
GAS LISTING /tmp/cckzflMV.s 			page 5


 184              		.cfi_offset 8, -8
 185 0098 13040101 		addi	s0,sp,16
 186              		.cfi_def_cfa 8, 0
  53:src/syscalls_c.cpp ****     __asm__ volatile("li a0,0x12");
 187              		.loc 1 53 5
 188              		.loc 1 53 35 is_stmt 0
 189              	#APP
 190              	# 53 "src/syscalls_c.cpp" 1
  54              	    __asm__ volatile("ecall");
 191              		li a0,0x12
 192              	# 0 "" 2
 193              		.loc 1 54 5 is_stmt 1
 194              		.loc 1 54 30 is_stmt 0
 195              	# 54 "src/syscalls_c.cpp" 1
  55              	    return 0;
 196              		ecall
 197              	# 0 "" 2
 198              		.loc 1 55 5 is_stmt 1
  56:src/syscalls_c.cpp **** }
 199              		.loc 1 56 1 is_stmt 0
 200              	#NO_APP
 201 00a4 13050000 		li	a0,0
 202 00a8 03348100 		ld	s0,8(sp)
 203              		.cfi_restore 8
 204              		.cfi_def_cfa 2, 16
 205 00ac 13010101 		addi	sp,sp,16
 206              		.cfi_def_cfa_offset 0
 207 00b0 67800000 		jr	ra
 208              		.cfi_endproc
 209              	.LFE4:
 211              		.align	2
 212              		.globl	_Z15thread_dispatchv
 214              	_Z15thread_dispatchv:
 215              	.LFB5:
  57:src/syscalls_c.cpp **** 
  58:src/syscalls_c.cpp **** void thread_dispatch () {
 216              		.loc 1 58 25 is_stmt 1
 217              		.cfi_startproc
 218 00b4 130101FF 		addi	sp,sp,-16
 219              		.cfi_def_cfa_offset 16
 220 00b8 23348100 		sd	s0,8(sp)
 221              		.cfi_offset 8, -8
 222 00bc 13040101 		addi	s0,sp,16
 223              		.cfi_def_cfa 8, 0
  59:src/syscalls_c.cpp ****     __asm__ volatile("li a0,0x13");
 224              		.loc 1 59 5
 225              		.loc 1 59 35 is_stmt 0
 226              	#APP
 227              	# 59 "src/syscalls_c.cpp" 1
  60              	    __asm__ volatile("ecall");
 228              		li a0,0x13
 229              	# 0 "" 2
 230              		.loc 1 60 5 is_stmt 1
 231              		.loc 1 60 30 is_stmt 0
 232              	# 60 "src/syscalls_c.cpp" 1
  61              	}
 233              		ecall
GAS LISTING /tmp/cckzflMV.s 			page 6


 234              	# 0 "" 2
 235              		.loc 1 61 1
 236              	#NO_APP
 237 00c8 03348100 		ld	s0,8(sp)
 238              		.cfi_restore 8
 239              		.cfi_def_cfa 2, 16
 240 00cc 13010101 		addi	sp,sp,16
 241              		.cfi_def_cfa_offset 0
 242 00d0 67800000 		jr	ra
 243              		.cfi_endproc
 244              	.LFE5:
 246              		.align	2
 247              		.globl	_Z11thread_joinP7_thread
 249              	_Z11thread_joinP7_thread:
 250              	.LFB6:
  62:src/syscalls_c.cpp **** 
  63:src/syscalls_c.cpp **** void thread_join ( thread_t handle){
 251              		.loc 1 63 36 is_stmt 1
 252              		.cfi_startproc
 253              	.LVL9:
 254 00d4 130101FF 		addi	sp,sp,-16
 255              		.cfi_def_cfa_offset 16
 256 00d8 23348100 		sd	s0,8(sp)
 257              		.cfi_offset 8, -8
 258 00dc 13040101 		addi	s0,sp,16
 259              		.cfi_def_cfa 8, 0
  64:src/syscalls_c.cpp ****     __asm__ volatile("mv a1, %0" : : "r"((uint64)handle));
 260              		.loc 1 64 5
 261              		.loc 1 64 58 is_stmt 0
 262              	#APP
 263              	# 64 "src/syscalls_c.cpp" 1
  65              	    __asm__ volatile("li a0, 0x14");
 264              		mv a1, a0
 265              	# 0 "" 2
 266              		.loc 1 65 5 is_stmt 1
 267              		.loc 1 65 36 is_stmt 0
 268              	# 65 "src/syscalls_c.cpp" 1
  66              	    __asm__ volatile("ecall");
 269              		li a0, 0x14
 270              	# 0 "" 2
 271              		.loc 1 66 5 is_stmt 1
 272              		.loc 1 66 30 is_stmt 0
 273              	# 66 "src/syscalls_c.cpp" 1
  67              	}
 274              		ecall
 275              	# 0 "" 2
 276              		.loc 1 67 1
 277              	#NO_APP
 278 00ec 03348100 		ld	s0,8(sp)
 279              		.cfi_restore 8
 280              		.cfi_def_cfa 2, 16
 281 00f0 13010101 		addi	sp,sp,16
 282              		.cfi_def_cfa_offset 0
 283 00f4 67800000 		jr	ra
 284              		.cfi_endproc
 285              	.LFE6:
 287              		.align	2
GAS LISTING /tmp/cckzflMV.s 			page 7


 288              		.globl	_Z10time_sleepm
 290              	_Z10time_sleepm:
 291              	.LFB7:
  68:src/syscalls_c.cpp **** 
  69:src/syscalls_c.cpp **** int time_sleep( time_t duration){
 292              		.loc 1 69 33 is_stmt 1
 293              		.cfi_startproc
 294              	.LVL10:
 295 00f8 130101FF 		addi	sp,sp,-16
 296              		.cfi_def_cfa_offset 16
 297 00fc 23348100 		sd	s0,8(sp)
 298              		.cfi_offset 8, -8
 299 0100 13040101 		addi	s0,sp,16
 300              		.cfi_def_cfa 8, 0
  70:src/syscalls_c.cpp ****     __asm__ volatile("mv a1, %0" : : "r"(duration));
 301              		.loc 1 70 5
 302              		.loc 1 70 52 is_stmt 0
 303              	#APP
 304              	# 70 "src/syscalls_c.cpp" 1
  71              	    __asm__ volatile("li a0, 0x31");
 305              		mv a1, a0
 306              	# 0 "" 2
 307              		.loc 1 71 5 is_stmt 1
 308              		.loc 1 71 36 is_stmt 0
 309              	# 71 "src/syscalls_c.cpp" 1
  72              	    __asm__ volatile("ecall");
 310              		li a0, 0x31
 311              	# 0 "" 2
 312              		.loc 1 72 5 is_stmt 1
 313              		.loc 1 72 30 is_stmt 0
 314              	# 72 "src/syscalls_c.cpp" 1
  73              	    uint64 returnValue;
 315              		ecall
 316              	# 0 "" 2
 317              		.loc 1 73 5 is_stmt 1
  74:src/syscalls_c.cpp ****     __asm__ volatile("mv %0, a0" : "=r"(returnValue));
 318              		.loc 1 74 5
 319              		.loc 1 74 54 is_stmt 0
 320              	# 74 "src/syscalls_c.cpp" 1
  75              	    return (int)returnValue;
 321              		mv a0, a0
 322              	# 0 "" 2
 323              	.LVL11:
 324              		.loc 1 75 5 is_stmt 1
  76:src/syscalls_c.cpp **** }
 325              		.loc 1 76 1 is_stmt 0
 326              	#NO_APP
 327 0114 1B050500 		sext.w	a0,a0
 328              	.LVL12:
 329 0118 03348100 		ld	s0,8(sp)
 330              		.cfi_restore 8
 331              		.cfi_def_cfa 2, 16
 332 011c 13010101 		addi	sp,sp,16
 333              		.cfi_def_cfa_offset 0
 334 0120 67800000 		jr	ra
 335              		.cfi_endproc
 336              	.LFE7:
GAS LISTING /tmp/cckzflMV.s 			page 8


 338              		.align	2
 339              		.globl	_Z8sem_openPP4_semj
 341              	_Z8sem_openPP4_semj:
 342              	.LFB8:
  77:src/syscalls_c.cpp **** 
  78:src/syscalls_c.cpp **** int sem_open ( sem_t* handle, unsigned init) {
 343              		.loc 1 78 46 is_stmt 1
 344              		.cfi_startproc
 345              	.LVL13:
 346 0124 130101FF 		addi	sp,sp,-16
 347              		.cfi_def_cfa_offset 16
 348 0128 23348100 		sd	s0,8(sp)
 349              		.cfi_offset 8, -8
 350 012c 13040101 		addi	s0,sp,16
 351              		.cfi_def_cfa 8, 0
  79:src/syscalls_c.cpp ****     __asm__ volatile("mv a2, %0"::"r"((uint64)init));
 352              		.loc 1 79 5
 353              		.loc 1 79 39 is_stmt 0
 354 0130 93950502 		slli	a1,a1,32
 355              	.LVL14:
 356 0134 93D50502 		srli	a1,a1,32
 357              		.loc 1 79 53
 358              	#APP
 359              	# 79 "src/syscalls_c.cpp" 1
  80              	
  81:src/syscalls_c.cpp ****     __asm__ volatile("mv a1,%0":: "r"((uint64)handle));
 360              		mv a2, a1
 361              	# 0 "" 2
 362              		.loc 1 81 5 is_stmt 1
 363              		.loc 1 81 55 is_stmt 0
 364              	# 81 "src/syscalls_c.cpp" 1
  82              	    __asm__ volatile("li a0,0x21");
 365              		mv a1,a0
 366              	# 0 "" 2
 367              		.loc 1 82 5 is_stmt 1
 368              		.loc 1 82 35 is_stmt 0
 369              	# 82 "src/syscalls_c.cpp" 1
  83              	    __asm__ volatile("ecall");
 370              		li a0,0x21
 371              	# 0 "" 2
 372              		.loc 1 83 5 is_stmt 1
 373              		.loc 1 83 30 is_stmt 0
 374              	# 83 "src/syscalls_c.cpp" 1
  84              	    uint64 returnValue;
 375              		ecall
 376              	# 0 "" 2
 377              		.loc 1 84 5 is_stmt 1
  85:src/syscalls_c.cpp ****     __asm__ volatile("mv %0, a0" : "=r" (returnValue));
 378              		.loc 1 85 5
 379              		.loc 1 85 55 is_stmt 0
 380              	# 85 "src/syscalls_c.cpp" 1
  86              	    return (int)returnValue;
 381              		mv a0, a0
 382              	# 0 "" 2
 383              	.LVL15:
 384              		.loc 1 86 5 is_stmt 1
  87:src/syscalls_c.cpp **** }
GAS LISTING /tmp/cckzflMV.s 			page 9


 385              		.loc 1 87 1 is_stmt 0
 386              	#NO_APP
 387 014c 1B050500 		sext.w	a0,a0
 388              	.LVL16:
 389 0150 03348100 		ld	s0,8(sp)
 390              		.cfi_restore 8
 391              		.cfi_def_cfa 2, 16
 392 0154 13010101 		addi	sp,sp,16
 393              		.cfi_def_cfa_offset 0
 394 0158 67800000 		jr	ra
 395              		.cfi_endproc
 396              	.LFE8:
 398              		.align	2
 399              		.globl	_Z9sem_closeP4_sem
 401              	_Z9sem_closeP4_sem:
 402              	.LFB9:
  88:src/syscalls_c.cpp **** 
  89:src/syscalls_c.cpp **** int sem_close ( sem_t handle) {
 403              		.loc 1 89 31 is_stmt 1
 404              		.cfi_startproc
 405              	.LVL17:
 406 015c 130101FF 		addi	sp,sp,-16
 407              		.cfi_def_cfa_offset 16
 408 0160 23348100 		sd	s0,8(sp)
 409              		.cfi_offset 8, -8
 410 0164 13040101 		addi	s0,sp,16
 411              		.cfi_def_cfa 8, 0
  90:src/syscalls_c.cpp ****     __asm__ volatile("mv a1,%0"::"r"((uint64)handle));
 412              		.loc 1 90 5
 413              		.loc 1 90 54 is_stmt 0
 414              	#APP
 415              	# 90 "src/syscalls_c.cpp" 1
  91              	    __asm__ volatile("li a0,0x22");
 416              		mv a1,a0
 417              	# 0 "" 2
 418              		.loc 1 91 5 is_stmt 1
 419              		.loc 1 91 35 is_stmt 0
 420              	# 91 "src/syscalls_c.cpp" 1
  92              	    __asm__ volatile("ecall");
 421              		li a0,0x22
 422              	# 0 "" 2
 423              		.loc 1 92 5 is_stmt 1
 424              		.loc 1 92 30 is_stmt 0
 425              	# 92 "src/syscalls_c.cpp" 1
  93              	    uint64 returnValue;
 426              		ecall
 427              	# 0 "" 2
 428              		.loc 1 93 5 is_stmt 1
  94:src/syscalls_c.cpp ****     __asm__ volatile("mv %0, a0" : "=r" (returnValue));
 429              		.loc 1 94 5
 430              		.loc 1 94 55 is_stmt 0
 431              	# 94 "src/syscalls_c.cpp" 1
  95              	    return (int)returnValue;
 432              		mv a0, a0
 433              	# 0 "" 2
 434              	.LVL18:
 435              		.loc 1 95 5 is_stmt 1
GAS LISTING /tmp/cckzflMV.s 			page 10


  96:src/syscalls_c.cpp **** }
 436              		.loc 1 96 1 is_stmt 0
 437              	#NO_APP
 438 0178 1B050500 		sext.w	a0,a0
 439              	.LVL19:
 440 017c 03348100 		ld	s0,8(sp)
 441              		.cfi_restore 8
 442              		.cfi_def_cfa 2, 16
 443 0180 13010101 		addi	sp,sp,16
 444              		.cfi_def_cfa_offset 0
 445 0184 67800000 		jr	ra
 446              		.cfi_endproc
 447              	.LFE9:
 449              		.align	2
 450              		.globl	_Z8sem_waitP4_sem
 452              	_Z8sem_waitP4_sem:
 453              	.LFB10:
  97:src/syscalls_c.cpp **** 
  98:src/syscalls_c.cpp **** int sem_wait ( sem_t handle) {
 454              		.loc 1 98 30 is_stmt 1
 455              		.cfi_startproc
 456              	.LVL20:
 457 0188 130101FF 		addi	sp,sp,-16
 458              		.cfi_def_cfa_offset 16
 459 018c 23348100 		sd	s0,8(sp)
 460              		.cfi_offset 8, -8
 461 0190 13040101 		addi	s0,sp,16
 462              		.cfi_def_cfa 8, 0
  99:src/syscalls_c.cpp ****     __asm__ volatile("mv a1,%0"::"r"((uint64)handle));
 463              		.loc 1 99 5
 464              		.loc 1 99 54 is_stmt 0
 465              	#APP
 466              	# 99 "src/syscalls_c.cpp" 1
 100              	    __asm__ volatile("li a0,0x23");
 467              		mv a1,a0
 468              	# 0 "" 2
 469              		.loc 1 100 5 is_stmt 1
 470              		.loc 1 100 35 is_stmt 0
 471              	# 100 "src/syscalls_c.cpp" 1
 101              	    __asm__ volatile("ecall");
 472              		li a0,0x23
 473              	# 0 "" 2
 474              		.loc 1 101 5 is_stmt 1
 475              		.loc 1 101 30 is_stmt 0
 476              	# 101 "src/syscalls_c.cpp" 1
 102              	    uint64 returnValue;
 477              		ecall
 478              	# 0 "" 2
 479              		.loc 1 102 5 is_stmt 1
 103:src/syscalls_c.cpp ****     __asm__ volatile("mv %0, a0" : "=r" (returnValue));
 480              		.loc 1 103 5
 481              		.loc 1 103 55 is_stmt 0
 482              	# 103 "src/syscalls_c.cpp" 1
 104              	    return (int)returnValue;
 483              		mv a0, a0
 484              	# 0 "" 2
 485              	.LVL21:
GAS LISTING /tmp/cckzflMV.s 			page 11


 486              		.loc 1 104 5 is_stmt 1
 105:src/syscalls_c.cpp **** }
 487              		.loc 1 105 1 is_stmt 0
 488              	#NO_APP
 489 01a4 1B050500 		sext.w	a0,a0
 490              	.LVL22:
 491 01a8 03348100 		ld	s0,8(sp)
 492              		.cfi_restore 8
 493              		.cfi_def_cfa 2, 16
 494 01ac 13010101 		addi	sp,sp,16
 495              		.cfi_def_cfa_offset 0
 496 01b0 67800000 		jr	ra
 497              		.cfi_endproc
 498              	.LFE10:
 500              		.align	2
 501              		.globl	_Z10sem_signalP4_sem
 503              	_Z10sem_signalP4_sem:
 504              	.LFB11:
 106:src/syscalls_c.cpp **** 
 107:src/syscalls_c.cpp **** int sem_signal ( sem_t handle) {
 505              		.loc 1 107 32 is_stmt 1
 506              		.cfi_startproc
 507              	.LVL23:
 508 01b4 130101FF 		addi	sp,sp,-16
 509              		.cfi_def_cfa_offset 16
 510 01b8 23348100 		sd	s0,8(sp)
 511              		.cfi_offset 8, -8
 512 01bc 13040101 		addi	s0,sp,16
 513              		.cfi_def_cfa 8, 0
 108:src/syscalls_c.cpp ****     __asm__ volatile("mv a1,%0"::"r"((uint64)handle));
 514              		.loc 1 108 5
 515              		.loc 1 108 54 is_stmt 0
 516              	#APP
 517              	# 108 "src/syscalls_c.cpp" 1
 109              	    __asm__ volatile("li a0,0x24");
 518              		mv a1,a0
 519              	# 0 "" 2
 520              		.loc 1 109 5 is_stmt 1
 521              		.loc 1 109 35 is_stmt 0
 522              	# 109 "src/syscalls_c.cpp" 1
 110              	    __asm__ volatile("ecall");
 523              		li a0,0x24
 524              	# 0 "" 2
 525              		.loc 1 110 5 is_stmt 1
 526              		.loc 1 110 30 is_stmt 0
 527              	# 110 "src/syscalls_c.cpp" 1
 111              	    uint64 returnValue;
 528              		ecall
 529              	# 0 "" 2
 530              		.loc 1 111 5 is_stmt 1
 112:src/syscalls_c.cpp ****     __asm__ volatile("mv %0, a0" : "=r" (returnValue));
 531              		.loc 1 112 5
 532              		.loc 1 112 55 is_stmt 0
 533              	# 112 "src/syscalls_c.cpp" 1
 113              	    return (int)returnValue;
 534              		mv a0, a0
 535              	# 0 "" 2
GAS LISTING /tmp/cckzflMV.s 			page 12


 536              	.LVL24:
 537              		.loc 1 113 5 is_stmt 1
 114:src/syscalls_c.cpp **** }
 538              		.loc 1 114 1 is_stmt 0
 539              	#NO_APP
 540 01d0 1B050500 		sext.w	a0,a0
 541              	.LVL25:
 542 01d4 03348100 		ld	s0,8(sp)
 543              		.cfi_restore 8
 544              		.cfi_def_cfa 2, 16
 545 01d8 13010101 		addi	sp,sp,16
 546              		.cfi_def_cfa_offset 0
 547 01dc 67800000 		jr	ra
 548              		.cfi_endproc
 549              	.LFE11:
 551              		.align	2
 552              		.globl	_Z4getcv
 554              	_Z4getcv:
 555              	.LFB12:
 115:src/syscalls_c.cpp **** 
 116:src/syscalls_c.cpp **** char getc(){
 556              		.loc 1 116 12 is_stmt 1
 557              		.cfi_startproc
 558 01e0 130101FF 		addi	sp,sp,-16
 559              		.cfi_def_cfa_offset 16
 560 01e4 23348100 		sd	s0,8(sp)
 561              		.cfi_offset 8, -8
 562 01e8 13040101 		addi	s0,sp,16
 563              		.cfi_def_cfa 8, 0
 117:src/syscalls_c.cpp ****     __asm__ volatile ("li a0, 0x41");
 564              		.loc 1 117 5
 565              		.loc 1 117 37 is_stmt 0
 566              	#APP
 567              	# 117 "src/syscalls_c.cpp" 1
 118              	    __asm__ volatile ("ecall");
 568              		li a0, 0x41
 569              	# 0 "" 2
 570              		.loc 1 118 5 is_stmt 1
 571              		.loc 1 118 31 is_stmt 0
 572              	# 118 "src/syscalls_c.cpp" 1
 119              	    char chr;
 573              		ecall
 574              	# 0 "" 2
 575              		.loc 1 119 5 is_stmt 1
 120:src/syscalls_c.cpp ****     __asm__ volatile ("mv %0, a0" : "=r"(chr));
 576              		.loc 1 120 5
 577              		.loc 1 120 47 is_stmt 0
 578              	# 120 "src/syscalls_c.cpp" 1
 121              	    return chr;
 579              		mv a0, a0
 580              	# 0 "" 2
 581              	.LVL26:
 582              		.loc 1 121 5 is_stmt 1
 122:src/syscalls_c.cpp **** }
 583              		.loc 1 122 1 is_stmt 0
 584              	#NO_APP
 585 01f8 1375F50F 		andi	a0,a0,0xff
GAS LISTING /tmp/cckzflMV.s 			page 13


 586 01fc 03348100 		ld	s0,8(sp)
 587              		.cfi_restore 8
 588              		.cfi_def_cfa 2, 16
 589 0200 13010101 		addi	sp,sp,16
 590              		.cfi_def_cfa_offset 0
 591 0204 67800000 		jr	ra
 592              		.cfi_endproc
 593              	.LFE12:
 595              		.align	2
 596              		.globl	_Z4putcc
 598              	_Z4putcc:
 599              	.LFB13:
 123:src/syscalls_c.cpp **** 
 124:src/syscalls_c.cpp **** #include "console.h"
 125:src/syscalls_c.cpp **** 
 126:src/syscalls_c.cpp **** void putc(char chr)
 127:src/syscalls_c.cpp **** {
 600              		.loc 1 127 1 is_stmt 1
 601              		.cfi_startproc
 602              	.LVL27:
 603 0208 130101FF 		addi	sp,sp,-16
 604              		.cfi_def_cfa_offset 16
 605 020c 23348100 		sd	s0,8(sp)
 606              		.cfi_offset 8, -8
 607 0210 13040101 		addi	s0,sp,16
 608              		.cfi_def_cfa 8, 0
 128:src/syscalls_c.cpp ****     __asm__ volatile("mv a1,%0"::"r"(chr));
 609              		.loc 1 128 5
 610              		.loc 1 128 43 is_stmt 0
 611              	#APP
 612              	# 128 "src/syscalls_c.cpp" 1
 129              	    __asm__ volatile("li a0,0x42");
 613              		mv a1,a0
 614              	# 0 "" 2
 615              		.loc 1 129 5 is_stmt 1
 616              		.loc 1 129 35 is_stmt 0
 617              	# 129 "src/syscalls_c.cpp" 1
 130              	    __asm__ volatile("ecall");
 618              		li a0,0x42
 619              	# 0 "" 2
 620              		.loc 1 130 5 is_stmt 1
 621              		.loc 1 130 30 is_stmt 0
 622              	# 130 "src/syscalls_c.cpp" 1
 131              	}...
 623              		ecall
 624              	# 0 "" 2
 625              		.loc 1 131 1
 626              	#NO_APP
 627 0220 03348100 		ld	s0,8(sp)
 628              		.cfi_restore 8
 629              		.cfi_def_cfa 2, 16
 630 0224 13010101 		addi	sp,sp,16
 631              		.cfi_def_cfa_offset 0
 632 0228 67800000 		jr	ra
 633              		.cfi_endproc
 634              	.LFE13:
 636              	.Letext0:
GAS LISTING /tmp/cckzflMV.s 			page 14


 637              		.file 2 "./lib/hw.h"
 638              		.file 3 "./h/syscalls_c.h"
GAS LISTING /tmp/cckzflMV.s 			page 15

