GAS LISTING /tmp/ccMhvDV1.s 			page 1


   1              		.file	"tcb.cpp"
   2              		.option nopic
   3              		.option norelax
   4              		.attribute arch, "rv64i2p0_m2p0_a2p0"
   5              		.attribute unaligned_access, 0
   6              		.attribute stack_align, 16
   7              		.text
   8              	.Ltext0:
   9              		.align	2
  10              		.globl	_ZN3TCB13threadWrapperEv
  12              	_ZN3TCB13threadWrapperEv:
  13              	.LFB14:
  14              		.file 1 "src/tcb.cpp"
   1:src/tcb.cpp   **** //
   2:src/tcb.cpp   **** // Created by marko on 20.4.22..
   3:src/tcb.cpp   **** //
   4:src/tcb.cpp   **** 
   5:src/tcb.cpp   **** #include "../h/tcb.hpp"
   6:src/tcb.cpp   **** #include "../h/riscv.hpp"
   7:src/tcb.cpp   **** #include "../h/MemoryAllocator.h"
   8:src/tcb.cpp   **** #include "../h/syscall_c.h"
   9:src/tcb.cpp   **** TCB* TCB::running=nullptr;
  10:src/tcb.cpp   **** TCB* TCB::createThread(TCB::Body body, TCB **handle, void *arg,uint64* stack) {
  11:src/tcb.cpp   ****     TCB* ptr = createTCB(body,arg,stack);
  12:src/tcb.cpp   ****     *handle= ptr;
  13:src/tcb.cpp   ****     if (body != nullptr) { Scheduler::put(*handle);}
  14:src/tcb.cpp   ****     return ptr;
  15:src/tcb.cpp   **** }
  16:src/tcb.cpp   **** 
  17:src/tcb.cpp   **** TCB *TCB::createCPPThread(TCB::Body body, TCB **handle, void *arg, uint64 *stack) {
  18:src/tcb.cpp   ****     TCB* ptr = createTCB(body,arg,stack);
  19:src/tcb.cpp   ****     *handle= ptr;
  20:src/tcb.cpp   ****     return ptr;
  21:src/tcb.cpp   **** }
  22:src/tcb.cpp   **** 
  23:src/tcb.cpp   **** 
  24:src/tcb.cpp   **** TCB *TCB::createTCB(TCB::Body body, void *arg, uint64 *stack) {
  25:src/tcb.cpp   ****     TCB* newT=(TCB*)MemAlloc::getInstance().mem_alloc((sizeof(TCB)+MEM_BLOCK_SIZE-1)/MEM_BLOCK_SIZE
  26:src/tcb.cpp   ****     newT->body=body;
  27:src/tcb.cpp   ****     if(body!= nullptr)newT->stack=stack;
  28:src/tcb.cpp   ****     else stack= nullptr;
  29:src/tcb.cpp   ****     newT->context={(uint64) &threadWrapper,stack != nullptr ? (uint64) &stack[DEFAULT_STACK_SIZE] :
  30:src/tcb.cpp   ****     newT->fArg=arg;
  31:src/tcb.cpp   ****     newT->finished=false;
  32:src/tcb.cpp   ****     newT->blocked=false;
  33:src/tcb.cpp   ****     newT->closed=false;
  34:src/tcb.cpp   **** 
  35:src/tcb.cpp   ****     return newT;
  36:src/tcb.cpp   **** }
  37:src/tcb.cpp   **** 
  38:src/tcb.cpp   **** void TCB::yield()
  39:src/tcb.cpp   **** {
  40:src/tcb.cpp   ****     __asm__ volatile("li a0,0x13");
  41:src/tcb.cpp   ****     __asm__ volatile ("ecall");
  42:src/tcb.cpp   ****     return;
  43:src/tcb.cpp   **** }
  44:src/tcb.cpp   **** 
GAS LISTING /tmp/ccMhvDV1.s 			page 2


  45:src/tcb.cpp   **** void TCB::dispatch()
  46:src/tcb.cpp   **** {
  47:src/tcb.cpp   ****     TCB *old = running;
  48:src/tcb.cpp   ****     if (!old->isFinished() && !old->blocked) { Scheduler::put(old); }
  49:src/tcb.cpp   ****     running = Scheduler::get();
  50:src/tcb.cpp   **** 
  51:src/tcb.cpp   ****     TCB::contextSwitch(&old->context, &running->context);
  52:src/tcb.cpp   **** }
  53:src/tcb.cpp   **** 
  54:src/tcb.cpp   **** 
  55:src/tcb.cpp   **** void TCB::threadWrapper()
  56:src/tcb.cpp   **** {
  15              		.loc 1 56 1
  16              		.cfi_startproc
  17 0000 130101FE 		addi	sp,sp,-32
  18              		.cfi_def_cfa_offset 32
  19 0004 233C1100 		sd	ra,24(sp)
  20 0008 23388100 		sd	s0,16(sp)
  21 000c 23349100 		sd	s1,8(sp)
  22              		.cfi_offset 1, -8
  23              		.cfi_offset 8, -16
  24              		.cfi_offset 9, -24
  25 0010 13040102 		addi	s0,sp,32
  26              		.cfi_def_cfa 8, 0
  57:src/tcb.cpp   ****     Riscv::popSppSpie();
  27              		.loc 1 57 5
  28              		.loc 1 57 22 is_stmt 0
  29 0014 97000000 		call	_ZN5Riscv10popSppSpieEv
  29      E7800000 
  30              	.LVL0:
  58:src/tcb.cpp   ****     running->body(running->fArg);
  31              		.loc 1 58 5 is_stmt 1
  32              		.loc 1 58 14 is_stmt 0
  33 001c 97040000 		lla	s1,_ZN3TCB7runningE
  33      93840400 
  34 0024 83B70400 		ld	a5,0(s1)
  35 0028 03B78700 		ld	a4,8(a5)
  36              		.loc 1 58 18
  37 002c 03B50701 		ld	a0,16(a5)
  38 0030 E7000700 		jalr	a4
  39              	.LVL1:
  59:src/tcb.cpp   ****     running->setFinished(true);
  40              		.loc 1 59 5 is_stmt 1
  41              		.loc 1 59 25 is_stmt 0
  42 0034 83B70400 		ld	a5,0(s1)
  43              	.LVL2:
  44              	.LBB6:
  45              	.LBB7:
  46              		.file 2 "src/../h/tcb.hpp"
   1:src/../h/tcb.hpp **** //
   2:src/../h/tcb.hpp **** //
   3:src/../h/tcb.hpp **** 
   4:src/../h/tcb.hpp **** #ifndef OS1_VEZBE07_RISCV_CONTEXT_SWITCH_2_INTERRUPT_TCB_HPP
   5:src/../h/tcb.hpp **** #define OS1_VEZBE07_RISCV_CONTEXT_SWITCH_2_INTERRUPT_TCB_HPP
   6:src/../h/tcb.hpp **** 
   7:src/../h/tcb.hpp **** #include "../lib/hw.h"
   8:src/../h/tcb.hpp **** #include "scheduler.hpp"
GAS LISTING /tmp/ccMhvDV1.s 			page 3


   9:src/../h/tcb.hpp **** #include "MemoryAllocator.h"
  10:src/../h/tcb.hpp **** 
  11:src/../h/tcb.hpp **** // Thread Control Block
  12:src/../h/tcb.hpp **** class TCB
  13:src/../h/tcb.hpp **** {
  14:src/../h/tcb.hpp **** public:
  15:src/../h/tcb.hpp ****     ~TCB() {
  16:src/../h/tcb.hpp **** 
  17:src/../h/tcb.hpp ****         MemAlloc::getInstance().mem_free(stack);
  18:src/../h/tcb.hpp ****     }
  19:src/../h/tcb.hpp **** 
  20:src/../h/tcb.hpp ****     bool isFinished() const { return finished; }
  21:src/../h/tcb.hpp **** 
  22:src/../h/tcb.hpp ****     void setFinished(bool value) { finished = value; }
  47              		.loc 2 22 36 is_stmt 1
  48              		.loc 2 22 45 is_stmt 0
  49 0038 13071000 		li	a4,1
  50 003c 2388E702 		sb	a4,48(a5)
  51              	.LVL3:
  52              	.LBE7:
  53              	.LBE6:
  60:src/tcb.cpp   ****     thread_dispatch();
  54              		.loc 1 60 5 is_stmt 1
  55              		.loc 1 60 20 is_stmt 0
  56 0040 97000000 		call	_Z15thread_dispatchv
  56      E7800000 
  57              	.LVL4:
  61:src/tcb.cpp   **** }
  58              		.loc 1 61 1
  59 0048 83308101 		ld	ra,24(sp)
  60              		.cfi_restore 1
  61 004c 03340101 		ld	s0,16(sp)
  62              		.cfi_restore 8
  63              		.cfi_def_cfa 2, 32
  64 0050 83348100 		ld	s1,8(sp)
  65              		.cfi_restore 9
  66 0054 13010102 		addi	sp,sp,32
  67              		.cfi_def_cfa_offset 0
  68 0058 67800000 		jr	ra
  69              		.cfi_endproc
  70              	.LFE14:
  72              		.align	2
  73              		.globl	_ZN3TCB9createTCBEPFvPvES0_Pm
  75              	_ZN3TCB9createTCBEPFvPvES0_Pm:
  76              	.LFB11:
  24:src/tcb.cpp   ****     TCB* newT=(TCB*)MemAlloc::getInstance().mem_alloc((sizeof(TCB)+MEM_BLOCK_SIZE-1)/MEM_BLOCK_SIZE
  77              		.loc 1 24 63 is_stmt 1
  78              		.cfi_startproc
  79              	.LVL5:
  80 005c 130101FD 		addi	sp,sp,-48
  81              		.cfi_def_cfa_offset 48
  82 0060 23341102 		sd	ra,40(sp)
  83 0064 23308102 		sd	s0,32(sp)
  84 0068 233C9100 		sd	s1,24(sp)
  85 006c 23382101 		sd	s2,16(sp)
  86 0070 23343101 		sd	s3,8(sp)
  87              		.cfi_offset 1, -8
GAS LISTING /tmp/ccMhvDV1.s 			page 4


  88              		.cfi_offset 8, -16
  89              		.cfi_offset 9, -24
  90              		.cfi_offset 18, -32
  91              		.cfi_offset 19, -40
  92 0074 13040103 		addi	s0,sp,48
  93              		.cfi_def_cfa 8, 0
  94 0078 13090500 		mv	s2,a0
  95 007c 93890500 		mv	s3,a1
  96 0080 93040600 		mv	s1,a2
  25:src/tcb.cpp   ****     newT->body=body;
  97              		.loc 1 25 5
  25:src/tcb.cpp   ****     newT->body=body;
  98              		.loc 1 25 43 is_stmt 0
  99 0084 97000000 		call	_ZN8MemAlloc11getInstanceEv
  99      E7800000 
 100              	.LVL6:
  25:src/tcb.cpp   ****     newT->body=body;
 101              		.loc 1 25 54
 102 008c 93051000 		li	a1,1
 103 0090 97000000 		call	_ZN8MemAlloc9mem_allocEm
 103      E7800000 
 104              	.LVL7:
  26:src/tcb.cpp   ****     if(body!= nullptr)newT->stack=stack;
 105              		.loc 1 26 5 is_stmt 1
  26:src/tcb.cpp   ****     if(body!= nullptr)newT->stack=stack;
 106              		.loc 1 26 15 is_stmt 0
 107 0098 23342501 		sd	s2,8(a0)
  27:src/tcb.cpp   ****     else stack= nullptr;
 108              		.loc 1 27 5 is_stmt 1
 109 009c 63080904 		beq	s2,zero,.L5
  27:src/tcb.cpp   ****     else stack= nullptr;
 110              		.loc 1 27 23 discriminator 1
  27:src/tcb.cpp   ****     else stack= nullptr;
 111              		.loc 1 27 34 is_stmt 0 discriminator 1
 112 00a0 233C9500 		sd	s1,24(a0)
  29:src/tcb.cpp   ****     newT->fArg=arg;
 113              		.loc 1 29 5 is_stmt 1 discriminator 1
  29:src/tcb.cpp   ****     newT->fArg=arg;
 114              		.loc 1 29 61 is_stmt 0 discriminator 1
 115 00a4 63880404 		beq	s1,zero,.L6
  29:src/tcb.cpp   ****     newT->fArg=arg;
 116              		.loc 1 29 72 discriminator 1
 117 00a8 37860000 		li	a2,32768
 118 00ac B384C400 		add	s1,s1,a2
 119              	.LVL8:
 120              	.L4:
  29:src/tcb.cpp   ****     newT->fArg=arg;
 121              		.loc 1 29 18 discriminator 4
 122 00b0 97070000 		lla	a5,_ZN3TCB13threadWrapperEv
 122      93870700 
 123 00b8 2330F502 		sd	a5,32(a0)
 124 00bc 23349502 		sd	s1,40(a0)
  30:src/tcb.cpp   ****     newT->finished=false;
 125              		.loc 1 30 5 is_stmt 1 discriminator 4
  30:src/tcb.cpp   ****     newT->finished=false;
 126              		.loc 1 30 15 is_stmt 0 discriminator 4
 127 00c0 23383501 		sd	s3,16(a0)
GAS LISTING /tmp/ccMhvDV1.s 			page 5


  31:src/tcb.cpp   ****     newT->blocked=false;
 128              		.loc 1 31 5 is_stmt 1 discriminator 4
  31:src/tcb.cpp   ****     newT->blocked=false;
 129              		.loc 1 31 19 is_stmt 0 discriminator 4
 130 00c4 23080502 		sb	zero,48(a0)
  32:src/tcb.cpp   ****     newT->closed=false;
 131              		.loc 1 32 5 is_stmt 1 discriminator 4
  32:src/tcb.cpp   ****     newT->closed=false;
 132              		.loc 1 32 18 is_stmt 0 discriminator 4
 133 00c8 23000500 		sb	zero,0(a0)
  33:src/tcb.cpp   **** 
 134              		.loc 1 33 5 is_stmt 1 discriminator 4
  33:src/tcb.cpp   **** 
 135              		.loc 1 33 17 is_stmt 0 discriminator 4
 136 00cc A3000500 		sb	zero,1(a0)
  35:src/tcb.cpp   **** }
 137              		.loc 1 35 5 is_stmt 1 discriminator 4
  36:src/tcb.cpp   **** 
 138              		.loc 1 36 1 is_stmt 0 discriminator 4
 139 00d0 83308102 		ld	ra,40(sp)
 140              		.cfi_remember_state
 141              		.cfi_restore 1
 142 00d4 03340102 		ld	s0,32(sp)
 143              		.cfi_restore 8
 144              		.cfi_def_cfa 2, 48
 145 00d8 83348101 		ld	s1,24(sp)
 146              		.cfi_restore 9
 147 00dc 03390101 		ld	s2,16(sp)
 148              		.cfi_restore 18
 149              	.LVL9:
 150 00e0 83398100 		ld	s3,8(sp)
 151              		.cfi_restore 19
 152              	.LVL10:
 153 00e4 13010103 		addi	sp,sp,48
 154              		.cfi_def_cfa_offset 0
 155 00e8 67800000 		jr	ra
 156              	.LVL11:
 157              	.L5:
 158              		.cfi_restore_state
  29:src/tcb.cpp   ****     newT->fArg=arg;
 159              		.loc 1 29 61
 160 00ec 93040000 		li	s1,0
 161              	.LVL12:
 162 00f0 6FF01FFC 		j	.L4
 163              	.LVL13:
 164              	.L6:
 165 00f4 93040000 		li	s1,0
 166              	.LVL14:
 167 00f8 6FF09FFB 		j	.L4
 168              		.cfi_endproc
 169              	.LFE11:
 171              		.align	2
 172              		.globl	_ZN3TCB12createThreadEPFvPvEPPS_S0_Pm
 174              	_ZN3TCB12createThreadEPFvPvEPPS_S0_Pm:
 175              	.LFB9:
  10:src/tcb.cpp   ****     TCB* ptr = createTCB(body,arg,stack);
 176              		.loc 1 10 79 is_stmt 1
GAS LISTING /tmp/ccMhvDV1.s 			page 6


 177              		.cfi_startproc
 178              	.LVL15:
 179 00fc 130101FD 		addi	sp,sp,-48
 180              		.cfi_def_cfa_offset 48
 181 0100 23341102 		sd	ra,40(sp)
 182 0104 23308102 		sd	s0,32(sp)
 183 0108 233C9100 		sd	s1,24(sp)
 184 010c 23382101 		sd	s2,16(sp)
 185 0110 23343101 		sd	s3,8(sp)
 186              		.cfi_offset 1, -8
 187              		.cfi_offset 8, -16
 188              		.cfi_offset 9, -24
 189              		.cfi_offset 18, -32
 190              		.cfi_offset 19, -40
 191 0114 13040103 		addi	s0,sp,48
 192              		.cfi_def_cfa 8, 0
 193 0118 13090500 		mv	s2,a0
 194 011c 93890500 		mv	s3,a1
 195 0120 93050600 		mv	a1,a2
 196              	.LVL16:
  11:src/tcb.cpp   ****     *handle= ptr;
 197              		.loc 1 11 5
  11:src/tcb.cpp   ****     *handle= ptr;
 198              		.loc 1 11 25 is_stmt 0
 199 0124 13860600 		mv	a2,a3
 200              	.LVL17:
 201 0128 97000000 		call	_ZN3TCB9createTCBEPFvPvES0_Pm
 201      E7800000 
 202              	.LVL18:
 203 0130 93040500 		mv	s1,a0
 204              	.LVL19:
  12:src/tcb.cpp   ****     if (body != nullptr) { Scheduler::put(*handle);}
 205              		.loc 1 12 5 is_stmt 1
  12:src/tcb.cpp   ****     if (body != nullptr) { Scheduler::put(*handle);}
 206              		.loc 1 12 12 is_stmt 0
 207 0134 23B0A900 		sd	a0,0(s3)
  13:src/tcb.cpp   ****     return ptr;
 208              		.loc 1 13 5 is_stmt 1
 209 0138 63060900 		beq	s2,zero,.L8
  13:src/tcb.cpp   ****     return ptr;
 210              		.loc 1 13 28 discriminator 1
  13:src/tcb.cpp   ****     return ptr;
 211              		.loc 1 13 42 is_stmt 0 discriminator 1
 212 013c 97000000 		call	_ZN9Scheduler3putEP3TCB
 212      E7800000 
 213              	.LVL20:
  14:src/tcb.cpp   **** }
 214              		.loc 1 14 5 is_stmt 1 discriminator 1
 215              	.L8:
  15:src/tcb.cpp   **** 
 216              		.loc 1 15 1 is_stmt 0
 217 0144 13850400 		mv	a0,s1
 218 0148 83308102 		ld	ra,40(sp)
 219              		.cfi_restore 1
 220 014c 03340102 		ld	s0,32(sp)
 221              		.cfi_restore 8
 222              		.cfi_def_cfa 2, 48
GAS LISTING /tmp/ccMhvDV1.s 			page 7


 223 0150 83348101 		ld	s1,24(sp)
 224              		.cfi_restore 9
 225              	.LVL21:
 226 0154 03390101 		ld	s2,16(sp)
 227              		.cfi_restore 18
 228              	.LVL22:
 229 0158 83398100 		ld	s3,8(sp)
 230              		.cfi_restore 19
 231              	.LVL23:
 232 015c 13010103 		addi	sp,sp,48
 233              		.cfi_def_cfa_offset 0
 234 0160 67800000 		jr	ra
 235              		.cfi_endproc
 236              	.LFE9:
 238              		.align	2
 239              		.globl	_ZN3TCB15createCPPThreadEPFvPvEPPS_S0_Pm
 241              	_ZN3TCB15createCPPThreadEPFvPvEPPS_S0_Pm:
 242              	.LFB10:
  17:src/tcb.cpp   ****     TCB* ptr = createTCB(body,arg,stack);
 243              		.loc 1 17 83 is_stmt 1
 244              		.cfi_startproc
 245              	.LVL24:
 246 0164 130101FE 		addi	sp,sp,-32
 247              		.cfi_def_cfa_offset 32
 248 0168 233C1100 		sd	ra,24(sp)
 249 016c 23388100 		sd	s0,16(sp)
 250 0170 23349100 		sd	s1,8(sp)
 251              		.cfi_offset 1, -8
 252              		.cfi_offset 8, -16
 253              		.cfi_offset 9, -24
 254 0174 13040102 		addi	s0,sp,32
 255              		.cfi_def_cfa 8, 0
 256 0178 93840500 		mv	s1,a1
 257 017c 93050600 		mv	a1,a2
 258              	.LVL25:
  18:src/tcb.cpp   ****     *handle= ptr;
 259              		.loc 1 18 5
  18:src/tcb.cpp   ****     *handle= ptr;
 260              		.loc 1 18 25 is_stmt 0
 261 0180 13860600 		mv	a2,a3
 262              	.LVL26:
 263 0184 97000000 		call	_ZN3TCB9createTCBEPFvPvES0_Pm
 263      E7800000 
 264              	.LVL27:
  19:src/tcb.cpp   ****     return ptr;
 265              		.loc 1 19 5 is_stmt 1
  19:src/tcb.cpp   ****     return ptr;
 266              		.loc 1 19 12 is_stmt 0
 267 018c 23B0A400 		sd	a0,0(s1)
  20:src/tcb.cpp   **** }
 268              		.loc 1 20 5 is_stmt 1
  21:src/tcb.cpp   **** 
 269              		.loc 1 21 1 is_stmt 0
 270 0190 83308101 		ld	ra,24(sp)
 271              		.cfi_restore 1
 272 0194 03340101 		ld	s0,16(sp)
 273              		.cfi_restore 8
GAS LISTING /tmp/ccMhvDV1.s 			page 8


 274              		.cfi_def_cfa 2, 32
 275 0198 83348100 		ld	s1,8(sp)
 276              		.cfi_restore 9
 277              	.LVL28:
 278 019c 13010102 		addi	sp,sp,32
 279              		.cfi_def_cfa_offset 0
 280 01a0 67800000 		jr	ra
 281              		.cfi_endproc
 282              	.LFE10:
 284              		.align	2
 285              		.globl	_ZN3TCB5yieldEv
 287              	_ZN3TCB5yieldEv:
 288              	.LFB12:
  39:src/tcb.cpp   ****     __asm__ volatile("li a0,0x13");
 289              		.loc 1 39 1 is_stmt 1
 290              		.cfi_startproc
 291 01a4 130101FF 		addi	sp,sp,-16
 292              		.cfi_def_cfa_offset 16
 293 01a8 23348100 		sd	s0,8(sp)
 294              		.cfi_offset 8, -8
 295 01ac 13040101 		addi	s0,sp,16
 296              		.cfi_def_cfa 8, 0
  40:src/tcb.cpp   ****     __asm__ volatile ("ecall");
 297              		.loc 1 40 5
 298              	 #APP
 299              	# 40 "src/tcb.cpp" 1
  41:src/tcb.cpp   ****     return;
 300              		li a0,0x13
 301              	# 0 "" 2
 302              		.loc 1 41 5
 303              	# 41 "src/tcb.cpp" 1
  42:src/tcb.cpp   **** }
 304              		ecall
 305              	# 0 "" 2
 306              		.loc 1 42 5
  43:src/tcb.cpp   **** 
 307              		.loc 1 43 1 is_stmt 0
 308              	 #NO_APP
 309 01b8 03348100 		ld	s0,8(sp)
 310              		.cfi_restore 8
 311              		.cfi_def_cfa 2, 16
 312 01bc 13010101 		addi	sp,sp,16
 313              		.cfi_def_cfa_offset 0
 314 01c0 67800000 		jr	ra
 315              		.cfi_endproc
 316              	.LFE12:
 318              		.align	2
 319              		.globl	_ZN3TCB8dispatchEv
 321              	_ZN3TCB8dispatchEv:
 322              	.LFB13:
  46:src/tcb.cpp   ****     TCB *old = running;
 323              		.loc 1 46 1 is_stmt 1
 324              		.cfi_startproc
 325 01c4 130101FE 		addi	sp,sp,-32
 326              		.cfi_def_cfa_offset 32
 327 01c8 233C1100 		sd	ra,24(sp)
 328 01cc 23388100 		sd	s0,16(sp)
GAS LISTING /tmp/ccMhvDV1.s 			page 9


 329 01d0 23349100 		sd	s1,8(sp)
 330              		.cfi_offset 1, -8
 331              		.cfi_offset 8, -16
 332              		.cfi_offset 9, -24
 333 01d4 13040102 		addi	s0,sp,32
 334              		.cfi_def_cfa 8, 0
  47:src/tcb.cpp   ****     if (!old->isFinished() && !old->blocked) { Scheduler::put(old); }
 335              		.loc 1 47 5
  47:src/tcb.cpp   ****     if (!old->isFinished() && !old->blocked) { Scheduler::put(old); }
 336              		.loc 1 47 10 is_stmt 0
 337 01d8 97040000 		ld	s1,_ZN3TCB7runningE
 337      83B40400 
 338              	.LVL29:
  48:src/tcb.cpp   ****     running = Scheduler::get();
 339              		.loc 1 48 5 is_stmt 1
 340              	.LBB8:
 341              	.LBB9:
  20:src/../h/tcb.hpp **** 
 342              		.loc 2 20 31
  20:src/../h/tcb.hpp **** 
 343              		.loc 2 20 38 is_stmt 0
 344 01e0 83C70403 		lbu	a5,48(s1)
 345              	.LVL30:
 346              	.LBE9:
 347              	.LBE8:
  48:src/tcb.cpp   ****     running = Scheduler::get();
 348              		.loc 1 48 28
 349 01e4 63960700 		bne	a5,zero,.L16
  48:src/tcb.cpp   ****     running = Scheduler::get();
 350              		.loc 1 48 37 discriminator 1
 351 01e8 83C70400 		lbu	a5,0(s1)
  48:src/tcb.cpp   ****     running = Scheduler::get();
 352              		.loc 1 48 28 discriminator 1
 353 01ec 638C0702 		beq	a5,zero,.L18
 354              	.L16:
  49:src/tcb.cpp   **** 
 355              		.loc 1 49 5 is_stmt 1
  49:src/tcb.cpp   **** 
 356              		.loc 1 49 29 is_stmt 0
 357 01f0 97000000 		call	_ZN9Scheduler3getEv
 357      E7800000 
 358              	.LVL31:
  49:src/tcb.cpp   **** 
 359              		.loc 1 49 13
 360 01f8 97070000 		sd	a0,_ZN3TCB7runningE,a5
 360      23B0A700 
  51:src/tcb.cpp   **** }
 361              		.loc 1 51 5 is_stmt 1
  51:src/tcb.cpp   **** }
 362              		.loc 1 51 23 is_stmt 0
 363 0200 93050502 		addi	a1,a0,32
 364 0204 13850402 		addi	a0,s1,32
 365 0208 97000000 		call	_ZN3TCB13contextSwitchEPNS_7ContextES1_
 365      E7800000 
 366              	.LVL32:
  52:src/tcb.cpp   **** 
 367              		.loc 1 52 1
GAS LISTING /tmp/ccMhvDV1.s 			page 10


 368 0210 83308101 		ld	ra,24(sp)
 369              		.cfi_remember_state
 370              		.cfi_restore 1
 371 0214 03340101 		ld	s0,16(sp)
 372              		.cfi_restore 8
 373              		.cfi_def_cfa 2, 32
 374 0218 83348100 		ld	s1,8(sp)
 375              		.cfi_restore 9
 376              	.LVL33:
 377 021c 13010102 		addi	sp,sp,32
 378              		.cfi_def_cfa_offset 0
 379 0220 67800000 		jr	ra
 380              	.LVL34:
 381              	.L18:
 382              		.cfi_restore_state
  48:src/tcb.cpp   ****     running = Scheduler::get();
 383              		.loc 1 48 48 is_stmt 1
  48:src/tcb.cpp   ****     running = Scheduler::get();
 384              		.loc 1 48 62 is_stmt 0
 385 0224 13850400 		mv	a0,s1
 386 0228 97000000 		call	_ZN9Scheduler3putEP3TCB
 386      E7800000 
 387              	.LVL35:
 388 0230 6FF01FFC 		j	.L16
 389              		.cfi_endproc
 390              	.LFE13:
 392              		.globl	_ZN3TCB7runningE
 393              		.section	.sbss,"aw",@nobits
 394              		.align	3
 397              	_ZN3TCB7runningE:
 398 0000 00000000 		.zero	8
 398      00000000 
 399              		.text
 400              	.Letext0:
 401              		.file 3 "src/../h/../lib/hw.h"
 402              		.file 4 "src/../h/scheduler.hpp"
 403              		.file 5 "src/../h/MemoryAllocator.h"
 404              		.file 6 "src/../h/riscv.hpp"
 405              		.file 7 "src/../h/syscall_c.h"
GAS LISTING /tmp/ccMhvDV1.s 			page 11

