GAS LISTING /tmp/ccoHT1cF.s 			page 1


   1              		.file	"thread.cpp"
   2              		.option pic
   3              		.option norelax
   4              		.text
   5              	.Ltext0:
   6              		.align	2
   7              		.globl	_ZN7_threadC2EPFvPvES0_
   9              	_ZN7_threadC2EPFvPvES0_:
  10              	.LFB4:
  11              		.file 1 "src/thread.cpp"
   1:src/thread.cpp **** /**
   2:src/thread.cpp ****  * @file thread.cpp
   3:src/thread.cpp ****  * @author stcksmsh (vukicevickosta@gmail.com)
   4:src/thread.cpp ****  * @brief the thread class implementation
   5:src/thread.cpp ****  * @version 0.1
   6:src/thread.cpp ****  * @date 2024-01-02
   7:src/thread.cpp ****  * 
   8:src/thread.cpp ****  * @copyright Copyright (c) 2024
   9:src/thread.cpp ****  * 
  10:src/thread.cpp ****  */
  11:src/thread.cpp **** 
  12:src/thread.cpp **** 
  13:src/thread.cpp **** #include "thread.h"
  14:src/thread.cpp **** #include "assert.h"
  15:src/thread.cpp **** #include "sched.h"
  16:src/thread.cpp **** #include "syscalls_c.h"
  17:src/thread.cpp **** 
  18:src/thread.cpp **** thread_t _thread::currentThread = nullptr;
  19:src/thread.cpp **** uint32 _thread::nextID = 0;
  20:src/thread.cpp **** 
  21:src/thread.cpp **** _thread::_thread(func function, void* arg){
  12              		.loc 1 21 1
  13              		.cfi_startproc
  14              	.LVL0:
  15 0000 130101FF 		addi	sp,sp,-16
  16              		.cfi_def_cfa_offset 16
  17 0004 23348100 		sd	s0,8(sp)
  18              		.cfi_offset 8, -8
  19 0008 13040101 		addi	s0,sp,16
  20              		.cfi_def_cfa 8, 0
  21              	.LVL1:
  22              	.LBB6:
  23              	.LBB7:
  24              	.LBB8:
  25              		.file 2 "./h/thread.h"
   1:./h/thread.h  **** /**
   2:./h/thread.h  ****  * @file thread.h
   3:./h/thread.h  ****  * @author stcksmsh (vukicevickosta@gmail.com)
   4:./h/thread.h  ****  * @brief the thread class
   5:./h/thread.h  ****  * @version 0.1
   6:./h/thread.h  ****  * @date 2024-01-02
   7:./h/thread.h  ****  * 
   8:./h/thread.h  ****  * @copyright Copyright (c) 2024
   9:./h/thread.h  ****  * 
  10:./h/thread.h  ****  */
  11:./h/thread.h  **** #ifndef THREAD_H
  12:./h/thread.h  **** #define THREAD_H
GAS LISTING /tmp/ccoHT1cF.s 			page 2


  13:./h/thread.h  **** 
  14:./h/thread.h  **** #include "types.h"
  15:./h/thread.h  **** #include "attributes.h"
  16:./h/thread.h  **** 
  17:./h/thread.h  **** /// @brief the thread class
  18:./h/thread.h  **** class _thread{
  19:./h/thread.h  ****     using func = void (*)(void*);
  20:./h/thread.h  **** public:
  21:./h/thread.h  **** 
  22:./h/thread.h  ****     static int create(_thread** thread, func function, void* arg, void* stack, bool start = true);
  23:./h/thread.h  **** 
  24:./h/thread.h  ****     int exit();
  25:./h/thread.h  **** 
  26:./h/thread.h  ****     static void dispatch();
  27:./h/thread.h  **** 
  28:./h/thread.h  ****     void join(_thread* thread);
  29:./h/thread.h  **** 
  30:./h/thread.h  ****     static _thread* currentThread;
  31:./h/thread.h  **** 
  32:./h/thread.h  ****     void setBlocked(bool blocked);
  33:./h/thread.h  **** 
  34:./h/thread.h  ****     void setClosed(bool blocked);
  35:./h/thread.h  ****     
  36:./h/thread.h  ****     uint32 ID;
  37:./h/thread.h  **** 
  38:./h/thread.h  **** private:
  39:./h/thread.h  ****     _thread(func function, void* arg);
  40:./h/thread.h  **** 
  41:./h/thread.h  ****     static void wrapper();
  42:./h/thread.h  **** 
  43:./h/thread.h  **** 
  44:./h/thread.h  ****     struct contextWrapper{
  26              		.loc 2 44 12 is_stmt 0
  27 000c 23380500 		sd	zero,16(a0)
  28              	.LVL2:
  29              	.LBE8:
  30              	.LBE7:
  22:src/thread.cpp ****     function = function;
  31              		.loc 1 22 5 is_stmt 1
  23:src/thread.cpp ****     arg = arg;
  32              		.loc 1 23 5
  24:src/thread.cpp ****     ID = nextID++;
  33              		.loc 1 24 5
  34              		.loc 1 24 16 is_stmt 0
  35 0010 17070000 		lla	a4,.LANCHOR0
  35      13070700 
  36 0018 83270700 		lw	a5,0(a4)
  37 001c 9B861700 		addiw	a3,a5,1
  38 0020 2320D700 		sw	a3,0(a4)
  39              		.loc 1 24 8
  40 0024 2320F500 		sw	a5,0(a0)
  25:src/thread.cpp ****     closed = 0;
  41              		.loc 1 25 5 is_stmt 1
  26:src/thread.cpp ****     blocked = 0;
  42              		.loc 1 26 5
  27:src/thread.cpp ****     sleeping = 0;
  43              		.loc 1 27 5
GAS LISTING /tmp/ccoHT1cF.s 			page 3


  28:src/thread.cpp ****     finished = 0;
  44              		.loc 1 28 5
  29:src/thread.cpp ****     reserved = 0;
  45              		.loc 1 29 5
  46              		.loc 1 29 14 is_stmt 0
  47 0028 232C0508 		sw	zero,152(a0)
  30:src/thread.cpp ****     joinHead = nullptr;
  48              		.loc 1 30 5 is_stmt 1
  49              		.loc 1 30 14 is_stmt 0
  50 002c 23300508 		sd	zero,128(a0)
  31:src/thread.cpp ****     timeLeft = 0;
  51              		.loc 1 31 5 is_stmt 1
  52              		.loc 1 31 14 is_stmt 0
  53 0030 23340508 		sd	zero,136(a0)
  32:src/thread.cpp ****     stackStart = 0;
  54              		.loc 1 32 5 is_stmt 1
  55              		.loc 1 32 16 is_stmt 0
  56 0034 23380508 		sd	zero,144(a0)
  33:src/thread.cpp ****     
  34:src/thread.cpp ****     context.s0 = 0;
  57              		.loc 1 34 5 is_stmt 1
  58              		.loc 1 34 16 is_stmt 0
  59 0038 233C0500 		sd	zero,24(a0)
  35:src/thread.cpp ****     context.s1 = 0;
  60              		.loc 1 35 5 is_stmt 1
  61              		.loc 1 35 16 is_stmt 0
  62 003c 23300502 		sd	zero,32(a0)
  36:src/thread.cpp ****     context.s2 = 0;
  63              		.loc 1 36 5 is_stmt 1
  64              		.loc 1 36 16 is_stmt 0
  65 0040 23340502 		sd	zero,40(a0)
  37:src/thread.cpp ****     context.s3 = 0;
  66              		.loc 1 37 5 is_stmt 1
  67              		.loc 1 37 16 is_stmt 0
  68 0044 23380502 		sd	zero,48(a0)
  38:src/thread.cpp ****     context.s4 = 0;
  69              		.loc 1 38 5 is_stmt 1
  70              		.loc 1 38 16 is_stmt 0
  71 0048 233C0502 		sd	zero,56(a0)
  39:src/thread.cpp ****     context.s5 = 0;
  72              		.loc 1 39 5 is_stmt 1
  73              		.loc 1 39 16 is_stmt 0
  74 004c 23300504 		sd	zero,64(a0)
  40:src/thread.cpp ****     context.s6 = 0;
  75              		.loc 1 40 5 is_stmt 1
  76              		.loc 1 40 16 is_stmt 0
  77 0050 23340504 		sd	zero,72(a0)
  41:src/thread.cpp ****     context.s7 = 0;
  78              		.loc 1 41 5 is_stmt 1
  79              		.loc 1 41 16 is_stmt 0
  80 0054 23380504 		sd	zero,80(a0)
  42:src/thread.cpp ****     context.s8 = 0;
  81              		.loc 1 42 5 is_stmt 1
  82              		.loc 1 42 16 is_stmt 0
  83 0058 233C0504 		sd	zero,88(a0)
  43:src/thread.cpp ****     context.s9 = 0;
  84              		.loc 1 43 5 is_stmt 1
GAS LISTING /tmp/ccoHT1cF.s 			page 4


  85              		.loc 1 43 16 is_stmt 0
  86 005c 23300506 		sd	zero,96(a0)
  44:src/thread.cpp ****     context.s10 = 0;
  87              		.loc 1 44 5 is_stmt 1
  88              		.loc 1 44 17 is_stmt 0
  89 0060 23340506 		sd	zero,104(a0)
  45:src/thread.cpp ****     context.s11 = 0;
  90              		.loc 1 45 5 is_stmt 1
  91              		.loc 1 45 17 is_stmt 0
  92 0064 23380506 		sd	zero,112(a0)
  46:src/thread.cpp **** 
  47:src/thread.cpp ****     context.sstatus = 0;
  93              		.loc 1 47 5 is_stmt 1
  94              		.loc 1 47 21 is_stmt 0
  95 0068 233C0506 		sd	zero,120(a0)
  48:src/thread.cpp ****     /// register x2 is the stack pointer
  49:src/thread.cpp ****     context.sp = (uint64)stackStart;
  96              		.loc 1 49 5 is_stmt 1
  50:src/thread.cpp ****     /// register x1 is the return address
  51:src/thread.cpp ****     context.pc = (uint64)wrapper;
  97              		.loc 1 51 5
  98              		.loc 1 51 16 is_stmt 0
  99 006c 97070000 		lla	a5,_ZN7_thread7wrapperEv
  99      93870700 
 100 0074 2334F500 		sd	a5,8(a0)
 101              	.LBE6:
  52:src/thread.cpp **** }
 102              		.loc 1 52 1
 103 0078 03348100 		ld	s0,8(sp)
 104              		.cfi_restore 8
 105              		.cfi_def_cfa 2, 16
 106 007c 13010101 		addi	sp,sp,16
 107              		.cfi_def_cfa_offset 0
 108 0080 67800000 		jr	ra
 109              		.cfi_endproc
 110              	.LFE4:
 112              		.globl	_ZN7_threadC1EPFvPvES0_
 113              		.set	_ZN7_threadC1EPFvPvES0_,_ZN7_threadC2EPFvPvES0_
 114              		.align	2
 115              		.globl	_Z10popSppSpiev
 117              	_Z10popSppSpiev:
 118              	.LFB6:
  53:src/thread.cpp **** 
  54:src/thread.cpp **** void popSppSpie(){
 119              		.loc 1 54 18 is_stmt 1
 120              		.cfi_startproc
 121 0084 130101FF 		addi	sp,sp,-16
 122              		.cfi_def_cfa_offset 16
 123 0088 23348100 		sd	s0,8(sp)
 124              		.cfi_offset 8, -8
 125 008c 13040101 		addi	s0,sp,16
 126              		.cfi_def_cfa 8, 0
  55:src/thread.cpp ****     __asm__ volatile ("csrw sepc, ra");
 127              		.loc 1 55 5
 128              		.loc 1 55 39 is_stmt 0
 129              	#APP
 130              	# 55 "src/thread.cpp" 1
GAS LISTING /tmp/ccoHT1cF.s 			page 5


  56              	    __asm__ volatile ("sret");
 131              		csrw sepc, ra
 132              	# 0 "" 2
 133              		.loc 1 56 5 is_stmt 1
 134              		.loc 1 56 30 is_stmt 0
 135              	# 56 "src/thread.cpp" 1
  57              	}
 136              		sret
 137              	# 0 "" 2
 138              		.loc 1 57 1
 139              	#NO_APP
 140 0098 03348100 		ld	s0,8(sp)
 141              		.cfi_restore 8
 142              		.cfi_def_cfa 2, 16
 143 009c 13010101 		addi	sp,sp,16
 144              		.cfi_def_cfa_offset 0
 145 00a0 67800000 		jr	ra
 146              		.cfi_endproc
 147              	.LFE6:
 149              		.align	2
 150              		.globl	_ZN7_thread6createEPPS_PFvPvES2_S2_b
 152              	_ZN7_thread6createEPPS_PFvPvES2_S2_b:
 153              	.LFB8:
  58:src/thread.cpp **** 
  59:src/thread.cpp **** void _thread::wrapper(){
  60:src/thread.cpp ****     popSppSpie();
  61:src/thread.cpp ****     currentThread->function(currentThread->arg);
  62:src/thread.cpp ****     currentThread->finished = 1;
  63:src/thread.cpp ****     dispatch();
  64:src/thread.cpp **** }
  65:src/thread.cpp **** 
  66:src/thread.cpp **** int _thread::create(thread_t* thread, func function, void* arg, void* stack, bool start){
 154              		.loc 1 66 89 is_stmt 1
 155              		.cfi_startproc
 156              	.LVL3:
 157 00a4 130101FC 		addi	sp,sp,-64
 158              		.cfi_def_cfa_offset 64
 159 00a8 233C1102 		sd	ra,56(sp)
 160 00ac 23388102 		sd	s0,48(sp)
 161 00b0 23349102 		sd	s1,40(sp)
 162 00b4 23302103 		sd	s2,32(sp)
 163 00b8 233C3101 		sd	s3,24(sp)
 164 00bc 23384101 		sd	s4,16(sp)
 165 00c0 23345101 		sd	s5,8(sp)
 166              		.cfi_offset 1, -8
 167              		.cfi_offset 8, -16
 168              		.cfi_offset 9, -24
 169              		.cfi_offset 18, -32
 170              		.cfi_offset 19, -40
 171              		.cfi_offset 20, -48
 172              		.cfi_offset 21, -56
 173 00c4 13040104 		addi	s0,sp,64
 174              		.cfi_def_cfa 8, 0
 175 00c8 93040500 		mv	s1,a0
 176 00cc 938A0500 		mv	s5,a1
 177 00d0 130A0600 		mv	s4,a2
 178 00d4 13890600 		mv	s2,a3
GAS LISTING /tmp/ccoHT1cF.s 			page 6


 179 00d8 93090700 		mv	s3,a4
  67:src/thread.cpp ****     *thread = (thread_t)mem_alloc(sizeof(_thread));
 180              		.loc 1 67 5
 181              		.loc 1 67 34 is_stmt 0
 182 00dc 1305000B 		li	a0,176
 183              	.LVL4:
 184 00e0 97000000 		call	_Z9mem_allocm@plt
 184      E7800000 
 185              	.LVL5:
 186              		.loc 1 67 13
 187 00e8 23B0A400 		sd	a0,0(s1)
  68:src/thread.cpp ****     
  69:src/thread.cpp ****     (*thread)->function = function;
 188              		.loc 1 69 5 is_stmt 1
 189              		.loc 1 69 25 is_stmt 0
 190 00ec 2330550B 		sd	s5,160(a0)
  70:src/thread.cpp ****     (*thread)->arg = arg;
 191              		.loc 1 70 5 is_stmt 1
 192              		.loc 1 70 6 is_stmt 0
 193 00f0 83B70400 		ld	a5,0(s1)
 194              		.loc 1 70 20
 195 00f4 23B4470B 		sd	s4,168(a5)
  71:src/thread.cpp ****     (*thread)->ID = nextID++;
 196              		.loc 1 71 5 is_stmt 1
 197              		.loc 1 71 27 is_stmt 0
 198 00f8 17070000 		lla	a4,.LANCHOR0
 198      13070700 
 199 0100 83270700 		lw	a5,0(a4)
 200 0104 9B861700 		addiw	a3,a5,1
 201 0108 2320D700 		sw	a3,0(a4)
 202              		.loc 1 71 6
 203 010c 03B70400 		ld	a4,0(s1)
 204              		.loc 1 71 19
 205 0110 2320F700 		sw	a5,0(a4)
  72:src/thread.cpp ****     (*thread)->closed = false;
 206              		.loc 1 72 5 is_stmt 1
 207              		.loc 1 72 6 is_stmt 0
 208 0114 03B70400 		ld	a4,0(s1)
 209              		.loc 1 72 23
 210 0118 83278709 		lw	a5,152(a4)
 211 011c 93F7E7FF 		andi	a5,a5,-2
 212 0120 232CF708 		sw	a5,152(a4)
  73:src/thread.cpp ****     (*thread)->blocked = false;
 213              		.loc 1 73 5 is_stmt 1
 214              		.loc 1 73 6 is_stmt 0
 215 0124 03B70400 		ld	a4,0(s1)
 216              		.loc 1 73 24
 217 0128 83278709 		lw	a5,152(a4)
 218 012c 93F7D7FF 		andi	a5,a5,-3
 219 0130 232CF708 		sw	a5,152(a4)
  74:src/thread.cpp ****     (*thread)->sleeping = false;
 220              		.loc 1 74 5 is_stmt 1
 221              		.loc 1 74 6 is_stmt 0
 222 0134 03B70400 		ld	a4,0(s1)
 223              		.loc 1 74 25
 224 0138 83278709 		lw	a5,152(a4)
 225 013c 93F7B7FF 		andi	a5,a5,-5
GAS LISTING /tmp/ccoHT1cF.s 			page 7


 226 0140 232CF708 		sw	a5,152(a4)
  75:src/thread.cpp ****     (*thread)->finished = false;
 227              		.loc 1 75 5 is_stmt 1
 228              		.loc 1 75 6 is_stmt 0
 229 0144 03B70400 		ld	a4,0(s1)
 230              		.loc 1 75 25
 231 0148 83278709 		lw	a5,152(a4)
 232 014c 93F777FF 		andi	a5,a5,-9
 233 0150 232CF708 		sw	a5,152(a4)
  76:src/thread.cpp ****     (*thread)->reserved = 0;
 234              		.loc 1 76 5 is_stmt 1
 235              		.loc 1 76 6 is_stmt 0
 236 0154 03B70400 		ld	a4,0(s1)
 237              		.loc 1 76 25
 238 0158 83278709 		lw	a5,152(a4)
 239 015c 93F7F700 		andi	a5,a5,15
 240 0160 232CF708 		sw	a5,152(a4)
  77:src/thread.cpp ****     (*thread)->joinHead = nullptr;
 241              		.loc 1 77 5 is_stmt 1
 242              		.loc 1 77 6 is_stmt 0
 243 0164 83B70400 		ld	a5,0(s1)
 244              		.loc 1 77 25
 245 0168 23B00708 		sd	zero,128(a5)
  78:src/thread.cpp ****     (*thread)->timeLeft = 0;
 246              		.loc 1 78 5 is_stmt 1
 247              		.loc 1 78 6 is_stmt 0
 248 016c 83B70400 		ld	a5,0(s1)
 249              		.loc 1 78 25
 250 0170 23B40708 		sd	zero,136(a5)
  79:src/thread.cpp ****     (*thread)->stackStart = 0;
 251              		.loc 1 79 5 is_stmt 1
 252              		.loc 1 79 6 is_stmt 0
 253 0174 83B70400 		ld	a5,0(s1)
 254              		.loc 1 79 27
 255 0178 23B80708 		sd	zero,144(a5)
  80:src/thread.cpp **** 
  81:src/thread.cpp ****     (*thread)->context.s0 = 0;
 256              		.loc 1 81 5 is_stmt 1
 257              		.loc 1 81 6 is_stmt 0
 258 017c 83B70400 		ld	a5,0(s1)
 259              		.loc 1 81 27
 260 0180 23BC0700 		sd	zero,24(a5)
  82:src/thread.cpp ****     (*thread)->context.s1 = 0;
 261              		.loc 1 82 5 is_stmt 1
 262              		.loc 1 82 6 is_stmt 0
 263 0184 83B70400 		ld	a5,0(s1)
 264              		.loc 1 82 27
 265 0188 23B00702 		sd	zero,32(a5)
  83:src/thread.cpp ****     (*thread)->context.s2 = 0;
 266              		.loc 1 83 5 is_stmt 1
 267              		.loc 1 83 6 is_stmt 0
 268 018c 83B70400 		ld	a5,0(s1)
 269              		.loc 1 83 27
 270 0190 23B40702 		sd	zero,40(a5)
  84:src/thread.cpp ****     (*thread)->context.s3 = 0;
 271              		.loc 1 84 5 is_stmt 1
 272              		.loc 1 84 6 is_stmt 0
GAS LISTING /tmp/ccoHT1cF.s 			page 8


 273 0194 83B70400 		ld	a5,0(s1)
 274              		.loc 1 84 27
 275 0198 23B80702 		sd	zero,48(a5)
  85:src/thread.cpp ****     (*thread)->context.s4 = 0;
 276              		.loc 1 85 5 is_stmt 1
 277              		.loc 1 85 6 is_stmt 0
 278 019c 83B70400 		ld	a5,0(s1)
 279              		.loc 1 85 27
 280 01a0 23BC0702 		sd	zero,56(a5)
  86:src/thread.cpp ****     (*thread)->context.s5 = 0;
 281              		.loc 1 86 5 is_stmt 1
 282              		.loc 1 86 6 is_stmt 0
 283 01a4 83B70400 		ld	a5,0(s1)
 284              		.loc 1 86 27
 285 01a8 23B00704 		sd	zero,64(a5)
  87:src/thread.cpp ****     (*thread)->context.s6 = 0;
 286              		.loc 1 87 5 is_stmt 1
 287              		.loc 1 87 6 is_stmt 0
 288 01ac 83B70400 		ld	a5,0(s1)
 289              		.loc 1 87 27
 290 01b0 23B40704 		sd	zero,72(a5)
  88:src/thread.cpp ****     (*thread)->context.s7 = 0;
 291              		.loc 1 88 5 is_stmt 1
 292              		.loc 1 88 6 is_stmt 0
 293 01b4 83B70400 		ld	a5,0(s1)
 294              		.loc 1 88 27
 295 01b8 23B80704 		sd	zero,80(a5)
  89:src/thread.cpp ****     (*thread)->context.s8 = 0;
 296              		.loc 1 89 5 is_stmt 1
 297              		.loc 1 89 6 is_stmt 0
 298 01bc 83B70400 		ld	a5,0(s1)
 299              		.loc 1 89 27
 300 01c0 23BC0704 		sd	zero,88(a5)
  90:src/thread.cpp ****     (*thread)->context.s9 = 0;
 301              		.loc 1 90 5 is_stmt 1
 302              		.loc 1 90 6 is_stmt 0
 303 01c4 83B70400 		ld	a5,0(s1)
 304              		.loc 1 90 27
 305 01c8 23B00706 		sd	zero,96(a5)
  91:src/thread.cpp ****     (*thread)->context.s10 = 0;
 306              		.loc 1 91 5 is_stmt 1
 307              		.loc 1 91 6 is_stmt 0
 308 01cc 83B70400 		ld	a5,0(s1)
 309              		.loc 1 91 28
 310 01d0 23B40706 		sd	zero,104(a5)
  92:src/thread.cpp ****     (*thread)->context.s11 = 0;
 311              		.loc 1 92 5 is_stmt 1
 312              		.loc 1 92 6 is_stmt 0
 313 01d4 83B70400 		ld	a5,0(s1)
 314              		.loc 1 92 28
 315 01d8 23B80706 		sd	zero,112(a5)
  93:src/thread.cpp **** 
  94:src/thread.cpp ****     /// register x2 is the stack pointer
  95:src/thread.cpp ****     (*thread)->context.sp = (uint64)stack;
 316              		.loc 1 95 5 is_stmt 1
 317              		.loc 1 95 6 is_stmt 0
 318 01dc 83B70400 		ld	a5,0(s1)
GAS LISTING /tmp/ccoHT1cF.s 			page 9


 319              		.loc 1 95 27
 320 01e0 23B82701 		sd	s2,16(a5)
  96:src/thread.cpp ****     /// register x1 is the return address
  97:src/thread.cpp ****     (*thread)->context.pc = (uint64)wrapper;
 321              		.loc 1 97 5 is_stmt 1
 322              		.loc 1 97 6 is_stmt 0
 323 01e4 83B70400 		ld	a5,0(s1)
 324              		.loc 1 97 27
 325 01e8 17070000 		lla	a4,_ZN7_thread7wrapperEv
 325      13070700 
 326 01f0 23B4E700 		sd	a4,8(a5)
  98:src/thread.cpp **** 
  99:src/thread.cpp ****     (*thread)->stackStart = stack;
 327              		.loc 1 99 5 is_stmt 1
 328              		.loc 1 99 6 is_stmt 0
 329 01f4 83B70400 		ld	a5,0(s1)
 330              		.loc 1 99 27
 331 01f8 23B82709 		sd	s2,144(a5)
 100:src/thread.cpp ****     if(start){
 332              		.loc 1 100 5 is_stmt 1
 333 01fc 63960902 		bnez	s3,.L8
 334              	.L6:
 101:src/thread.cpp ****         Scheduler::put(*thread);
 102:src/thread.cpp ****     }
 103:src/thread.cpp ****     return 0;
 335              		.loc 1 103 5
 104:src/thread.cpp **** }
 336              		.loc 1 104 1 is_stmt 0
 337 0200 13050000 		li	a0,0
 338 0204 83308103 		ld	ra,56(sp)
 339              		.cfi_remember_state
 340              		.cfi_restore 1
 341 0208 03340103 		ld	s0,48(sp)
 342              		.cfi_restore 8
 343              		.cfi_def_cfa 2, 64
 344 020c 83348102 		ld	s1,40(sp)
 345              		.cfi_restore 9
 346              	.LVL6:
 347 0210 03390102 		ld	s2,32(sp)
 348              		.cfi_restore 18
 349              	.LVL7:
 350 0214 83398101 		ld	s3,24(sp)
 351              		.cfi_restore 19
 352 0218 033A0101 		ld	s4,16(sp)
 353              		.cfi_restore 20
 354              	.LVL8:
 355 021c 833A8100 		ld	s5,8(sp)
 356              		.cfi_restore 21
 357              	.LVL9:
 358 0220 13010104 		addi	sp,sp,64
 359              		.cfi_def_cfa_offset 0
 360 0224 67800000 		jr	ra
 361              	.LVL10:
 362              	.L8:
 363              		.cfi_restore_state
 101:src/thread.cpp ****         Scheduler::put(*thread);
 364              		.loc 1 101 9 is_stmt 1
GAS LISTING /tmp/ccoHT1cF.s 			page 10


 101:src/thread.cpp ****         Scheduler::put(*thread);
 365              		.loc 1 101 23 is_stmt 0
 366 0228 03B50400 		ld	a0,0(s1)
 367 022c 97000000 		call	_ZN9Scheduler3putEP7_thread@plt
 367      E7800000 
 368              	.LVL11:
 369 0234 6FF0DFFC 		j	.L6
 370              		.cfi_endproc
 371              	.LFE8:
 373              		.align	2
 374              		.globl	_ZN7_thread10setBlockedEb
 376              	_ZN7_thread10setBlockedEb:
 377              	.LFB10:
 105:src/thread.cpp **** 
 106:src/thread.cpp **** int _thread::exit(){
 107:src/thread.cpp ****     this->finished = 1;
 108:src/thread.cpp ****     dispatch();    
 109:src/thread.cpp ****     return 0;
 110:src/thread.cpp **** }
 111:src/thread.cpp **** 
 112:src/thread.cpp **** void _thread::setBlocked(bool blocked){
 378              		.loc 1 112 39 is_stmt 1
 379              		.cfi_startproc
 380              	.LVL12:
 381 0238 130101FF 		addi	sp,sp,-16
 382              		.cfi_def_cfa_offset 16
 383 023c 23348100 		sd	s0,8(sp)
 384              		.cfi_offset 8, -8
 385 0240 13040101 		addi	s0,sp,16
 386              		.cfi_def_cfa 8, 0
 113:src/thread.cpp ****     this->blocked = blocked;
 387              		.loc 1 113 5
 388              		.loc 1 113 19 is_stmt 0
 389 0244 93F51500 		andi	a1,a1,1
 390              	.LVL13:
 391 0248 9B971500 		slliw	a5,a1,1
 392 024c 83258509 		lw	a1,152(a0)
 393 0250 93F5D5FF 		andi	a1,a1,-3
 394 0254 B3E5F500 		or	a1,a1,a5
 395 0258 232CB508 		sw	a1,152(a0)
 114:src/thread.cpp **** }
 396              		.loc 1 114 1
 397 025c 03348100 		ld	s0,8(sp)
 398              		.cfi_restore 8
 399              		.cfi_def_cfa 2, 16
 400 0260 13010101 		addi	sp,sp,16
 401              		.cfi_def_cfa_offset 0
 402 0264 67800000 		jr	ra
 403              		.cfi_endproc
 404              	.LFE10:
 406              		.align	2
 407              		.globl	_ZN7_thread9setClosedEb
 409              	_ZN7_thread9setClosedEb:
 410              	.LFB11:
 115:src/thread.cpp **** 
 116:src/thread.cpp **** void _thread::setClosed(bool closed){
 411              		.loc 1 116 37 is_stmt 1
GAS LISTING /tmp/ccoHT1cF.s 			page 11


 412              		.cfi_startproc
 413              	.LVL14:
 414 0268 130101FF 		addi	sp,sp,-16
 415              		.cfi_def_cfa_offset 16
 416 026c 23348100 		sd	s0,8(sp)
 417              		.cfi_offset 8, -8
 418 0270 13040101 		addi	s0,sp,16
 419              		.cfi_def_cfa 8, 0
 117:src/thread.cpp ****     this->closed = closed;
 420              		.loc 1 117 5
 421              		.loc 1 117 18 is_stmt 0
 422 0274 93F71500 		andi	a5,a1,1
 423 0278 83258509 		lw	a1,152(a0)
 424              	.LVL15:
 425 027c 93F5E5FF 		andi	a1,a1,-2
 426 0280 B3E5F500 		or	a1,a1,a5
 427 0284 232CB508 		sw	a1,152(a0)
 118:src/thread.cpp **** }
 428              		.loc 1 118 1
 429 0288 03348100 		ld	s0,8(sp)
 430              		.cfi_restore 8
 431              		.cfi_def_cfa 2, 16
 432 028c 13010101 		addi	sp,sp,16
 433              		.cfi_def_cfa_offset 0
 434 0290 67800000 		jr	ra
 435              		.cfi_endproc
 436              	.LFE11:
 438              		.align	2
 439              		.globl	_ZN7_thread13contextSwitchEPNS_14contextWrapperES1_
 441              	_ZN7_thread13contextSwitchEPNS_14contextWrapperES1_:
 442              	.LFB13:
 119:src/thread.cpp **** 
 120:src/thread.cpp **** void _thread::dispatch(){
 121:src/thread.cpp ****     _thread* oldThread = currentThread;
 122:src/thread.cpp ****     if(oldThread != nullptr && !oldThread->closed && !oldThread->blocked && !oldThread->sleeping &&
 123:src/thread.cpp ****             Scheduler::put(oldThread);
 124:src/thread.cpp ****     }   
 125:src/thread.cpp ****     // while(newThread != nullptr && (newThread->closed || newThread->blocked || newThread->sleepin
 126:src/thread.cpp ****     //     newThread = Scheduler::get();
 127:src/thread.cpp ****     // }
 128:src/thread.cpp ****     // if(newThread == nullptr){
 129:src/thread.cpp ****     //     return;
 130:src/thread.cpp ****     // }
 131:src/thread.cpp ****     currentThread =  Scheduler::get();
 132:src/thread.cpp ****     contextSwitch(oldThread == nullptr?nullptr:&oldThread->context, &(currentThread->context));
 133:src/thread.cpp **** }
 134:src/thread.cpp **** 
 135:src/thread.cpp **** void _thread::contextSwitch(contextWrapper *oldContext, contextWrapper *newContext){
 443              		.loc 1 135 84 is_stmt 1
 444              		.cfi_startproc
 445              	.LVL16:
 446 0294 130101FF 		addi	sp,sp,-16
 447              		.cfi_def_cfa_offset 16
 448 0298 23348100 		sd	s0,8(sp)
 449              		.cfi_offset 8, -8
 450 029c 13040101 		addi	s0,sp,16
 451              		.cfi_def_cfa 8, 0
GAS LISTING /tmp/ccoHT1cF.s 			page 12


 136:src/thread.cpp ****     if(oldContext != nullptr){
 452              		.loc 1 136 5
 453 02a0 63000508 		beqz	a0,.L14
 137:src/thread.cpp **** 
 138:src/thread.cpp ****         __asm__ volatile ("mv %0, sp" : "=r"(oldContext->sp));
 454              		.loc 1 138 9
 455              		.loc 1 138 62 is_stmt 0
 456              	#APP
 457              	# 138 "src/thread.cpp" 1
 139              	        __asm__ volatile ("mv %0, ra" : "=r"(oldContext->pc));
 458              		mv a5, sp
 459              	# 0 "" 2
 460              	#NO_APP
 461 02a8 2334F500 		sd	a5,8(a0)
 462              		.loc 1 139 9 is_stmt 1
 463              		.loc 1 139 62 is_stmt 0
 464              	#APP
 465              	# 139 "src/thread.cpp" 1
 140              	
 466              		mv a5, ra
 467              	# 0 "" 2
 468              	#NO_APP
 469 02b0 2330F500 		sd	a5,0(a0)
 141:src/thread.cpp ****         __asm__ volatile ("mv %0, s0" : "=r"(oldContext->s0));
 470              		.loc 1 141 9 is_stmt 1
 471              		.loc 1 141 62 is_stmt 0
 472              	#APP
 473              	# 141 "src/thread.cpp" 1
 142              	        __asm__ volatile ("mv %0, s1" : "=r"(oldContext->s1));
 474              		mv a5, s0
 475              	# 0 "" 2
 476              	#NO_APP
 477 02b8 2338F500 		sd	a5,16(a0)
 478              		.loc 1 142 9 is_stmt 1
 479              		.loc 1 142 62 is_stmt 0
 480              	#APP
 481              	# 142 "src/thread.cpp" 1
 143              	        __asm__ volatile ("mv %0, s2" : "=r"(oldContext->s2));
 482              		mv a5, s1
 483              	# 0 "" 2
 484              	#NO_APP
 485 02c0 233CF500 		sd	a5,24(a0)
 486              		.loc 1 143 9 is_stmt 1
 487              		.loc 1 143 62 is_stmt 0
 488              	#APP
 489              	# 143 "src/thread.cpp" 1
 144              	        __asm__ volatile ("mv %0, s3" : "=r"(oldContext->s3));
 490              		mv a5, s2
 491              	# 0 "" 2
 492              	#NO_APP
 493 02c8 2330F502 		sd	a5,32(a0)
 494              		.loc 1 144 9 is_stmt 1
 495              		.loc 1 144 62 is_stmt 0
 496              	#APP
 497              	# 144 "src/thread.cpp" 1
 145              	        __asm__ volatile ("mv %0, s4" : "=r"(oldContext->s4));
 498              		mv a5, s3
GAS LISTING /tmp/ccoHT1cF.s 			page 13


 499              	# 0 "" 2
 500              	#NO_APP
 501 02d0 2334F502 		sd	a5,40(a0)
 502              		.loc 1 145 9 is_stmt 1
 503              		.loc 1 145 62 is_stmt 0
 504              	#APP
 505              	# 145 "src/thread.cpp" 1
 146              	        __asm__ volatile ("mv %0, s5" : "=r"(oldContext->s5));
 506              		mv a5, s4
 507              	# 0 "" 2
 508              	#NO_APP
 509 02d8 2338F502 		sd	a5,48(a0)
 510              		.loc 1 146 9 is_stmt 1
 511              		.loc 1 146 62 is_stmt 0
 512              	#APP
 513              	# 146 "src/thread.cpp" 1
 147              	        __asm__ volatile ("mv %0, s6" : "=r"(oldContext->s6));
 514              		mv a5, s5
 515              	# 0 "" 2
 516              	#NO_APP
 517 02e0 233CF502 		sd	a5,56(a0)
 518              		.loc 1 147 9 is_stmt 1
 519              		.loc 1 147 62 is_stmt 0
 520              	#APP
 521              	# 147 "src/thread.cpp" 1
 148              	        __asm__ volatile ("mv %0, s7" : "=r"(oldContext->s7));
 522              		mv a5, s6
 523              	# 0 "" 2
 524              	#NO_APP
 525 02e8 2330F504 		sd	a5,64(a0)
 526              		.loc 1 148 9 is_stmt 1
 527              		.loc 1 148 62 is_stmt 0
 528              	#APP
 529              	# 148 "src/thread.cpp" 1
 149              	        __asm__ volatile ("mv %0, s8" : "=r"(oldContext->s8));
 530              		mv a5, s7
 531              	# 0 "" 2
 532              	#NO_APP
 533 02f0 2334F504 		sd	a5,72(a0)
 534              		.loc 1 149 9 is_stmt 1
 535              		.loc 1 149 62 is_stmt 0
 536              	#APP
 537              	# 149 "src/thread.cpp" 1
 150              	        __asm__ volatile ("mv %0, s9" : "=r"(oldContext->s9));
 538              		mv a5, s8
 539              	# 0 "" 2
 540              	#NO_APP
 541 02f8 2338F504 		sd	a5,80(a0)
 542              		.loc 1 150 9 is_stmt 1
 543              		.loc 1 150 62 is_stmt 0
 544              	#APP
 545              	# 150 "src/thread.cpp" 1
 151              	        __asm__ volatile ("mv %0, s10" : "=r"(oldContext->s10));
 546              		mv a5, s9
 547              	# 0 "" 2
 548              	#NO_APP
 549 0300 233CF504 		sd	a5,88(a0)
GAS LISTING /tmp/ccoHT1cF.s 			page 14


 550              		.loc 1 151 9 is_stmt 1
 551              		.loc 1 151 64 is_stmt 0
 552              	#APP
 553              	# 151 "src/thread.cpp" 1
 152              	        __asm__ volatile ("mv %0, s11" : "=r"(oldContext->s11));
 554              		mv a5, s10
 555              	# 0 "" 2
 556              	#NO_APP
 557 0308 2330F506 		sd	a5,96(a0)
 558              		.loc 1 152 9 is_stmt 1
 559              		.loc 1 152 64 is_stmt 0
 560              	#APP
 561              	# 152 "src/thread.cpp" 1
 153              	
 562              		mv a5, s11
 563              	# 0 "" 2
 564              	#NO_APP
 565 0310 2334F506 		sd	a5,104(a0)
 154:src/thread.cpp ****         __asm__ volatile ("csrr s0, sstatus");
 566              		.loc 1 154 9 is_stmt 1
 567              		.loc 1 154 46 is_stmt 0
 568              	#APP
 569              	# 154 "src/thread.cpp" 1
 155              	        __asm__ volatile ("mv %0, s0" : "=r"(oldContext->sstatus));
 570              		csrr s0, sstatus
 571              	# 0 "" 2
 572              		.loc 1 155 9 is_stmt 1
 573              		.loc 1 155 67 is_stmt 0
 574              	# 155 "src/thread.cpp" 1
 156              	
 575              		mv a5, s0
 576              	# 0 "" 2
 577              	#NO_APP
 578 031c 2338F506 		sd	a5,112(a0)
 579              	.L14:
 157:src/thread.cpp ****     }
 158:src/thread.cpp ****     if(newContext->sp != 0){
 580              		.loc 1 158 5 is_stmt 1
 581              		.loc 1 158 20 is_stmt 0
 582 0320 83B78500 		ld	a5,8(a1)
 583              		.loc 1 158 5
 584 0324 63840700 		beqz	a5,.L15
 159:src/thread.cpp ****         __asm__ volatile ("mv sp, %0" :: "r"(newContext->sp));
 585              		.loc 1 159 9 is_stmt 1
 586              		.loc 1 159 62 is_stmt 0
 587              	#APP
 588              	# 159 "src/thread.cpp" 1
 160              	    }
 589              		mv sp, a5
 590              	# 0 "" 2
 591              	#NO_APP
 592              	.L15:
 161:src/thread.cpp **** 
 162:src/thread.cpp ****     
 163:src/thread.cpp ****     __asm__ volatile ("mv s0, %0" :: "r"(newContext->sstatus));
 593              		.loc 1 163 5 is_stmt 1
 594              		.loc 1 163 54 is_stmt 0
GAS LISTING /tmp/ccoHT1cF.s 			page 15


 595 032c 83B70507 		ld	a5,112(a1)
 596              		.loc 1 163 63
 597              	#APP
 598              	# 163 "src/thread.cpp" 1
 164              	    __asm__ volatile ("csrw sstatus, s0");
 599              		mv s0, a5
 600              	# 0 "" 2
 601              		.loc 1 164 5 is_stmt 1
 602              		.loc 1 164 42 is_stmt 0
 603              	# 164 "src/thread.cpp" 1
 165              	
 166:src/thread.cpp ****     __asm__ volatile ("mv s0, %0" :: "r"(newContext->s0));
 604              		csrw sstatus, s0
 605              	# 0 "" 2
 606              		.loc 1 166 5 is_stmt 1
 607              		.loc 1 166 54 is_stmt 0
 608              	#NO_APP
 609 0338 83B70501 		ld	a5,16(a1)
 610              		.loc 1 166 58
 611              	#APP
 612              	# 166 "src/thread.cpp" 1
 167              	    __asm__ volatile ("mv s1, %0" :: "r"(newContext->s1));
 613              		mv s0, a5
 614              	# 0 "" 2
 615              		.loc 1 167 5 is_stmt 1
 616              		.loc 1 167 54 is_stmt 0
 617              	#NO_APP
 618 0340 83B78501 		ld	a5,24(a1)
 619              		.loc 1 167 58
 620              	#APP
 621              	# 167 "src/thread.cpp" 1
 168              	    __asm__ volatile ("mv s2, %0" :: "r"(newContext->s2));
 622              		mv s1, a5
 623              	# 0 "" 2
 624              		.loc 1 168 5 is_stmt 1
 625              		.loc 1 168 54 is_stmt 0
 626              	#NO_APP
 627 0348 83B70502 		ld	a5,32(a1)
 628              		.loc 1 168 58
 629              	#APP
 630              	# 168 "src/thread.cpp" 1
 169              	    __asm__ volatile ("mv s3, %0" :: "r"(newContext->s3));
 631              		mv s2, a5
 632              	# 0 "" 2
 633              		.loc 1 169 5 is_stmt 1
 634              		.loc 1 169 54 is_stmt 0
 635              	#NO_APP
 636 0350 83B78502 		ld	a5,40(a1)
 637              		.loc 1 169 58
 638              	#APP
 639              	# 169 "src/thread.cpp" 1
 170              	    __asm__ volatile ("mv s4, %0" :: "r"(newContext->s4));
 640              		mv s3, a5
 641              	# 0 "" 2
 642              		.loc 1 170 5 is_stmt 1
 643              		.loc 1 170 54 is_stmt 0
 644              	#NO_APP
GAS LISTING /tmp/ccoHT1cF.s 			page 16


 645 0358 83B70503 		ld	a5,48(a1)
 646              		.loc 1 170 58
 647              	#APP
 648              	# 170 "src/thread.cpp" 1
 171              	    __asm__ volatile ("mv s5, %0" :: "r"(newContext->s5));
 649              		mv s4, a5
 650              	# 0 "" 2
 651              		.loc 1 171 5 is_stmt 1
 652              		.loc 1 171 54 is_stmt 0
 653              	#NO_APP
 654 0360 83B78503 		ld	a5,56(a1)
 655              		.loc 1 171 58
 656              	#APP
 657              	# 171 "src/thread.cpp" 1
 172              	    __asm__ volatile ("mv s6, %0" :: "r"(newContext->s6));
 658              		mv s5, a5
 659              	# 0 "" 2
 660              		.loc 1 172 5 is_stmt 1
 661              		.loc 1 172 54 is_stmt 0
 662              	#NO_APP
 663 0368 83B70504 		ld	a5,64(a1)
 664              		.loc 1 172 58
 665              	#APP
 666              	# 172 "src/thread.cpp" 1
 173              	    __asm__ volatile ("mv s7, %0" :: "r"(newContext->s7));
 667              		mv s6, a5
 668              	# 0 "" 2
 669              		.loc 1 173 5 is_stmt 1
 670              		.loc 1 173 54 is_stmt 0
 671              	#NO_APP
 672 0370 83B78504 		ld	a5,72(a1)
 673              		.loc 1 173 58
 674              	#APP
 675              	# 173 "src/thread.cpp" 1
 174              	    __asm__ volatile ("mv s8, %0" :: "r"(newContext->s8));
 676              		mv s7, a5
 677              	# 0 "" 2
 678              		.loc 1 174 5 is_stmt 1
 679              		.loc 1 174 54 is_stmt 0
 680              	#NO_APP
 681 0378 83B70505 		ld	a5,80(a1)
 682              		.loc 1 174 58
 683              	#APP
 684              	# 174 "src/thread.cpp" 1
 175              	    __asm__ volatile ("mv s9, %0" :: "r"(newContext->s9));
 685              		mv s8, a5
 686              	# 0 "" 2
 687              		.loc 1 175 5 is_stmt 1
 688              		.loc 1 175 54 is_stmt 0
 689              	#NO_APP
 690 0380 83B78505 		ld	a5,88(a1)
 691              		.loc 1 175 58
 692              	#APP
 693              	# 175 "src/thread.cpp" 1
 176              	    __asm__ volatile ("mv s10, %0" :: "r"(newContext->s10));
 694              		mv s9, a5
 695              	# 0 "" 2
GAS LISTING /tmp/ccoHT1cF.s 			page 17


 696              		.loc 1 176 5 is_stmt 1
 697              		.loc 1 176 55 is_stmt 0
 698              	#NO_APP
 699 0388 83B70506 		ld	a5,96(a1)
 700              		.loc 1 176 60
 701              	#APP
 702              	# 176 "src/thread.cpp" 1
 177              	    __asm__ volatile ("mv s11, %0" :: "r"(newContext->s11));
 703              		mv s10, a5
 704              	# 0 "" 2
 705              		.loc 1 177 5 is_stmt 1
 706              		.loc 1 177 55 is_stmt 0
 707              	#NO_APP
 708 0390 83B78506 		ld	a5,104(a1)
 709              		.loc 1 177 60
 710              	#APP
 711              	# 177 "src/thread.cpp" 1
 178              	
 179:src/thread.cpp ****     __asm__ volatile ("mv ra, %0" :: "r"(newContext->pc));
 712              		mv s11, a5
 713              	# 0 "" 2
 714              		.loc 1 179 5 is_stmt 1
 715              		.loc 1 179 54 is_stmt 0
 716              	#NO_APP
 717 0398 83B70500 		ld	a5,0(a1)
 718              		.loc 1 179 58
 719              	#APP
 720              	# 179 "src/thread.cpp" 1
 180              	    return;
 721              		mv ra, a5
 722              	# 0 "" 2
 723              		.loc 1 180 5 is_stmt 1
 181:src/thread.cpp **** }
 724              		.loc 1 181 1 is_stmt 0
 725              	#NO_APP
 726 03a0 03348100 		ld	s0,8(sp)
 727              		.cfi_restore 8
 728              		.cfi_def_cfa 2, 16
 729 03a4 13010101 		addi	sp,sp,16
 730              		.cfi_def_cfa_offset 0
 731 03a8 67800000 		jr	ra
 732              		.cfi_endproc
 733              	.LFE13:
 735              		.align	2
 736              		.globl	_ZN7_thread8dispatchEv
 738              	_ZN7_thread8dispatchEv:
 739              	.LFB12:
 120:src/thread.cpp ****     _thread* oldThread = currentThread;
 740              		.loc 1 120 25 is_stmt 1
 741              		.cfi_startproc
 742 03ac 130101FE 		addi	sp,sp,-32
 743              		.cfi_def_cfa_offset 32
 744 03b0 233C1100 		sd	ra,24(sp)
 745 03b4 23388100 		sd	s0,16(sp)
 746 03b8 23349100 		sd	s1,8(sp)
 747              		.cfi_offset 1, -8
 748              		.cfi_offset 8, -16
GAS LISTING /tmp/ccoHT1cF.s 			page 18


 749              		.cfi_offset 9, -24
 750 03bc 13040102 		addi	s0,sp,32
 751              		.cfi_def_cfa 8, 0
 121:src/thread.cpp ****     if(oldThread != nullptr && !oldThread->closed && !oldThread->blocked && !oldThread->sleeping &&
 752              		.loc 1 121 5
 121:src/thread.cpp ****     if(oldThread != nullptr && !oldThread->closed && !oldThread->blocked && !oldThread->sleeping &&
 753              		.loc 1 121 14 is_stmt 0
 754 03c0 97040000 		ld	s1,.LANCHOR0+8
 754      83B40400 
 755              	.LVL17:
 122:src/thread.cpp ****             Scheduler::put(oldThread);
 756              		.loc 1 122 5 is_stmt 1
 757 03c8 63880400 		beqz	s1,.L18
 122:src/thread.cpp ****             Scheduler::put(oldThread);
 758              		.loc 1 122 98 is_stmt 0 discriminator 1
 759 03cc 83B78409 		ld	a5,152(s1)
 760 03d0 93F7F700 		andi	a5,a5,15
 761 03d4 63800704 		beqz	a5,.L21
 762              	.L18:
 131:src/thread.cpp ****     contextSwitch(oldThread == nullptr?nullptr:&oldThread->context, &(currentThread->context));
 763              		.loc 1 131 5 is_stmt 1
 131:src/thread.cpp ****     contextSwitch(oldThread == nullptr?nullptr:&oldThread->context, &(currentThread->context));
 764              		.loc 1 131 36 is_stmt 0
 765 03d8 97000000 		call	_ZN9Scheduler3getEv@plt
 765      E7800000 
 766              	.LVL18:
 131:src/thread.cpp ****     contextSwitch(oldThread == nullptr?nullptr:&oldThread->context, &(currentThread->context));
 767              		.loc 1 131 19
 768 03e0 97070000 		sd	a0,.LANCHOR0+8,a5
 768      23B0A700 
 132:src/thread.cpp **** }
 769              		.loc 1 132 5 is_stmt 1
 132:src/thread.cpp **** }
 770              		.loc 1 132 18 is_stmt 0
 771 03e8 63840400 		beqz	s1,.L19
 132:src/thread.cpp **** }
 772              		.loc 1 132 18 discriminator 1
 773 03ec 93848400 		addi	s1,s1,8
 774              	.LVL19:
 775              	.L19:
 132:src/thread.cpp **** }
 776              		.loc 1 132 18 discriminator 4
 777 03f0 93058500 		addi	a1,a0,8
 778 03f4 13850400 		mv	a0,s1
 779 03f8 97000000 		call	_ZN7_thread13contextSwitchEPNS_14contextWrapperES1_
 779      E7800000 
 780              	.LVL20:
 133:src/thread.cpp **** 
 781              		.loc 1 133 1 discriminator 4
 782 0400 83308101 		ld	ra,24(sp)
 783              		.cfi_remember_state
 784              		.cfi_restore 1
 785 0404 03340101 		ld	s0,16(sp)
 786              		.cfi_restore 8
 787              		.cfi_def_cfa 2, 32
 788 0408 83348100 		ld	s1,8(sp)
 789              		.cfi_restore 9
GAS LISTING /tmp/ccoHT1cF.s 			page 19


 790 040c 13010102 		addi	sp,sp,32
 791              		.cfi_def_cfa_offset 0
 792 0410 67800000 		jr	ra
 793              	.LVL21:
 794              	.L21:
 795              		.cfi_restore_state
 123:src/thread.cpp ****     }   
 796              		.loc 1 123 13 is_stmt 1
 123:src/thread.cpp ****     }   
 797              		.loc 1 123 27 is_stmt 0
 798 0414 13850400 		mv	a0,s1
 799 0418 97000000 		call	_ZN9Scheduler3putEP7_thread@plt
 799      E7800000 
 800              	.LVL22:
 801 0420 6FF09FFB 		j	.L18
 802              		.cfi_endproc
 803              	.LFE12:
 805              		.align	2
 806              		.globl	_ZN7_thread7wrapperEv
 808              	_ZN7_thread7wrapperEv:
 809              	.LFB7:
  59:src/thread.cpp ****     popSppSpie();
 810              		.loc 1 59 24 is_stmt 1
 811              		.cfi_startproc
 812 0424 130101FE 		addi	sp,sp,-32
 813              		.cfi_def_cfa_offset 32
 814 0428 233C1100 		sd	ra,24(sp)
 815 042c 23388100 		sd	s0,16(sp)
 816 0430 23349100 		sd	s1,8(sp)
 817              		.cfi_offset 1, -8
 818              		.cfi_offset 8, -16
 819              		.cfi_offset 9, -24
 820 0434 13040102 		addi	s0,sp,32
 821              		.cfi_def_cfa 8, 0
  60:src/thread.cpp ****     currentThread->function(currentThread->arg);
 822              		.loc 1 60 5
  60:src/thread.cpp ****     currentThread->function(currentThread->arg);
 823              		.loc 1 60 15 is_stmt 0
 824 0438 97000000 		call	_Z10popSppSpiev
 824      E7800000 
 825              	.LVL23:
  61:src/thread.cpp ****     currentThread->finished = 1;
 826              		.loc 1 61 5 is_stmt 1
  61:src/thread.cpp ****     currentThread->finished = 1;
 827              		.loc 1 61 20 is_stmt 0
 828 0440 97040000 		lla	s1,.LANCHOR0
 828      93840400 
 829 0448 83B78400 		ld	a5,8(s1)
 830 044c 03B7070A 		ld	a4,160(a5)
  61:src/thread.cpp ****     currentThread->finished = 1;
 831              		.loc 1 61 28
 832 0450 03B5870A 		ld	a0,168(a5)
 833 0454 E7000700 		jalr	a4
 834              	.LVL24:
  62:src/thread.cpp ****     dispatch();
 835              		.loc 1 62 5 is_stmt 1
  62:src/thread.cpp ****     dispatch();
GAS LISTING /tmp/ccoHT1cF.s 			page 20


 836              		.loc 1 62 20 is_stmt 0
 837 0458 03B78400 		ld	a4,8(s1)
  62:src/thread.cpp ****     dispatch();
 838              		.loc 1 62 29
 839 045c 83278709 		lw	a5,152(a4)
 840 0460 93E78700 		ori	a5,a5,8
 841 0464 232CF708 		sw	a5,152(a4)
  63:src/thread.cpp **** }
 842              		.loc 1 63 5 is_stmt 1
  63:src/thread.cpp **** }
 843              		.loc 1 63 13 is_stmt 0
 844 0468 97000000 		call	_ZN7_thread8dispatchEv
 844      E7800000 
 845              	.LVL25:
  64:src/thread.cpp **** 
 846              		.loc 1 64 1
 847 0470 83308101 		ld	ra,24(sp)
 848              		.cfi_restore 1
 849 0474 03340101 		ld	s0,16(sp)
 850              		.cfi_restore 8
 851              		.cfi_def_cfa 2, 32
 852 0478 83348100 		ld	s1,8(sp)
 853              		.cfi_restore 9
 854 047c 13010102 		addi	sp,sp,32
 855              		.cfi_def_cfa_offset 0
 856 0480 67800000 		jr	ra
 857              		.cfi_endproc
 858              	.LFE7:
 860              		.align	2
 861              		.globl	_ZN7_thread4exitEv
 863              	_ZN7_thread4exitEv:
 864              	.LFB9:
 106:src/thread.cpp ****     this->finished = 1;
 865              		.loc 1 106 20 is_stmt 1
 866              		.cfi_startproc
 867              	.LVL26:
 868 0484 130101FF 		addi	sp,sp,-16
 869              		.cfi_def_cfa_offset 16
 870 0488 23341100 		sd	ra,8(sp)
 871 048c 23308100 		sd	s0,0(sp)
 872              		.cfi_offset 1, -8
 873              		.cfi_offset 8, -16
 874 0490 13040101 		addi	s0,sp,16
 875              		.cfi_def_cfa 8, 0
 107:src/thread.cpp ****     dispatch();    
 876              		.loc 1 107 5
 107:src/thread.cpp ****     dispatch();    
 877              		.loc 1 107 20 is_stmt 0
 878 0494 83278509 		lw	a5,152(a0)
 879 0498 93E78700 		ori	a5,a5,8
 880 049c 232CF508 		sw	a5,152(a0)
 108:src/thread.cpp ****     return 0;
 881              		.loc 1 108 5 is_stmt 1
 108:src/thread.cpp ****     return 0;
 882              		.loc 1 108 13 is_stmt 0
 883 04a0 97000000 		call	_ZN7_thread8dispatchEv
 883      E7800000 
GAS LISTING /tmp/ccoHT1cF.s 			page 21


 884              	.LVL27:
 109:src/thread.cpp **** }
 885              		.loc 1 109 5 is_stmt 1
 110:src/thread.cpp **** 
 886              		.loc 1 110 1 is_stmt 0
 887 04a8 13050000 		li	a0,0
 888 04ac 83308100 		ld	ra,8(sp)
 889              		.cfi_restore 1
 890 04b0 03340100 		ld	s0,0(sp)
 891              		.cfi_restore 8
 892              		.cfi_def_cfa 2, 16
 893 04b4 13010101 		addi	sp,sp,16
 894              		.cfi_def_cfa_offset 0
 895 04b8 67800000 		jr	ra
 896              		.cfi_endproc
 897              	.LFE9:
 899              		.globl	_ZN7_thread6nextIDE
 900              		.globl	_ZN7_thread13currentThreadE
 901              		.bss
 902              		.align	3
 903              		.set	.LANCHOR0,. + 0
 906              	_ZN7_thread6nextIDE:
 907 0000 00000000 		.zero	4
 908 0004 00000000 		.zero	4
 911              	_ZN7_thread13currentThreadE:
 912 0008 00000000 		.zero	8
 912      00000000 
 913              		.text
 914              	.Letext0:
 915              		.file 3 "./lib/hw.h"
 916              		.file 4 "./h/sched.h"
 917              		.file 5 "./h/syscalls_c.h"
GAS LISTING /tmp/ccoHT1cF.s 			page 22


DEFINED SYMBOLS
                            *ABS*:0000000000000000 thread.cpp
     /tmp/ccoHT1cF.s:9      .text:0000000000000000 _ZN7_threadC2EPFvPvES0_
     /tmp/ccoHT1cF.s:13     .text:0000000000000000 .L0 
     /tmp/ccoHT1cF.s:15     .text:0000000000000000 .L0 
     /tmp/ccoHT1cF.s:16     .text:0000000000000004 .L0 
     /tmp/ccoHT1cF.s:18     .text:0000000000000008 .L0 
     /tmp/ccoHT1cF.s:20     .text:000000000000000c .L0 
     /tmp/ccoHT1cF.s:27     .text:000000000000000c .L0 
     /tmp/ccoHT1cF.s:32     .text:0000000000000010 .L0 
     /tmp/ccoHT1cF.s:33     .text:0000000000000010 .L0 
     /tmp/ccoHT1cF.s:34     .text:0000000000000010 .L0 
     /tmp/ccoHT1cF.s:35     .text:0000000000000010 .L0 
     /tmp/ccoHT1cF.s:40     .text:0000000000000024 .L0 
     /tmp/ccoHT1cF.s:42     .text:0000000000000028 .L0 
     /tmp/ccoHT1cF.s:43     .text:0000000000000028 .L0 
     /tmp/ccoHT1cF.s:44     .text:0000000000000028 .L0 
     /tmp/ccoHT1cF.s:45     .text:0000000000000028 .L0 
     /tmp/ccoHT1cF.s:46     .text:0000000000000028 .L0 
     /tmp/ccoHT1cF.s:47     .text:0000000000000028 .L0 
     /tmp/ccoHT1cF.s:49     .text:000000000000002c .L0 
     /tmp/ccoHT1cF.s:50     .text:000000000000002c .L0 
     /tmp/ccoHT1cF.s:52     .text:0000000000000030 .L0 
     /tmp/ccoHT1cF.s:53     .text:0000000000000030 .L0 
     /tmp/ccoHT1cF.s:55     .text:0000000000000034 .L0 
     /tmp/ccoHT1cF.s:56     .text:0000000000000034 .L0 
     /tmp/ccoHT1cF.s:58     .text:0000000000000038 .L0 
     /tmp/ccoHT1cF.s:59     .text:0000000000000038 .L0 
     /tmp/ccoHT1cF.s:61     .text:000000000000003c .L0 
     /tmp/ccoHT1cF.s:62     .text:000000000000003c .L0 
     /tmp/ccoHT1cF.s:64     .text:0000000000000040 .L0 
     /tmp/ccoHT1cF.s:65     .text:0000000000000040 .L0 
     /tmp/ccoHT1cF.s:67     .text:0000000000000044 .L0 
     /tmp/ccoHT1cF.s:68     .text:0000000000000044 .L0 
     /tmp/ccoHT1cF.s:70     .text:0000000000000048 .L0 
     /tmp/ccoHT1cF.s:71     .text:0000000000000048 .L0 
     /tmp/ccoHT1cF.s:73     .text:000000000000004c .L0 
     /tmp/ccoHT1cF.s:74     .text:000000000000004c .L0 
     /tmp/ccoHT1cF.s:76     .text:0000000000000050 .L0 
     /tmp/ccoHT1cF.s:77     .text:0000000000000050 .L0 
     /tmp/ccoHT1cF.s:79     .text:0000000000000054 .L0 
     /tmp/ccoHT1cF.s:80     .text:0000000000000054 .L0 
     /tmp/ccoHT1cF.s:82     .text:0000000000000058 .L0 
     /tmp/ccoHT1cF.s:83     .text:0000000000000058 .L0 
     /tmp/ccoHT1cF.s:85     .text:000000000000005c .L0 
     /tmp/ccoHT1cF.s:86     .text:000000000000005c .L0 
     /tmp/ccoHT1cF.s:88     .text:0000000000000060 .L0 
     /tmp/ccoHT1cF.s:89     .text:0000000000000060 .L0 
     /tmp/ccoHT1cF.s:91     .text:0000000000000064 .L0 
     /tmp/ccoHT1cF.s:92     .text:0000000000000064 .L0 
     /tmp/ccoHT1cF.s:94     .text:0000000000000068 .L0 
     /tmp/ccoHT1cF.s:95     .text:0000000000000068 .L0 
     /tmp/ccoHT1cF.s:97     .text:000000000000006c .L0 
     /tmp/ccoHT1cF.s:98     .text:000000000000006c .L0 
     /tmp/ccoHT1cF.s:808    .text:0000000000000424 _ZN7_thread7wrapperEv
     /tmp/ccoHT1cF.s:99     .text:000000000000006c .L0 
     /tmp/ccoHT1cF.s:103    .text:0000000000000078 .L0 
GAS LISTING /tmp/ccoHT1cF.s 			page 23


     /tmp/ccoHT1cF.s:104    .text:000000000000007c .L0 
     /tmp/ccoHT1cF.s:105    .text:000000000000007c .L0 
     /tmp/ccoHT1cF.s:107    .text:0000000000000080 .L0 
     /tmp/ccoHT1cF.s:109    .text:0000000000000084 .L0 
     /tmp/ccoHT1cF.s:9      .text:0000000000000000 _ZN7_threadC1EPFvPvES0_
     /tmp/ccoHT1cF.s:117    .text:0000000000000084 _Z10popSppSpiev
     /tmp/ccoHT1cF.s:120    .text:0000000000000084 .L0 
     /tmp/ccoHT1cF.s:121    .text:0000000000000084 .L0 
     /tmp/ccoHT1cF.s:122    .text:0000000000000088 .L0 
     /tmp/ccoHT1cF.s:124    .text:000000000000008c .L0 
     /tmp/ccoHT1cF.s:126    .text:0000000000000090 .L0 
     /tmp/ccoHT1cF.s:128    .text:0000000000000090 .L0 
      src/thread.cpp:55     .text:0000000000000090 .L0 
     /tmp/ccoHT1cF.s:134    .text:0000000000000094 .L0 
      src/thread.cpp:56     .text:0000000000000094 .L0 
     /tmp/ccoHT1cF.s:140    .text:0000000000000098 .L0 
     /tmp/ccoHT1cF.s:141    .text:000000000000009c .L0 
     /tmp/ccoHT1cF.s:142    .text:000000000000009c .L0 
     /tmp/ccoHT1cF.s:144    .text:00000000000000a0 .L0 
     /tmp/ccoHT1cF.s:146    .text:00000000000000a4 .L0 
     /tmp/ccoHT1cF.s:152    .text:00000000000000a4 _ZN7_thread6createEPPS_PFvPvES2_S2_b
     /tmp/ccoHT1cF.s:155    .text:00000000000000a4 .L0 
     /tmp/ccoHT1cF.s:157    .text:00000000000000a4 .L0 
     /tmp/ccoHT1cF.s:158    .text:00000000000000a8 .L0 
     /tmp/ccoHT1cF.s:166    .text:00000000000000c4 .L0 
     /tmp/ccoHT1cF.s:167    .text:00000000000000c4 .L0 
     /tmp/ccoHT1cF.s:168    .text:00000000000000c4 .L0 
     /tmp/ccoHT1cF.s:169    .text:00000000000000c4 .L0 
     /tmp/ccoHT1cF.s:170    .text:00000000000000c4 .L0 
     /tmp/ccoHT1cF.s:171    .text:00000000000000c4 .L0 
     /tmp/ccoHT1cF.s:172    .text:00000000000000c4 .L0 
     /tmp/ccoHT1cF.s:174    .text:00000000000000c8 .L0 
     /tmp/ccoHT1cF.s:181    .text:00000000000000dc .L0 
     /tmp/ccoHT1cF.s:182    .text:00000000000000dc .L0 
     /tmp/ccoHT1cF.s:187    .text:00000000000000e8 .L0 
     /tmp/ccoHT1cF.s:189    .text:00000000000000ec .L0 
     /tmp/ccoHT1cF.s:190    .text:00000000000000ec .L0 
     /tmp/ccoHT1cF.s:192    .text:00000000000000f0 .L0 
     /tmp/ccoHT1cF.s:193    .text:00000000000000f0 .L0 
     /tmp/ccoHT1cF.s:195    .text:00000000000000f4 .L0 
     /tmp/ccoHT1cF.s:197    .text:00000000000000f8 .L0 
     /tmp/ccoHT1cF.s:198    .text:00000000000000f8 .L0 
     /tmp/ccoHT1cF.s:203    .text:000000000000010c .L0 
     /tmp/ccoHT1cF.s:205    .text:0000000000000110 .L0 
     /tmp/ccoHT1cF.s:207    .text:0000000000000114 .L0 
     /tmp/ccoHT1cF.s:208    .text:0000000000000114 .L0 
     /tmp/ccoHT1cF.s:210    .text:0000000000000118 .L0 
     /tmp/ccoHT1cF.s:214    .text:0000000000000124 .L0 
     /tmp/ccoHT1cF.s:215    .text:0000000000000124 .L0 
     /tmp/ccoHT1cF.s:217    .text:0000000000000128 .L0 
     /tmp/ccoHT1cF.s:221    .text:0000000000000134 .L0 
     /tmp/ccoHT1cF.s:222    .text:0000000000000134 .L0 
     /tmp/ccoHT1cF.s:224    .text:0000000000000138 .L0 
     /tmp/ccoHT1cF.s:228    .text:0000000000000144 .L0 
     /tmp/ccoHT1cF.s:229    .text:0000000000000144 .L0 
     /tmp/ccoHT1cF.s:231    .text:0000000000000148 .L0 
     /tmp/ccoHT1cF.s:235    .text:0000000000000154 .L0 
GAS LISTING /tmp/ccoHT1cF.s 			page 24


     /tmp/ccoHT1cF.s:236    .text:0000000000000154 .L0 
     /tmp/ccoHT1cF.s:238    .text:0000000000000158 .L0 
     /tmp/ccoHT1cF.s:242    .text:0000000000000164 .L0 
     /tmp/ccoHT1cF.s:243    .text:0000000000000164 .L0 
     /tmp/ccoHT1cF.s:245    .text:0000000000000168 .L0 
     /tmp/ccoHT1cF.s:247    .text:000000000000016c .L0 
     /tmp/ccoHT1cF.s:248    .text:000000000000016c .L0 
     /tmp/ccoHT1cF.s:250    .text:0000000000000170 .L0 
     /tmp/ccoHT1cF.s:252    .text:0000000000000174 .L0 
     /tmp/ccoHT1cF.s:253    .text:0000000000000174 .L0 
     /tmp/ccoHT1cF.s:255    .text:0000000000000178 .L0 
     /tmp/ccoHT1cF.s:257    .text:000000000000017c .L0 
     /tmp/ccoHT1cF.s:258    .text:000000000000017c .L0 
     /tmp/ccoHT1cF.s:260    .text:0000000000000180 .L0 
     /tmp/ccoHT1cF.s:262    .text:0000000000000184 .L0 
     /tmp/ccoHT1cF.s:263    .text:0000000000000184 .L0 
     /tmp/ccoHT1cF.s:265    .text:0000000000000188 .L0 
     /tmp/ccoHT1cF.s:267    .text:000000000000018c .L0 
     /tmp/ccoHT1cF.s:268    .text:000000000000018c .L0 
     /tmp/ccoHT1cF.s:270    .text:0000000000000190 .L0 
     /tmp/ccoHT1cF.s:272    .text:0000000000000194 .L0 
     /tmp/ccoHT1cF.s:273    .text:0000000000000194 .L0 
     /tmp/ccoHT1cF.s:275    .text:0000000000000198 .L0 
     /tmp/ccoHT1cF.s:277    .text:000000000000019c .L0 
     /tmp/ccoHT1cF.s:278    .text:000000000000019c .L0 
     /tmp/ccoHT1cF.s:280    .text:00000000000001a0 .L0 
     /tmp/ccoHT1cF.s:282    .text:00000000000001a4 .L0 
     /tmp/ccoHT1cF.s:283    .text:00000000000001a4 .L0 
     /tmp/ccoHT1cF.s:285    .text:00000000000001a8 .L0 
     /tmp/ccoHT1cF.s:287    .text:00000000000001ac .L0 
     /tmp/ccoHT1cF.s:288    .text:00000000000001ac .L0 
     /tmp/ccoHT1cF.s:290    .text:00000000000001b0 .L0 
     /tmp/ccoHT1cF.s:292    .text:00000000000001b4 .L0 
     /tmp/ccoHT1cF.s:293    .text:00000000000001b4 .L0 
     /tmp/ccoHT1cF.s:295    .text:00000000000001b8 .L0 
     /tmp/ccoHT1cF.s:297    .text:00000000000001bc .L0 
     /tmp/ccoHT1cF.s:298    .text:00000000000001bc .L0 
     /tmp/ccoHT1cF.s:300    .text:00000000000001c0 .L0 
     /tmp/ccoHT1cF.s:302    .text:00000000000001c4 .L0 
     /tmp/ccoHT1cF.s:303    .text:00000000000001c4 .L0 
     /tmp/ccoHT1cF.s:305    .text:00000000000001c8 .L0 
     /tmp/ccoHT1cF.s:307    .text:00000000000001cc .L0 
     /tmp/ccoHT1cF.s:308    .text:00000000000001cc .L0 
     /tmp/ccoHT1cF.s:310    .text:00000000000001d0 .L0 
     /tmp/ccoHT1cF.s:312    .text:00000000000001d4 .L0 
     /tmp/ccoHT1cF.s:313    .text:00000000000001d4 .L0 
     /tmp/ccoHT1cF.s:315    .text:00000000000001d8 .L0 
     /tmp/ccoHT1cF.s:317    .text:00000000000001dc .L0 
     /tmp/ccoHT1cF.s:318    .text:00000000000001dc .L0 
     /tmp/ccoHT1cF.s:320    .text:00000000000001e0 .L0 
     /tmp/ccoHT1cF.s:322    .text:00000000000001e4 .L0 
     /tmp/ccoHT1cF.s:323    .text:00000000000001e4 .L0 
     /tmp/ccoHT1cF.s:325    .text:00000000000001e8 .L0 
     /tmp/ccoHT1cF.s:328    .text:00000000000001f4 .L0 
     /tmp/ccoHT1cF.s:329    .text:00000000000001f4 .L0 
     /tmp/ccoHT1cF.s:331    .text:00000000000001f8 .L0 
     /tmp/ccoHT1cF.s:333    .text:00000000000001fc .L0 
GAS LISTING /tmp/ccoHT1cF.s 			page 25


     /tmp/ccoHT1cF.s:336    .text:0000000000000200 .L0 
     /tmp/ccoHT1cF.s:337    .text:0000000000000200 .L0 
     /tmp/ccoHT1cF.s:339    .text:0000000000000208 .L0 
     /tmp/ccoHT1cF.s:340    .text:0000000000000208 .L0 
     /tmp/ccoHT1cF.s:342    .text:000000000000020c .L0 
     /tmp/ccoHT1cF.s:343    .text:000000000000020c .L0 
     /tmp/ccoHT1cF.s:345    .text:0000000000000210 .L0 
     /tmp/ccoHT1cF.s:348    .text:0000000000000214 .L0 
     /tmp/ccoHT1cF.s:351    .text:0000000000000218 .L0 
     /tmp/ccoHT1cF.s:353    .text:000000000000021c .L0 
     /tmp/ccoHT1cF.s:356    .text:0000000000000220 .L0 
     /tmp/ccoHT1cF.s:359    .text:0000000000000224 .L0 
     /tmp/ccoHT1cF.s:363    .text:0000000000000228 .L0 
     /tmp/ccoHT1cF.s:365    .text:0000000000000228 .L0 
     /tmp/ccoHT1cF.s:366    .text:0000000000000228 .L0 
     /tmp/ccoHT1cF.s:370    .text:0000000000000238 .L0 
     /tmp/ccoHT1cF.s:376    .text:0000000000000238 _ZN7_thread10setBlockedEb
     /tmp/ccoHT1cF.s:379    .text:0000000000000238 .L0 
     /tmp/ccoHT1cF.s:381    .text:0000000000000238 .L0 
     /tmp/ccoHT1cF.s:382    .text:000000000000023c .L0 
     /tmp/ccoHT1cF.s:384    .text:0000000000000240 .L0 
     /tmp/ccoHT1cF.s:386    .text:0000000000000244 .L0 
     /tmp/ccoHT1cF.s:388    .text:0000000000000244 .L0 
     /tmp/ccoHT1cF.s:389    .text:0000000000000244 .L0 
     /tmp/ccoHT1cF.s:397    .text:000000000000025c .L0 
     /tmp/ccoHT1cF.s:398    .text:0000000000000260 .L0 
     /tmp/ccoHT1cF.s:399    .text:0000000000000260 .L0 
     /tmp/ccoHT1cF.s:401    .text:0000000000000264 .L0 
     /tmp/ccoHT1cF.s:403    .text:0000000000000268 .L0 
     /tmp/ccoHT1cF.s:409    .text:0000000000000268 _ZN7_thread9setClosedEb
     /tmp/ccoHT1cF.s:412    .text:0000000000000268 .L0 
     /tmp/ccoHT1cF.s:414    .text:0000000000000268 .L0 
     /tmp/ccoHT1cF.s:415    .text:000000000000026c .L0 
     /tmp/ccoHT1cF.s:417    .text:0000000000000270 .L0 
     /tmp/ccoHT1cF.s:419    .text:0000000000000274 .L0 
     /tmp/ccoHT1cF.s:421    .text:0000000000000274 .L0 
     /tmp/ccoHT1cF.s:422    .text:0000000000000274 .L0 
     /tmp/ccoHT1cF.s:429    .text:0000000000000288 .L0 
     /tmp/ccoHT1cF.s:430    .text:000000000000028c .L0 
     /tmp/ccoHT1cF.s:431    .text:000000000000028c .L0 
     /tmp/ccoHT1cF.s:433    .text:0000000000000290 .L0 
     /tmp/ccoHT1cF.s:435    .text:0000000000000294 .L0 
     /tmp/ccoHT1cF.s:441    .text:0000000000000294 _ZN7_thread13contextSwitchEPNS_14contextWrapperES1_
     /tmp/ccoHT1cF.s:444    .text:0000000000000294 .L0 
     /tmp/ccoHT1cF.s:446    .text:0000000000000294 .L0 
     /tmp/ccoHT1cF.s:447    .text:0000000000000298 .L0 
     /tmp/ccoHT1cF.s:449    .text:000000000000029c .L0 
     /tmp/ccoHT1cF.s:451    .text:00000000000002a0 .L0 
     /tmp/ccoHT1cF.s:453    .text:00000000000002a0 .L0 
     /tmp/ccoHT1cF.s:455    .text:00000000000002a4 .L0 
      src/thread.cpp:138    .text:00000000000002a4 .L0 
     /tmp/ccoHT1cF.s:463    .text:00000000000002ac .L0 
      src/thread.cpp:139    .text:00000000000002ac .L0 
     /tmp/ccoHT1cF.s:471    .text:00000000000002b4 .L0 
      src/thread.cpp:141    .text:00000000000002b4 .L0 
     /tmp/ccoHT1cF.s:479    .text:00000000000002bc .L0 
      src/thread.cpp:142    .text:00000000000002bc .L0 
GAS LISTING /tmp/ccoHT1cF.s 			page 26


     /tmp/ccoHT1cF.s:487    .text:00000000000002c4 .L0 
      src/thread.cpp:143    .text:00000000000002c4 .L0 
     /tmp/ccoHT1cF.s:495    .text:00000000000002cc .L0 
      src/thread.cpp:144    .text:00000000000002cc .L0 
     /tmp/ccoHT1cF.s:503    .text:00000000000002d4 .L0 
      src/thread.cpp:145    .text:00000000000002d4 .L0 
     /tmp/ccoHT1cF.s:511    .text:00000000000002dc .L0 
      src/thread.cpp:146    .text:00000000000002dc .L0 
     /tmp/ccoHT1cF.s:519    .text:00000000000002e4 .L0 
      src/thread.cpp:147    .text:00000000000002e4 .L0 
     /tmp/ccoHT1cF.s:527    .text:00000000000002ec .L0 
      src/thread.cpp:148    .text:00000000000002ec .L0 
     /tmp/ccoHT1cF.s:535    .text:00000000000002f4 .L0 
      src/thread.cpp:149    .text:00000000000002f4 .L0 
     /tmp/ccoHT1cF.s:543    .text:00000000000002fc .L0 
      src/thread.cpp:150    .text:00000000000002fc .L0 
     /tmp/ccoHT1cF.s:551    .text:0000000000000304 .L0 
      src/thread.cpp:151    .text:0000000000000304 .L0 
     /tmp/ccoHT1cF.s:559    .text:000000000000030c .L0 
      src/thread.cpp:152    .text:000000000000030c .L0 
     /tmp/ccoHT1cF.s:567    .text:0000000000000314 .L0 
      src/thread.cpp:154    .text:0000000000000314 .L0 
     /tmp/ccoHT1cF.s:573    .text:0000000000000318 .L0 
      src/thread.cpp:155    .text:0000000000000318 .L0 
     /tmp/ccoHT1cF.s:581    .text:0000000000000320 .L0 
     /tmp/ccoHT1cF.s:582    .text:0000000000000320 .L0 
     /tmp/ccoHT1cF.s:584    .text:0000000000000324 .L0 
     /tmp/ccoHT1cF.s:586    .text:0000000000000328 .L0 
      src/thread.cpp:159    .text:0000000000000328 .L0 
     /tmp/ccoHT1cF.s:594    .text:000000000000032c .L0 
     /tmp/ccoHT1cF.s:595    .text:000000000000032c .L0 
      src/thread.cpp:163    .text:0000000000000330 .L0 
     /tmp/ccoHT1cF.s:602    .text:0000000000000334 .L0 
      src/thread.cpp:164    .text:0000000000000334 .L0 
     /tmp/ccoHT1cF.s:607    .text:0000000000000338 .L0 
     /tmp/ccoHT1cF.s:609    .text:0000000000000338 .L0 
      src/thread.cpp:166    .text:000000000000033c .L0 
     /tmp/ccoHT1cF.s:616    .text:0000000000000340 .L0 
     /tmp/ccoHT1cF.s:618    .text:0000000000000340 .L0 
      src/thread.cpp:167    .text:0000000000000344 .L0 
     /tmp/ccoHT1cF.s:625    .text:0000000000000348 .L0 
     /tmp/ccoHT1cF.s:627    .text:0000000000000348 .L0 
      src/thread.cpp:168    .text:000000000000034c .L0 
     /tmp/ccoHT1cF.s:634    .text:0000000000000350 .L0 
     /tmp/ccoHT1cF.s:636    .text:0000000000000350 .L0 
      src/thread.cpp:169    .text:0000000000000354 .L0 
     /tmp/ccoHT1cF.s:643    .text:0000000000000358 .L0 
     /tmp/ccoHT1cF.s:645    .text:0000000000000358 .L0 
      src/thread.cpp:170    .text:000000000000035c .L0 
     /tmp/ccoHT1cF.s:652    .text:0000000000000360 .L0 
     /tmp/ccoHT1cF.s:654    .text:0000000000000360 .L0 
      src/thread.cpp:171    .text:0000000000000364 .L0 
     /tmp/ccoHT1cF.s:661    .text:0000000000000368 .L0 
     /tmp/ccoHT1cF.s:663    .text:0000000000000368 .L0 
      src/thread.cpp:172    .text:000000000000036c .L0 
     /tmp/ccoHT1cF.s:670    .text:0000000000000370 .L0 
     /tmp/ccoHT1cF.s:672    .text:0000000000000370 .L0 
GAS LISTING /tmp/ccoHT1cF.s 			page 27


      src/thread.cpp:173    .text:0000000000000374 .L0 
     /tmp/ccoHT1cF.s:679    .text:0000000000000378 .L0 
     /tmp/ccoHT1cF.s:681    .text:0000000000000378 .L0 
      src/thread.cpp:174    .text:000000000000037c .L0 
     /tmp/ccoHT1cF.s:688    .text:0000000000000380 .L0 
     /tmp/ccoHT1cF.s:690    .text:0000000000000380 .L0 
      src/thread.cpp:175    .text:0000000000000384 .L0 
     /tmp/ccoHT1cF.s:697    .text:0000000000000388 .L0 
     /tmp/ccoHT1cF.s:699    .text:0000000000000388 .L0 
      src/thread.cpp:176    .text:000000000000038c .L0 
     /tmp/ccoHT1cF.s:706    .text:0000000000000390 .L0 
     /tmp/ccoHT1cF.s:708    .text:0000000000000390 .L0 
      src/thread.cpp:177    .text:0000000000000394 .L0 
     /tmp/ccoHT1cF.s:715    .text:0000000000000398 .L0 
     /tmp/ccoHT1cF.s:717    .text:0000000000000398 .L0 
      src/thread.cpp:179    .text:000000000000039c .L0 
     /tmp/ccoHT1cF.s:724    .text:00000000000003a0 .L0 
     /tmp/ccoHT1cF.s:726    .text:00000000000003a0 .L0 
     /tmp/ccoHT1cF.s:727    .text:00000000000003a4 .L0 
     /tmp/ccoHT1cF.s:728    .text:00000000000003a4 .L0 
     /tmp/ccoHT1cF.s:730    .text:00000000000003a8 .L0 
     /tmp/ccoHT1cF.s:732    .text:00000000000003ac .L0 
     /tmp/ccoHT1cF.s:738    .text:00000000000003ac _ZN7_thread8dispatchEv
     /tmp/ccoHT1cF.s:741    .text:00000000000003ac .L0 
     /tmp/ccoHT1cF.s:742    .text:00000000000003ac .L0 
     /tmp/ccoHT1cF.s:743    .text:00000000000003b0 .L0 
     /tmp/ccoHT1cF.s:747    .text:00000000000003bc .L0 
     /tmp/ccoHT1cF.s:748    .text:00000000000003bc .L0 
     /tmp/ccoHT1cF.s:749    .text:00000000000003bc .L0 
     /tmp/ccoHT1cF.s:751    .text:00000000000003c0 .L0 
     /tmp/ccoHT1cF.s:753    .text:00000000000003c0 .L0 
     /tmp/ccoHT1cF.s:754    .text:00000000000003c0 .L0 
     /tmp/ccoHT1cF.s:757    .text:00000000000003c8 .L0 
     /tmp/ccoHT1cF.s:759    .text:00000000000003cc .L0 
     /tmp/ccoHT1cF.s:764    .text:00000000000003d8 .L0 
     /tmp/ccoHT1cF.s:765    .text:00000000000003d8 .L0 
     /tmp/ccoHT1cF.s:768    .text:00000000000003e0 .L0 
     /tmp/ccoHT1cF.s:770    .text:00000000000003e8 .L0 
     /tmp/ccoHT1cF.s:771    .text:00000000000003e8 .L0 
     /tmp/ccoHT1cF.s:773    .text:00000000000003ec .L0 
     /tmp/ccoHT1cF.s:777    .text:00000000000003f0 .L0 
     /tmp/ccoHT1cF.s:782    .text:0000000000000400 .L0 
     /tmp/ccoHT1cF.s:783    .text:0000000000000404 .L0 
     /tmp/ccoHT1cF.s:784    .text:0000000000000404 .L0 
     /tmp/ccoHT1cF.s:786    .text:0000000000000408 .L0 
     /tmp/ccoHT1cF.s:787    .text:0000000000000408 .L0 
     /tmp/ccoHT1cF.s:789    .text:000000000000040c .L0 
     /tmp/ccoHT1cF.s:791    .text:0000000000000410 .L0 
     /tmp/ccoHT1cF.s:795    .text:0000000000000414 .L0 
     /tmp/ccoHT1cF.s:797    .text:0000000000000414 .L0 
     /tmp/ccoHT1cF.s:798    .text:0000000000000414 .L0 
     /tmp/ccoHT1cF.s:802    .text:0000000000000424 .L0 
     /tmp/ccoHT1cF.s:811    .text:0000000000000424 .L0 
     /tmp/ccoHT1cF.s:812    .text:0000000000000424 .L0 
     /tmp/ccoHT1cF.s:813    .text:0000000000000428 .L0 
     /tmp/ccoHT1cF.s:817    .text:0000000000000434 .L0 
     /tmp/ccoHT1cF.s:818    .text:0000000000000434 .L0 
GAS LISTING /tmp/ccoHT1cF.s 			page 28


     /tmp/ccoHT1cF.s:819    .text:0000000000000434 .L0 
     /tmp/ccoHT1cF.s:821    .text:0000000000000438 .L0 
     /tmp/ccoHT1cF.s:823    .text:0000000000000438 .L0 
     /tmp/ccoHT1cF.s:824    .text:0000000000000438 .L0 
     /tmp/ccoHT1cF.s:827    .text:0000000000000440 .L0 
     /tmp/ccoHT1cF.s:828    .text:0000000000000440 .L0 
     /tmp/ccoHT1cF.s:832    .text:0000000000000450 .L0 
     /tmp/ccoHT1cF.s:836    .text:0000000000000458 .L0 
     /tmp/ccoHT1cF.s:837    .text:0000000000000458 .L0 
     /tmp/ccoHT1cF.s:839    .text:000000000000045c .L0 
     /tmp/ccoHT1cF.s:843    .text:0000000000000468 .L0 
     /tmp/ccoHT1cF.s:844    .text:0000000000000468 .L0 
     /tmp/ccoHT1cF.s:847    .text:0000000000000470 .L0 
     /tmp/ccoHT1cF.s:848    .text:0000000000000474 .L0 
     /tmp/ccoHT1cF.s:850    .text:0000000000000478 .L0 
     /tmp/ccoHT1cF.s:851    .text:0000000000000478 .L0 
     /tmp/ccoHT1cF.s:853    .text:000000000000047c .L0 
     /tmp/ccoHT1cF.s:855    .text:0000000000000480 .L0 
     /tmp/ccoHT1cF.s:857    .text:0000000000000484 .L0 
     /tmp/ccoHT1cF.s:863    .text:0000000000000484 _ZN7_thread4exitEv
     /tmp/ccoHT1cF.s:866    .text:0000000000000484 .L0 
     /tmp/ccoHT1cF.s:868    .text:0000000000000484 .L0 
     /tmp/ccoHT1cF.s:869    .text:0000000000000488 .L0 
     /tmp/ccoHT1cF.s:872    .text:0000000000000490 .L0 
     /tmp/ccoHT1cF.s:873    .text:0000000000000490 .L0 
     /tmp/ccoHT1cF.s:875    .text:0000000000000494 .L0 
     /tmp/ccoHT1cF.s:877    .text:0000000000000494 .L0 
     /tmp/ccoHT1cF.s:878    .text:0000000000000494 .L0 
     /tmp/ccoHT1cF.s:882    .text:00000000000004a0 .L0 
     /tmp/ccoHT1cF.s:883    .text:00000000000004a0 .L0 
     /tmp/ccoHT1cF.s:886    .text:00000000000004a8 .L0 
     /tmp/ccoHT1cF.s:887    .text:00000000000004a8 .L0 
     /tmp/ccoHT1cF.s:889    .text:00000000000004b0 .L0 
     /tmp/ccoHT1cF.s:891    .text:00000000000004b4 .L0 
     /tmp/ccoHT1cF.s:892    .text:00000000000004b4 .L0 
     /tmp/ccoHT1cF.s:894    .text:00000000000004b8 .L0 
     /tmp/ccoHT1cF.s:896    .text:00000000000004bc .L0 
     /tmp/ccoHT1cF.s:906    .bss:0000000000000000 _ZN7_thread6nextIDE
     /tmp/ccoHT1cF.s:911    .bss:0000000000000008 _ZN7_thread13currentThreadE
     /tmp/ccoHT1cF.s:903    .bss:0000000000000000 .LANCHOR0
     /tmp/ccoHT1cF.s:918    .text:00000000000004bc .L0 
     /tmp/ccoHT1cF.s:35     .text:0000000000000010 .L0 
     /tmp/ccoHT1cF.s:99     .text:000000000000006c .L0 
     /tmp/ccoHT1cF.s:198    .text:00000000000000f8 .L0 
     /tmp/ccoHT1cF.s:325    .text:00000000000001e8 .L0 
     /tmp/ccoHT1cF.s:754    .text:00000000000003c0 .L0 
     /tmp/ccoHT1cF.s:768    .text:00000000000003e0 .L0 
     /tmp/ccoHT1cF.s:828    .text:0000000000000440 .L0 
     /tmp/ccoHT1cF.s:362    .text:0000000000000228 .L8
     /tmp/ccoHT1cF.s:334    .text:0000000000000200 .L6
     /tmp/ccoHT1cF.s:579    .text:0000000000000320 .L14
     /tmp/ccoHT1cF.s:592    .text:000000000000032c .L15
     /tmp/ccoHT1cF.s:762    .text:00000000000003d8 .L18
     /tmp/ccoHT1cF.s:794    .text:0000000000000414 .L21
     /tmp/ccoHT1cF.s:775    .text:00000000000003f0 .L19
     /tmp/ccoHT1cF.s:1899   .debug_abbrev:0000000000000000 .Ldebug_abbrev0
     /tmp/ccoHT1cF.s:3175   .debug_str:000000000000038d .LASF62
GAS LISTING /tmp/ccoHT1cF.s 			page 29


     /tmp/ccoHT1cF.s:3065   .debug_str:00000000000000d0 .LASF63
     /tmp/ccoHT1cF.s:3047   .debug_str:0000000000000050 .LASF64
     /tmp/ccoHT1cF.s:5      .text:0000000000000000 .Ltext0
     /tmp/ccoHT1cF.s:914    .text:00000000000004bc .Letext0
     /tmp/ccoHT1cF.s:3035   .debug_line:0000000000000000 .Ldebug_line0
     /tmp/ccoHT1cF.s:3121   .debug_str:0000000000000219 .LASF0
     /tmp/ccoHT1cF.s:3135   .debug_str:0000000000000290 .LASF1
     /tmp/ccoHT1cF.s:3109   .debug_str:00000000000001cb .LASF2
     /tmp/ccoHT1cF.s:3161   .debug_str:0000000000000337 .LASF3
     /tmp/ccoHT1cF.s:3091   .debug_str:0000000000000178 .LASF4
     /tmp/ccoHT1cF.s:3165   .debug_str:000000000000034e .LASF5
     /tmp/ccoHT1cF.s:3059   .debug_str:00000000000000af .LASF6
     /tmp/ccoHT1cF.s:3077   .debug_str:000000000000011c .LASF7
     /tmp/ccoHT1cF.s:3137   .debug_str:00000000000002a3 .LASF8
     /tmp/ccoHT1cF.s:3119   .debug_str:0000000000000206 .LASF9
     /tmp/ccoHT1cF.s:3185   .debug_str:00000000000004a2 .LASF10
     /tmp/ccoHT1cF.s:3085   .debug_str:000000000000014e .LASF11
     /tmp/ccoHT1cF.s:3147   .debug_str:00000000000002db .LASF12
     /tmp/ccoHT1cF.s:3179   .debug_str:000000000000045b .LASF13
     /tmp/ccoHT1cF.s:3061   .debug_str:00000000000000b6 .LASF14
     /tmp/ccoHT1cF.s:3043   .debug_str:000000000000001b .LASF15
     /tmp/ccoHT1cF.s:3067   .debug_str:00000000000000df .LASF16
     /tmp/ccoHT1cF.s:3159   .debug_str:0000000000000321 .LASF17
     /tmp/ccoHT1cF.s:3073   .debug_str:0000000000000101 .LASF18
     /tmp/ccoHT1cF.s:3089   .debug_str:0000000000000170 .LASF46
     /tmp/ccoHT1cF.s:3113   .debug_str:00000000000001de .LASF20
     /tmp/ccoHT1cF.s:3155   .debug_str:000000000000030e .LASF19
     /tmp/ccoHT1cF.s:3195   .debug_str:00000000000004f4 .LASF65
     /tmp/ccoHT1cF.s:3115   .debug_str:00000000000001ed .LASF21
     /tmp/ccoHT1cF.s:3139   .debug_str:00000000000002b6 .LASF22
     /tmp/ccoHT1cF.s:3201   .debug_str:0000000000000525 .LASF23
     /tmp/ccoHT1cF.s:3101   .debug_str:00000000000001ad .LASF25
     /tmp/ccoHT1cF.s:3045   .debug_str:000000000000002b .LASF27
     /tmp/ccoHT1cF.s:3083   .debug_str:0000000000000149 .LASF24
     /tmp/ccoHT1cF.s:3103   .debug_str:00000000000001b4 .LASF66
     /tmp/ccoHT1cF.s:3189   .debug_str:00000000000004ca .LASF67
     /tmp/ccoHT1cF.s:3123   .debug_str:0000000000000226 .LASF68
     /tmp/ccoHT1cF.s:3171   .debug_str:000000000000036d .LASF69
     /tmp/ccoHT1cF.s:3167   .debug_str:0000000000000360 .LASF26
     /tmp/ccoHT1cF.s:3097   .debug_str:0000000000000191 .LASF28
     /tmp/ccoHT1cF.s:3079   .debug_str:0000000000000123 .LASF70
     /tmp/ccoHT1cF.s:3049   .debug_str:000000000000005d .LASF29
     /tmp/ccoHT1cF.s:3205   .debug_str:000000000000054a .LASF30
     /tmp/ccoHT1cF.s:3063   .debug_str:00000000000000c6 .LASF31
     /tmp/ccoHT1cF.s:3055   .debug_str:000000000000007f .LASF32
     /tmp/ccoHT1cF.s:3187   .debug_str:00000000000004b2 .LASF71
     /tmp/ccoHT1cF.s:3169   .debug_str:0000000000000365 .LASF72
     /tmp/ccoHT1cF.s:3153   .debug_str:00000000000002f8 .LASF73
     /tmp/ccoHT1cF.s:3127   .debug_str:000000000000023a .LASF33
     /tmp/ccoHT1cF.s:3173   .debug_str:0000000000000384 .LASF34
     /tmp/ccoHT1cF.s:3093   .debug_str:000000000000017f .LASF35
     /tmp/ccoHT1cF.s:3105   .debug_str:00000000000001b9 .LASF36
     /tmp/ccoHT1cF.s:3107   .debug_str:00000000000001c4 .LASF37
     /tmp/ccoHT1cF.s:3039   .debug_str:0000000000000009 .LASF38
     /tmp/ccoHT1cF.s:3149   .debug_str:00000000000002ea .LASF39
     /tmp/ccoHT1cF.s:3095   .debug_str:0000000000000188 .LASF40
     /tmp/ccoHT1cF.s:3193   .debug_str:00000000000004eb .LASF41
GAS LISTING /tmp/ccoHT1cF.s 			page 30


     /tmp/ccoHT1cF.s:3141   .debug_str:00000000000002bd .LASF42
     /tmp/ccoHT1cF.s:3099   .debug_str:00000000000001a6 .LASF43
     /tmp/ccoHT1cF.s:3191   .debug_str:00000000000004dd .LASF74
     /tmp/ccoHT1cF.s:3129   .debug_str:0000000000000242 .LASF75
     /tmp/ccoHT1cF.s:3053   .debug_str:000000000000007a .LASF44
     /tmp/ccoHT1cF.s:3037   .debug_str:0000000000000000 .LASF45
     /tmp/ccoHT1cF.s:3143   .debug_str:00000000000002c6 .LASF47
     /tmp/ccoHT1cF.s:3125   .debug_str:000000000000022f .LASF48
     /tmp/ccoHT1cF.s:3051   .debug_str:0000000000000068 .LASF49
     /tmp/ccoHT1cF.s:3183   .debug_str:0000000000000486 .LASF76
     /tmp/ccoHT1cF.s:3087   .debug_str:000000000000015c .LASF77
     /tmp/ccoHT1cF.s:3069   .debug_str:00000000000000eb .LASF50
     /tmp/ccoHT1cF.s:3081   .debug_str:0000000000000131 .LASF78
     /tmp/ccoHT1cF.s:3075   .debug_str:0000000000000117 .LASF51
     /tmp/ccoHT1cF.s:3111   .debug_str:00000000000001d9 .LASF52
     /tmp/ccoHT1cF.s:3177   .debug_str:0000000000000451 .LASF53
     /tmp/ccoHT1cF.s:3181   .debug_str:000000000000046a .LASF54
     /tmp/ccoHT1cF.s:3131   .debug_str:0000000000000276 .LASF55
     /tmp/ccoHT1cF.s:442    .text:0000000000000294 .LFB13
     /tmp/ccoHT1cF.s:733    .text:00000000000003ac .LFE13
     /tmp/ccoHT1cF.s:3145   .debug_str:00000000000002d0 .LASF56
     /tmp/ccoHT1cF.s:3199   .debug_str:000000000000051a .LASF57
     /tmp/ccoHT1cF.s:739    .text:00000000000003ac .LFB12
     /tmp/ccoHT1cF.s:803    .text:0000000000000424 .LFE12
     /tmp/ccoHT1cF.s:3117   .debug_str:00000000000001fc .LASF58
     /tmp/ccoHT1cF.s:2858   .debug_loc:0000000000000000 .LLST8
     /tmp/ccoHT1cF.s:766    .text:00000000000003e0 .LVL18
     /tmp/ccoHT1cF.s:780    .text:0000000000000400 .LVL20
     /tmp/ccoHT1cF.s:800    .text:0000000000000420 .LVL22
     /tmp/ccoHT1cF.s:410    .text:0000000000000268 .LFB11
     /tmp/ccoHT1cF.s:436    .text:0000000000000294 .LFE11
     /tmp/ccoHT1cF.s:3151   .debug_str:00000000000002f3 .LASF59
     /tmp/ccoHT1cF.s:2869   .debug_loc:0000000000000036 .LLST7
     /tmp/ccoHT1cF.s:377    .text:0000000000000238 .LFB10
     /tmp/ccoHT1cF.s:404    .text:0000000000000268 .LFE10
     /tmp/ccoHT1cF.s:2883   .debug_loc:000000000000006f .LLST6
     /tmp/ccoHT1cF.s:864    .text:0000000000000484 .LFB9
     /tmp/ccoHT1cF.s:897    .text:00000000000004bc .LFE9
     /tmp/ccoHT1cF.s:2897   .debug_loc:00000000000000a8 .LLST9
     /tmp/ccoHT1cF.s:884    .text:00000000000004a8 .LVL27
     /tmp/ccoHT1cF.s:153    .text:00000000000000a4 .LFB8
     /tmp/ccoHT1cF.s:371    .text:0000000000000238 .LFE8
     /tmp/ccoHT1cF.s:2911   .debug_loc:00000000000000e1 .LLST1
     /tmp/ccoHT1cF.s:2933   .debug_loc:0000000000000140 .LLST2
     /tmp/ccoHT1cF.s:2955   .debug_loc:000000000000019f .LLST3
     /tmp/ccoHT1cF.s:3197   .debug_str:0000000000000514 .LASF60
     /tmp/ccoHT1cF.s:2977   .debug_loc:00000000000001fe .LLST4
     /tmp/ccoHT1cF.s:3133   .debug_str:000000000000028a .LASF61
     /tmp/ccoHT1cF.s:2999   .debug_loc:000000000000025d .LLST5
     /tmp/ccoHT1cF.s:185    .text:00000000000000e8 .LVL5
     /tmp/ccoHT1cF.s:368    .text:0000000000000234 .LVL11
     /tmp/ccoHT1cF.s:809    .text:0000000000000424 .LFB7
     /tmp/ccoHT1cF.s:858    .text:0000000000000484 .LFE7
     /tmp/ccoHT1cF.s:825    .text:0000000000000440 .LVL23
     /tmp/ccoHT1cF.s:845    .text:0000000000000470 .LVL25
     /tmp/ccoHT1cF.s:3157   .debug_str:0000000000000316 .LASF79
     /tmp/ccoHT1cF.s:3163   .debug_str:000000000000033e .LASF80
GAS LISTING /tmp/ccoHT1cF.s 			page 31


     /tmp/ccoHT1cF.s:118    .text:0000000000000084 .LFB6
     /tmp/ccoHT1cF.s:147    .text:00000000000000a4 .LFE6
     /tmp/ccoHT1cF.s:3057   .debug_str:0000000000000097 .LASF81
     /tmp/ccoHT1cF.s:10     .text:0000000000000000 .LFB4
     /tmp/ccoHT1cF.s:110    .text:0000000000000084 .LFE4
     /tmp/ccoHT1cF.s:23     .text:000000000000000c .LBB7
     /tmp/ccoHT1cF.s:30     .text:0000000000000010 .LBE7
     /tmp/ccoHT1cF.s:3013   .debug_loc:0000000000000296 .LLST0
     /tmp/ccoHT1cF.s:3203   .debug_str:000000000000052a .LASF82
     /tmp/ccoHT1cF.s:3071   .debug_str:00000000000000f3 .LASF83
     /tmp/ccoHT1cF.s:3041   .debug_str:0000000000000011 .LASF84
     /tmp/ccoHT1cF.s:755    .text:00000000000003c8 .LVL17
     /tmp/ccoHT1cF.s:774    .text:00000000000003f0 .LVL19
     /tmp/ccoHT1cF.s:793    .text:0000000000000414 .LVL21
     /tmp/ccoHT1cF.s:413    .text:0000000000000268 .LVL14
     /tmp/ccoHT1cF.s:424    .text:000000000000027c .LVL15
     /tmp/ccoHT1cF.s:380    .text:0000000000000238 .LVL12
     /tmp/ccoHT1cF.s:390    .text:0000000000000248 .LVL13
     /tmp/ccoHT1cF.s:867    .text:0000000000000484 .LVL26
     /tmp/ccoHT1cF.s:156    .text:00000000000000a4 .LVL3
     /tmp/ccoHT1cF.s:183    .text:00000000000000e0 .LVL4
     /tmp/ccoHT1cF.s:346    .text:0000000000000210 .LVL6
     /tmp/ccoHT1cF.s:361    .text:0000000000000228 .LVL10
     /tmp/ccoHT1cF.s:357    .text:0000000000000220 .LVL9
     /tmp/ccoHT1cF.s:354    .text:000000000000021c .LVL8
     /tmp/ccoHT1cF.s:349    .text:0000000000000214 .LVL7
     /tmp/ccoHT1cF.s:21     .text:000000000000000c .LVL1
     /tmp/ccoHT1cF.s:28     .text:0000000000000010 .LVL2
     /tmp/ccoHT1cF.s:919    .debug_info:0000000000000000 .Ldebug_info0

UNDEFINED SYMBOLS
_Z9mem_allocm
_ZN9Scheduler3putEP7_thread
_ZN9Scheduler3getEv
