GAS LISTING /tmp/ccv1SywC.s 			page 1


   1              		.file	"thread.cpp"
   2              		.option pic
   3              		.option norelax
   4              		.text
   5              	.Ltext0:
   6              		.align	2
   7              		.globl	_ZN7_threadC2EPFvPvES0_
   9              	_ZN7_threadC2EPFvPvES0_:
  10              	.LFB4:
  11              		.file 1 "src/thread.cpp"
   1:src/thread.cpp **** /**
   2:src/thread.cpp ****  * @file thread.cpp
   3:src/thread.cpp ****  * @author stcksmsh (vukicevickosta@gmail.com)
   4:src/thread.cpp ****  * @brief the thread class implementation
   5:src/thread.cpp ****  * @version 0.1
   6:src/thread.cpp ****  * @date 2024-01-02
   7:src/thread.cpp ****  * 
   8:src/thread.cpp ****  * @copyright Copyright (c) 2024
   9:src/thread.cpp ****  * 
  10:src/thread.cpp ****  */
  11:src/thread.cpp **** 
  12:src/thread.cpp **** 
  13:src/thread.cpp **** #include "thread.h"
  14:src/thread.cpp **** #include "assert.h"
  15:src/thread.cpp **** #include "sched.h"
  16:src/thread.cpp **** #include "syscalls_c.h"
  17:src/thread.cpp **** 
  18:src/thread.cpp **** thread_t _thread::currentThread = nullptr;
  19:src/thread.cpp **** uint32 _thread::nextID = 0;
  20:src/thread.cpp **** 
  21:src/thread.cpp **** _thread::_thread(func function, void* arg){
  12              		.loc 1 21 1
  13              		.cfi_startproc
  14              	.LVL0:
  15 0000 130101FF 		addi	sp,sp,-16
  16              		.cfi_def_cfa_offset 16
  17 0004 23348100 		sd	s0,8(sp)
  18              		.cfi_offset 8, -8
  19 0008 13040101 		addi	s0,sp,16
  20              		.cfi_def_cfa 8, 0
  21              	.LVL1:
  22              	.LBB6:
  23              	.LBB7:
  24              	.LBB8:
  25              		.file 2 "./h/thread.h"
   1:./h/thread.h  **** /**
   2:./h/thread.h  ****  * @file thread.h
   3:./h/thread.h  ****  * @author stcksmsh (vukicevickosta@gmail.com)
   4:./h/thread.h  ****  * @brief the thread class
   5:./h/thread.h  ****  * @version 0.1
   6:./h/thread.h  ****  * @date 2024-01-02
   7:./h/thread.h  ****  * 
   8:./h/thread.h  ****  * @copyright Copyright (c) 2024
   9:./h/thread.h  ****  * 
  10:./h/thread.h  ****  */
  11:./h/thread.h  **** #ifndef THREAD_H
  12:./h/thread.h  **** #define THREAD_H
GAS LISTING /tmp/ccv1SywC.s 			page 2


  13:./h/thread.h  **** 
  14:./h/thread.h  **** #include "types.h"
  15:./h/thread.h  **** #include "attributes.h"
  16:./h/thread.h  **** 
  17:./h/thread.h  **** /// @brief the thread class
  18:./h/thread.h  **** class _thread{
  19:./h/thread.h  ****     using func = void (*)(void*);
  20:./h/thread.h  **** public:
  21:./h/thread.h  **** 
  22:./h/thread.h  ****     static int create(_thread** thread, func function, void* arg, void* stack, bool start = true);
  23:./h/thread.h  **** 
  24:./h/thread.h  ****     int exit();
  25:./h/thread.h  **** 
  26:./h/thread.h  ****     static void dispatch();
  27:./h/thread.h  **** 
  28:./h/thread.h  ****     void join(_thread* thread);
  29:./h/thread.h  **** 
  30:./h/thread.h  ****     static _thread* currentThread;
  31:./h/thread.h  **** 
  32:./h/thread.h  ****     void setBlocked(bool blocked);
  33:./h/thread.h  **** 
  34:./h/thread.h  ****     void setClosed(bool blocked);
  35:./h/thread.h  **** 
  36:./h/thread.h  ****     void setSleeping(bool sleeping);
  37:./h/thread.h  ****     
  38:./h/thread.h  ****     uint32 ID;
  39:./h/thread.h  **** 
  40:./h/thread.h  **** private:
  41:./h/thread.h  ****     _thread(func function, void* arg);
  42:./h/thread.h  **** 
  43:./h/thread.h  ****     static void wrapper();
  44:./h/thread.h  **** 
  45:./h/thread.h  **** 
  46:./h/thread.h  ****     struct contextWrapper{
  26              		.loc 2 46 12 is_stmt 0
  27 000c 23380500 		sd	zero,16(a0)
  28              	.LVL2:
  29              	.LBE8:
  30              	.LBE7:
  22:src/thread.cpp ****     function = function;
  31              		.loc 1 22 5 is_stmt 1
  23:src/thread.cpp ****     arg = arg;
  32              		.loc 1 23 5
  24:src/thread.cpp ****     ID = nextID++;
  33              		.loc 1 24 5
  34              		.loc 1 24 16 is_stmt 0
  35 0010 17070000 		lla	a4,.LANCHOR0
  35      13070700 
  36 0018 83270700 		lw	a5,0(a4)
  37 001c 9B861700 		addiw	a3,a5,1
  38 0020 2320D700 		sw	a3,0(a4)
  39              		.loc 1 24 8
  40 0024 2320F500 		sw	a5,0(a0)
  25:src/thread.cpp ****     closed = 0;
  41              		.loc 1 25 5 is_stmt 1
  26:src/thread.cpp ****     blocked = 0;
  42              		.loc 1 26 5
GAS LISTING /tmp/ccv1SywC.s 			page 3


  27:src/thread.cpp ****     sleeping = 0;
  43              		.loc 1 27 5
  28:src/thread.cpp ****     finished = 0;
  44              		.loc 1 28 5
  29:src/thread.cpp ****     reserved = 0;
  45              		.loc 1 29 5
  46              		.loc 1 29 14 is_stmt 0
  47 0028 232C0508 		sw	zero,152(a0)
  30:src/thread.cpp ****     joinHead = nullptr;
  48              		.loc 1 30 5 is_stmt 1
  49              		.loc 1 30 14 is_stmt 0
  50 002c 23300508 		sd	zero,128(a0)
  31:src/thread.cpp ****     timeLeft = 0;
  51              		.loc 1 31 5 is_stmt 1
  52              		.loc 1 31 14 is_stmt 0
  53 0030 23340508 		sd	zero,136(a0)
  32:src/thread.cpp ****     stackStart = 0;
  54              		.loc 1 32 5 is_stmt 1
  55              		.loc 1 32 16 is_stmt 0
  56 0034 23380508 		sd	zero,144(a0)
  33:src/thread.cpp ****     
  34:src/thread.cpp ****     context.s0 = 0;
  57              		.loc 1 34 5 is_stmt 1
  58              		.loc 1 34 16 is_stmt 0
  59 0038 233C0500 		sd	zero,24(a0)
  35:src/thread.cpp ****     context.s1 = 0;
  60              		.loc 1 35 5 is_stmt 1
  61              		.loc 1 35 16 is_stmt 0
  62 003c 23300502 		sd	zero,32(a0)
  36:src/thread.cpp ****     context.s2 = 0;
  63              		.loc 1 36 5 is_stmt 1
  64              		.loc 1 36 16 is_stmt 0
  65 0040 23340502 		sd	zero,40(a0)
  37:src/thread.cpp ****     context.s3 = 0;
  66              		.loc 1 37 5 is_stmt 1
  67              		.loc 1 37 16 is_stmt 0
  68 0044 23380502 		sd	zero,48(a0)
  38:src/thread.cpp ****     context.s4 = 0;
  69              		.loc 1 38 5 is_stmt 1
  70              		.loc 1 38 16 is_stmt 0
  71 0048 233C0502 		sd	zero,56(a0)
  39:src/thread.cpp ****     context.s5 = 0;
  72              		.loc 1 39 5 is_stmt 1
  73              		.loc 1 39 16 is_stmt 0
  74 004c 23300504 		sd	zero,64(a0)
  40:src/thread.cpp ****     context.s6 = 0;
  75              		.loc 1 40 5 is_stmt 1
  76              		.loc 1 40 16 is_stmt 0
  77 0050 23340504 		sd	zero,72(a0)
  41:src/thread.cpp ****     context.s7 = 0;
  78              		.loc 1 41 5 is_stmt 1
  79              		.loc 1 41 16 is_stmt 0
  80 0054 23380504 		sd	zero,80(a0)
  42:src/thread.cpp ****     context.s8 = 0;
  81              		.loc 1 42 5 is_stmt 1
  82              		.loc 1 42 16 is_stmt 0
  83 0058 233C0504 		sd	zero,88(a0)
GAS LISTING /tmp/ccv1SywC.s 			page 4


  43:src/thread.cpp ****     context.s9 = 0;
  84              		.loc 1 43 5 is_stmt 1
  85              		.loc 1 43 16 is_stmt 0
  86 005c 23300506 		sd	zero,96(a0)
  44:src/thread.cpp ****     context.s10 = 0;
  87              		.loc 1 44 5 is_stmt 1
  88              		.loc 1 44 17 is_stmt 0
  89 0060 23340506 		sd	zero,104(a0)
  45:src/thread.cpp ****     context.s11 = 0;
  90              		.loc 1 45 5 is_stmt 1
  91              		.loc 1 45 17 is_stmt 0
  92 0064 23380506 		sd	zero,112(a0)
  46:src/thread.cpp **** 
  47:src/thread.cpp ****     context.sstatus = 0;
  93              		.loc 1 47 5 is_stmt 1
  94              		.loc 1 47 21 is_stmt 0
  95 0068 233C0506 		sd	zero,120(a0)
  48:src/thread.cpp ****     /// register x2 is the stack pointer
  49:src/thread.cpp ****     context.sp = (uint64)stackStart;
  96              		.loc 1 49 5 is_stmt 1
  50:src/thread.cpp ****     /// register x1 is the return address
  51:src/thread.cpp ****     context.pc = (uint64)wrapper;
  97              		.loc 1 51 5
  98              		.loc 1 51 16 is_stmt 0
  99 006c 97070000 		lla	a5,_ZN7_thread7wrapperEv
  99      93870700 
 100 0074 2334F500 		sd	a5,8(a0)
 101              	.LBE6:
  52:src/thread.cpp **** }
 102              		.loc 1 52 1
 103 0078 03348100 		ld	s0,8(sp)
 104              		.cfi_restore 8
 105              		.cfi_def_cfa 2, 16
 106 007c 13010101 		addi	sp,sp,16
 107              		.cfi_def_cfa_offset 0
 108 0080 67800000 		jr	ra
 109              		.cfi_endproc
 110              	.LFE4:
 112              		.globl	_ZN7_threadC1EPFvPvES0_
 113              		.set	_ZN7_threadC1EPFvPvES0_,_ZN7_threadC2EPFvPvES0_
 114              		.align	2
 115              		.globl	_Z10popSppSpiev
 117              	_Z10popSppSpiev:
 118              	.LFB6:
  53:src/thread.cpp **** 
  54:src/thread.cpp **** void popSppSpie(){
 119              		.loc 1 54 18 is_stmt 1
 120              		.cfi_startproc
 121 0084 130101FF 		addi	sp,sp,-16
 122              		.cfi_def_cfa_offset 16
 123 0088 23348100 		sd	s0,8(sp)
 124              		.cfi_offset 8, -8
 125 008c 13040101 		addi	s0,sp,16
 126              		.cfi_def_cfa 8, 0
  55:src/thread.cpp ****     __asm__ volatile ("csrw sepc, ra");
 127              		.loc 1 55 5
 128              		.loc 1 55 39 is_stmt 0
GAS LISTING /tmp/ccv1SywC.s 			page 5


 129              	#APP
 130              	# 55 "src/thread.cpp" 1
  56              	    __asm__ volatile ("sret");
 131              		csrw sepc, ra
 132              	# 0 "" 2
 133              		.loc 1 56 5 is_stmt 1
 134              		.loc 1 56 30 is_stmt 0
 135              	# 56 "src/thread.cpp" 1
  57              	}
 136              		sret
 137              	# 0 "" 2
 138              		.loc 1 57 1
 139              	#NO_APP
 140 0098 03348100 		ld	s0,8(sp)
 141              		.cfi_restore 8
 142              		.cfi_def_cfa 2, 16
 143 009c 13010101 		addi	sp,sp,16
 144              		.cfi_def_cfa_offset 0
 145 00a0 67800000 		jr	ra
 146              		.cfi_endproc
 147              	.LFE6:
 149              		.align	2
 150              		.globl	_ZN7_thread6createEPPS_PFvPvES2_S2_b
 152              	_ZN7_thread6createEPPS_PFvPvES2_S2_b:
 153              	.LFB8:
  58:src/thread.cpp **** 
  59:src/thread.cpp **** void _thread::wrapper(){
  60:src/thread.cpp ****     popSppSpie();
  61:src/thread.cpp ****     currentThread->function(currentThread->arg);
  62:src/thread.cpp ****     currentThread->finished = 1;
  63:src/thread.cpp ****     dispatch();
  64:src/thread.cpp **** }
  65:src/thread.cpp **** 
  66:src/thread.cpp **** int _thread::create(thread_t* thread, func function, void* arg, void* stack, bool start){
 154              		.loc 1 66 89 is_stmt 1
 155              		.cfi_startproc
 156              	.LVL3:
 157 00a4 130101FC 		addi	sp,sp,-64
 158              		.cfi_def_cfa_offset 64
 159 00a8 233C1102 		sd	ra,56(sp)
 160 00ac 23388102 		sd	s0,48(sp)
 161 00b0 23349102 		sd	s1,40(sp)
 162 00b4 23302103 		sd	s2,32(sp)
 163 00b8 233C3101 		sd	s3,24(sp)
 164 00bc 23384101 		sd	s4,16(sp)
 165 00c0 23345101 		sd	s5,8(sp)
 166              		.cfi_offset 1, -8
 167              		.cfi_offset 8, -16
 168              		.cfi_offset 9, -24
 169              		.cfi_offset 18, -32
 170              		.cfi_offset 19, -40
 171              		.cfi_offset 20, -48
 172              		.cfi_offset 21, -56
 173 00c4 13040104 		addi	s0,sp,64
 174              		.cfi_def_cfa 8, 0
 175 00c8 93040500 		mv	s1,a0
 176 00cc 938A0500 		mv	s5,a1
GAS LISTING /tmp/ccv1SywC.s 			page 6


 177 00d0 130A0600 		mv	s4,a2
 178 00d4 13890600 		mv	s2,a3
 179 00d8 93090700 		mv	s3,a4
  67:src/thread.cpp ****     *thread = (thread_t)mem_alloc(sizeof(_thread));
 180              		.loc 1 67 5
 181              		.loc 1 67 34 is_stmt 0
 182 00dc 1305000B 		li	a0,176
 183              	.LVL4:
 184 00e0 97000000 		call	_Z9mem_allocm@plt
 184      E7800000 
 185              	.LVL5:
 186              		.loc 1 67 13
 187 00e8 23B0A400 		sd	a0,0(s1)
  68:src/thread.cpp ****     
  69:src/thread.cpp ****     (*thread)->function = function;
 188              		.loc 1 69 5 is_stmt 1
 189              		.loc 1 69 25 is_stmt 0
 190 00ec 2330550B 		sd	s5,160(a0)
  70:src/thread.cpp ****     (*thread)->arg = arg;
 191              		.loc 1 70 5 is_stmt 1
 192              		.loc 1 70 6 is_stmt 0
 193 00f0 83B70400 		ld	a5,0(s1)
 194              		.loc 1 70 20
 195 00f4 23B4470B 		sd	s4,168(a5)
  71:src/thread.cpp ****     (*thread)->ID = nextID++;
 196              		.loc 1 71 5 is_stmt 1
 197              		.loc 1 71 27 is_stmt 0
 198 00f8 17070000 		lla	a4,.LANCHOR0
 198      13070700 
 199 0100 83270700 		lw	a5,0(a4)
 200 0104 9B861700 		addiw	a3,a5,1
 201 0108 2320D700 		sw	a3,0(a4)
 202              		.loc 1 71 6
 203 010c 03B70400 		ld	a4,0(s1)
 204              		.loc 1 71 19
 205 0110 2320F700 		sw	a5,0(a4)
  72:src/thread.cpp ****     (*thread)->closed = false;
 206              		.loc 1 72 5 is_stmt 1
 207              		.loc 1 72 6 is_stmt 0
 208 0114 03B70400 		ld	a4,0(s1)
 209              		.loc 1 72 23
 210 0118 83278709 		lw	a5,152(a4)
 211 011c 93F7E7FF 		andi	a5,a5,-2
 212 0120 232CF708 		sw	a5,152(a4)
  73:src/thread.cpp ****     (*thread)->blocked = false;
 213              		.loc 1 73 5 is_stmt 1
 214              		.loc 1 73 6 is_stmt 0
 215 0124 03B70400 		ld	a4,0(s1)
 216              		.loc 1 73 24
 217 0128 83278709 		lw	a5,152(a4)
 218 012c 93F7D7FF 		andi	a5,a5,-3
 219 0130 232CF708 		sw	a5,152(a4)
  74:src/thread.cpp ****     (*thread)->sleeping = false;
 220              		.loc 1 74 5 is_stmt 1
 221              		.loc 1 74 6 is_stmt 0
 222 0134 03B70400 		ld	a4,0(s1)
 223              		.loc 1 74 25
GAS LISTING /tmp/ccv1SywC.s 			page 7


 224 0138 83278709 		lw	a5,152(a4)
 225 013c 93F7B7FF 		andi	a5,a5,-5
 226 0140 232CF708 		sw	a5,152(a4)
  75:src/thread.cpp ****     (*thread)->finished = false;
 227              		.loc 1 75 5 is_stmt 1
 228              		.loc 1 75 6 is_stmt 0
 229 0144 03B70400 		ld	a4,0(s1)
 230              		.loc 1 75 25
 231 0148 83278709 		lw	a5,152(a4)
 232 014c 93F777FF 		andi	a5,a5,-9
 233 0150 232CF708 		sw	a5,152(a4)
  76:src/thread.cpp ****     (*thread)->reserved = 0;
 234              		.loc 1 76 5 is_stmt 1
 235              		.loc 1 76 6 is_stmt 0
 236 0154 03B70400 		ld	a4,0(s1)
 237              		.loc 1 76 25
 238 0158 83278709 		lw	a5,152(a4)
 239 015c 93F7F700 		andi	a5,a5,15
 240 0160 232CF708 		sw	a5,152(a4)
  77:src/thread.cpp ****     (*thread)->joinHead = nullptr;
 241              		.loc 1 77 5 is_stmt 1
 242              		.loc 1 77 6 is_stmt 0
 243 0164 83B70400 		ld	a5,0(s1)
 244              		.loc 1 77 25
 245 0168 23B00708 		sd	zero,128(a5)
  78:src/thread.cpp ****     (*thread)->timeLeft = 0;
 246              		.loc 1 78 5 is_stmt 1
 247              		.loc 1 78 6 is_stmt 0
 248 016c 83B70400 		ld	a5,0(s1)
 249              		.loc 1 78 25
 250 0170 23B40708 		sd	zero,136(a5)
  79:src/thread.cpp ****     (*thread)->stackStart = 0;
 251              		.loc 1 79 5 is_stmt 1
 252              		.loc 1 79 6 is_stmt 0
 253 0174 83B70400 		ld	a5,0(s1)
 254              		.loc 1 79 27
 255 0178 23B80708 		sd	zero,144(a5)
  80:src/thread.cpp **** 
  81:src/thread.cpp ****     (*thread)->context.s0 = 0;
 256              		.loc 1 81 5 is_stmt 1
 257              		.loc 1 81 6 is_stmt 0
 258 017c 83B70400 		ld	a5,0(s1)
 259              		.loc 1 81 27
 260 0180 23BC0700 		sd	zero,24(a5)
  82:src/thread.cpp ****     (*thread)->context.s1 = 0;
 261              		.loc 1 82 5 is_stmt 1
 262              		.loc 1 82 6 is_stmt 0
 263 0184 83B70400 		ld	a5,0(s1)
 264              		.loc 1 82 27
 265 0188 23B00702 		sd	zero,32(a5)
  83:src/thread.cpp ****     (*thread)->context.s2 = 0;
 266              		.loc 1 83 5 is_stmt 1
 267              		.loc 1 83 6 is_stmt 0
 268 018c 83B70400 		ld	a5,0(s1)
 269              		.loc 1 83 27
 270 0190 23B40702 		sd	zero,40(a5)
  84:src/thread.cpp ****     (*thread)->context.s3 = 0;
GAS LISTING /tmp/ccv1SywC.s 			page 8


 271              		.loc 1 84 5 is_stmt 1
 272              		.loc 1 84 6 is_stmt 0
 273 0194 83B70400 		ld	a5,0(s1)
 274              		.loc 1 84 27
 275 0198 23B80702 		sd	zero,48(a5)
  85:src/thread.cpp ****     (*thread)->context.s4 = 0;
 276              		.loc 1 85 5 is_stmt 1
 277              		.loc 1 85 6 is_stmt 0
 278 019c 83B70400 		ld	a5,0(s1)
 279              		.loc 1 85 27
 280 01a0 23BC0702 		sd	zero,56(a5)
  86:src/thread.cpp ****     (*thread)->context.s5 = 0;
 281              		.loc 1 86 5 is_stmt 1
 282              		.loc 1 86 6 is_stmt 0
 283 01a4 83B70400 		ld	a5,0(s1)
 284              		.loc 1 86 27
 285 01a8 23B00704 		sd	zero,64(a5)
  87:src/thread.cpp ****     (*thread)->context.s6 = 0;
 286              		.loc 1 87 5 is_stmt 1
 287              		.loc 1 87 6 is_stmt 0
 288 01ac 83B70400 		ld	a5,0(s1)
 289              		.loc 1 87 27
 290 01b0 23B40704 		sd	zero,72(a5)
  88:src/thread.cpp ****     (*thread)->context.s7 = 0;
 291              		.loc 1 88 5 is_stmt 1
 292              		.loc 1 88 6 is_stmt 0
 293 01b4 83B70400 		ld	a5,0(s1)
 294              		.loc 1 88 27
 295 01b8 23B80704 		sd	zero,80(a5)
  89:src/thread.cpp ****     (*thread)->context.s8 = 0;
 296              		.loc 1 89 5 is_stmt 1
 297              		.loc 1 89 6 is_stmt 0
 298 01bc 83B70400 		ld	a5,0(s1)
 299              		.loc 1 89 27
 300 01c0 23BC0704 		sd	zero,88(a5)
  90:src/thread.cpp ****     (*thread)->context.s9 = 0;
 301              		.loc 1 90 5 is_stmt 1
 302              		.loc 1 90 6 is_stmt 0
 303 01c4 83B70400 		ld	a5,0(s1)
 304              		.loc 1 90 27
 305 01c8 23B00706 		sd	zero,96(a5)
  91:src/thread.cpp ****     (*thread)->context.s10 = 0;
 306              		.loc 1 91 5 is_stmt 1
 307              		.loc 1 91 6 is_stmt 0
 308 01cc 83B70400 		ld	a5,0(s1)
 309              		.loc 1 91 28
 310 01d0 23B40706 		sd	zero,104(a5)
  92:src/thread.cpp ****     (*thread)->context.s11 = 0;
 311              		.loc 1 92 5 is_stmt 1
 312              		.loc 1 92 6 is_stmt 0
 313 01d4 83B70400 		ld	a5,0(s1)
 314              		.loc 1 92 28
 315 01d8 23B80706 		sd	zero,112(a5)
  93:src/thread.cpp **** 
  94:src/thread.cpp ****     /// register x2 is the stack pointer
  95:src/thread.cpp ****     (*thread)->context.sp = (uint64)stack;
 316              		.loc 1 95 5 is_stmt 1
GAS LISTING /tmp/ccv1SywC.s 			page 9


 317              		.loc 1 95 6 is_stmt 0
 318 01dc 83B70400 		ld	a5,0(s1)
 319              		.loc 1 95 27
 320 01e0 23B82701 		sd	s2,16(a5)
  96:src/thread.cpp ****     /// register x1 is the return address
  97:src/thread.cpp ****     (*thread)->context.pc = (uint64)wrapper;
 321              		.loc 1 97 5 is_stmt 1
 322              		.loc 1 97 6 is_stmt 0
 323 01e4 83B70400 		ld	a5,0(s1)
 324              		.loc 1 97 27
 325 01e8 17070000 		lla	a4,_ZN7_thread7wrapperEv
 325      13070700 
 326 01f0 23B4E700 		sd	a4,8(a5)
  98:src/thread.cpp **** 
  99:src/thread.cpp ****     (*thread)->stackStart = stack;
 327              		.loc 1 99 5 is_stmt 1
 328              		.loc 1 99 6 is_stmt 0
 329 01f4 83B70400 		ld	a5,0(s1)
 330              		.loc 1 99 27
 331 01f8 23B82709 		sd	s2,144(a5)
 100:src/thread.cpp ****     if(start){
 332              		.loc 1 100 5 is_stmt 1
 333 01fc 63960902 		bnez	s3,.L8
 334              	.L6:
 101:src/thread.cpp ****         Scheduler::put(*thread);
 102:src/thread.cpp ****     }
 103:src/thread.cpp ****     return 0;
 335              		.loc 1 103 5
 104:src/thread.cpp **** }
 336              		.loc 1 104 1 is_stmt 0
 337 0200 13050000 		li	a0,0
 338 0204 83308103 		ld	ra,56(sp)
 339              		.cfi_remember_state
 340              		.cfi_restore 1
 341 0208 03340103 		ld	s0,48(sp)
 342              		.cfi_restore 8
 343              		.cfi_def_cfa 2, 64
 344 020c 83348102 		ld	s1,40(sp)
 345              		.cfi_restore 9
 346              	.LVL6:
 347 0210 03390102 		ld	s2,32(sp)
 348              		.cfi_restore 18
 349              	.LVL7:
 350 0214 83398101 		ld	s3,24(sp)
 351              		.cfi_restore 19
 352 0218 033A0101 		ld	s4,16(sp)
 353              		.cfi_restore 20
 354              	.LVL8:
 355 021c 833A8100 		ld	s5,8(sp)
 356              		.cfi_restore 21
 357              	.LVL9:
 358 0220 13010104 		addi	sp,sp,64
 359              		.cfi_def_cfa_offset 0
 360 0224 67800000 		jr	ra
 361              	.LVL10:
 362              	.L8:
 363              		.cfi_restore_state
GAS LISTING /tmp/ccv1SywC.s 			page 10


 101:src/thread.cpp ****         Scheduler::put(*thread);
 364              		.loc 1 101 9 is_stmt 1
 101:src/thread.cpp ****         Scheduler::put(*thread);
 365              		.loc 1 101 23 is_stmt 0
 366 0228 03B50400 		ld	a0,0(s1)
 367 022c 97000000 		call	_ZN9Scheduler3putEP7_thread@plt
 367      E7800000 
 368              	.LVL11:
 369 0234 6FF0DFFC 		j	.L6
 370              		.cfi_endproc
 371              	.LFE8:
 373              		.align	2
 374              		.globl	_ZN7_thread10setBlockedEb
 376              	_ZN7_thread10setBlockedEb:
 377              	.LFB10:
 105:src/thread.cpp **** 
 106:src/thread.cpp **** int _thread::exit(){
 107:src/thread.cpp ****     this->finished = 1;
 108:src/thread.cpp ****     dispatch();    
 109:src/thread.cpp ****     return 0;
 110:src/thread.cpp **** }
 111:src/thread.cpp **** 
 112:src/thread.cpp **** void _thread::setBlocked(bool blocked){
 378              		.loc 1 112 39 is_stmt 1
 379              		.cfi_startproc
 380              	.LVL12:
 381 0238 130101FF 		addi	sp,sp,-16
 382              		.cfi_def_cfa_offset 16
 383 023c 23348100 		sd	s0,8(sp)
 384              		.cfi_offset 8, -8
 385 0240 13040101 		addi	s0,sp,16
 386              		.cfi_def_cfa 8, 0
 113:src/thread.cpp ****     this->blocked = blocked;
 387              		.loc 1 113 5
 388              		.loc 1 113 19 is_stmt 0
 389 0244 93F51500 		andi	a1,a1,1
 390              	.LVL13:
 391 0248 9B971500 		slliw	a5,a1,1
 392 024c 83258509 		lw	a1,152(a0)
 393 0250 93F5D5FF 		andi	a1,a1,-3
 394 0254 B3E5F500 		or	a1,a1,a5
 395 0258 232CB508 		sw	a1,152(a0)
 114:src/thread.cpp **** }
 396              		.loc 1 114 1
 397 025c 03348100 		ld	s0,8(sp)
 398              		.cfi_restore 8
 399              		.cfi_def_cfa 2, 16
 400 0260 13010101 		addi	sp,sp,16
 401              		.cfi_def_cfa_offset 0
 402 0264 67800000 		jr	ra
 403              		.cfi_endproc
 404              	.LFE10:
 406              		.align	2
 407              		.globl	_ZN7_thread9setClosedEb
 409              	_ZN7_thread9setClosedEb:
 410              	.LFB11:
 115:src/thread.cpp **** 
GAS LISTING /tmp/ccv1SywC.s 			page 11


 116:src/thread.cpp **** void _thread::setClosed(bool closed){
 411              		.loc 1 116 37 is_stmt 1
 412              		.cfi_startproc
 413              	.LVL14:
 414 0268 130101FF 		addi	sp,sp,-16
 415              		.cfi_def_cfa_offset 16
 416 026c 23348100 		sd	s0,8(sp)
 417              		.cfi_offset 8, -8
 418 0270 13040101 		addi	s0,sp,16
 419              		.cfi_def_cfa 8, 0
 117:src/thread.cpp ****     this->closed = closed;
 420              		.loc 1 117 5
 421              		.loc 1 117 18 is_stmt 0
 422 0274 93F71500 		andi	a5,a1,1
 423 0278 83258509 		lw	a1,152(a0)
 424              	.LVL15:
 425 027c 93F5E5FF 		andi	a1,a1,-2
 426 0280 B3E5F500 		or	a1,a1,a5
 427 0284 232CB508 		sw	a1,152(a0)
 118:src/thread.cpp **** }
 428              		.loc 1 118 1
 429 0288 03348100 		ld	s0,8(sp)
 430              		.cfi_restore 8
 431              		.cfi_def_cfa 2, 16
 432 028c 13010101 		addi	sp,sp,16
 433              		.cfi_def_cfa_offset 0
 434 0290 67800000 		jr	ra
 435              		.cfi_endproc
 436              	.LFE11:
 438              		.align	2
 439              		.globl	_ZN7_thread11setSleepingEb
 441              	_ZN7_thread11setSleepingEb:
 442              	.LFB12:
 119:src/thread.cpp **** 
 120:src/thread.cpp **** void _thread::setSleeping(bool sleeping){
 443              		.loc 1 120 41 is_stmt 1
 444              		.cfi_startproc
 445              	.LVL16:
 446 0294 130101FF 		addi	sp,sp,-16
 447              		.cfi_def_cfa_offset 16
 448 0298 23348100 		sd	s0,8(sp)
 449              		.cfi_offset 8, -8
 450 029c 13040101 		addi	s0,sp,16
 451              		.cfi_def_cfa 8, 0
 121:src/thread.cpp ****     this->sleeping = sleeping;
 452              		.loc 1 121 5
 453              		.loc 1 121 20 is_stmt 0
 454 02a0 93F51500 		andi	a1,a1,1
 455              	.LVL17:
 456 02a4 9B972500 		slliw	a5,a1,2
 457 02a8 83258509 		lw	a1,152(a0)
 458 02ac 93F5B5FF 		andi	a1,a1,-5
 459 02b0 B3E5F500 		or	a1,a1,a5
 460 02b4 232CB508 		sw	a1,152(a0)
 122:src/thread.cpp **** }
 461              		.loc 1 122 1
 462 02b8 03348100 		ld	s0,8(sp)
GAS LISTING /tmp/ccv1SywC.s 			page 12


 463              		.cfi_restore 8
 464              		.cfi_def_cfa 2, 16
 465 02bc 13010101 		addi	sp,sp,16
 466              		.cfi_def_cfa_offset 0
 467 02c0 67800000 		jr	ra
 468              		.cfi_endproc
 469              	.LFE12:
 471              		.align	2
 472              		.globl	_ZN7_thread13contextSwitchEPNS_14contextWrapperES1_
 474              	_ZN7_thread13contextSwitchEPNS_14contextWrapperES1_:
 475              	.LFB14:
 123:src/thread.cpp **** 
 124:src/thread.cpp **** void _thread::dispatch(){
 125:src/thread.cpp ****     _thread* oldThread = currentThread;
 126:src/thread.cpp ****     if(oldThread != nullptr && !oldThread->closed && !oldThread->blocked && !oldThread->sleeping &&
 127:src/thread.cpp ****             Scheduler::put(oldThread);
 128:src/thread.cpp ****     }   
 129:src/thread.cpp ****     // while(newThread != nullptr && (newThread->closed || newThread->blocked || newThread->sleepin
 130:src/thread.cpp ****     //     newThread = Scheduler::get();
 131:src/thread.cpp ****     // }
 132:src/thread.cpp ****     // if(newThread == nullptr){
 133:src/thread.cpp ****     //     return;
 134:src/thread.cpp ****     // }
 135:src/thread.cpp ****     currentThread =  Scheduler::get();
 136:src/thread.cpp ****     contextSwitch(oldThread == nullptr?nullptr:&oldThread->context, &(currentThread->context));
 137:src/thread.cpp **** }
 138:src/thread.cpp **** 
 139:src/thread.cpp **** void _thread::contextSwitch(contextWrapper *oldContext, contextWrapper *newContext){
 476              		.loc 1 139 84 is_stmt 1
 477              		.cfi_startproc
 478              	.LVL18:
 479 02c4 130101FF 		addi	sp,sp,-16
 480              		.cfi_def_cfa_offset 16
 481 02c8 23348100 		sd	s0,8(sp)
 482              		.cfi_offset 8, -8
 483 02cc 13040101 		addi	s0,sp,16
 484              		.cfi_def_cfa 8, 0
 140:src/thread.cpp ****     if(oldContext != nullptr){
 485              		.loc 1 140 5
 486 02d0 63000508 		beqz	a0,.L16
 141:src/thread.cpp **** 
 142:src/thread.cpp ****         __asm__ volatile ("mv %0, sp" : "=r"(oldContext->sp));
 487              		.loc 1 142 9
 488              		.loc 1 142 62 is_stmt 0
 489              	#APP
 490              	# 142 "src/thread.cpp" 1
 143              	        __asm__ volatile ("mv %0, ra" : "=r"(oldContext->pc));
 491              		mv a5, sp
 492              	# 0 "" 2
 493              	#NO_APP
 494 02d8 2334F500 		sd	a5,8(a0)
 495              		.loc 1 143 9 is_stmt 1
 496              		.loc 1 143 62 is_stmt 0
 497              	#APP
 498              	# 143 "src/thread.cpp" 1
 144              	
 499              		mv a5, ra
GAS LISTING /tmp/ccv1SywC.s 			page 13


 500              	# 0 "" 2
 501              	#NO_APP
 502 02e0 2330F500 		sd	a5,0(a0)
 145:src/thread.cpp ****         __asm__ volatile ("mv %0, s0" : "=r"(oldContext->s0));
 503              		.loc 1 145 9 is_stmt 1
 504              		.loc 1 145 62 is_stmt 0
 505              	#APP
 506              	# 145 "src/thread.cpp" 1
 146              	        __asm__ volatile ("mv %0, s1" : "=r"(oldContext->s1));
 507              		mv a5, s0
 508              	# 0 "" 2
 509              	#NO_APP
 510 02e8 2338F500 		sd	a5,16(a0)
 511              		.loc 1 146 9 is_stmt 1
 512              		.loc 1 146 62 is_stmt 0
 513              	#APP
 514              	# 146 "src/thread.cpp" 1
 147              	        __asm__ volatile ("mv %0, s2" : "=r"(oldContext->s2));
 515              		mv a5, s1
 516              	# 0 "" 2
 517              	#NO_APP
 518 02f0 233CF500 		sd	a5,24(a0)
 519              		.loc 1 147 9 is_stmt 1
 520              		.loc 1 147 62 is_stmt 0
 521              	#APP
 522              	# 147 "src/thread.cpp" 1
 148              	        __asm__ volatile ("mv %0, s3" : "=r"(oldContext->s3));
 523              		mv a5, s2
 524              	# 0 "" 2
 525              	#NO_APP
 526 02f8 2330F502 		sd	a5,32(a0)
 527              		.loc 1 148 9 is_stmt 1
 528              		.loc 1 148 62 is_stmt 0
 529              	#APP
 530              	# 148 "src/thread.cpp" 1
 149              	        __asm__ volatile ("mv %0, s4" : "=r"(oldContext->s4));
 531              		mv a5, s3
 532              	# 0 "" 2
 533              	#NO_APP
 534 0300 2334F502 		sd	a5,40(a0)
 535              		.loc 1 149 9 is_stmt 1
 536              		.loc 1 149 62 is_stmt 0
 537              	#APP
 538              	# 149 "src/thread.cpp" 1
 150              	        __asm__ volatile ("mv %0, s5" : "=r"(oldContext->s5));
 539              		mv a5, s4
 540              	# 0 "" 2
 541              	#NO_APP
 542 0308 2338F502 		sd	a5,48(a0)
 543              		.loc 1 150 9 is_stmt 1
 544              		.loc 1 150 62 is_stmt 0
 545              	#APP
 546              	# 150 "src/thread.cpp" 1
 151              	        __asm__ volatile ("mv %0, s6" : "=r"(oldContext->s6));
 547              		mv a5, s5
 548              	# 0 "" 2
 549              	#NO_APP
GAS LISTING /tmp/ccv1SywC.s 			page 14


 550 0310 233CF502 		sd	a5,56(a0)
 551              		.loc 1 151 9 is_stmt 1
 552              		.loc 1 151 62 is_stmt 0
 553              	#APP
 554              	# 151 "src/thread.cpp" 1
 152              	        __asm__ volatile ("mv %0, s7" : "=r"(oldContext->s7));
 555              		mv a5, s6
 556              	# 0 "" 2
 557              	#NO_APP
 558 0318 2330F504 		sd	a5,64(a0)
 559              		.loc 1 152 9 is_stmt 1
 560              		.loc 1 152 62 is_stmt 0
 561              	#APP
 562              	# 152 "src/thread.cpp" 1
 153              	        __asm__ volatile ("mv %0, s8" : "=r"(oldContext->s8));
 563              		mv a5, s7
 564              	# 0 "" 2
 565              	#NO_APP
 566 0320 2334F504 		sd	a5,72(a0)
 567              		.loc 1 153 9 is_stmt 1
 568              		.loc 1 153 62 is_stmt 0
 569              	#APP
 570              	# 153 "src/thread.cpp" 1
 154              	        __asm__ volatile ("mv %0, s9" : "=r"(oldContext->s9));
 571              		mv a5, s8
 572              	# 0 "" 2
 573              	#NO_APP
 574 0328 2338F504 		sd	a5,80(a0)
 575              		.loc 1 154 9 is_stmt 1
 576              		.loc 1 154 62 is_stmt 0
 577              	#APP
 578              	# 154 "src/thread.cpp" 1
 155              	        __asm__ volatile ("mv %0, s10" : "=r"(oldContext->s10));
 579              		mv a5, s9
 580              	# 0 "" 2
 581              	#NO_APP
 582 0330 233CF504 		sd	a5,88(a0)
 583              		.loc 1 155 9 is_stmt 1
 584              		.loc 1 155 64 is_stmt 0
 585              	#APP
 586              	# 155 "src/thread.cpp" 1
 156              	        __asm__ volatile ("mv %0, s11" : "=r"(oldContext->s11));
 587              		mv a5, s10
 588              	# 0 "" 2
 589              	#NO_APP
 590 0338 2330F506 		sd	a5,96(a0)
 591              		.loc 1 156 9 is_stmt 1
 592              		.loc 1 156 64 is_stmt 0
 593              	#APP
 594              	# 156 "src/thread.cpp" 1
 157              	
 595              		mv a5, s11
 596              	# 0 "" 2
 597              	#NO_APP
 598 0340 2334F506 		sd	a5,104(a0)
 158:src/thread.cpp ****         __asm__ volatile ("csrr s0, sstatus");
 599              		.loc 1 158 9 is_stmt 1
GAS LISTING /tmp/ccv1SywC.s 			page 15


 600              		.loc 1 158 46 is_stmt 0
 601              	#APP
 602              	# 158 "src/thread.cpp" 1
 159              	        __asm__ volatile ("mv %0, s0" : "=r"(oldContext->sstatus));
 603              		csrr s0, sstatus
 604              	# 0 "" 2
 605              		.loc 1 159 9 is_stmt 1
 606              		.loc 1 159 67 is_stmt 0
 607              	# 159 "src/thread.cpp" 1
 160              	
 608              		mv a5, s0
 609              	# 0 "" 2
 610              	#NO_APP
 611 034c 2338F506 		sd	a5,112(a0)
 612              	.L16:
 161:src/thread.cpp ****     }
 162:src/thread.cpp ****     if(newContext->sp != 0){
 613              		.loc 1 162 5 is_stmt 1
 614              		.loc 1 162 20 is_stmt 0
 615 0350 83B78500 		ld	a5,8(a1)
 616              		.loc 1 162 5
 617 0354 63840700 		beqz	a5,.L17
 163:src/thread.cpp ****         __asm__ volatile ("mv sp, %0" :: "r"(newContext->sp));
 618              		.loc 1 163 9 is_stmt 1
 619              		.loc 1 163 62 is_stmt 0
 620              	#APP
 621              	# 163 "src/thread.cpp" 1
 164              	    }
 622              		mv sp, a5
 623              	# 0 "" 2
 624              	#NO_APP
 625              	.L17:
 165:src/thread.cpp **** 
 166:src/thread.cpp ****     
 167:src/thread.cpp ****     __asm__ volatile ("mv s0, %0" :: "r"(newContext->sstatus));
 626              		.loc 1 167 5 is_stmt 1
 627              		.loc 1 167 54 is_stmt 0
 628 035c 83B70507 		ld	a5,112(a1)
 629              		.loc 1 167 63
 630              	#APP
 631              	# 167 "src/thread.cpp" 1
 168              	    __asm__ volatile ("csrw sstatus, s0");
 632              		mv s0, a5
 633              	# 0 "" 2
 634              		.loc 1 168 5 is_stmt 1
 635              		.loc 1 168 42 is_stmt 0
 636              	# 168 "src/thread.cpp" 1
 169              	
 170:src/thread.cpp ****     __asm__ volatile ("mv s0, %0" :: "r"(newContext->s0));
 637              		csrw sstatus, s0
 638              	# 0 "" 2
 639              		.loc 1 170 5 is_stmt 1
 640              		.loc 1 170 54 is_stmt 0
 641              	#NO_APP
 642 0368 83B70501 		ld	a5,16(a1)
 643              		.loc 1 170 58
 644              	#APP
GAS LISTING /tmp/ccv1SywC.s 			page 16


 645              	# 170 "src/thread.cpp" 1
 171              	    __asm__ volatile ("mv s1, %0" :: "r"(newContext->s1));
 646              		mv s0, a5
 647              	# 0 "" 2
 648              		.loc 1 171 5 is_stmt 1
 649              		.loc 1 171 54 is_stmt 0
 650              	#NO_APP
 651 0370 83B78501 		ld	a5,24(a1)
 652              		.loc 1 171 58
 653              	#APP
 654              	# 171 "src/thread.cpp" 1
 172              	    __asm__ volatile ("mv s2, %0" :: "r"(newContext->s2));
 655              		mv s1, a5
 656              	# 0 "" 2
 657              		.loc 1 172 5 is_stmt 1
 658              		.loc 1 172 54 is_stmt 0
 659              	#NO_APP
 660 0378 83B70502 		ld	a5,32(a1)
 661              		.loc 1 172 58
 662              	#APP
 663              	# 172 "src/thread.cpp" 1
 173              	    __asm__ volatile ("mv s3, %0" :: "r"(newContext->s3));
 664              		mv s2, a5
 665              	# 0 "" 2
 666              		.loc 1 173 5 is_stmt 1
 667              		.loc 1 173 54 is_stmt 0
 668              	#NO_APP
 669 0380 83B78502 		ld	a5,40(a1)
 670              		.loc 1 173 58
 671              	#APP
 672              	# 173 "src/thread.cpp" 1
 174              	    __asm__ volatile ("mv s4, %0" :: "r"(newContext->s4));
 673              		mv s3, a5
 674              	# 0 "" 2
 675              		.loc 1 174 5 is_stmt 1
 676              		.loc 1 174 54 is_stmt 0
 677              	#NO_APP
 678 0388 83B70503 		ld	a5,48(a1)
 679              		.loc 1 174 58
 680              	#APP
 681              	# 174 "src/thread.cpp" 1
 175              	    __asm__ volatile ("mv s5, %0" :: "r"(newContext->s5));
 682              		mv s4, a5
 683              	# 0 "" 2
 684              		.loc 1 175 5 is_stmt 1
 685              		.loc 1 175 54 is_stmt 0
 686              	#NO_APP
 687 0390 83B78503 		ld	a5,56(a1)
 688              		.loc 1 175 58
 689              	#APP
 690              	# 175 "src/thread.cpp" 1
 176              	    __asm__ volatile ("mv s6, %0" :: "r"(newContext->s6));
 691              		mv s5, a5
 692              	# 0 "" 2
 693              		.loc 1 176 5 is_stmt 1
 694              		.loc 1 176 54 is_stmt 0
 695              	#NO_APP
GAS LISTING /tmp/ccv1SywC.s 			page 17


 696 0398 83B70504 		ld	a5,64(a1)
 697              		.loc 1 176 58
 698              	#APP
 699              	# 176 "src/thread.cpp" 1
 177              	    __asm__ volatile ("mv s7, %0" :: "r"(newContext->s7));
 700              		mv s6, a5
 701              	# 0 "" 2
 702              		.loc 1 177 5 is_stmt 1
 703              		.loc 1 177 54 is_stmt 0
 704              	#NO_APP
 705 03a0 83B78504 		ld	a5,72(a1)
 706              		.loc 1 177 58
 707              	#APP
 708              	# 177 "src/thread.cpp" 1
 178              	    __asm__ volatile ("mv s8, %0" :: "r"(newContext->s8));
 709              		mv s7, a5
 710              	# 0 "" 2
 711              		.loc 1 178 5 is_stmt 1
 712              		.loc 1 178 54 is_stmt 0
 713              	#NO_APP
 714 03a8 83B70505 		ld	a5,80(a1)
 715              		.loc 1 178 58
 716              	#APP
 717              	# 178 "src/thread.cpp" 1
 179              	    __asm__ volatile ("mv s9, %0" :: "r"(newContext->s9));
 718              		mv s8, a5
 719              	# 0 "" 2
 720              		.loc 1 179 5 is_stmt 1
 721              		.loc 1 179 54 is_stmt 0
 722              	#NO_APP
 723 03b0 83B78505 		ld	a5,88(a1)
 724              		.loc 1 179 58
 725              	#APP
 726              	# 179 "src/thread.cpp" 1
 180              	    __asm__ volatile ("mv s10, %0" :: "r"(newContext->s10));
 727              		mv s9, a5
 728              	# 0 "" 2
 729              		.loc 1 180 5 is_stmt 1
 730              		.loc 1 180 55 is_stmt 0
 731              	#NO_APP
 732 03b8 83B70506 		ld	a5,96(a1)
 733              		.loc 1 180 60
 734              	#APP
 735              	# 180 "src/thread.cpp" 1
 181              	    __asm__ volatile ("mv s11, %0" :: "r"(newContext->s11));
 736              		mv s10, a5
 737              	# 0 "" 2
 738              		.loc 1 181 5 is_stmt 1
 739              		.loc 1 181 55 is_stmt 0
 740              	#NO_APP
 741 03c0 83B78506 		ld	a5,104(a1)
 742              		.loc 1 181 60
 743              	#APP
 744              	# 181 "src/thread.cpp" 1
 182              	
 183:src/thread.cpp ****     __asm__ volatile ("mv ra, %0" :: "r"(newContext->pc));
 745              		mv s11, a5
GAS LISTING /tmp/ccv1SywC.s 			page 18


 746              	# 0 "" 2
 747              		.loc 1 183 5 is_stmt 1
 748              		.loc 1 183 54 is_stmt 0
 749              	#NO_APP
 750 03c8 83B70500 		ld	a5,0(a1)
 751              		.loc 1 183 58
 752              	#APP
 753              	# 183 "src/thread.cpp" 1
 184              	    return;
 754              		mv ra, a5
 755              	# 0 "" 2
 756              		.loc 1 184 5 is_stmt 1
 185:src/thread.cpp **** }
 757              		.loc 1 185 1 is_stmt 0
 758              	#NO_APP
 759 03d0 03348100 		ld	s0,8(sp)
 760              		.cfi_restore 8
 761              		.cfi_def_cfa 2, 16
 762 03d4 13010101 		addi	sp,sp,16
 763              		.cfi_def_cfa_offset 0
 764 03d8 67800000 		jr	ra
 765              		.cfi_endproc
 766              	.LFE14:
 768              		.align	2
 769              		.globl	_ZN7_thread8dispatchEv
 771              	_ZN7_thread8dispatchEv:
 772              	.LFB13:
 124:src/thread.cpp ****     _thread* oldThread = currentThread;
 773              		.loc 1 124 25 is_stmt 1
 774              		.cfi_startproc
 775 03dc 130101FE 		addi	sp,sp,-32
 776              		.cfi_def_cfa_offset 32
 777 03e0 233C1100 		sd	ra,24(sp)
 778 03e4 23388100 		sd	s0,16(sp)
 779 03e8 23349100 		sd	s1,8(sp)
 780              		.cfi_offset 1, -8
 781              		.cfi_offset 8, -16
 782              		.cfi_offset 9, -24
 783 03ec 13040102 		addi	s0,sp,32
 784              		.cfi_def_cfa 8, 0
 125:src/thread.cpp ****     if(oldThread != nullptr && !oldThread->closed && !oldThread->blocked && !oldThread->sleeping &&
 785              		.loc 1 125 5
 125:src/thread.cpp ****     if(oldThread != nullptr && !oldThread->closed && !oldThread->blocked && !oldThread->sleeping &&
 786              		.loc 1 125 14 is_stmt 0
 787 03f0 97040000 		ld	s1,.LANCHOR0+8
 787      83B40400 
 788              	.LVL19:
 126:src/thread.cpp ****             Scheduler::put(oldThread);
 789              		.loc 1 126 5 is_stmt 1
 790 03f8 63880400 		beqz	s1,.L20
 126:src/thread.cpp ****             Scheduler::put(oldThread);
 791              		.loc 1 126 98 is_stmt 0 discriminator 1
 792 03fc 83B78409 		ld	a5,152(s1)
 793 0400 93F7F700 		andi	a5,a5,15
 794 0404 63800704 		beqz	a5,.L23
 795              	.L20:
 135:src/thread.cpp ****     contextSwitch(oldThread == nullptr?nullptr:&oldThread->context, &(currentThread->context));
GAS LISTING /tmp/ccv1SywC.s 			page 19


 796              		.loc 1 135 5 is_stmt 1
 135:src/thread.cpp ****     contextSwitch(oldThread == nullptr?nullptr:&oldThread->context, &(currentThread->context));
 797              		.loc 1 135 36 is_stmt 0
 798 0408 97000000 		call	_ZN9Scheduler3getEv@plt
 798      E7800000 
 799              	.LVL20:
 135:src/thread.cpp ****     contextSwitch(oldThread == nullptr?nullptr:&oldThread->context, &(currentThread->context));
 800              		.loc 1 135 19
 801 0410 97070000 		sd	a0,.LANCHOR0+8,a5
 801      23B0A700 
 136:src/thread.cpp **** }
 802              		.loc 1 136 5 is_stmt 1
 136:src/thread.cpp **** }
 803              		.loc 1 136 18 is_stmt 0
 804 0418 63840400 		beqz	s1,.L21
 136:src/thread.cpp **** }
 805              		.loc 1 136 18 discriminator 1
 806 041c 93848400 		addi	s1,s1,8
 807              	.LVL21:
 808              	.L21:
 136:src/thread.cpp **** }
 809              		.loc 1 136 18 discriminator 4
 810 0420 93058500 		addi	a1,a0,8
 811 0424 13850400 		mv	a0,s1
 812 0428 97000000 		call	_ZN7_thread13contextSwitchEPNS_14contextWrapperES1_
 812      E7800000 
 813              	.LVL22:
 137:src/thread.cpp **** 
 814              		.loc 1 137 1 discriminator 4
 815 0430 83308101 		ld	ra,24(sp)
 816              		.cfi_remember_state
 817              		.cfi_restore 1
 818 0434 03340101 		ld	s0,16(sp)
 819              		.cfi_restore 8
 820              		.cfi_def_cfa 2, 32
 821 0438 83348100 		ld	s1,8(sp)
 822              		.cfi_restore 9
 823 043c 13010102 		addi	sp,sp,32
 824              		.cfi_def_cfa_offset 0
 825 0440 67800000 		jr	ra
 826              	.LVL23:
 827              	.L23:
 828              		.cfi_restore_state
 127:src/thread.cpp ****     }   
 829              		.loc 1 127 13 is_stmt 1
 127:src/thread.cpp ****     }   
 830              		.loc 1 127 27 is_stmt 0
 831 0444 13850400 		mv	a0,s1
 832 0448 97000000 		call	_ZN9Scheduler3putEP7_thread@plt
 832      E7800000 
 833              	.LVL24:
 834 0450 6FF09FFB 		j	.L20
 835              		.cfi_endproc
 836              	.LFE13:
 838              		.align	2
 839              		.globl	_ZN7_thread7wrapperEv
 841              	_ZN7_thread7wrapperEv:
GAS LISTING /tmp/ccv1SywC.s 			page 20


 842              	.LFB7:
  59:src/thread.cpp ****     popSppSpie();
 843              		.loc 1 59 24 is_stmt 1
 844              		.cfi_startproc
 845 0454 130101FE 		addi	sp,sp,-32
 846              		.cfi_def_cfa_offset 32
 847 0458 233C1100 		sd	ra,24(sp)
 848 045c 23388100 		sd	s0,16(sp)
 849 0460 23349100 		sd	s1,8(sp)
 850              		.cfi_offset 1, -8
 851              		.cfi_offset 8, -16
 852              		.cfi_offset 9, -24
 853 0464 13040102 		addi	s0,sp,32
 854              		.cfi_def_cfa 8, 0
  60:src/thread.cpp ****     currentThread->function(currentThread->arg);
 855              		.loc 1 60 5
  60:src/thread.cpp ****     currentThread->function(currentThread->arg);
 856              		.loc 1 60 15 is_stmt 0
 857 0468 97000000 		call	_Z10popSppSpiev
 857      E7800000 
 858              	.LVL25:
  61:src/thread.cpp ****     currentThread->finished = 1;
 859              		.loc 1 61 5 is_stmt 1
  61:src/thread.cpp ****     currentThread->finished = 1;
 860              		.loc 1 61 20 is_stmt 0
 861 0470 97040000 		lla	s1,.LANCHOR0
 861      93840400 
 862 0478 83B78400 		ld	a5,8(s1)
 863 047c 03B7070A 		ld	a4,160(a5)
  61:src/thread.cpp ****     currentThread->finished = 1;
 864              		.loc 1 61 28
 865 0480 03B5870A 		ld	a0,168(a5)
 866 0484 E7000700 		jalr	a4
 867              	.LVL26:
  62:src/thread.cpp ****     dispatch();
 868              		.loc 1 62 5 is_stmt 1
  62:src/thread.cpp ****     dispatch();
 869              		.loc 1 62 20 is_stmt 0
 870 0488 03B78400 		ld	a4,8(s1)
  62:src/thread.cpp ****     dispatch();
 871              		.loc 1 62 29
 872 048c 83278709 		lw	a5,152(a4)
 873 0490 93E78700 		ori	a5,a5,8
 874 0494 232CF708 		sw	a5,152(a4)
  63:src/thread.cpp **** }
 875              		.loc 1 63 5 is_stmt 1
  63:src/thread.cpp **** }
 876              		.loc 1 63 13 is_stmt 0
 877 0498 97000000 		call	_ZN7_thread8dispatchEv
 877      E7800000 
 878              	.LVL27:
  64:src/thread.cpp **** 
 879              		.loc 1 64 1
 880 04a0 83308101 		ld	ra,24(sp)
 881              		.cfi_restore 1
 882 04a4 03340101 		ld	s0,16(sp)
 883              		.cfi_restore 8
GAS LISTING /tmp/ccv1SywC.s 			page 21


 884              		.cfi_def_cfa 2, 32
 885 04a8 83348100 		ld	s1,8(sp)
 886              		.cfi_restore 9
 887 04ac 13010102 		addi	sp,sp,32
 888              		.cfi_def_cfa_offset 0
 889 04b0 67800000 		jr	ra
 890              		.cfi_endproc
 891              	.LFE7:
 893              		.align	2
 894              		.globl	_ZN7_thread4exitEv
 896              	_ZN7_thread4exitEv:
 897              	.LFB9:
 106:src/thread.cpp ****     this->finished = 1;
 898              		.loc 1 106 20 is_stmt 1
 899              		.cfi_startproc
 900              	.LVL28:
 901 04b4 130101FF 		addi	sp,sp,-16
 902              		.cfi_def_cfa_offset 16
 903 04b8 23341100 		sd	ra,8(sp)
 904 04bc 23308100 		sd	s0,0(sp)
 905              		.cfi_offset 1, -8
 906              		.cfi_offset 8, -16
 907 04c0 13040101 		addi	s0,sp,16
 908              		.cfi_def_cfa 8, 0
 107:src/thread.cpp ****     dispatch();    
 909              		.loc 1 107 5
 107:src/thread.cpp ****     dispatch();    
 910              		.loc 1 107 20 is_stmt 0
 911 04c4 83278509 		lw	a5,152(a0)
 912 04c8 93E78700 		ori	a5,a5,8
 913 04cc 232CF508 		sw	a5,152(a0)
 108:src/thread.cpp ****     return 0;
 914              		.loc 1 108 5 is_stmt 1
 108:src/thread.cpp ****     return 0;
 915              		.loc 1 108 13 is_stmt 0
 916 04d0 97000000 		call	_ZN7_thread8dispatchEv
 916      E7800000 
 917              	.LVL29:
 109:src/thread.cpp **** }
 918              		.loc 1 109 5 is_stmt 1
 110:src/thread.cpp **** 
 919              		.loc 1 110 1 is_stmt 0
 920 04d8 13050000 		li	a0,0
 921 04dc 83308100 		ld	ra,8(sp)
 922              		.cfi_restore 1
 923 04e0 03340100 		ld	s0,0(sp)
 924              		.cfi_restore 8
 925              		.cfi_def_cfa 2, 16
 926 04e4 13010101 		addi	sp,sp,16
 927              		.cfi_def_cfa_offset 0
 928 04e8 67800000 		jr	ra
 929              		.cfi_endproc
 930              	.LFE9:
 932              		.globl	_ZN7_thread6nextIDE
 933              		.globl	_ZN7_thread13currentThreadE
 934              		.bss
 935              		.align	3
GAS LISTING /tmp/ccv1SywC.s 			page 22


 936              		.set	.LANCHOR0,. + 0
 939              	_ZN7_thread6nextIDE:
 940 0000 00000000 		.zero	4
 941 0004 00000000 		.zero	4
 944              	_ZN7_thread13currentThreadE:
 945 0008 00000000 		.zero	8
 945      00000000 
 946              		.text
 947              	.Letext0:
 948              		.file 3 "./lib/hw.h"
 949              		.file 4 "./h/sched.h"
 950              		.file 5 "./h/syscalls_c.h"
GAS LISTING /tmp/ccv1SywC.s 			page 23


DEFINED SYMBOLS
                            *ABS*:0000000000000000 thread.cpp
     /tmp/ccv1SywC.s:9      .text:0000000000000000 _ZN7_threadC2EPFvPvES0_
     /tmp/ccv1SywC.s:13     .text:0000000000000000 .L0 
     /tmp/ccv1SywC.s:15     .text:0000000000000000 .L0 
     /tmp/ccv1SywC.s:16     .text:0000000000000004 .L0 
     /tmp/ccv1SywC.s:18     .text:0000000000000008 .L0 
     /tmp/ccv1SywC.s:20     .text:000000000000000c .L0 
     /tmp/ccv1SywC.s:27     .text:000000000000000c .L0 
     /tmp/ccv1SywC.s:32     .text:0000000000000010 .L0 
     /tmp/ccv1SywC.s:33     .text:0000000000000010 .L0 
     /tmp/ccv1SywC.s:34     .text:0000000000000010 .L0 
     /tmp/ccv1SywC.s:35     .text:0000000000000010 .L0 
     /tmp/ccv1SywC.s:40     .text:0000000000000024 .L0 
     /tmp/ccv1SywC.s:42     .text:0000000000000028 .L0 
     /tmp/ccv1SywC.s:43     .text:0000000000000028 .L0 
     /tmp/ccv1SywC.s:44     .text:0000000000000028 .L0 
     /tmp/ccv1SywC.s:45     .text:0000000000000028 .L0 
     /tmp/ccv1SywC.s:46     .text:0000000000000028 .L0 
     /tmp/ccv1SywC.s:47     .text:0000000000000028 .L0 
     /tmp/ccv1SywC.s:49     .text:000000000000002c .L0 
     /tmp/ccv1SywC.s:50     .text:000000000000002c .L0 
     /tmp/ccv1SywC.s:52     .text:0000000000000030 .L0 
     /tmp/ccv1SywC.s:53     .text:0000000000000030 .L0 
     /tmp/ccv1SywC.s:55     .text:0000000000000034 .L0 
     /tmp/ccv1SywC.s:56     .text:0000000000000034 .L0 
     /tmp/ccv1SywC.s:58     .text:0000000000000038 .L0 
     /tmp/ccv1SywC.s:59     .text:0000000000000038 .L0 
     /tmp/ccv1SywC.s:61     .text:000000000000003c .L0 
     /tmp/ccv1SywC.s:62     .text:000000000000003c .L0 
     /tmp/ccv1SywC.s:64     .text:0000000000000040 .L0 
     /tmp/ccv1SywC.s:65     .text:0000000000000040 .L0 
     /tmp/ccv1SywC.s:67     .text:0000000000000044 .L0 
     /tmp/ccv1SywC.s:68     .text:0000000000000044 .L0 
     /tmp/ccv1SywC.s:70     .text:0000000000000048 .L0 
     /tmp/ccv1SywC.s:71     .text:0000000000000048 .L0 
     /tmp/ccv1SywC.s:73     .text:000000000000004c .L0 
     /tmp/ccv1SywC.s:74     .text:000000000000004c .L0 
     /tmp/ccv1SywC.s:76     .text:0000000000000050 .L0 
     /tmp/ccv1SywC.s:77     .text:0000000000000050 .L0 
     /tmp/ccv1SywC.s:79     .text:0000000000000054 .L0 
     /tmp/ccv1SywC.s:80     .text:0000000000000054 .L0 
     /tmp/ccv1SywC.s:82     .text:0000000000000058 .L0 
     /tmp/ccv1SywC.s:83     .text:0000000000000058 .L0 
     /tmp/ccv1SywC.s:85     .text:000000000000005c .L0 
     /tmp/ccv1SywC.s:86     .text:000000000000005c .L0 
     /tmp/ccv1SywC.s:88     .text:0000000000000060 .L0 
     /tmp/ccv1SywC.s:89     .text:0000000000000060 .L0 
     /tmp/ccv1SywC.s:91     .text:0000000000000064 .L0 
     /tmp/ccv1SywC.s:92     .text:0000000000000064 .L0 
     /tmp/ccv1SywC.s:94     .text:0000000000000068 .L0 
     /tmp/ccv1SywC.s:95     .text:0000000000000068 .L0 
     /tmp/ccv1SywC.s:97     .text:000000000000006c .L0 
     /tmp/ccv1SywC.s:98     .text:000000000000006c .L0 
     /tmp/ccv1SywC.s:841    .text:0000000000000454 _ZN7_thread7wrapperEv
     /tmp/ccv1SywC.s:99     .text:000000000000006c .L0 
     /tmp/ccv1SywC.s:103    .text:0000000000000078 .L0 
GAS LISTING /tmp/ccv1SywC.s 			page 24


     /tmp/ccv1SywC.s:104    .text:000000000000007c .L0 
     /tmp/ccv1SywC.s:105    .text:000000000000007c .L0 
     /tmp/ccv1SywC.s:107    .text:0000000000000080 .L0 
     /tmp/ccv1SywC.s:109    .text:0000000000000084 .L0 
     /tmp/ccv1SywC.s:9      .text:0000000000000000 _ZN7_threadC1EPFvPvES0_
     /tmp/ccv1SywC.s:117    .text:0000000000000084 _Z10popSppSpiev
     /tmp/ccv1SywC.s:120    .text:0000000000000084 .L0 
     /tmp/ccv1SywC.s:121    .text:0000000000000084 .L0 
     /tmp/ccv1SywC.s:122    .text:0000000000000088 .L0 
     /tmp/ccv1SywC.s:124    .text:000000000000008c .L0 
     /tmp/ccv1SywC.s:126    .text:0000000000000090 .L0 
     /tmp/ccv1SywC.s:128    .text:0000000000000090 .L0 
      src/thread.cpp:55     .text:0000000000000090 .L0 
     /tmp/ccv1SywC.s:134    .text:0000000000000094 .L0 
      src/thread.cpp:56     .text:0000000000000094 .L0 
     /tmp/ccv1SywC.s:140    .text:0000000000000098 .L0 
     /tmp/ccv1SywC.s:141    .text:000000000000009c .L0 
     /tmp/ccv1SywC.s:142    .text:000000000000009c .L0 
     /tmp/ccv1SywC.s:144    .text:00000000000000a0 .L0 
     /tmp/ccv1SywC.s:146    .text:00000000000000a4 .L0 
     /tmp/ccv1SywC.s:152    .text:00000000000000a4 _ZN7_thread6createEPPS_PFvPvES2_S2_b
     /tmp/ccv1SywC.s:155    .text:00000000000000a4 .L0 
     /tmp/ccv1SywC.s:157    .text:00000000000000a4 .L0 
     /tmp/ccv1SywC.s:158    .text:00000000000000a8 .L0 
     /tmp/ccv1SywC.s:166    .text:00000000000000c4 .L0 
     /tmp/ccv1SywC.s:167    .text:00000000000000c4 .L0 
     /tmp/ccv1SywC.s:168    .text:00000000000000c4 .L0 
     /tmp/ccv1SywC.s:169    .text:00000000000000c4 .L0 
     /tmp/ccv1SywC.s:170    .text:00000000000000c4 .L0 
     /tmp/ccv1SywC.s:171    .text:00000000000000c4 .L0 
     /tmp/ccv1SywC.s:172    .text:00000000000000c4 .L0 
     /tmp/ccv1SywC.s:174    .text:00000000000000c8 .L0 
     /tmp/ccv1SywC.s:181    .text:00000000000000dc .L0 
     /tmp/ccv1SywC.s:182    .text:00000000000000dc .L0 
     /tmp/ccv1SywC.s:187    .text:00000000000000e8 .L0 
     /tmp/ccv1SywC.s:189    .text:00000000000000ec .L0 
     /tmp/ccv1SywC.s:190    .text:00000000000000ec .L0 
     /tmp/ccv1SywC.s:192    .text:00000000000000f0 .L0 
     /tmp/ccv1SywC.s:193    .text:00000000000000f0 .L0 
     /tmp/ccv1SywC.s:195    .text:00000000000000f4 .L0 
     /tmp/ccv1SywC.s:197    .text:00000000000000f8 .L0 
     /tmp/ccv1SywC.s:198    .text:00000000000000f8 .L0 
     /tmp/ccv1SywC.s:203    .text:000000000000010c .L0 
     /tmp/ccv1SywC.s:205    .text:0000000000000110 .L0 
     /tmp/ccv1SywC.s:207    .text:0000000000000114 .L0 
     /tmp/ccv1SywC.s:208    .text:0000000000000114 .L0 
     /tmp/ccv1SywC.s:210    .text:0000000000000118 .L0 
     /tmp/ccv1SywC.s:214    .text:0000000000000124 .L0 
     /tmp/ccv1SywC.s:215    .text:0000000000000124 .L0 
     /tmp/ccv1SywC.s:217    .text:0000000000000128 .L0 
     /tmp/ccv1SywC.s:221    .text:0000000000000134 .L0 
     /tmp/ccv1SywC.s:222    .text:0000000000000134 .L0 
     /tmp/ccv1SywC.s:224    .text:0000000000000138 .L0 
     /tmp/ccv1SywC.s:228    .text:0000000000000144 .L0 
     /tmp/ccv1SywC.s:229    .text:0000000000000144 .L0 
     /tmp/ccv1SywC.s:231    .text:0000000000000148 .L0 
     /tmp/ccv1SywC.s:235    .text:0000000000000154 .L0 
GAS LISTING /tmp/ccv1SywC.s 			page 25


     /tmp/ccv1SywC.s:236    .text:0000000000000154 .L0 
     /tmp/ccv1SywC.s:238    .text:0000000000000158 .L0 
     /tmp/ccv1SywC.s:242    .text:0000000000000164 .L0 
     /tmp/ccv1SywC.s:243    .text:0000000000000164 .L0 
     /tmp/ccv1SywC.s:245    .text:0000000000000168 .L0 
     /tmp/ccv1SywC.s:247    .text:000000000000016c .L0 
     /tmp/ccv1SywC.s:248    .text:000000000000016c .L0 
     /tmp/ccv1SywC.s:250    .text:0000000000000170 .L0 
     /tmp/ccv1SywC.s:252    .text:0000000000000174 .L0 
     /tmp/ccv1SywC.s:253    .text:0000000000000174 .L0 
     /tmp/ccv1SywC.s:255    .text:0000000000000178 .L0 
     /tmp/ccv1SywC.s:257    .text:000000000000017c .L0 
     /tmp/ccv1SywC.s:258    .text:000000000000017c .L0 
     /tmp/ccv1SywC.s:260    .text:0000000000000180 .L0 
     /tmp/ccv1SywC.s:262    .text:0000000000000184 .L0 
     /tmp/ccv1SywC.s:263    .text:0000000000000184 .L0 
     /tmp/ccv1SywC.s:265    .text:0000000000000188 .L0 
     /tmp/ccv1SywC.s:267    .text:000000000000018c .L0 
     /tmp/ccv1SywC.s:268    .text:000000000000018c .L0 
     /tmp/ccv1SywC.s:270    .text:0000000000000190 .L0 
     /tmp/ccv1SywC.s:272    .text:0000000000000194 .L0 
     /tmp/ccv1SywC.s:273    .text:0000000000000194 .L0 
     /tmp/ccv1SywC.s:275    .text:0000000000000198 .L0 
     /tmp/ccv1SywC.s:277    .text:000000000000019c .L0 
     /tmp/ccv1SywC.s:278    .text:000000000000019c .L0 
     /tmp/ccv1SywC.s:280    .text:00000000000001a0 .L0 
     /tmp/ccv1SywC.s:282    .text:00000000000001a4 .L0 
     /tmp/ccv1SywC.s:283    .text:00000000000001a4 .L0 
     /tmp/ccv1SywC.s:285    .text:00000000000001a8 .L0 
     /tmp/ccv1SywC.s:287    .text:00000000000001ac .L0 
     /tmp/ccv1SywC.s:288    .text:00000000000001ac .L0 
     /tmp/ccv1SywC.s:290    .text:00000000000001b0 .L0 
     /tmp/ccv1SywC.s:292    .text:00000000000001b4 .L0 
     /tmp/ccv1SywC.s:293    .text:00000000000001b4 .L0 
     /tmp/ccv1SywC.s:295    .text:00000000000001b8 .L0 
     /tmp/ccv1SywC.s:297    .text:00000000000001bc .L0 
     /tmp/ccv1SywC.s:298    .text:00000000000001bc .L0 
     /tmp/ccv1SywC.s:300    .text:00000000000001c0 .L0 
     /tmp/ccv1SywC.s:302    .text:00000000000001c4 .L0 
     /tmp/ccv1SywC.s:303    .text:00000000000001c4 .L0 
     /tmp/ccv1SywC.s:305    .text:00000000000001c8 .L0 
     /tmp/ccv1SywC.s:307    .text:00000000000001cc .L0 
     /tmp/ccv1SywC.s:308    .text:00000000000001cc .L0 
     /tmp/ccv1SywC.s:310    .text:00000000000001d0 .L0 
     /tmp/ccv1SywC.s:312    .text:00000000000001d4 .L0 
     /tmp/ccv1SywC.s:313    .text:00000000000001d4 .L0 
     /tmp/ccv1SywC.s:315    .text:00000000000001d8 .L0 
     /tmp/ccv1SywC.s:317    .text:00000000000001dc .L0 
     /tmp/ccv1SywC.s:318    .text:00000000000001dc .L0 
     /tmp/ccv1SywC.s:320    .text:00000000000001e0 .L0 
     /tmp/ccv1SywC.s:322    .text:00000000000001e4 .L0 
     /tmp/ccv1SywC.s:323    .text:00000000000001e4 .L0 
     /tmp/ccv1SywC.s:325    .text:00000000000001e8 .L0 
     /tmp/ccv1SywC.s:328    .text:00000000000001f4 .L0 
     /tmp/ccv1SywC.s:329    .text:00000000000001f4 .L0 
     /tmp/ccv1SywC.s:331    .text:00000000000001f8 .L0 
     /tmp/ccv1SywC.s:333    .text:00000000000001fc .L0 
GAS LISTING /tmp/ccv1SywC.s 			page 26


     /tmp/ccv1SywC.s:336    .text:0000000000000200 .L0 
     /tmp/ccv1SywC.s:337    .text:0000000000000200 .L0 
     /tmp/ccv1SywC.s:339    .text:0000000000000208 .L0 
     /tmp/ccv1SywC.s:340    .text:0000000000000208 .L0 
     /tmp/ccv1SywC.s:342    .text:000000000000020c .L0 
     /tmp/ccv1SywC.s:343    .text:000000000000020c .L0 
     /tmp/ccv1SywC.s:345    .text:0000000000000210 .L0 
     /tmp/ccv1SywC.s:348    .text:0000000000000214 .L0 
     /tmp/ccv1SywC.s:351    .text:0000000000000218 .L0 
     /tmp/ccv1SywC.s:353    .text:000000000000021c .L0 
     /tmp/ccv1SywC.s:356    .text:0000000000000220 .L0 
     /tmp/ccv1SywC.s:359    .text:0000000000000224 .L0 
     /tmp/ccv1SywC.s:363    .text:0000000000000228 .L0 
     /tmp/ccv1SywC.s:365    .text:0000000000000228 .L0 
     /tmp/ccv1SywC.s:366    .text:0000000000000228 .L0 
     /tmp/ccv1SywC.s:370    .text:0000000000000238 .L0 
     /tmp/ccv1SywC.s:376    .text:0000000000000238 _ZN7_thread10setBlockedEb
     /tmp/ccv1SywC.s:379    .text:0000000000000238 .L0 
     /tmp/ccv1SywC.s:381    .text:0000000000000238 .L0 
     /tmp/ccv1SywC.s:382    .text:000000000000023c .L0 
     /tmp/ccv1SywC.s:384    .text:0000000000000240 .L0 
     /tmp/ccv1SywC.s:386    .text:0000000000000244 .L0 
     /tmp/ccv1SywC.s:388    .text:0000000000000244 .L0 
     /tmp/ccv1SywC.s:389    .text:0000000000000244 .L0 
     /tmp/ccv1SywC.s:397    .text:000000000000025c .L0 
     /tmp/ccv1SywC.s:398    .text:0000000000000260 .L0 
     /tmp/ccv1SywC.s:399    .text:0000000000000260 .L0 
     /tmp/ccv1SywC.s:401    .text:0000000000000264 .L0 
     /tmp/ccv1SywC.s:403    .text:0000000000000268 .L0 
     /tmp/ccv1SywC.s:409    .text:0000000000000268 _ZN7_thread9setClosedEb
     /tmp/ccv1SywC.s:412    .text:0000000000000268 .L0 
     /tmp/ccv1SywC.s:414    .text:0000000000000268 .L0 
     /tmp/ccv1SywC.s:415    .text:000000000000026c .L0 
     /tmp/ccv1SywC.s:417    .text:0000000000000270 .L0 
     /tmp/ccv1SywC.s:419    .text:0000000000000274 .L0 
     /tmp/ccv1SywC.s:421    .text:0000000000000274 .L0 
     /tmp/ccv1SywC.s:422    .text:0000000000000274 .L0 
     /tmp/ccv1SywC.s:429    .text:0000000000000288 .L0 
     /tmp/ccv1SywC.s:430    .text:000000000000028c .L0 
     /tmp/ccv1SywC.s:431    .text:000000000000028c .L0 
     /tmp/ccv1SywC.s:433    .text:0000000000000290 .L0 
     /tmp/ccv1SywC.s:435    .text:0000000000000294 .L0 
     /tmp/ccv1SywC.s:441    .text:0000000000000294 _ZN7_thread11setSleepingEb
     /tmp/ccv1SywC.s:444    .text:0000000000000294 .L0 
     /tmp/ccv1SywC.s:446    .text:0000000000000294 .L0 
     /tmp/ccv1SywC.s:447    .text:0000000000000298 .L0 
     /tmp/ccv1SywC.s:449    .text:000000000000029c .L0 
     /tmp/ccv1SywC.s:451    .text:00000000000002a0 .L0 
     /tmp/ccv1SywC.s:453    .text:00000000000002a0 .L0 
     /tmp/ccv1SywC.s:454    .text:00000000000002a0 .L0 
     /tmp/ccv1SywC.s:462    .text:00000000000002b8 .L0 
     /tmp/ccv1SywC.s:463    .text:00000000000002bc .L0 
     /tmp/ccv1SywC.s:464    .text:00000000000002bc .L0 
     /tmp/ccv1SywC.s:466    .text:00000000000002c0 .L0 
     /tmp/ccv1SywC.s:468    .text:00000000000002c4 .L0 
     /tmp/ccv1SywC.s:474    .text:00000000000002c4 _ZN7_thread13contextSwitchEPNS_14contextWrapperES1_
     /tmp/ccv1SywC.s:477    .text:00000000000002c4 .L0 
GAS LISTING /tmp/ccv1SywC.s 			page 27


     /tmp/ccv1SywC.s:479    .text:00000000000002c4 .L0 
     /tmp/ccv1SywC.s:480    .text:00000000000002c8 .L0 
     /tmp/ccv1SywC.s:482    .text:00000000000002cc .L0 
     /tmp/ccv1SywC.s:484    .text:00000000000002d0 .L0 
     /tmp/ccv1SywC.s:486    .text:00000000000002d0 .L0 
     /tmp/ccv1SywC.s:488    .text:00000000000002d4 .L0 
      src/thread.cpp:142    .text:00000000000002d4 .L0 
     /tmp/ccv1SywC.s:496    .text:00000000000002dc .L0 
      src/thread.cpp:143    .text:00000000000002dc .L0 
     /tmp/ccv1SywC.s:504    .text:00000000000002e4 .L0 
      src/thread.cpp:145    .text:00000000000002e4 .L0 
     /tmp/ccv1SywC.s:512    .text:00000000000002ec .L0 
      src/thread.cpp:146    .text:00000000000002ec .L0 
     /tmp/ccv1SywC.s:520    .text:00000000000002f4 .L0 
      src/thread.cpp:147    .text:00000000000002f4 .L0 
     /tmp/ccv1SywC.s:528    .text:00000000000002fc .L0 
      src/thread.cpp:148    .text:00000000000002fc .L0 
     /tmp/ccv1SywC.s:536    .text:0000000000000304 .L0 
      src/thread.cpp:149    .text:0000000000000304 .L0 
     /tmp/ccv1SywC.s:544    .text:000000000000030c .L0 
      src/thread.cpp:150    .text:000000000000030c .L0 
     /tmp/ccv1SywC.s:552    .text:0000000000000314 .L0 
      src/thread.cpp:151    .text:0000000000000314 .L0 
     /tmp/ccv1SywC.s:560    .text:000000000000031c .L0 
      src/thread.cpp:152    .text:000000000000031c .L0 
     /tmp/ccv1SywC.s:568    .text:0000000000000324 .L0 
      src/thread.cpp:153    .text:0000000000000324 .L0 
     /tmp/ccv1SywC.s:576    .text:000000000000032c .L0 
      src/thread.cpp:154    .text:000000000000032c .L0 
     /tmp/ccv1SywC.s:584    .text:0000000000000334 .L0 
      src/thread.cpp:155    .text:0000000000000334 .L0 
     /tmp/ccv1SywC.s:592    .text:000000000000033c .L0 
      src/thread.cpp:156    .text:000000000000033c .L0 
     /tmp/ccv1SywC.s:600    .text:0000000000000344 .L0 
      src/thread.cpp:158    .text:0000000000000344 .L0 
     /tmp/ccv1SywC.s:606    .text:0000000000000348 .L0 
      src/thread.cpp:159    .text:0000000000000348 .L0 
     /tmp/ccv1SywC.s:614    .text:0000000000000350 .L0 
     /tmp/ccv1SywC.s:615    .text:0000000000000350 .L0 
     /tmp/ccv1SywC.s:617    .text:0000000000000354 .L0 
     /tmp/ccv1SywC.s:619    .text:0000000000000358 .L0 
      src/thread.cpp:163    .text:0000000000000358 .L0 
     /tmp/ccv1SywC.s:627    .text:000000000000035c .L0 
     /tmp/ccv1SywC.s:628    .text:000000000000035c .L0 
      src/thread.cpp:167    .text:0000000000000360 .L0 
     /tmp/ccv1SywC.s:635    .text:0000000000000364 .L0 
      src/thread.cpp:168    .text:0000000000000364 .L0 
     /tmp/ccv1SywC.s:640    .text:0000000000000368 .L0 
     /tmp/ccv1SywC.s:642    .text:0000000000000368 .L0 
      src/thread.cpp:170    .text:000000000000036c .L0 
     /tmp/ccv1SywC.s:649    .text:0000000000000370 .L0 
     /tmp/ccv1SywC.s:651    .text:0000000000000370 .L0 
      src/thread.cpp:171    .text:0000000000000374 .L0 
     /tmp/ccv1SywC.s:658    .text:0000000000000378 .L0 
     /tmp/ccv1SywC.s:660    .text:0000000000000378 .L0 
      src/thread.cpp:172    .text:000000000000037c .L0 
     /tmp/ccv1SywC.s:667    .text:0000000000000380 .L0 
GAS LISTING /tmp/ccv1SywC.s 			page 28


     /tmp/ccv1SywC.s:669    .text:0000000000000380 .L0 
      src/thread.cpp:173    .text:0000000000000384 .L0 
     /tmp/ccv1SywC.s:676    .text:0000000000000388 .L0 
     /tmp/ccv1SywC.s:678    .text:0000000000000388 .L0 
      src/thread.cpp:174    .text:000000000000038c .L0 
     /tmp/ccv1SywC.s:685    .text:0000000000000390 .L0 
     /tmp/ccv1SywC.s:687    .text:0000000000000390 .L0 
      src/thread.cpp:175    .text:0000000000000394 .L0 
     /tmp/ccv1SywC.s:694    .text:0000000000000398 .L0 
     /tmp/ccv1SywC.s:696    .text:0000000000000398 .L0 
      src/thread.cpp:176    .text:000000000000039c .L0 
     /tmp/ccv1SywC.s:703    .text:00000000000003a0 .L0 
     /tmp/ccv1SywC.s:705    .text:00000000000003a0 .L0 
      src/thread.cpp:177    .text:00000000000003a4 .L0 
     /tmp/ccv1SywC.s:712    .text:00000000000003a8 .L0 
     /tmp/ccv1SywC.s:714    .text:00000000000003a8 .L0 
      src/thread.cpp:178    .text:00000000000003ac .L0 
     /tmp/ccv1SywC.s:721    .text:00000000000003b0 .L0 
     /tmp/ccv1SywC.s:723    .text:00000000000003b0 .L0 
      src/thread.cpp:179    .text:00000000000003b4 .L0 
     /tmp/ccv1SywC.s:730    .text:00000000000003b8 .L0 
     /tmp/ccv1SywC.s:732    .text:00000000000003b8 .L0 
      src/thread.cpp:180    .text:00000000000003bc .L0 
     /tmp/ccv1SywC.s:739    .text:00000000000003c0 .L0 
     /tmp/ccv1SywC.s:741    .text:00000000000003c0 .L0 
      src/thread.cpp:181    .text:00000000000003c4 .L0 
     /tmp/ccv1SywC.s:748    .text:00000000000003c8 .L0 
     /tmp/ccv1SywC.s:750    .text:00000000000003c8 .L0 
      src/thread.cpp:183    .text:00000000000003cc .L0 
     /tmp/ccv1SywC.s:757    .text:00000000000003d0 .L0 
     /tmp/ccv1SywC.s:759    .text:00000000000003d0 .L0 
     /tmp/ccv1SywC.s:760    .text:00000000000003d4 .L0 
     /tmp/ccv1SywC.s:761    .text:00000000000003d4 .L0 
     /tmp/ccv1SywC.s:763    .text:00000000000003d8 .L0 
     /tmp/ccv1SywC.s:765    .text:00000000000003dc .L0 
     /tmp/ccv1SywC.s:771    .text:00000000000003dc _ZN7_thread8dispatchEv
     /tmp/ccv1SywC.s:774    .text:00000000000003dc .L0 
     /tmp/ccv1SywC.s:775    .text:00000000000003dc .L0 
     /tmp/ccv1SywC.s:776    .text:00000000000003e0 .L0 
     /tmp/ccv1SywC.s:780    .text:00000000000003ec .L0 
     /tmp/ccv1SywC.s:781    .text:00000000000003ec .L0 
     /tmp/ccv1SywC.s:782    .text:00000000000003ec .L0 
     /tmp/ccv1SywC.s:784    .text:00000000000003f0 .L0 
     /tmp/ccv1SywC.s:786    .text:00000000000003f0 .L0 
     /tmp/ccv1SywC.s:787    .text:00000000000003f0 .L0 
     /tmp/ccv1SywC.s:790    .text:00000000000003f8 .L0 
     /tmp/ccv1SywC.s:792    .text:00000000000003fc .L0 
     /tmp/ccv1SywC.s:797    .text:0000000000000408 .L0 
     /tmp/ccv1SywC.s:798    .text:0000000000000408 .L0 
     /tmp/ccv1SywC.s:801    .text:0000000000000410 .L0 
     /tmp/ccv1SywC.s:803    .text:0000000000000418 .L0 
     /tmp/ccv1SywC.s:804    .text:0000000000000418 .L0 
     /tmp/ccv1SywC.s:806    .text:000000000000041c .L0 
     /tmp/ccv1SywC.s:810    .text:0000000000000420 .L0 
     /tmp/ccv1SywC.s:815    .text:0000000000000430 .L0 
     /tmp/ccv1SywC.s:816    .text:0000000000000434 .L0 
     /tmp/ccv1SywC.s:817    .text:0000000000000434 .L0 
GAS LISTING /tmp/ccv1SywC.s 			page 29


     /tmp/ccv1SywC.s:819    .text:0000000000000438 .L0 
     /tmp/ccv1SywC.s:820    .text:0000000000000438 .L0 
     /tmp/ccv1SywC.s:822    .text:000000000000043c .L0 
     /tmp/ccv1SywC.s:824    .text:0000000000000440 .L0 
     /tmp/ccv1SywC.s:828    .text:0000000000000444 .L0 
     /tmp/ccv1SywC.s:830    .text:0000000000000444 .L0 
     /tmp/ccv1SywC.s:831    .text:0000000000000444 .L0 
     /tmp/ccv1SywC.s:835    .text:0000000000000454 .L0 
     /tmp/ccv1SywC.s:844    .text:0000000000000454 .L0 
     /tmp/ccv1SywC.s:845    .text:0000000000000454 .L0 
     /tmp/ccv1SywC.s:846    .text:0000000000000458 .L0 
     /tmp/ccv1SywC.s:850    .text:0000000000000464 .L0 
     /tmp/ccv1SywC.s:851    .text:0000000000000464 .L0 
     /tmp/ccv1SywC.s:852    .text:0000000000000464 .L0 
     /tmp/ccv1SywC.s:854    .text:0000000000000468 .L0 
     /tmp/ccv1SywC.s:856    .text:0000000000000468 .L0 
     /tmp/ccv1SywC.s:857    .text:0000000000000468 .L0 
     /tmp/ccv1SywC.s:860    .text:0000000000000470 .L0 
     /tmp/ccv1SywC.s:861    .text:0000000000000470 .L0 
     /tmp/ccv1SywC.s:865    .text:0000000000000480 .L0 
     /tmp/ccv1SywC.s:869    .text:0000000000000488 .L0 
     /tmp/ccv1SywC.s:870    .text:0000000000000488 .L0 
     /tmp/ccv1SywC.s:872    .text:000000000000048c .L0 
     /tmp/ccv1SywC.s:876    .text:0000000000000498 .L0 
     /tmp/ccv1SywC.s:877    .text:0000000000000498 .L0 
     /tmp/ccv1SywC.s:880    .text:00000000000004a0 .L0 
     /tmp/ccv1SywC.s:881    .text:00000000000004a4 .L0 
     /tmp/ccv1SywC.s:883    .text:00000000000004a8 .L0 
     /tmp/ccv1SywC.s:884    .text:00000000000004a8 .L0 
     /tmp/ccv1SywC.s:886    .text:00000000000004ac .L0 
     /tmp/ccv1SywC.s:888    .text:00000000000004b0 .L0 
     /tmp/ccv1SywC.s:890    .text:00000000000004b4 .L0 
     /tmp/ccv1SywC.s:896    .text:00000000000004b4 _ZN7_thread4exitEv
     /tmp/ccv1SywC.s:899    .text:00000000000004b4 .L0 
     /tmp/ccv1SywC.s:901    .text:00000000000004b4 .L0 
     /tmp/ccv1SywC.s:902    .text:00000000000004b8 .L0 
     /tmp/ccv1SywC.s:905    .text:00000000000004c0 .L0 
     /tmp/ccv1SywC.s:906    .text:00000000000004c0 .L0 
     /tmp/ccv1SywC.s:908    .text:00000000000004c4 .L0 
     /tmp/ccv1SywC.s:910    .text:00000000000004c4 .L0 
     /tmp/ccv1SywC.s:911    .text:00000000000004c4 .L0 
     /tmp/ccv1SywC.s:915    .text:00000000000004d0 .L0 
     /tmp/ccv1SywC.s:916    .text:00000000000004d0 .L0 
     /tmp/ccv1SywC.s:919    .text:00000000000004d8 .L0 
     /tmp/ccv1SywC.s:920    .text:00000000000004d8 .L0 
     /tmp/ccv1SywC.s:922    .text:00000000000004e0 .L0 
     /tmp/ccv1SywC.s:924    .text:00000000000004e4 .L0 
     /tmp/ccv1SywC.s:925    .text:00000000000004e4 .L0 
     /tmp/ccv1SywC.s:927    .text:00000000000004e8 .L0 
     /tmp/ccv1SywC.s:929    .text:00000000000004ec .L0 
     /tmp/ccv1SywC.s:939    .bss:0000000000000000 _ZN7_thread6nextIDE
     /tmp/ccv1SywC.s:944    .bss:0000000000000008 _ZN7_thread13currentThreadE
     /tmp/ccv1SywC.s:936    .bss:0000000000000000 .LANCHOR0
     /tmp/ccv1SywC.s:951    .text:00000000000004ec .L0 
     /tmp/ccv1SywC.s:35     .text:0000000000000010 .L0 
     /tmp/ccv1SywC.s:99     .text:000000000000006c .L0 
     /tmp/ccv1SywC.s:198    .text:00000000000000f8 .L0 
GAS LISTING /tmp/ccv1SywC.s 			page 30


     /tmp/ccv1SywC.s:325    .text:00000000000001e8 .L0 
     /tmp/ccv1SywC.s:787    .text:00000000000003f0 .L0 
     /tmp/ccv1SywC.s:801    .text:0000000000000410 .L0 
     /tmp/ccv1SywC.s:861    .text:0000000000000470 .L0 
     /tmp/ccv1SywC.s:362    .text:0000000000000228 .L8
     /tmp/ccv1SywC.s:334    .text:0000000000000200 .L6
     /tmp/ccv1SywC.s:612    .text:0000000000000350 .L16
     /tmp/ccv1SywC.s:625    .text:000000000000035c .L17
     /tmp/ccv1SywC.s:795    .text:0000000000000408 .L20
     /tmp/ccv1SywC.s:827    .text:0000000000000444 .L23
     /tmp/ccv1SywC.s:808    .text:0000000000000420 .L21
     /tmp/ccv1SywC.s:1970   .debug_abbrev:0000000000000000 .Ldebug_abbrev0
     /tmp/ccv1SywC.s:3262   .debug_str:0000000000000399 .LASF64
     /tmp/ccv1SywC.s:3150   .debug_str:00000000000000d0 .LASF65
     /tmp/ccv1SywC.s:3132   .debug_str:0000000000000050 .LASF66
     /tmp/ccv1SywC.s:5      .text:0000000000000000 .Ltext0
     /tmp/ccv1SywC.s:947    .text:00000000000004ec .Letext0
     /tmp/ccv1SywC.s:3120   .debug_line:0000000000000000 .Ldebug_line0
     /tmp/ccv1SywC.s:3208   .debug_str:0000000000000225 .LASF0
     /tmp/ccv1SywC.s:3222   .debug_str:000000000000029c .LASF1
     /tmp/ccv1SywC.s:3196   .debug_str:00000000000001d7 .LASF2
     /tmp/ccv1SywC.s:3248   .debug_str:0000000000000343 .LASF3
     /tmp/ccv1SywC.s:3178   .debug_str:0000000000000184 .LASF4
     /tmp/ccv1SywC.s:3252   .debug_str:000000000000035a .LASF5
     /tmp/ccv1SywC.s:3144   .debug_str:00000000000000af .LASF6
     /tmp/ccv1SywC.s:3162   .debug_str:000000000000011c .LASF7
     /tmp/ccv1SywC.s:3224   .debug_str:00000000000002af .LASF8
     /tmp/ccv1SywC.s:3206   .debug_str:0000000000000212 .LASF9
     /tmp/ccv1SywC.s:3272   .debug_str:00000000000004ae .LASF10
     /tmp/ccv1SywC.s:3172   .debug_str:000000000000015a .LASF11
     /tmp/ccv1SywC.s:3234   .debug_str:00000000000002e7 .LASF12
     /tmp/ccv1SywC.s:3266   .debug_str:0000000000000467 .LASF13
     /tmp/ccv1SywC.s:3146   .debug_str:00000000000000b6 .LASF14
     /tmp/ccv1SywC.s:3128   .debug_str:000000000000001b .LASF15
     /tmp/ccv1SywC.s:3152   .debug_str:00000000000000df .LASF16
     /tmp/ccv1SywC.s:3246   .debug_str:000000000000032d .LASF17
     /tmp/ccv1SywC.s:3158   .debug_str:0000000000000101 .LASF18
     /tmp/ccv1SywC.s:3176   .debug_str:000000000000017c .LASF48
     /tmp/ccv1SywC.s:3200   .debug_str:00000000000001ea .LASF20
     /tmp/ccv1SywC.s:3242   .debug_str:000000000000031a .LASF19
     /tmp/ccv1SywC.s:3284   .debug_str:000000000000051b .LASF67
     /tmp/ccv1SywC.s:3202   .debug_str:00000000000001f9 .LASF21
     /tmp/ccv1SywC.s:3226   .debug_str:00000000000002c2 .LASF22
     /tmp/ccv1SywC.s:3290   .debug_str:000000000000054c .LASF23
     /tmp/ccv1SywC.s:3188   .debug_str:00000000000001b9 .LASF25
     /tmp/ccv1SywC.s:3130   .debug_str:000000000000002b .LASF27
     /tmp/ccv1SywC.s:3170   .debug_str:0000000000000155 .LASF24
     /tmp/ccv1SywC.s:3190   .debug_str:00000000000001c0 .LASF68
     /tmp/ccv1SywC.s:3278   .debug_str:00000000000004f1 .LASF69
     /tmp/ccv1SywC.s:3210   .debug_str:0000000000000232 .LASF70
     /tmp/ccv1SywC.s:3258   .debug_str:0000000000000379 .LASF71
     /tmp/ccv1SywC.s:3254   .debug_str:000000000000036c .LASF26
     /tmp/ccv1SywC.s:3184   .debug_str:000000000000019d .LASF28
     /tmp/ccv1SywC.s:3164   .debug_str:0000000000000123 .LASF72
     /tmp/ccv1SywC.s:3134   .debug_str:000000000000005d .LASF29
     /tmp/ccv1SywC.s:3294   .debug_str:0000000000000571 .LASF30
     /tmp/ccv1SywC.s:3148   .debug_str:00000000000000c6 .LASF31
GAS LISTING /tmp/ccv1SywC.s 			page 31


     /tmp/ccv1SywC.s:3140   .debug_str:000000000000007f .LASF32
     /tmp/ccv1SywC.s:3168   .debug_str:0000000000000149 .LASF33
     /tmp/ccv1SywC.s:3276   .debug_str:00000000000004d6 .LASF34
     /tmp/ccv1SywC.s:3274   .debug_str:00000000000004be .LASF73
     /tmp/ccv1SywC.s:3256   .debug_str:0000000000000371 .LASF74
     /tmp/ccv1SywC.s:3240   .debug_str:0000000000000304 .LASF75
     /tmp/ccv1SywC.s:3214   .debug_str:0000000000000246 .LASF35
     /tmp/ccv1SywC.s:3260   .debug_str:0000000000000390 .LASF36
     /tmp/ccv1SywC.s:3180   .debug_str:000000000000018b .LASF37
     /tmp/ccv1SywC.s:3192   .debug_str:00000000000001c5 .LASF38
     /tmp/ccv1SywC.s:3194   .debug_str:00000000000001d0 .LASF39
     /tmp/ccv1SywC.s:3124   .debug_str:0000000000000009 .LASF40
     /tmp/ccv1SywC.s:3236   .debug_str:00000000000002f6 .LASF41
     /tmp/ccv1SywC.s:3182   .debug_str:0000000000000194 .LASF42
     /tmp/ccv1SywC.s:3282   .debug_str:0000000000000512 .LASF43
     /tmp/ccv1SywC.s:3228   .debug_str:00000000000002c9 .LASF44
     /tmp/ccv1SywC.s:3186   .debug_str:00000000000001b2 .LASF45
     /tmp/ccv1SywC.s:3280   .debug_str:0000000000000504 .LASF76
     /tmp/ccv1SywC.s:3216   .debug_str:000000000000024e .LASF77
     /tmp/ccv1SywC.s:3138   .debug_str:000000000000007a .LASF46
     /tmp/ccv1SywC.s:3122   .debug_str:0000000000000000 .LASF47
     /tmp/ccv1SywC.s:3230   .debug_str:00000000000002d2 .LASF49
     /tmp/ccv1SywC.s:3212   .debug_str:000000000000023b .LASF50
     /tmp/ccv1SywC.s:3136   .debug_str:0000000000000068 .LASF51
     /tmp/ccv1SywC.s:3270   .debug_str:0000000000000492 .LASF78
     /tmp/ccv1SywC.s:3174   .debug_str:0000000000000168 .LASF79
     /tmp/ccv1SywC.s:3154   .debug_str:00000000000000eb .LASF52
     /tmp/ccv1SywC.s:3166   .debug_str:0000000000000131 .LASF80
     /tmp/ccv1SywC.s:3160   .debug_str:0000000000000117 .LASF53
     /tmp/ccv1SywC.s:3198   .debug_str:00000000000001e5 .LASF54
     /tmp/ccv1SywC.s:3264   .debug_str:000000000000045d .LASF55
     /tmp/ccv1SywC.s:3268   .debug_str:0000000000000476 .LASF56
     /tmp/ccv1SywC.s:3218   .debug_str:0000000000000282 .LASF57
     /tmp/ccv1SywC.s:475    .text:00000000000002c4 .LFB14
     /tmp/ccv1SywC.s:766    .text:00000000000003dc .LFE14
     /tmp/ccv1SywC.s:3232   .debug_str:00000000000002dc .LASF58
     /tmp/ccv1SywC.s:3288   .debug_str:0000000000000541 .LASF59
     /tmp/ccv1SywC.s:772    .text:00000000000003dc .LFB13
     /tmp/ccv1SywC.s:836    .text:0000000000000454 .LFE13
     /tmp/ccv1SywC.s:3204   .debug_str:0000000000000208 .LASF60
     /tmp/ccv1SywC.s:2929   .debug_loc:0000000000000000 .LLST9
     /tmp/ccv1SywC.s:799    .text:0000000000000410 .LVL20
     /tmp/ccv1SywC.s:813    .text:0000000000000430 .LVL22
     /tmp/ccv1SywC.s:833    .text:0000000000000450 .LVL24
     /tmp/ccv1SywC.s:442    .text:0000000000000294 .LFB12
     /tmp/ccv1SywC.s:469    .text:00000000000002c4 .LFE12
     /tmp/ccv1SywC.s:3238   .debug_str:00000000000002ff .LASF61
     /tmp/ccv1SywC.s:2940   .debug_loc:0000000000000036 .LLST8
     /tmp/ccv1SywC.s:410    .text:0000000000000268 .LFB11
     /tmp/ccv1SywC.s:436    .text:0000000000000294 .LFE11
     /tmp/ccv1SywC.s:2954   .debug_loc:000000000000006f .LLST7
     /tmp/ccv1SywC.s:377    .text:0000000000000238 .LFB10
     /tmp/ccv1SywC.s:404    .text:0000000000000268 .LFE10
     /tmp/ccv1SywC.s:2968   .debug_loc:00000000000000a8 .LLST6
     /tmp/ccv1SywC.s:897    .text:00000000000004b4 .LFB9
     /tmp/ccv1SywC.s:930    .text:00000000000004ec .LFE9
     /tmp/ccv1SywC.s:2982   .debug_loc:00000000000000e1 .LLST10
GAS LISTING /tmp/ccv1SywC.s 			page 32


     /tmp/ccv1SywC.s:917    .text:00000000000004d8 .LVL29
     /tmp/ccv1SywC.s:153    .text:00000000000000a4 .LFB8
     /tmp/ccv1SywC.s:371    .text:0000000000000238 .LFE8
     /tmp/ccv1SywC.s:2996   .debug_loc:000000000000011a .LLST1
     /tmp/ccv1SywC.s:3018   .debug_loc:0000000000000179 .LLST2
     /tmp/ccv1SywC.s:3040   .debug_loc:00000000000001d8 .LLST3
     /tmp/ccv1SywC.s:3286   .debug_str:000000000000053b .LASF62
     /tmp/ccv1SywC.s:3062   .debug_loc:0000000000000237 .LLST4
     /tmp/ccv1SywC.s:3220   .debug_str:0000000000000296 .LASF63
     /tmp/ccv1SywC.s:3084   .debug_loc:0000000000000296 .LLST5
     /tmp/ccv1SywC.s:185    .text:00000000000000e8 .LVL5
     /tmp/ccv1SywC.s:368    .text:0000000000000234 .LVL11
     /tmp/ccv1SywC.s:842    .text:0000000000000454 .LFB7
     /tmp/ccv1SywC.s:891    .text:00000000000004b4 .LFE7
     /tmp/ccv1SywC.s:858    .text:0000000000000470 .LVL25
     /tmp/ccv1SywC.s:878    .text:00000000000004a0 .LVL27
     /tmp/ccv1SywC.s:3244   .debug_str:0000000000000322 .LASF81
     /tmp/ccv1SywC.s:3250   .debug_str:000000000000034a .LASF82
     /tmp/ccv1SywC.s:118    .text:0000000000000084 .LFB6
     /tmp/ccv1SywC.s:147    .text:00000000000000a4 .LFE6
     /tmp/ccv1SywC.s:3142   .debug_str:0000000000000097 .LASF83
     /tmp/ccv1SywC.s:10     .text:0000000000000000 .LFB4
     /tmp/ccv1SywC.s:110    .text:0000000000000084 .LFE4
     /tmp/ccv1SywC.s:23     .text:000000000000000c .LBB7
     /tmp/ccv1SywC.s:30     .text:0000000000000010 .LBE7
     /tmp/ccv1SywC.s:3098   .debug_loc:00000000000002cf .LLST0
     /tmp/ccv1SywC.s:3292   .debug_str:0000000000000551 .LASF84
     /tmp/ccv1SywC.s:3156   .debug_str:00000000000000f3 .LASF85
     /tmp/ccv1SywC.s:3126   .debug_str:0000000000000011 .LASF86
     /tmp/ccv1SywC.s:788    .text:00000000000003f8 .LVL19
     /tmp/ccv1SywC.s:807    .text:0000000000000420 .LVL21
     /tmp/ccv1SywC.s:826    .text:0000000000000444 .LVL23
     /tmp/ccv1SywC.s:445    .text:0000000000000294 .LVL16
     /tmp/ccv1SywC.s:455    .text:00000000000002a4 .LVL17
     /tmp/ccv1SywC.s:413    .text:0000000000000268 .LVL14
     /tmp/ccv1SywC.s:424    .text:000000000000027c .LVL15
     /tmp/ccv1SywC.s:380    .text:0000000000000238 .LVL12
     /tmp/ccv1SywC.s:390    .text:0000000000000248 .LVL13
     /tmp/ccv1SywC.s:900    .text:00000000000004b4 .LVL28
     /tmp/ccv1SywC.s:156    .text:00000000000000a4 .LVL3
     /tmp/ccv1SywC.s:183    .text:00000000000000e0 .LVL4
     /tmp/ccv1SywC.s:346    .text:0000000000000210 .LVL6
     /tmp/ccv1SywC.s:361    .text:0000000000000228 .LVL10
     /tmp/ccv1SywC.s:357    .text:0000000000000220 .LVL9
     /tmp/ccv1SywC.s:354    .text:000000000000021c .LVL8
     /tmp/ccv1SywC.s:349    .text:0000000000000214 .LVL7
     /tmp/ccv1SywC.s:21     .text:000000000000000c .LVL1
     /tmp/ccv1SywC.s:28     .text:0000000000000010 .LVL2
     /tmp/ccv1SywC.s:952    .debug_info:0000000000000000 .Ldebug_info0

UNDEFINED SYMBOLS
_Z9mem_allocm
_ZN9Scheduler3putEP7_thread
_ZN9Scheduler3getEv
