GAS LISTING /tmp/ccBmQir7.s 			page 1


   1              		.file	"thread.cpp"
   2              		.option pic
   3              		.option norelax
   4              		.text
   5              	.Ltext0:
   6              		.align	2
   7              		.globl	_ZN7_threadC2EPFvPvES0_
   9              	_ZN7_threadC2EPFvPvES0_:
  10              	.LFB4:
  11              		.file 1 "src/thread.cpp"
   1:src/thread.cpp **** /**
   2:src/thread.cpp ****  * @file thread.cpp
   3:src/thread.cpp ****  * @author stcksmsh (vukicevickosta@gmail.com)
   4:src/thread.cpp ****  * @brief the thread class implementation
   5:src/thread.cpp ****  * @version 0.1
   6:src/thread.cpp ****  * @date 2024-01-02
   7:src/thread.cpp ****  * 
   8:src/thread.cpp ****  * @copyright Copyright (c) 2024
   9:src/thread.cpp ****  * 
  10:src/thread.cpp ****  */
  11:src/thread.cpp **** 
  12:src/thread.cpp **** 
  13:src/thread.cpp **** #include "thread.h"
  14:src/thread.cpp **** #include "assert.h"
  15:src/thread.cpp **** #include "sched.h"
  16:src/thread.cpp **** #include "syscalls_c.h"
  17:src/thread.cpp **** #include "console.h"
  18:src/thread.cpp **** 
  19:src/thread.cpp **** thread_t _thread::currentThread = 0;
  20:src/thread.cpp **** uint32 _thread::nextID = 0;
  21:src/thread.cpp **** _thread::_thread(func function, void* arg){
  12              		.loc 1 21 1
  13              		.cfi_startproc
  14              	.LVL0:
  15 0000 130101FF 		addi	sp,sp,-16
  16              		.cfi_def_cfa_offset 16
  17 0004 23348100 		sd	s0,8(sp)
  18              		.cfi_offset 8, -8
  19 0008 13040101 		addi	s0,sp,16
  20              		.cfi_def_cfa 8, 0
  21              	.LVL1:
  22              	.LBB6:
  23              	.LBB7:
  24              	.LBB8:
  25              		.file 2 "./h/thread.h"
   1:./h/thread.h  **** /**
   2:./h/thread.h  ****  * @file thread.h
   3:./h/thread.h  ****  * @author stcksmsh (vukicevickosta@gmail.com)
   4:./h/thread.h  ****  * @brief the thread class
   5:./h/thread.h  ****  * @version 0.1
   6:./h/thread.h  ****  * @date 2024-01-02
   7:./h/thread.h  ****  * 
   8:./h/thread.h  ****  * @copyright Copyright (c) 2024
   9:./h/thread.h  ****  * 
  10:./h/thread.h  ****  */
  11:./h/thread.h  **** #ifndef THREAD_H
  12:./h/thread.h  **** #define THREAD_H
GAS LISTING /tmp/ccBmQir7.s 			page 2


  13:./h/thread.h  **** 
  14:./h/thread.h  **** #include "types.h"
  15:./h/thread.h  **** #include "attributes.h"
  16:./h/thread.h  **** 
  17:./h/thread.h  **** 
  18:./h/thread.h  **** 
  19:./h/thread.h  **** /// @brief the thread class
  20:./h/thread.h  **** class _thread{
  21:./h/thread.h  ****     using func = void (*)(void*);
  22:./h/thread.h  **** public:
  23:./h/thread.h  **** 
  24:./h/thread.h  ****     static int create(_thread** thread, func function, void* arg, void* stack, bool start = true);
  25:./h/thread.h  **** 
  26:./h/thread.h  ****     /// @brief exit from current thread
  27:./h/thread.h  ****     /// @return whether the exit was successful
  28:./h/thread.h  ****     static int exit();
  29:./h/thread.h  **** 
  30:./h/thread.h  ****     /// @brief dispatch current thread
  31:./h/thread.h  ****     static void dispatch();
  32:./h/thread.h  **** 
  33:./h/thread.h  ****     /// @brief joins this thread onto the given thread
  34:./h/thread.h  ****     /// @param thread thread to join onto
  35:./h/thread.h  ****     void join(_thread* thread);
  36:./h/thread.h  **** 
  37:./h/thread.h  ****     /// @brief currently running thread (monoprocessor system)
  38:./h/thread.h  ****     static _thread* currentThread;
  39:./h/thread.h  **** 
  40:./h/thread.h  ****     /// @brief set thread blocked state
  41:./h/thread.h  ****     /// @param blocked new state
  42:./h/thread.h  ****     void setBlocked(bool blocked);
  43:./h/thread.h  **** 
  44:./h/thread.h  ****     /// @brief set thread closed state
  45:./h/thread.h  ****     /// @param closed new state
  46:./h/thread.h  ****     void setClosed(bool closed);
  47:./h/thread.h  **** 
  48:./h/thread.h  ****     /// @brief set thread sleeping state
  49:./h/thread.h  ****     /// @param sleeping new state
  50:./h/thread.h  ****     void setSleeping(bool sleeping);
  51:./h/thread.h  ****     
  52:./h/thread.h  ****     /// @brief reduce time left to run, and if it reaches 0, dispatch
  53:./h/thread.h  ****     /// @return 0 if successful, -1 if thread is blocked, -2 if thread is closed, -3 if thread is s
  54:./h/thread.h  ****     int tick();
  55:./h/thread.h  **** 
  56:./h/thread.h  **** private:
  57:./h/thread.h  ****     _thread(func function, void* arg);
  58:./h/thread.h  **** 
  59:./h/thread.h  ****     static void wrapper();
  60:./h/thread.h  **** 
  61:./h/thread.h  ****     void unJoin();
  62:./h/thread.h  **** 
  63:./h/thread.h  ****     struct contextWrapper{
  26              		.loc 2 63 12 is_stmt 0
  27 000c 23300500 		sd	zero,0(a0)
  28 0010 23340500 		sd	zero,8(a0)
  29              	.LVL2:
  30              	.LBE8:
  31              	.LBE7:
GAS LISTING /tmp/ccBmQir7.s 			page 3


  22:src/thread.cpp ****     function = function;
  32              		.loc 1 22 5 is_stmt 1
  23:src/thread.cpp ****     arg = arg;
  33              		.loc 1 23 5
  24:src/thread.cpp ****     ID = nextID++;
  34              		.loc 1 24 5
  35              		.loc 1 24 16 is_stmt 0
  36 0014 17070000 		lla	a4,.LANCHOR0
  36      13070700 
  37 001c 83270700 		lw	a5,0(a4)
  38 0020 9B861700 		addiw	a3,a5,1
  39 0024 2320D700 		sw	a3,0(a4)
  40              		.loc 1 24 8
  41 0028 232CF508 		sw	a5,152(a0)
  25:src/thread.cpp ****     closed = 0;
  42              		.loc 1 25 5 is_stmt 1
  43              		.loc 1 25 12 is_stmt 0
  44 002c 8327C509 		lw	a5,156(a0)
  26:src/thread.cpp ****     blocked = 0;
  45              		.loc 1 26 5 is_stmt 1
  27:src/thread.cpp ****     sleeping = 0;
  46              		.loc 1 27 5
  28:src/thread.cpp ****     finished = 0;
  47              		.loc 1 28 5
  29:src/thread.cpp ****     kernel = (function == 0);
  48              		.loc 1 29 5
  49              		.loc 1 29 12 is_stmt 0
  50 0030 93B51500 		seqz	a1,a1
  51              	.LVL3:
  52 0034 9B954500 		slliw	a1,a1,4
  53 0038 93F707FE 		andi	a5,a5,-32
  54 003c B3E7B700 		or	a5,a5,a1
  55 0040 232EF508 		sw	a5,156(a0)
  30:src/thread.cpp ****     reserved = 0;
  56              		.loc 1 30 5 is_stmt 1
  57              		.loc 1 30 14 is_stmt 0
  58 0044 8327050A 		lw	a5,160(a0)
  59 0048 370700F0 		li	a4,-268435456
  60 004c B3F7E700 		and	a5,a5,a4
  61 0050 2320F50A 		sw	a5,160(a0)
  31:src/thread.cpp ****     joinHead = 0;
  62              		.loc 1 31 5 is_stmt 1
  63              		.loc 1 31 14 is_stmt 0
  64 0054 233C0506 		sd	zero,120(a0)
  32:src/thread.cpp ****     timeLeft = DEFAULT_TIME_SLICE;
  65              		.loc 1 32 5 is_stmt 1
  66              		.loc 1 32 14 is_stmt 0
  67 0058 93072000 		li	a5,2
  68 005c 2334F508 		sd	a5,136(a0)
  33:src/thread.cpp ****     stackStart = 0;
  69              		.loc 1 33 5 is_stmt 1
  70              		.loc 1 33 16 is_stmt 0
  71 0060 23380508 		sd	zero,144(a0)
  34:src/thread.cpp ****     
  35:src/thread.cpp ****     context.s0 = 0;
  72              		.loc 1 35 5 is_stmt 1
  73              		.loc 1 35 16 is_stmt 0
GAS LISTING /tmp/ccBmQir7.s 			page 4


  74 0064 23380500 		sd	zero,16(a0)
  36:src/thread.cpp ****     context.s1 = 0;
  75              		.loc 1 36 5 is_stmt 1
  76              		.loc 1 36 16 is_stmt 0
  77 0068 233C0500 		sd	zero,24(a0)
  37:src/thread.cpp ****     context.s2 = 0;
  78              		.loc 1 37 5 is_stmt 1
  79              		.loc 1 37 16 is_stmt 0
  80 006c 23300502 		sd	zero,32(a0)
  38:src/thread.cpp ****     context.s3 = 0;
  81              		.loc 1 38 5 is_stmt 1
  82              		.loc 1 38 16 is_stmt 0
  83 0070 23340502 		sd	zero,40(a0)
  39:src/thread.cpp ****     context.s4 = 0;
  84              		.loc 1 39 5 is_stmt 1
  85              		.loc 1 39 16 is_stmt 0
  86 0074 23380502 		sd	zero,48(a0)
  40:src/thread.cpp ****     context.s5 = 0;
  87              		.loc 1 40 5 is_stmt 1
  88              		.loc 1 40 16 is_stmt 0
  89 0078 233C0502 		sd	zero,56(a0)
  41:src/thread.cpp ****     context.s6 = 0;
  90              		.loc 1 41 5 is_stmt 1
  91              		.loc 1 41 16 is_stmt 0
  92 007c 23300504 		sd	zero,64(a0)
  42:src/thread.cpp ****     context.s7 = 0;
  93              		.loc 1 42 5 is_stmt 1
  94              		.loc 1 42 16 is_stmt 0
  95 0080 23340504 		sd	zero,72(a0)
  43:src/thread.cpp ****     context.s8 = 0;
  96              		.loc 1 43 5 is_stmt 1
  97              		.loc 1 43 16 is_stmt 0
  98 0084 23380504 		sd	zero,80(a0)
  44:src/thread.cpp ****     context.s9 = 0;
  99              		.loc 1 44 5 is_stmt 1
 100              		.loc 1 44 16 is_stmt 0
 101 0088 233C0504 		sd	zero,88(a0)
  45:src/thread.cpp ****     context.s10 = 0;
 102              		.loc 1 45 5 is_stmt 1
 103              		.loc 1 45 17 is_stmt 0
 104 008c 23300506 		sd	zero,96(a0)
  46:src/thread.cpp ****     context.s11 = 0;
 105              		.loc 1 46 5 is_stmt 1
 106              		.loc 1 46 17 is_stmt 0
 107 0090 23340506 		sd	zero,104(a0)
  47:src/thread.cpp **** 
  48:src/thread.cpp ****     context.sstatus = 0;
 108              		.loc 1 48 5 is_stmt 1
 109              		.loc 1 48 21 is_stmt 0
 110 0094 23380506 		sd	zero,112(a0)
  49:src/thread.cpp ****     /// register x2 is the stack pointer
  50:src/thread.cpp ****     context.sp = (uint64)stackStart;
 111              		.loc 1 50 5 is_stmt 1
  51:src/thread.cpp ****     /// register x1 is the return address
  52:src/thread.cpp ****     context.pc = (uint64)wrapper;
 112              		.loc 1 52 5
 113              		.loc 1 52 16 is_stmt 0
GAS LISTING /tmp/ccBmQir7.s 			page 5


 114 0098 97070000 		lla	a5,_ZN7_thread7wrapperEv
 114      93870700 
 115 00a0 2330F500 		sd	a5,0(a0)
 116              	.LBE6:
  53:src/thread.cpp **** }
 117              		.loc 1 53 1
 118 00a4 03348100 		ld	s0,8(sp)
 119              		.cfi_restore 8
 120              		.cfi_def_cfa 2, 16
 121 00a8 13010101 		addi	sp,sp,16
 122              		.cfi_def_cfa_offset 0
 123 00ac 67800000 		jr	ra
 124              		.cfi_endproc
 125              	.LFE4:
 127              		.globl	_ZN7_threadC1EPFvPvES0_
 128              		.set	_ZN7_threadC1EPFvPvES0_,_ZN7_threadC2EPFvPvES0_
 129              		.align	2
 130              		.globl	_Z10popSppSpieb
 132              	_Z10popSppSpieb:
 133              	.LFB6:
  54:src/thread.cpp **** 
  55:src/thread.cpp **** void popSppSpie(bool kernel = false){
 134              		.loc 1 55 37 is_stmt 1
 135              		.cfi_startproc
 136              	.LVL4:
 137 00b0 130101FF 		addi	sp,sp,-16
 138              		.cfi_def_cfa_offset 16
 139 00b4 23348100 		sd	s0,8(sp)
 140              		.cfi_offset 8, -8
 141 00b8 13040101 		addi	s0,sp,16
 142              		.cfi_def_cfa 8, 0
  56:src/thread.cpp ****     __asm__ volatile ("csrw sepc, ra");
 143              		.loc 1 56 5
 144              		.loc 1 56 39 is_stmt 0
 145              	#APP
 146              	# 56 "src/thread.cpp" 1
  57              	    if(kernel){
 147              		csrw sepc, ra
 148              	# 0 "" 2
 149              		.loc 1 57 5 is_stmt 1
 150              	#NO_APP
 151 00c0 630E0500 		beqz	a0,.L4
  58:src/thread.cpp ****         __asm__ volatile ("csrs sstatus, %0" :: "r" (1 << 8));
 152              		.loc 1 58 9
 153              		.loc 1 58 62 is_stmt 0
 154 00c4 93070010 		li	a5,256
 155              	#APP
 156              	# 58 "src/thread.cpp" 1
  59              	    }else{
 157              		csrs sstatus, a5
 158              	# 0 "" 2
 159              	#NO_APP
 160              	.L5:
  60:src/thread.cpp ****         __asm__ volatile ("csrc sstatus, %0" :: "r" (1 << 8));
  61:src/thread.cpp ****     }
  62:src/thread.cpp ****     __asm__ volatile ("sret");
 161              		.loc 1 62 5 is_stmt 1
GAS LISTING /tmp/ccBmQir7.s 			page 6


 162              		.loc 1 62 30 is_stmt 0
 163              	#APP
 164              	# 62 "src/thread.cpp" 1
  63              	}
 165              		sret
 166              	# 0 "" 2
 167              		.loc 1 63 1
 168              	#NO_APP
 169 00d0 03348100 		ld	s0,8(sp)
 170              		.cfi_remember_state
 171              		.cfi_restore 8
 172              		.cfi_def_cfa 2, 16
 173 00d4 13010101 		addi	sp,sp,16
 174              		.cfi_def_cfa_offset 0
 175 00d8 67800000 		jr	ra
 176              	.L4:
 177              		.cfi_restore_state
  60:src/thread.cpp ****         __asm__ volatile ("csrc sstatus, %0" :: "r" (1 << 8));
 178              		.loc 1 60 9 is_stmt 1
  60:src/thread.cpp ****         __asm__ volatile ("csrc sstatus, %0" :: "r" (1 << 8));
 179              		.loc 1 60 62 is_stmt 0
 180 00dc 93070010 		li	a5,256
 181              	#APP
 182              	# 60 "src/thread.cpp" 1
 183              		csrc sstatus, a5
 184              	# 0 "" 2
 185              	#NO_APP
 186 00e4 6FF09FFE 		j	.L5
 187              		.cfi_endproc
 188              	.LFE6:
 190              		.align	2
 191              		.globl	_ZN7_thread6unJoinEv
 193              	_ZN7_thread6unJoinEv:
 194              	.LFB8:
  64:src/thread.cpp **** 
  65:src/thread.cpp **** void _thread::wrapper(){
  66:src/thread.cpp ****     popSppSpie(currentThread->kernel);
  67:src/thread.cpp ****     currentThread->function(currentThread->arg);
  68:src/thread.cpp ****     currentThread->unJoin();
  69:src/thread.cpp ****     exit();
  70:src/thread.cpp **** }
  71:src/thread.cpp **** 
  72:src/thread.cpp **** void _thread::unJoin(){
 195              		.loc 1 72 23 is_stmt 1
 196              		.cfi_startproc
 197              	.LVL5:
 198 00e8 130101FE 		addi	sp,sp,-32
 199              		.cfi_def_cfa_offset 32
 200 00ec 233C1100 		sd	ra,24(sp)
 201 00f0 23388100 		sd	s0,16(sp)
 202 00f4 23349100 		sd	s1,8(sp)
 203 00f8 23302101 		sd	s2,0(sp)
 204              		.cfi_offset 1, -8
 205              		.cfi_offset 8, -16
 206              		.cfi_offset 9, -24
 207              		.cfi_offset 18, -32
 208 00fc 13040102 		addi	s0,sp,32
GAS LISTING /tmp/ccBmQir7.s 			page 7


 209              		.cfi_def_cfa 8, 0
  73:src/thread.cpp ****     ThreadJoinList* current = joinHead;
 210              		.loc 1 73 5
 211              		.loc 1 73 21 is_stmt 0
 212 0100 83348507 		ld	s1,120(a0)
 213              	.LVL6:
 214              	.L9:
  74:src/thread.cpp ****     while(current != 0){
 215              		.loc 1 74 5 is_stmt 1
 216              		.loc 1 74 19
 217 0104 638E040C 		beqz	s1,.L7
 218              	.LBB9:
  75:src/thread.cpp ****         thread_t thread = current->thread;
 219              		.loc 1 75 9
 220              		.loc 1 75 18 is_stmt 0
 221 0108 03C50400 		lbu	a0,0(s1)
 222 010c 83C71400 		lbu	a5,1(s1)
 223 0110 93978700 		slli	a5,a5,8
 224 0114 B3E7A700 		or	a5,a5,a0
 225 0118 03C52400 		lbu	a0,2(s1)
 226 011c 13150501 		slli	a0,a0,16
 227 0120 B367F500 		or	a5,a0,a5
 228 0124 03C53400 		lbu	a0,3(s1)
 229 0128 13158501 		slli	a0,a0,24
 230 012c 3365F500 		or	a0,a0,a5
 231 0130 83C74400 		lbu	a5,4(s1)
 232 0134 93970702 		slli	a5,a5,32
 233 0138 33E5A700 		or	a0,a5,a0
 234 013c 83C75400 		lbu	a5,5(s1)
 235 0140 93978702 		slli	a5,a5,40
 236 0144 B3E7A700 		or	a5,a5,a0
 237 0148 03C56400 		lbu	a0,6(s1)
 238 014c 13150503 		slli	a0,a0,48
 239 0150 B367F500 		or	a5,a0,a5
 240 0154 03C57400 		lbu	a0,7(s1)
 241 0158 13158503 		slli	a0,a0,56
 242 015c 3365F500 		or	a0,a0,a5
 243              	.LVL7:
  76:src/thread.cpp ****         thread->blocked = false;
 244              		.loc 1 76 9 is_stmt 1
 245              		.loc 1 76 25 is_stmt 0
 246 0160 8327C509 		lw	a5,156(a0)
 247 0164 93F7D7FF 		andi	a5,a5,-3
 248 0168 232EF508 		sw	a5,156(a0)
  77:src/thread.cpp ****         Scheduler::put(thread);
 249              		.loc 1 77 9 is_stmt 1
 250              		.loc 1 77 23 is_stmt 0
 251 016c 97000000 		call	_ZN9Scheduler3putEP7_thread@plt
 251      E7800000 
 252              	.LVL8:
  78:src/thread.cpp ****         ThreadJoinList* next = current->next;
 253              		.loc 1 78 9 is_stmt 1
 254              		.loc 1 78 25 is_stmt 0
 255 0174 03C98400 		lbu	s2,8(s1)
 256 0178 83C79400 		lbu	a5,9(s1)
 257 017c 93978700 		slli	a5,a5,8
 258 0180 B3E72701 		or	a5,a5,s2
GAS LISTING /tmp/ccBmQir7.s 			page 8


 259 0184 03C9A400 		lbu	s2,10(s1)
 260 0188 13190901 		slli	s2,s2,16
 261 018c B367F900 		or	a5,s2,a5
 262 0190 03C9B400 		lbu	s2,11(s1)
 263 0194 13198901 		slli	s2,s2,24
 264 0198 3369F900 		or	s2,s2,a5
 265 019c 83C7C400 		lbu	a5,12(s1)
 266 01a0 93970702 		slli	a5,a5,32
 267 01a4 33E92701 		or	s2,a5,s2
 268 01a8 83C7D400 		lbu	a5,13(s1)
 269 01ac 93978702 		slli	a5,a5,40
 270 01b0 B3E72701 		or	a5,a5,s2
 271 01b4 03C9E400 		lbu	s2,14(s1)
 272 01b8 13190903 		slli	s2,s2,48
 273 01bc B367F900 		or	a5,s2,a5
 274 01c0 03C9F400 		lbu	s2,15(s1)
 275 01c4 13198903 		slli	s2,s2,56
 276 01c8 3369F900 		or	s2,s2,a5
 277              	.LVL9:
  79:src/thread.cpp ****         mem_free(current);
 278              		.loc 1 79 9 is_stmt 1
 279              		.loc 1 79 17 is_stmt 0
 280 01cc 13850400 		mv	a0,s1
 281 01d0 97000000 		call	_Z8mem_freePv@plt
 281      E7800000 
 282              	.LVL10:
  80:src/thread.cpp ****         current = next;
 283              		.loc 1 80 9 is_stmt 1
 284              		.loc 1 80 17 is_stmt 0
 285 01d8 93040900 		mv	s1,s2
 286              	.LBE9:
  74:src/thread.cpp ****         thread_t thread = current->thread;
 287              		.loc 1 74 5
 288 01dc 6FF09FF2 		j	.L9
 289              	.LVL11:
 290              	.L7:
  81:src/thread.cpp ****     }
  82:src/thread.cpp **** }
 291              		.loc 1 82 1
 292 01e0 83308101 		ld	ra,24(sp)
 293              		.cfi_restore 1
 294 01e4 03340101 		ld	s0,16(sp)
 295              		.cfi_restore 8
 296              		.cfi_def_cfa 2, 32
 297 01e8 83348100 		ld	s1,8(sp)
 298              		.cfi_restore 9
 299              	.LVL12:
 300 01ec 03390100 		ld	s2,0(sp)
 301              		.cfi_restore 18
 302 01f0 13010102 		addi	sp,sp,32
 303              		.cfi_def_cfa_offset 0
 304 01f4 67800000 		jr	ra
 305              		.cfi_endproc
 306              	.LFE8:
 308              		.align	2
 309              		.globl	_ZN7_thread6createEPPS_PFvPvES2_S2_b
 311              	_ZN7_thread6createEPPS_PFvPvES2_S2_b:
GAS LISTING /tmp/ccBmQir7.s 			page 9


 312              	.LFB9:
  83:src/thread.cpp **** 
  84:src/thread.cpp **** int _thread::create(thread_t* thread, func function, void* arg, void* stack, bool start){
 313              		.loc 1 84 89 is_stmt 1
 314              		.cfi_startproc
 315              	.LVL13:
 316 01f8 130101FC 		addi	sp,sp,-64
 317              		.cfi_def_cfa_offset 64
 318 01fc 233C1102 		sd	ra,56(sp)
 319 0200 23388102 		sd	s0,48(sp)
 320 0204 23349102 		sd	s1,40(sp)
 321 0208 23302103 		sd	s2,32(sp)
 322 020c 233C3101 		sd	s3,24(sp)
 323 0210 23384101 		sd	s4,16(sp)
 324 0214 23345101 		sd	s5,8(sp)
 325              		.cfi_offset 1, -8
 326              		.cfi_offset 8, -16
 327              		.cfi_offset 9, -24
 328              		.cfi_offset 18, -32
 329              		.cfi_offset 19, -40
 330              		.cfi_offset 20, -48
 331              		.cfi_offset 21, -56
 332 0218 13040104 		addi	s0,sp,64
 333              		.cfi_def_cfa 8, 0
 334 021c 93040500 		mv	s1,a0
 335 0220 13890500 		mv	s2,a1
 336 0224 930A0600 		mv	s5,a2
 337 0228 93890600 		mv	s3,a3
 338 022c 130A0700 		mv	s4,a4
  85:src/thread.cpp **** 
  86:src/thread.cpp ****     *thread = (_thread*)mem_alloc(sizeof(_thread));
 339              		.loc 1 86 5
 340              		.loc 1 86 34 is_stmt 0
 341 0230 1305800B 		li	a0,184
 342              	.LVL14:
 343 0234 97000000 		call	_Z9mem_allocm@plt
 343      E7800000 
 344              	.LVL15:
 345              		.loc 1 86 13
 346 023c 23B0A400 		sd	a0,0(s1)
  87:src/thread.cpp ****     if(*thread == 0){
 347              		.loc 1 87 5 is_stmt 1
 348 0240 63000518 		beqz	a0,.L13
  88:src/thread.cpp ****         return -1;
  89:src/thread.cpp ****     }
  90:src/thread.cpp ****     (*thread)->function = function;
 349              		.loc 1 90 5
 350              		.loc 1 90 25 is_stmt 0
 351 0244 2334250B 		sd	s2,168(a0)
  91:src/thread.cpp ****     (*thread)->arg = arg;
 352              		.loc 1 91 5 is_stmt 1
 353              		.loc 1 91 6 is_stmt 0
 354 0248 83B70400 		ld	a5,0(s1)
 355              		.loc 1 91 20
 356 024c 23B8570B 		sd	s5,176(a5)
  92:src/thread.cpp ****     (*thread)->ID = nextID++;
 357              		.loc 1 92 5 is_stmt 1
GAS LISTING /tmp/ccBmQir7.s 			page 10


 358              		.loc 1 92 27 is_stmt 0
 359 0250 17070000 		lla	a4,.LANCHOR0
 359      13070700 
 360 0258 83270700 		lw	a5,0(a4)
 361 025c 9B861700 		addiw	a3,a5,1
 362 0260 2320D700 		sw	a3,0(a4)
 363              		.loc 1 92 6
 364 0264 03B70400 		ld	a4,0(s1)
 365              		.loc 1 92 19
 366 0268 232CF708 		sw	a5,152(a4)
  93:src/thread.cpp ****     (*thread)->closed = false;
 367              		.loc 1 93 5 is_stmt 1
 368              		.loc 1 93 6 is_stmt 0
 369 026c 03B70400 		ld	a4,0(s1)
 370              		.loc 1 93 23
 371 0270 8327C709 		lw	a5,156(a4)
 372 0274 93F7E7FF 		andi	a5,a5,-2
 373 0278 232EF708 		sw	a5,156(a4)
  94:src/thread.cpp ****     (*thread)->blocked = false;
 374              		.loc 1 94 5 is_stmt 1
 375              		.loc 1 94 6 is_stmt 0
 376 027c 03B70400 		ld	a4,0(s1)
 377              		.loc 1 94 24
 378 0280 8327C709 		lw	a5,156(a4)
 379 0284 93F7D7FF 		andi	a5,a5,-3
 380 0288 232EF708 		sw	a5,156(a4)
  95:src/thread.cpp ****     (*thread)->sleeping = false;
 381              		.loc 1 95 5 is_stmt 1
 382              		.loc 1 95 6 is_stmt 0
 383 028c 03B70400 		ld	a4,0(s1)
 384              		.loc 1 95 25
 385 0290 8327C709 		lw	a5,156(a4)
 386 0294 93F7B7FF 		andi	a5,a5,-5
 387 0298 232EF708 		sw	a5,156(a4)
  96:src/thread.cpp ****     (*thread)->finished = false;
 388              		.loc 1 96 5 is_stmt 1
 389              		.loc 1 96 6 is_stmt 0
 390 029c 03B70400 		ld	a4,0(s1)
 391              		.loc 1 96 25
 392 02a0 8327C709 		lw	a5,156(a4)
 393 02a4 93F777FF 		andi	a5,a5,-9
 394 02a8 232EF708 		sw	a5,156(a4)
  97:src/thread.cpp ****     (*thread)->kernel = (function == 0);
 395              		.loc 1 97 5 is_stmt 1
 396              		.loc 1 97 6 is_stmt 0
 397 02ac 03B70400 		ld	a4,0(s1)
 398              		.loc 1 97 23
 399 02b0 13391900 		seqz	s2,s2
 400              	.LVL16:
 401 02b4 1B194900 		slliw	s2,s2,4
 402 02b8 8327C709 		lw	a5,156(a4)
 403 02bc 93F7F7FE 		andi	a5,a5,-17
 404 02c0 33E92701 		or	s2,a5,s2
 405 02c4 232E2709 		sw	s2,156(a4)
  98:src/thread.cpp ****     (*thread)->reserved = 0;
 406              		.loc 1 98 5 is_stmt 1
 407              		.loc 1 98 6 is_stmt 0
GAS LISTING /tmp/ccBmQir7.s 			page 11


 408 02c8 03B70400 		ld	a4,0(s1)
 409              		.loc 1 98 25
 410 02cc 8327070A 		lw	a5,160(a4)
 411 02d0 B70600F0 		li	a3,-268435456
 412 02d4 B3F7D700 		and	a5,a5,a3
 413 02d8 2320F70A 		sw	a5,160(a4)
  99:src/thread.cpp ****     (*thread)->joinHead = 0;
 414              		.loc 1 99 5 is_stmt 1
 415              		.loc 1 99 6 is_stmt 0
 416 02dc 83B70400 		ld	a5,0(s1)
 417              		.loc 1 99 25
 418 02e0 23BC0706 		sd	zero,120(a5)
 100:src/thread.cpp ****     (*thread)->joinTail = 0;
 419              		.loc 1 100 5 is_stmt 1
 420              		.loc 1 100 6 is_stmt 0
 421 02e4 83B70400 		ld	a5,0(s1)
 422              		.loc 1 100 25
 423 02e8 23B00708 		sd	zero,128(a5)
 101:src/thread.cpp ****     (*thread)->timeLeft = DEFAULT_TIME_SLICE;
 424              		.loc 1 101 5 is_stmt 1
 425              		.loc 1 101 6 is_stmt 0
 426 02ec 83B70400 		ld	a5,0(s1)
 427              		.loc 1 101 25
 428 02f0 13072000 		li	a4,2
 429 02f4 23B4E708 		sd	a4,136(a5)
 102:src/thread.cpp ****     (*thread)->stackStart = 0;
 430              		.loc 1 102 5 is_stmt 1
 431              		.loc 1 102 6 is_stmt 0
 432 02f8 83B70400 		ld	a5,0(s1)
 433              		.loc 1 102 27
 434 02fc 23B80708 		sd	zero,144(a5)
 103:src/thread.cpp **** 
 104:src/thread.cpp ****     (*thread)->context.s0 = 0;
 435              		.loc 1 104 5 is_stmt 1
 436              		.loc 1 104 6 is_stmt 0
 437 0300 83B70400 		ld	a5,0(s1)
 438              		.loc 1 104 27
 439 0304 23B80700 		sd	zero,16(a5)
 105:src/thread.cpp ****     (*thread)->context.s1 = 0;
 440              		.loc 1 105 5 is_stmt 1
 441              		.loc 1 105 6 is_stmt 0
 442 0308 83B70400 		ld	a5,0(s1)
 443              		.loc 1 105 27
 444 030c 23BC0700 		sd	zero,24(a5)
 106:src/thread.cpp ****     (*thread)->context.s2 = 0;
 445              		.loc 1 106 5 is_stmt 1
 446              		.loc 1 106 6 is_stmt 0
 447 0310 83B70400 		ld	a5,0(s1)
 448              		.loc 1 106 27
 449 0314 23B00702 		sd	zero,32(a5)
 107:src/thread.cpp ****     (*thread)->context.s3 = 0;
 450              		.loc 1 107 5 is_stmt 1
 451              		.loc 1 107 6 is_stmt 0
 452 0318 83B70400 		ld	a5,0(s1)
 453              		.loc 1 107 27
 454 031c 23B40702 		sd	zero,40(a5)
 108:src/thread.cpp ****     (*thread)->context.s4 = 0;
GAS LISTING /tmp/ccBmQir7.s 			page 12


 455              		.loc 1 108 5 is_stmt 1
 456              		.loc 1 108 6 is_stmt 0
 457 0320 83B70400 		ld	a5,0(s1)
 458              		.loc 1 108 27
 459 0324 23B80702 		sd	zero,48(a5)
 109:src/thread.cpp ****     (*thread)->context.s5 = 0;
 460              		.loc 1 109 5 is_stmt 1
 461              		.loc 1 109 6 is_stmt 0
 462 0328 83B70400 		ld	a5,0(s1)
 463              		.loc 1 109 27
 464 032c 23BC0702 		sd	zero,56(a5)
 110:src/thread.cpp ****     (*thread)->context.s6 = 0;
 465              		.loc 1 110 5 is_stmt 1
 466              		.loc 1 110 6 is_stmt 0
 467 0330 83B70400 		ld	a5,0(s1)
 468              		.loc 1 110 27
 469 0334 23B00704 		sd	zero,64(a5)
 111:src/thread.cpp ****     (*thread)->context.s7 = 0;
 470              		.loc 1 111 5 is_stmt 1
 471              		.loc 1 111 6 is_stmt 0
 472 0338 83B70400 		ld	a5,0(s1)
 473              		.loc 1 111 27
 474 033c 23B40704 		sd	zero,72(a5)
 112:src/thread.cpp ****     (*thread)->context.s8 = 0;
 475              		.loc 1 112 5 is_stmt 1
 476              		.loc 1 112 6 is_stmt 0
 477 0340 83B70400 		ld	a5,0(s1)
 478              		.loc 1 112 27
 479 0344 23B80704 		sd	zero,80(a5)
 113:src/thread.cpp ****     (*thread)->context.s9 = 0;
 480              		.loc 1 113 5 is_stmt 1
 481              		.loc 1 113 6 is_stmt 0
 482 0348 83B70400 		ld	a5,0(s1)
 483              		.loc 1 113 27
 484 034c 23BC0704 		sd	zero,88(a5)
 114:src/thread.cpp ****     (*thread)->context.s10 = 0;
 485              		.loc 1 114 5 is_stmt 1
 486              		.loc 1 114 6 is_stmt 0
 487 0350 83B70400 		ld	a5,0(s1)
 488              		.loc 1 114 28
 489 0354 23B00706 		sd	zero,96(a5)
 115:src/thread.cpp ****     (*thread)->context.s11 = 0;
 490              		.loc 1 115 5 is_stmt 1
 491              		.loc 1 115 6 is_stmt 0
 492 0358 83B70400 		ld	a5,0(s1)
 493              		.loc 1 115 28
 494 035c 23B40706 		sd	zero,104(a5)
 116:src/thread.cpp ****     /// register x2 is the stack pointer
 117:src/thread.cpp ****     (*thread)->context.sp = (uint64)stack;
 495              		.loc 1 117 5 is_stmt 1
 496              		.loc 1 117 6 is_stmt 0
 497 0360 83B70400 		ld	a5,0(s1)
 498              		.loc 1 117 27
 499 0364 23B43701 		sd	s3,8(a5)
 118:src/thread.cpp ****     /// register x1 is the return address
 119:src/thread.cpp ****     (*thread)->context.pc = (uint64)wrapper;
 500              		.loc 1 119 5 is_stmt 1
GAS LISTING /tmp/ccBmQir7.s 			page 13


 501              		.loc 1 119 6 is_stmt 0
 502 0368 83B70400 		ld	a5,0(s1)
 503              		.loc 1 119 27
 504 036c 17070000 		lla	a4,_ZN7_thread7wrapperEv
 504      13070700 
 505 0374 23B0E700 		sd	a4,0(a5)
 120:src/thread.cpp **** 
 121:src/thread.cpp ****     (*thread)->stackStart = stack;
 506              		.loc 1 121 5 is_stmt 1
 507              		.loc 1 121 6 is_stmt 0
 508 0378 83B70400 		ld	a5,0(s1)
 509              		.loc 1 121 27
 510 037c 23B83709 		sd	s3,144(a5)
 122:src/thread.cpp ****     if(start){
 511              		.loc 1 122 5 is_stmt 1
 512 0380 63160A02 		bnez	s4,.L16
 123:src/thread.cpp ****         Scheduler::put(*thread);
 124:src/thread.cpp ****     }
 125:src/thread.cpp ****     return 0;
 513              		.loc 1 125 12 is_stmt 0
 514 0384 13050000 		li	a0,0
 515              	.L12:
 126:src/thread.cpp **** }
 516              		.loc 1 126 1
 517 0388 83308103 		ld	ra,56(sp)
 518              		.cfi_remember_state
 519              		.cfi_restore 1
 520 038c 03340103 		ld	s0,48(sp)
 521              		.cfi_restore 8
 522              		.cfi_def_cfa 2, 64
 523 0390 83348102 		ld	s1,40(sp)
 524              		.cfi_restore 9
 525              	.LVL17:
 526 0394 03390102 		ld	s2,32(sp)
 527              		.cfi_restore 18
 528 0398 83398101 		ld	s3,24(sp)
 529              		.cfi_restore 19
 530              	.LVL18:
 531 039c 033A0101 		ld	s4,16(sp)
 532              		.cfi_restore 20
 533 03a0 833A8100 		ld	s5,8(sp)
 534              		.cfi_restore 21
 535              	.LVL19:
 536 03a4 13010104 		addi	sp,sp,64
 537              		.cfi_def_cfa_offset 0
 538 03a8 67800000 		jr	ra
 539              	.LVL20:
 540              	.L16:
 541              		.cfi_restore_state
 123:src/thread.cpp ****         Scheduler::put(*thread);
 542              		.loc 1 123 9 is_stmt 1
 123:src/thread.cpp ****         Scheduler::put(*thread);
 543              		.loc 1 123 23 is_stmt 0
 544 03ac 03B50400 		ld	a0,0(s1)
 545 03b0 97000000 		call	_ZN9Scheduler3putEP7_thread@plt
 545      E7800000 
 546              	.LVL21:
GAS LISTING /tmp/ccBmQir7.s 			page 14


 125:src/thread.cpp **** }
 547              		.loc 1 125 12
 548 03b8 13050000 		li	a0,0
 549 03bc 6FF0DFFC 		j	.L12
 550              	.LVL22:
 551              	.L13:
  88:src/thread.cpp ****     }
 552              		.loc 1 88 17
 553 03c0 1305F0FF 		li	a0,-1
 554 03c4 6FF05FFC 		j	.L12
 555              		.cfi_endproc
 556              	.LFE9:
 558              		.align	2
 559              		.globl	_ZN7_thread4joinEPS_
 561              	_ZN7_thread4joinEPS_:
 562              	.LFB10:
 127:src/thread.cpp **** 
 128:src/thread.cpp **** void _thread::join(thread_t thread){
 563              		.loc 1 128 36 is_stmt 1
 564              		.cfi_startproc
 565              	.LVL23:
 129:src/thread.cpp ****     /// cannot join to a finished or closed thread
 130:src/thread.cpp ****     if(thread->finished || thread->closed){
 566              		.loc 1 130 5
 567              		.loc 1 130 25 is_stmt 0
 568 03c8 83B78509 		ld	a5,152(a1)
 569 03cc 13079000 		li	a4,9
 570 03d0 13170702 		slli	a4,a4,32
 571 03d4 B3F7E700 		and	a5,a5,a4
 572              		.loc 1 130 5
 573 03d8 63840700 		beqz	a5,.L25
 574 03dc 67800000 		ret
 575              	.L25:
 128:src/thread.cpp ****     /// cannot join to a finished or closed thread
 576              		.loc 1 128 36
 577 03e0 130101FE 		addi	sp,sp,-32
 578              		.cfi_def_cfa_offset 32
 579 03e4 233C1100 		sd	ra,24(sp)
 580 03e8 23388100 		sd	s0,16(sp)
 581 03ec 23349100 		sd	s1,8(sp)
 582 03f0 23302101 		sd	s2,0(sp)
 583              		.cfi_offset 1, -8
 584              		.cfi_offset 8, -16
 585              		.cfi_offset 9, -24
 586              		.cfi_offset 18, -32
 587 03f4 13040102 		addi	s0,sp,32
 588              		.cfi_def_cfa 8, 0
 589 03f8 93040500 		mv	s1,a0
 590 03fc 13890500 		mv	s2,a1
 131:src/thread.cpp ****         return;
 132:src/thread.cpp ****     }
 133:src/thread.cpp ****     ThreadJoinList* newJoin = (ThreadJoinList*)mem_alloc(sizeof(ThreadJoinList));
 591              		.loc 1 133 5 is_stmt 1
 592              		.loc 1 133 57 is_stmt 0
 593 0400 13050001 		li	a0,16
 594              	.LVL24:
 595 0404 97000000 		call	_Z9mem_allocm@plt
GAS LISTING /tmp/ccBmQir7.s 			page 15


 595      E7800000 
 596              	.LVL25:
 134:src/thread.cpp ****     this->blocked = true;
 597              		.loc 1 134 5 is_stmt 1
 598              		.loc 1 134 19 is_stmt 0
 599 040c 03A7C409 		lw	a4,156(s1)
 600 0410 13672700 		ori	a4,a4,2
 601 0414 23AEE408 		sw	a4,156(s1)
 135:src/thread.cpp ****     newJoin->thread = this;
 602              		.loc 1 135 5 is_stmt 1
 603              		.loc 1 135 21 is_stmt 0
 604 0418 23009500 		sb	s1,0(a0)
 605 041c 13D78400 		srli	a4,s1,8
 606 0420 A300E500 		sb	a4,1(a0)
 607 0424 13D70401 		srli	a4,s1,16
 608 0428 2301E500 		sb	a4,2(a0)
 609 042c 1BD78401 		srliw	a4,s1,24
 610 0430 A301E500 		sb	a4,3(a0)
 611 0434 13D70402 		srli	a4,s1,32
 612 0438 2302E500 		sb	a4,4(a0)
 613 043c 13D78402 		srli	a4,s1,40
 614 0440 A302E500 		sb	a4,5(a0)
 615 0444 13D70403 		srli	a4,s1,48
 616 0448 2303E500 		sb	a4,6(a0)
 617 044c 93D48403 		srli	s1,s1,56
 618              	.LVL26:
 619 0450 A3039500 		sb	s1,7(a0)
 136:src/thread.cpp ****     newJoin->next = 0;
 620              		.loc 1 136 5 is_stmt 1
 621              		.loc 1 136 19 is_stmt 0
 622 0454 23040500 		sb	zero,8(a0)
 623 0458 A3040500 		sb	zero,9(a0)
 624 045c 23050500 		sb	zero,10(a0)
 625 0460 A3050500 		sb	zero,11(a0)
 626 0464 23060500 		sb	zero,12(a0)
 627 0468 A3060500 		sb	zero,13(a0)
 628 046c 23070500 		sb	zero,14(a0)
 629 0470 A3070500 		sb	zero,15(a0)
 137:src/thread.cpp ****     if(thread->joinHead == 0){
 630              		.loc 1 137 5 is_stmt 1
 631              		.loc 1 137 16 is_stmt 0
 632 0474 03378907 		ld	a4,120(s2)
 633              		.loc 1 137 5
 634 0478 63040706 		beqz	a4,.L26
 138:src/thread.cpp ****         thread->joinHead = newJoin;
 139:src/thread.cpp ****         thread->joinTail = newJoin;
 140:src/thread.cpp ****     }else{
 141:src/thread.cpp ****         thread->joinTail->next = newJoin;
 635              		.loc 1 141 9 is_stmt 1
 636              		.loc 1 141 17 is_stmt 0
 637 047c 03370908 		ld	a4,128(s2)
 638              		.loc 1 141 32
 639 0480 2304A700 		sb	a0,8(a4)
 640 0484 93568500 		srli	a3,a0,8
 641 0488 A304D700 		sb	a3,9(a4)
 642 048c 93560501 		srli	a3,a0,16
 643 0490 2305D700 		sb	a3,10(a4)
GAS LISTING /tmp/ccBmQir7.s 			page 16


 644 0494 9B568501 		srliw	a3,a0,24
 645 0498 A305D700 		sb	a3,11(a4)
 646 049c 93560502 		srli	a3,a0,32
 647 04a0 2306D700 		sb	a3,12(a4)
 648 04a4 93568502 		srli	a3,a0,40
 649 04a8 A306D700 		sb	a3,13(a4)
 650 04ac 93560503 		srli	a3,a0,48
 651 04b0 2307D700 		sb	a3,14(a4)
 652 04b4 93568503 		srli	a3,a0,56
 653 04b8 A307D700 		sb	a3,15(a4)
 142:src/thread.cpp ****         thread->joinTail = newJoin;
 654              		.loc 1 142 9 is_stmt 1
 655              		.loc 1 142 26 is_stmt 0
 656 04bc 2330A908 		sd	a0,128(s2)
 657              	.L20:
 143:src/thread.cpp ****     }
 144:src/thread.cpp ****     // Scheduler::remove(this);
 145:src/thread.cpp ****     thread_dispatch();
 658              		.loc 1 145 5 is_stmt 1
 659              		.loc 1 145 20 is_stmt 0
 660 04c0 97000000 		call	_Z15thread_dispatchv@plt
 660      E7800000 
 661              	.LVL27:
 146:src/thread.cpp **** }
 662              		.loc 1 146 1
 663 04c8 83308101 		ld	ra,24(sp)
 664              		.cfi_remember_state
 665              		.cfi_restore 1
 666 04cc 03340101 		ld	s0,16(sp)
 667              		.cfi_restore 8
 668              		.cfi_def_cfa 2, 32
 669 04d0 83348100 		ld	s1,8(sp)
 670              		.cfi_restore 9
 671 04d4 03390100 		ld	s2,0(sp)
 672              		.cfi_restore 18
 673              	.LVL28:
 674 04d8 13010102 		addi	sp,sp,32
 675              		.cfi_def_cfa_offset 0
 676 04dc 67800000 		jr	ra
 677              	.LVL29:
 678              	.L26:
 679              		.cfi_restore_state
 138:src/thread.cpp ****         thread->joinTail = newJoin;
 680              		.loc 1 138 9 is_stmt 1
 138:src/thread.cpp ****         thread->joinTail = newJoin;
 681              		.loc 1 138 26 is_stmt 0
 682 04e0 233CA906 		sd	a0,120(s2)
 139:src/thread.cpp ****     }else{
 683              		.loc 1 139 9 is_stmt 1
 139:src/thread.cpp ****     }else{
 684              		.loc 1 139 26 is_stmt 0
 685 04e4 2330A908 		sd	a0,128(s2)
 686 04e8 6FF09FFD 		j	.L20
 687              		.cfi_endproc
 688              	.LFE10:
 690              		.align	2
 691              		.globl	_ZN7_thread4tickEv
GAS LISTING /tmp/ccBmQir7.s 			page 17


 693              	_ZN7_thread4tickEv:
 694              	.LFB11:
 147:src/thread.cpp **** 
 148:src/thread.cpp **** int _thread::tick(){
 695              		.loc 1 148 20 is_stmt 1
 696              		.cfi_startproc
 697              	.LVL30:
 149:src/thread.cpp ****     if(currentThread->blocked){
 698              		.loc 1 149 5
 699              		.loc 1 149 30 is_stmt 0
 700 04ec 97070000 		ld	a5,.LANCHOR0+8
 700      83B70700 
 701 04f4 83A7C709 		lw	a5,156(a5)
 702 04f8 13F72700 		andi	a4,a5,2
 703              		.loc 1 149 5
 704 04fc 63100706 		bnez	a4,.L29
 150:src/thread.cpp ****         return -1;
 151:src/thread.cpp ****     }
 152:src/thread.cpp ****     if(currentThread->closed){
 705              		.loc 1 152 5 is_stmt 1
 706              		.loc 1 152 29 is_stmt 0
 707 0500 13F71700 		andi	a4,a5,1
 708              		.loc 1 152 5
 709 0504 63100706 		bnez	a4,.L30
 153:src/thread.cpp ****         return -2;
 154:src/thread.cpp ****     }
 155:src/thread.cpp ****     if(currentThread->sleeping){
 710              		.loc 1 155 5 is_stmt 1
 711              		.loc 1 155 31 is_stmt 0
 712 0508 13F74700 		andi	a4,a5,4
 713              		.loc 1 155 5
 714 050c 63100706 		bnez	a4,.L31
 156:src/thread.cpp ****         return -3;
 157:src/thread.cpp ****     }
 158:src/thread.cpp ****     if(currentThread->finished){
 715              		.loc 1 158 5 is_stmt 1
 716              		.loc 1 158 31 is_stmt 0
 717 0510 93F78700 		andi	a5,a5,8
 718              		.loc 1 158 5
 719 0514 63900706 		bnez	a5,.L32
 159:src/thread.cpp ****         return -4;
 160:src/thread.cpp ****     }
 161:src/thread.cpp ****     timeLeft --;
 720              		.loc 1 161 5 is_stmt 1
 721 0518 83378508 		ld	a5,136(a0)
 722              		.loc 1 161 14 is_stmt 0
 723 051c 9387F7FF 		addi	a5,a5,-1
 724 0520 2334F508 		sd	a5,136(a0)
 162:src/thread.cpp ****     if(timeLeft == 0){
 725              		.loc 1 162 5 is_stmt 1
 726 0524 63860700 		beqz	a5,.L38
 163:src/thread.cpp ****         // __putc('e');
 164:src/thread.cpp ****         // __putc('n');
 165:src/thread.cpp ****         // __putc('d');
 166:src/thread.cpp ****         // __putc('0' + currentThread->ID);
 167:src/thread.cpp ****         // __putc('\n');
 168:src/thread.cpp ****         thread_dispatch();
GAS LISTING /tmp/ccBmQir7.s 			page 18


 169:src/thread.cpp ****     }
 170:src/thread.cpp ****     return 0;
 727              		.loc 1 170 12 is_stmt 0
 728 0528 13050000 		li	a0,0
 729              	.LVL31:
 171:src/thread.cpp **** }
 730              		.loc 1 171 1
 731 052c 67800000 		ret
 732              	.LVL32:
 733              	.L38:
 148:src/thread.cpp ****     if(currentThread->blocked){
 734              		.loc 1 148 20
 735 0530 130101FF 		addi	sp,sp,-16
 736              		.cfi_def_cfa_offset 16
 737 0534 23341100 		sd	ra,8(sp)
 738 0538 23308100 		sd	s0,0(sp)
 739              		.cfi_offset 1, -8
 740              		.cfi_offset 8, -16
 741 053c 13040101 		addi	s0,sp,16
 742              		.cfi_def_cfa 8, 0
 168:src/thread.cpp ****     }
 743              		.loc 1 168 9 is_stmt 1
 168:src/thread.cpp ****     }
 744              		.loc 1 168 24 is_stmt 0
 745 0540 97000000 		call	_Z15thread_dispatchv@plt
 745      E7800000 
 746              	.LVL33:
 170:src/thread.cpp **** }
 747              		.loc 1 170 12
 748 0548 13050000 		li	a0,0
 749              		.loc 1 171 1
 750 054c 83308100 		ld	ra,8(sp)
 751              		.cfi_restore 1
 752 0550 03340100 		ld	s0,0(sp)
 753              		.cfi_restore 8
 754              		.cfi_def_cfa 2, 16
 755 0554 13010101 		addi	sp,sp,16
 756              		.cfi_def_cfa_offset 0
 757 0558 67800000 		jr	ra
 758              	.LVL34:
 759              	.L29:
 150:src/thread.cpp ****     }
 760              		.loc 1 150 17
 761 055c 1305F0FF 		li	a0,-1
 762              	.LVL35:
 763 0560 67800000 		ret
 764              	.LVL36:
 765              	.L30:
 153:src/thread.cpp ****     }
 766              		.loc 1 153 17
 767 0564 1305E0FF 		li	a0,-2
 768              	.LVL37:
 769 0568 67800000 		ret
 770              	.LVL38:
 771              	.L31:
 156:src/thread.cpp ****     }
 772              		.loc 1 156 17
GAS LISTING /tmp/ccBmQir7.s 			page 19


 773 056c 1305D0FF 		li	a0,-3
 774              	.LVL39:
 775 0570 67800000 		ret
 776              	.LVL40:
 777              	.L32:
 159:src/thread.cpp ****     }
 778              		.loc 1 159 17
 779 0574 1305C0FF 		li	a0,-4
 780              	.LVL41:
 781 0578 67800000 		ret
 782              		.cfi_endproc
 783              	.LFE11:
 785              		.align	2
 786              		.globl	_ZN7_thread4exitEv
 788              	_ZN7_thread4exitEv:
 789              	.LFB12:
 172:src/thread.cpp **** 
 173:src/thread.cpp **** int _thread::exit(){
 790              		.loc 1 173 20 is_stmt 1
 791              		.cfi_startproc
 174:src/thread.cpp ****     if(currentThread->closed){
 792              		.loc 1 174 5
 793              		.loc 1 174 29 is_stmt 0
 794 057c 17070000 		ld	a4,.LANCHOR0+8
 794      03370700 
 795 0584 8327C709 		lw	a5,156(a4)
 796 0588 93F61700 		andi	a3,a5,1
 797              		.loc 1 174 5
 798 058c 63960604 		bnez	a3,.L41
 175:src/thread.cpp ****         return -1;
 176:src/thread.cpp ****     }
 177:src/thread.cpp ****     if(currentThread->blocked){
 799              		.loc 1 177 5 is_stmt 1
 800              		.loc 1 177 30 is_stmt 0
 801 0590 93F62700 		andi	a3,a5,2
 802              		.loc 1 177 5
 803 0594 63960604 		bnez	a3,.L42
 178:src/thread.cpp ****         return -2;
 179:src/thread.cpp ****     }
 180:src/thread.cpp ****     if(currentThread->sleeping){
 804              		.loc 1 180 5 is_stmt 1
 805              		.loc 1 180 31 is_stmt 0
 806 0598 93F74700 		andi	a5,a5,4
 807              		.loc 1 180 5
 808 059c 63960704 		bnez	a5,.L43
 173:src/thread.cpp ****     if(currentThread->closed){
 809              		.loc 1 173 20
 810 05a0 130101FF 		addi	sp,sp,-16
 811              		.cfi_def_cfa_offset 16
 812 05a4 23341100 		sd	ra,8(sp)
 813 05a8 23308100 		sd	s0,0(sp)
 814              		.cfi_offset 1, -8
 815              		.cfi_offset 8, -16
 816 05ac 13040101 		addi	s0,sp,16
 817              		.cfi_def_cfa 8, 0
 181:src/thread.cpp ****         return -3;
 182:src/thread.cpp ****     }
GAS LISTING /tmp/ccBmQir7.s 			page 20


 183:src/thread.cpp ****     currentThread->finished = 1;
 818              		.loc 1 183 5 is_stmt 1
 819              		.loc 1 183 29 is_stmt 0
 820 05b0 8327C709 		lw	a5,156(a4)
 821 05b4 93E78700 		ori	a5,a5,8
 822 05b8 232EF708 		sw	a5,156(a4)
 184:src/thread.cpp ****     thread_dispatch();
 823              		.loc 1 184 5 is_stmt 1
 824              		.loc 1 184 20 is_stmt 0
 825 05bc 97000000 		call	_Z15thread_dispatchv@plt
 825      E7800000 
 826              	.LVL42:
 185:src/thread.cpp ****     return 0;
 827              		.loc 1 185 5 is_stmt 1
 828              		.loc 1 185 12 is_stmt 0
 829 05c4 13050000 		li	a0,0
 186:src/thread.cpp **** }
 830              		.loc 1 186 1
 831 05c8 83308100 		ld	ra,8(sp)
 832              		.cfi_restore 1
 833 05cc 03340100 		ld	s0,0(sp)
 834              		.cfi_restore 8
 835              		.cfi_def_cfa 2, 16
 836 05d0 13010101 		addi	sp,sp,16
 837              		.cfi_def_cfa_offset 0
 838 05d4 67800000 		jr	ra
 839              	.L41:
 175:src/thread.cpp ****     }
 840              		.loc 1 175 17
 841 05d8 1305F0FF 		li	a0,-1
 842 05dc 67800000 		ret
 843              	.L42:
 178:src/thread.cpp ****     }
 844              		.loc 1 178 17
 845 05e0 1305E0FF 		li	a0,-2
 846 05e4 67800000 		ret
 847              	.L43:
 181:src/thread.cpp ****     }
 848              		.loc 1 181 17
 849 05e8 1305D0FF 		li	a0,-3
 850              		.loc 1 186 1
 851 05ec 67800000 		ret
 852              		.cfi_endproc
 853              	.LFE12:
 855              		.align	2
 856              		.globl	_ZN7_thread7wrapperEv
 858              	_ZN7_thread7wrapperEv:
 859              	.LFB7:
  65:src/thread.cpp ****     popSppSpie(currentThread->kernel);
 860              		.loc 1 65 24 is_stmt 1
 861              		.cfi_startproc
 862 05f0 130101FE 		addi	sp,sp,-32
 863              		.cfi_def_cfa_offset 32
 864 05f4 233C1100 		sd	ra,24(sp)
 865 05f8 23388100 		sd	s0,16(sp)
 866 05fc 23349100 		sd	s1,8(sp)
 867              		.cfi_offset 1, -8
GAS LISTING /tmp/ccBmQir7.s 			page 21


 868              		.cfi_offset 8, -16
 869              		.cfi_offset 9, -24
 870 0600 13040102 		addi	s0,sp,32
 871              		.cfi_def_cfa 8, 0
  66:src/thread.cpp ****     currentThread->function(currentThread->arg);
 872              		.loc 1 66 5
  66:src/thread.cpp ****     currentThread->function(currentThread->arg);
 873              		.loc 1 66 37 is_stmt 0
 874 0604 97040000 		lla	s1,.LANCHOR0
 874      93840400 
 875 060c 83B78400 		ld	a5,8(s1)
 876 0610 03A5C709 		lw	a0,156(a5)
  66:src/thread.cpp ****     currentThread->function(currentThread->arg);
 877              		.loc 1 66 15
 878 0614 1B554540 		sraiw	a0,a0,4
 879 0618 13751500 		andi	a0,a0,1
 880 061c 97000000 		call	_Z10popSppSpieb
 880      E7800000 
 881              	.LVL43:
  67:src/thread.cpp ****     currentThread->unJoin();
 882              		.loc 1 67 5 is_stmt 1
  67:src/thread.cpp ****     currentThread->unJoin();
 883              		.loc 1 67 20 is_stmt 0
 884 0624 83B78400 		ld	a5,8(s1)
 885 0628 03B7870A 		ld	a4,168(a5)
  67:src/thread.cpp ****     currentThread->unJoin();
 886              		.loc 1 67 28
 887 062c 03B5070B 		ld	a0,176(a5)
 888 0630 E7000700 		jalr	a4
 889              	.LVL44:
  68:src/thread.cpp ****     exit();
 890              		.loc 1 68 5 is_stmt 1
  68:src/thread.cpp ****     exit();
 891              		.loc 1 68 26 is_stmt 0
 892 0634 03B58400 		ld	a0,8(s1)
 893 0638 97000000 		call	_ZN7_thread6unJoinEv
 893      E7800000 
 894              	.LVL45:
  69:src/thread.cpp **** }
 895              		.loc 1 69 5 is_stmt 1
  69:src/thread.cpp **** }
 896              		.loc 1 69 9 is_stmt 0
 897 0640 97000000 		call	_ZN7_thread4exitEv
 897      E7800000 
 898              	.LVL46:
  70:src/thread.cpp **** 
 899              		.loc 1 70 1
 900 0648 83308101 		ld	ra,24(sp)
 901              		.cfi_restore 1
 902 064c 03340101 		ld	s0,16(sp)
 903              		.cfi_restore 8
 904              		.cfi_def_cfa 2, 32
 905 0650 83348100 		ld	s1,8(sp)
 906              		.cfi_restore 9
 907 0654 13010102 		addi	sp,sp,32
 908              		.cfi_def_cfa_offset 0
 909 0658 67800000 		jr	ra
GAS LISTING /tmp/ccBmQir7.s 			page 22


 910              		.cfi_endproc
 911              	.LFE7:
 913              		.align	2
 914              		.globl	_ZN7_thread10setBlockedEb
 916              	_ZN7_thread10setBlockedEb:
 917              	.LFB13:
 187:src/thread.cpp **** 
 188:src/thread.cpp **** void _thread::setBlocked(bool blocked){
 918              		.loc 1 188 39 is_stmt 1
 919              		.cfi_startproc
 920              	.LVL47:
 921 065c 130101FF 		addi	sp,sp,-16
 922              		.cfi_def_cfa_offset 16
 923 0660 23348100 		sd	s0,8(sp)
 924              		.cfi_offset 8, -8
 925 0664 13040101 		addi	s0,sp,16
 926              		.cfi_def_cfa 8, 0
 189:src/thread.cpp ****     this->blocked = blocked;
 927              		.loc 1 189 5
 928              		.loc 1 189 19 is_stmt 0
 929 0668 93F51500 		andi	a1,a1,1
 930              	.LVL48:
 931 066c 9B971500 		slliw	a5,a1,1
 932 0670 8325C509 		lw	a1,156(a0)
 933 0674 93F5D5FF 		andi	a1,a1,-3
 934 0678 B3E5F500 		or	a1,a1,a5
 935 067c 232EB508 		sw	a1,156(a0)
 190:src/thread.cpp **** }
 936              		.loc 1 190 1
 937 0680 03348100 		ld	s0,8(sp)
 938              		.cfi_restore 8
 939              		.cfi_def_cfa 2, 16
 940 0684 13010101 		addi	sp,sp,16
 941              		.cfi_def_cfa_offset 0
 942 0688 67800000 		jr	ra
 943              		.cfi_endproc
 944              	.LFE13:
 946              		.align	2
 947              		.globl	_ZN7_thread9setClosedEb
 949              	_ZN7_thread9setClosedEb:
 950              	.LFB14:
 191:src/thread.cpp **** 
 192:src/thread.cpp **** void _thread::setClosed(bool closed){
 951              		.loc 1 192 37 is_stmt 1
 952              		.cfi_startproc
 953              	.LVL49:
 954 068c 130101FF 		addi	sp,sp,-16
 955              		.cfi_def_cfa_offset 16
 956 0690 23348100 		sd	s0,8(sp)
 957              		.cfi_offset 8, -8
 958 0694 13040101 		addi	s0,sp,16
 959              		.cfi_def_cfa 8, 0
 193:src/thread.cpp ****     this->closed = closed;
 960              		.loc 1 193 5
 961              		.loc 1 193 18 is_stmt 0
 962 0698 93F71500 		andi	a5,a1,1
 963 069c 8325C509 		lw	a1,156(a0)
GAS LISTING /tmp/ccBmQir7.s 			page 23


 964              	.LVL50:
 965 06a0 93F5E5FF 		andi	a1,a1,-2
 966 06a4 B3E5F500 		or	a1,a1,a5
 967 06a8 232EB508 		sw	a1,156(a0)
 194:src/thread.cpp **** }
 968              		.loc 1 194 1
 969 06ac 03348100 		ld	s0,8(sp)
 970              		.cfi_restore 8
 971              		.cfi_def_cfa 2, 16
 972 06b0 13010101 		addi	sp,sp,16
 973              		.cfi_def_cfa_offset 0
 974 06b4 67800000 		jr	ra
 975              		.cfi_endproc
 976              	.LFE14:
 978              		.align	2
 979              		.globl	_ZN7_thread11setSleepingEb
 981              	_ZN7_thread11setSleepingEb:
 982              	.LFB15:
 195:src/thread.cpp **** 
 196:src/thread.cpp **** void _thread::setSleeping(bool sleeping){
 983              		.loc 1 196 41 is_stmt 1
 984              		.cfi_startproc
 985              	.LVL51:
 986 06b8 130101FF 		addi	sp,sp,-16
 987              		.cfi_def_cfa_offset 16
 988 06bc 23348100 		sd	s0,8(sp)
 989              		.cfi_offset 8, -8
 990 06c0 13040101 		addi	s0,sp,16
 991              		.cfi_def_cfa 8, 0
 197:src/thread.cpp ****     this->sleeping = sleeping;
 992              		.loc 1 197 5
 993              		.loc 1 197 20 is_stmt 0
 994 06c4 93F51500 		andi	a1,a1,1
 995              	.LVL52:
 996 06c8 9B972500 		slliw	a5,a1,2
 997 06cc 8325C509 		lw	a1,156(a0)
 998 06d0 93F5B5FF 		andi	a1,a1,-5
 999 06d4 B3E5F500 		or	a1,a1,a5
 1000 06d8 232EB508 		sw	a1,156(a0)
 198:src/thread.cpp **** }
 1001              		.loc 1 198 1
 1002 06dc 03348100 		ld	s0,8(sp)
 1003              		.cfi_restore 8
 1004              		.cfi_def_cfa 2, 16
 1005 06e0 13010101 		addi	sp,sp,16
 1006              		.cfi_def_cfa_offset 0
 1007 06e4 67800000 		jr	ra
 1008              		.cfi_endproc
 1009              	.LFE15:
 1011              		.align	2
 1012              		.globl	_ZN7_thread13contextSwitchEPNS_14contextWrapperES1_
 1014              	_ZN7_thread13contextSwitchEPNS_14contextWrapperES1_:
 1015              	.LFB17:
 199:src/thread.cpp **** 
 200:src/thread.cpp **** void _thread::dispatch(){
 201:src/thread.cpp ****     thread_t oldThread = currentThread;
 202:src/thread.cpp ****     currentThread =  Scheduler::get();
GAS LISTING /tmp/ccBmQir7.s 			page 24


 203:src/thread.cpp ****     oldThread->timeLeft = DEFAULT_TIME_SLICE;
 204:src/thread.cpp ****     if(currentThread == nullptr){
 205:src/thread.cpp ****         currentThread = oldThread;
 206:src/thread.cpp ****         return;
 207:src/thread.cpp ****     }
 208:src/thread.cpp ****     
 209:src/thread.cpp ****     if(oldThread != 0 && !oldThread->closed && !oldThread->blocked && !oldThread->sleeping && !oldT
 210:src/thread.cpp ****         Scheduler::put(oldThread);
 211:src/thread.cpp ****     }
 212:src/thread.cpp ****     // while(newThread != 0 && (newThread->closed || newThread->blocked || newThread->sleeping || n
 213:src/thread.cpp ****     //     newThread = Scheduler::get();
 214:src/thread.cpp ****     // }
 215:src/thread.cpp ****     // if(newThread == 0){
 216:src/thread.cpp ****     //     return;
 217:src/thread.cpp ****     // }
 218:src/thread.cpp ****     // __putc('d');
 219:src/thread.cpp ****     // if(oldThread != 0){
 220:src/thread.cpp ****     //     __putc('0' + oldThread->ID);
 221:src/thread.cpp ****     // }
 222:src/thread.cpp ****     // __putc('0' + currentThread->ID);
 223:src/thread.cpp ****     // __putc('\n');
 224:src/thread.cpp ****     contextSwitch(oldThread == 0?0:&(oldThread->context), &(currentThread->context));
 225:src/thread.cpp ****     // __putc('.');
 226:src/thread.cpp **** }
 227:src/thread.cpp **** 
 228:src/thread.cpp **** void _thread::contextSwitch(contextWrapper *oldContext, contextWrapper *newContext){
 1016              		.loc 1 228 84 is_stmt 1
 1017              		.cfi_startproc
 1018              	.LVL53:
 1019 06e8 130101FF 		addi	sp,sp,-16
 1020              		.cfi_def_cfa_offset 16
 1021 06ec 23348100 		sd	s0,8(sp)
 1022              		.cfi_offset 8, -8
 1023 06f0 13040101 		addi	s0,sp,16
 1024              		.cfi_def_cfa 8, 0
 229:src/thread.cpp **** 
 230:src/thread.cpp **** 
 231:src/thread.cpp ****     if(oldContext != 0){
 1025              		.loc 1 231 5
 1026 06f4 63020504 		beqz	a0,.L57
 232:src/thread.cpp ****         // oldContext->pc = pc;
 233:src/thread.cpp ****         __asm__ volatile ("sd ra, 0 * 8(a0)");
 1027              		.loc 1 233 9
 1028              		.loc 1 233 46 is_stmt 0
 1029              	#APP
 1030              	# 233 "src/thread.cpp" 1
 234              	        __asm__ volatile ("sd sp, 1 * 8(a0)");
 1031              		sd ra, 0 * 8(a0)
 1032              	# 0 "" 2
 1033              		.loc 1 234 9 is_stmt 1
 1034              		.loc 1 234 46 is_stmt 0
 1035              	# 234 "src/thread.cpp" 1
 235              	
 236:src/thread.cpp ****         __asm__ volatile ("sd s0, 2 * 8(a0)");
 1036              		sd sp, 1 * 8(a0)
 1037              	# 0 "" 2
 1038              		.loc 1 236 9 is_stmt 1
GAS LISTING /tmp/ccBmQir7.s 			page 25


 1039              		.loc 1 236 46 is_stmt 0
 1040              	# 236 "src/thread.cpp" 1
 237              	        __asm__ volatile ("sd s1, 3 * 8(a0)");
 1041              		sd s0, 2 * 8(a0)
 1042              	# 0 "" 2
 1043              		.loc 1 237 9 is_stmt 1
 1044              		.loc 1 237 46 is_stmt 0
 1045              	# 237 "src/thread.cpp" 1
 238              	        __asm__ volatile ("sd s2, 4 * 8(a0)");
 1046              		sd s1, 3 * 8(a0)
 1047              	# 0 "" 2
 1048              		.loc 1 238 9 is_stmt 1
 1049              		.loc 1 238 46 is_stmt 0
 1050              	# 238 "src/thread.cpp" 1
 239              	        __asm__ volatile ("sd s3, 5 * 8(a0)");
 1051              		sd s2, 4 * 8(a0)
 1052              	# 0 "" 2
 1053              		.loc 1 239 9 is_stmt 1
 1054              		.loc 1 239 46 is_stmt 0
 1055              	# 239 "src/thread.cpp" 1
 240              	        __asm__ volatile ("sd s4, 6 * 8(a0)");
 1056              		sd s3, 5 * 8(a0)
 1057              	# 0 "" 2
 1058              		.loc 1 240 9 is_stmt 1
 1059              		.loc 1 240 46 is_stmt 0
 1060              	# 240 "src/thread.cpp" 1
 241              	        __asm__ volatile ("sd s5, 7 * 8(a0)");
 1061              		sd s4, 6 * 8(a0)
 1062              	# 0 "" 2
 1063              		.loc 1 241 9 is_stmt 1
 1064              		.loc 1 241 46 is_stmt 0
 1065              	# 241 "src/thread.cpp" 1
 242              	        __asm__ volatile ("sd s6, 8 * 8(a0)");
 1066              		sd s5, 7 * 8(a0)
 1067              	# 0 "" 2
 1068              		.loc 1 242 9 is_stmt 1
 1069              		.loc 1 242 46 is_stmt 0
 1070              	# 242 "src/thread.cpp" 1
 243              	        __asm__ volatile ("sd s7, 9 * 8(a0)");
 1071              		sd s6, 8 * 8(a0)
 1072              	# 0 "" 2
 1073              		.loc 1 243 9 is_stmt 1
 1074              		.loc 1 243 46 is_stmt 0
 1075              	# 243 "src/thread.cpp" 1
 244              	        __asm__ volatile ("sd s8, 10 * 8(a0)");
 1076              		sd s7, 9 * 8(a0)
 1077              	# 0 "" 2
 1078              		.loc 1 244 9 is_stmt 1
 1079              		.loc 1 244 47 is_stmt 0
 1080              	# 244 "src/thread.cpp" 1
 245              	        __asm__ volatile ("sd s9, 11 * 8(a0)");
 1081              		sd s8, 10 * 8(a0)
 1082              	# 0 "" 2
 1083              		.loc 1 245 9 is_stmt 1
 1084              		.loc 1 245 47 is_stmt 0
 1085              	# 245 "src/thread.cpp" 1
 246              	        __asm__ volatile ("sd s10, 12 * 8(a0)");
GAS LISTING /tmp/ccBmQir7.s 			page 26


 1086              		sd s9, 11 * 8(a0)
 1087              	# 0 "" 2
 1088              		.loc 1 246 9 is_stmt 1
 1089              		.loc 1 246 48 is_stmt 0
 1090              	# 246 "src/thread.cpp" 1
 247              	        __asm__ volatile ("sd s11, 13 * 8(a0)");
 1091              		sd s10, 12 * 8(a0)
 1092              	# 0 "" 2
 1093              		.loc 1 247 9 is_stmt 1
 1094              		.loc 1 247 48 is_stmt 0
 1095              	# 247 "src/thread.cpp" 1
 248              	        
 249:src/thread.cpp ****         __asm__ volatile("csrr s0, sstatus");
 1096              		sd s11, 13 * 8(a0)
 1097              	# 0 "" 2
 1098              		.loc 1 249 9 is_stmt 1
 1099              		.loc 1 249 45 is_stmt 0
 1100              	# 249 "src/thread.cpp" 1
 250              	        __asm__ volatile ("sd s0, 14 * 8(a0)");
 1101              		csrr s0, sstatus
 1102              	# 0 "" 2
 1103              		.loc 1 250 9 is_stmt 1
 1104              		.loc 1 250 47 is_stmt 0
 1105              	# 250 "src/thread.cpp" 1
 251              	    }
 1106              		sd s0, 14 * 8(a0)
 1107              	# 0 "" 2
 1108              	#NO_APP
 1109              	.L57:
 252:src/thread.cpp ****     
 253:src/thread.cpp ****     // uint64 ra = newContext->pc;
 254:src/thread.cpp ****     // __putc('\n');
 255:src/thread.cpp ****     // for(int i = 15; i >= 0 ; i --){
 256:src/thread.cpp ****     //     int digit = (ra >> (i * 4)) & 0xf;
 257:src/thread.cpp ****     //     if(digit < 10){
 258:src/thread.cpp ****     //         __putc('0' + digit);
 259:src/thread.cpp ****     //     }else{
 260:src/thread.cpp ****     //         __putc('a' + digit - 10);
 261:src/thread.cpp ****     //     }
 262:src/thread.cpp ****     // }
 263:src/thread.cpp ****     // __putc('\n');
 264:src/thread.cpp ****     
 265:src/thread.cpp ****     if(newContext->sp != 0){
 1110              		.loc 1 265 5 is_stmt 1
 1111              		.loc 1 265 20 is_stmt 0
 1112 0738 83B78500 		ld	a5,8(a1)
 1113              		.loc 1 265 5
 1114 073c 63840700 		beqz	a5,.L58
 266:src/thread.cpp ****         __asm__ volatile ("ld sp, 8(a1)");
 1115              		.loc 1 266 9 is_stmt 1
 1116              		.loc 1 266 42 is_stmt 0
 1117              	#APP
 1118              	# 266 "src/thread.cpp" 1
 267              	    }
 1119              		ld sp, 8(a1)
 1120              	# 0 "" 2
 1121              	#NO_APP
GAS LISTING /tmp/ccBmQir7.s 			page 27


 1122              	.L58:
 268:src/thread.cpp ****     __asm__ volatile ("ld ra, 0(a1)");
 1123              		.loc 1 268 5 is_stmt 1
 1124              		.loc 1 268 38 is_stmt 0
 1125              	#APP
 1126              	# 268 "src/thread.cpp" 1
 269              	
 270:src/thread.cpp ****     __asm__ volatile ("ld s0, 14 * 8(a0)");
 1127              		ld ra, 0(a1)
 1128              	# 0 "" 2
 1129              		.loc 1 270 5 is_stmt 1
 1130              		.loc 1 270 43 is_stmt 0
 1131              	# 270 "src/thread.cpp" 1
 271              	    __asm__ volatile("csrw sstatus, s0");
 1132              		ld s0, 14 * 8(a0)
 1133              	# 0 "" 2
 1134              		.loc 1 271 5 is_stmt 1
 1135              		.loc 1 271 41 is_stmt 0
 1136              	# 271 "src/thread.cpp" 1
 272              	
 273:src/thread.cpp ****     __asm__ volatile ("ld s0, 2 * 8(a1)");
 1137              		csrw sstatus, s0
 1138              	# 0 "" 2
 1139              		.loc 1 273 5 is_stmt 1
 1140              		.loc 1 273 42 is_stmt 0
 1141              	# 273 "src/thread.cpp" 1
 274              	    __asm__ volatile ("ld s1, 3 * 8(a1)");
 1142              		ld s0, 2 * 8(a1)
 1143              	# 0 "" 2
 1144              		.loc 1 274 5 is_stmt 1
 1145              		.loc 1 274 42 is_stmt 0
 1146              	# 274 "src/thread.cpp" 1
 275              	    __asm__ volatile ("ld s2, 4 * 8(a1)");
 1147              		ld s1, 3 * 8(a1)
 1148              	# 0 "" 2
 1149              		.loc 1 275 5 is_stmt 1
 1150              		.loc 1 275 42 is_stmt 0
 1151              	# 275 "src/thread.cpp" 1
 276              	    __asm__ volatile ("ld s3, 5 * 8(a1)");
 1152              		ld s2, 4 * 8(a1)
 1153              	# 0 "" 2
 1154              		.loc 1 276 5 is_stmt 1
 1155              		.loc 1 276 42 is_stmt 0
 1156              	# 276 "src/thread.cpp" 1
 277              	    __asm__ volatile ("ld s4, 6 * 8(a1)");
 1157              		ld s3, 5 * 8(a1)
 1158              	# 0 "" 2
 1159              		.loc 1 277 5 is_stmt 1
 1160              		.loc 1 277 42 is_stmt 0
 1161              	# 277 "src/thread.cpp" 1
 278              	    __asm__ volatile ("ld s5, 7 * 8(a1)");
 1162              		ld s4, 6 * 8(a1)
 1163              	# 0 "" 2
 1164              		.loc 1 278 5 is_stmt 1
 1165              		.loc 1 278 42 is_stmt 0
 1166              	# 278 "src/thread.cpp" 1
 279              	    __asm__ volatile ("ld s6, 8 * 8(a1)");
GAS LISTING /tmp/ccBmQir7.s 			page 28


 1167              		ld s5, 7 * 8(a1)
 1168              	# 0 "" 2
 1169              		.loc 1 279 5 is_stmt 1
 1170              		.loc 1 279 42 is_stmt 0
 1171              	# 279 "src/thread.cpp" 1
 280              	    __asm__ volatile ("ld s7, 9 * 8(a1)");
 1172              		ld s6, 8 * 8(a1)
 1173              	# 0 "" 2
 1174              		.loc 1 280 5 is_stmt 1
 1175              		.loc 1 280 42 is_stmt 0
 1176              	# 280 "src/thread.cpp" 1
 281              	    __asm__ volatile ("ld s8, 10 * 8(a1)");
 1177              		ld s7, 9 * 8(a1)
 1178              	# 0 "" 2
 1179              		.loc 1 281 5 is_stmt 1
 1180              		.loc 1 281 43 is_stmt 0
 1181              	# 281 "src/thread.cpp" 1
 282              	    __asm__ volatile ("ld s9, 11 * 8(a1)");
 1182              		ld s8, 10 * 8(a1)
 1183              	# 0 "" 2
 1184              		.loc 1 282 5 is_stmt 1
 1185              		.loc 1 282 43 is_stmt 0
 1186              	# 282 "src/thread.cpp" 1
 283              	    __asm__ volatile ("ld s10, 12 * 8(a1)");
 1187              		ld s9, 11 * 8(a1)
 1188              	# 0 "" 2
 1189              		.loc 1 283 5 is_stmt 1
 1190              		.loc 1 283 44 is_stmt 0
 1191              	# 283 "src/thread.cpp" 1
 284              	    __asm__ volatile ("ld s11, 13 * 8(a1)");
 1192              		ld s10, 12 * 8(a1)
 1193              	# 0 "" 2
 1194              		.loc 1 284 5 is_stmt 1
 1195              		.loc 1 284 44 is_stmt 0
 1196              	# 284 "src/thread.cpp" 1
 285              	
 286:src/thread.cpp ****     return;
 1197              		ld s11, 13 * 8(a1)
 1198              	# 0 "" 2
 1199              		.loc 1 286 5 is_stmt 1
 287:src/thread.cpp **** 
 288:src/thread.cpp **** }
 1200              		.loc 1 288 1 is_stmt 0
 1201              	#NO_APP
 1202 0780 03348100 		ld	s0,8(sp)
 1203              		.cfi_restore 8
 1204              		.cfi_def_cfa 2, 16
 1205 0784 13010101 		addi	sp,sp,16
 1206              		.cfi_def_cfa_offset 0
 1207 0788 67800000 		jr	ra
 1208              		.cfi_endproc
 1209              	.LFE17:
 1211              		.align	2
 1212              		.globl	_ZN7_thread8dispatchEv
 1214              	_ZN7_thread8dispatchEv:
 1215              	.LFB16:
 200:src/thread.cpp ****     thread_t oldThread = currentThread;
GAS LISTING /tmp/ccBmQir7.s 			page 29


 1216              		.loc 1 200 25 is_stmt 1
 1217              		.cfi_startproc
 1218 078c 130101FE 		addi	sp,sp,-32
 1219              		.cfi_def_cfa_offset 32
 1220 0790 233C1100 		sd	ra,24(sp)
 1221 0794 23388100 		sd	s0,16(sp)
 1222 0798 23349100 		sd	s1,8(sp)
 1223 079c 23302101 		sd	s2,0(sp)
 1224              		.cfi_offset 1, -8
 1225              		.cfi_offset 8, -16
 1226              		.cfi_offset 9, -24
 1227              		.cfi_offset 18, -32
 1228 07a0 13040102 		addi	s0,sp,32
 1229              		.cfi_def_cfa 8, 0
 201:src/thread.cpp ****     currentThread =  Scheduler::get();
 1230              		.loc 1 201 5
 201:src/thread.cpp ****     currentThread =  Scheduler::get();
 1231              		.loc 1 201 14 is_stmt 0
 1232 07a4 17090000 		lla	s2,.LANCHOR0
 1232      13090900 
 1233 07ac 83348900 		ld	s1,8(s2)
 1234              	.LVL54:
 202:src/thread.cpp ****     oldThread->timeLeft = DEFAULT_TIME_SLICE;
 1235              		.loc 1 202 5 is_stmt 1
 202:src/thread.cpp ****     oldThread->timeLeft = DEFAULT_TIME_SLICE;
 1236              		.loc 1 202 36 is_stmt 0
 1237 07b0 97000000 		call	_ZN9Scheduler3getEv@plt
 1237      E7800000 
 1238              	.LVL55:
 202:src/thread.cpp ****     oldThread->timeLeft = DEFAULT_TIME_SLICE;
 1239              		.loc 1 202 19
 1240 07b8 2334A900 		sd	a0,8(s2)
 203:src/thread.cpp ****     if(currentThread == nullptr){
 1241              		.loc 1 203 5 is_stmt 1
 203:src/thread.cpp ****     if(currentThread == nullptr){
 1242              		.loc 1 203 25 is_stmt 0
 1243 07bc 93072000 		li	a5,2
 1244 07c0 23B4F408 		sd	a5,136(s1)
 204:src/thread.cpp ****         currentThread = oldThread;
 1245              		.loc 1 204 5 is_stmt 1
 1246 07c4 63040504 		beqz	a0,.L66
 209:src/thread.cpp ****         Scheduler::put(oldThread);
 1247              		.loc 1 209 5
 1248 07c8 638C0400 		beqz	s1,.L63
 209:src/thread.cpp ****         Scheduler::put(oldThread);
 1249              		.loc 1 209 92 is_stmt 0 discriminator 1
 1250 07cc 83B78409 		ld	a5,152(s1)
 1251 07d0 1307F000 		li	a4,15
 1252 07d4 13170702 		slli	a4,a4,32
 1253 07d8 B3F7E700 		and	a5,a5,a4
 1254 07dc 638E0702 		beqz	a5,.L67
 1255              	.L63:
 224:src/thread.cpp ****     // __putc('.');
 1256              		.loc 1 224 5 is_stmt 1
 224:src/thread.cpp ****     // __putc('.');
 1257              		.loc 1 224 18 is_stmt 0
 1258 07e0 97050000 		ld	a1,.LANCHOR0+8
GAS LISTING /tmp/ccBmQir7.s 			page 30


 1258      83B50500 
 1259 07e8 13850400 		mv	a0,s1
 1260 07ec 97000000 		call	_ZN7_thread13contextSwitchEPNS_14contextWrapperES1_
 1260      E7800000 
 1261              	.LVL56:
 1262              	.L60:
 226:src/thread.cpp **** 
 1263              		.loc 1 226 1
 1264 07f4 83308101 		ld	ra,24(sp)
 1265              		.cfi_remember_state
 1266              		.cfi_restore 1
 1267 07f8 03340101 		ld	s0,16(sp)
 1268              		.cfi_restore 8
 1269              		.cfi_def_cfa 2, 32
 1270 07fc 83348100 		ld	s1,8(sp)
 1271              		.cfi_restore 9
 1272              	.LVL57:
 1273 0800 03390100 		ld	s2,0(sp)
 1274              		.cfi_restore 18
 1275 0804 13010102 		addi	sp,sp,32
 1276              		.cfi_def_cfa_offset 0
 1277 0808 67800000 		jr	ra
 1278              	.LVL58:
 1279              	.L66:
 1280              		.cfi_restore_state
 205:src/thread.cpp ****         return;
 1281              		.loc 1 205 9 is_stmt 1
 205:src/thread.cpp ****         return;
 1282              		.loc 1 205 23 is_stmt 0
 1283 080c 97070000 		sd	s1,.LANCHOR0+8,a5
 1283      23B09700 
 206:src/thread.cpp ****     }
 1284              		.loc 1 206 9 is_stmt 1
 1285 0814 6FF01FFE 		j	.L60
 1286              	.L67:
 210:src/thread.cpp ****     }
 1287              		.loc 1 210 9
 210:src/thread.cpp ****     }
 1288              		.loc 1 210 23 is_stmt 0
 1289 0818 13850400 		mv	a0,s1
 1290 081c 97000000 		call	_ZN9Scheduler3putEP7_thread@plt
 1290      E7800000 
 1291              	.LVL59:
 1292 0824 6FF0DFFB 		j	.L63
 1293              		.cfi_endproc
 1294              	.LFE16:
 1296              		.globl	_ZN7_thread6nextIDE
 1297              		.globl	_ZN7_thread13currentThreadE
 1298              		.bss
 1299              		.align	3
 1300              		.set	.LANCHOR0,. + 0
 1303              	_ZN7_thread6nextIDE:
 1304 0000 00000000 		.zero	4
 1305 0004 00000000 		.zero	4
 1308              	_ZN7_thread13currentThreadE:
 1309 0008 00000000 		.zero	8
 1309      00000000 
GAS LISTING /tmp/ccBmQir7.s 			page 31


 1310              		.text
 1311              	.Letext0:
 1312              		.file 3 "./lib/hw.h"
 1313              		.file 4 "./h/sched.h"
 1314              		.file 5 "./h/syscalls_c.h"
GAS LISTING /tmp/ccBmQir7.s 			page 32

