GAS LISTING /tmp/ccSozyKx.s 			page 1


   1              		.file	"thread.cpp"
   2              		.option pic
   3              		.option norelax
   4              		.text
   5              	.Ltext0:
   6              		.align	2
   7              		.globl	_ZN7_threadC2EPFvPvES0_
   9              	_ZN7_threadC2EPFvPvES0_:
  10              	.LFB4:
  11              		.file 1 "src/thread.cpp"
   1:src/thread.cpp **** /**
   2:src/thread.cpp ****  * @file thread.cpp
   3:src/thread.cpp ****  * @author stcksmsh (vukicevickosta@gmail.com)
   4:src/thread.cpp ****  * @brief the thread class implementation
   5:src/thread.cpp ****  * @version 0.1
   6:src/thread.cpp ****  * @date 2024-01-02
   7:src/thread.cpp ****  * 
   8:src/thread.cpp ****  * @copyright Copyright (c) 2024
   9:src/thread.cpp ****  * 
  10:src/thread.cpp ****  */
  11:src/thread.cpp **** 
  12:src/thread.cpp **** 
  13:src/thread.cpp **** #include "thread.h"
  14:src/thread.cpp **** #include "assert.h"
  15:src/thread.cpp **** #include "sched.h"
  16:src/thread.cpp **** #include "syscalls_c.h"
  17:src/thread.cpp **** #include "console.h"
  18:src/thread.cpp **** 
  19:src/thread.cpp **** thread_t _thread::currentThread = 0;
  20:src/thread.cpp **** uint32 _thread::nextID = 0;
  21:src/thread.cpp **** 
  22:src/thread.cpp **** _thread::_thread(func function, void* arg){
  12              		.loc 1 22 1
  13              		.cfi_startproc
  14              	.LVL0:
  15 0000 130101FF 		addi	sp,sp,-16
  16              		.cfi_def_cfa_offset 16
  17 0004 23348100 		sd	s0,8(sp)
  18              		.cfi_offset 8, -8
  19 0008 13040101 		addi	s0,sp,16
  20              		.cfi_def_cfa 8, 0
  21              	.LVL1:
  22              	.LBB6:
  23              	.LBB7:
  24              	.LBB8:
  25              		.file 2 "./h/thread.h"
   1:./h/thread.h  **** /**
   2:./h/thread.h  ****  * @file thread.h
   3:./h/thread.h  ****  * @author stcksmsh (vukicevickosta@gmail.com)
   4:./h/thread.h  ****  * @brief the thread class
   5:./h/thread.h  ****  * @version 0.1
   6:./h/thread.h  ****  * @date 2024-01-02
   7:./h/thread.h  ****  * 
   8:./h/thread.h  ****  * @copyright Copyright (c) 2024
   9:./h/thread.h  ****  * 
  10:./h/thread.h  ****  */
  11:./h/thread.h  **** #ifndef THREAD_H
GAS LISTING /tmp/ccSozyKx.s 			page 2


  12:./h/thread.h  **** #define THREAD_H
  13:./h/thread.h  **** 
  14:./h/thread.h  **** #include "types.h"
  15:./h/thread.h  **** #include "attributes.h"
  16:./h/thread.h  **** 
  17:./h/thread.h  **** /// @brief the thread class
  18:./h/thread.h  **** class _thread{
  19:./h/thread.h  ****     using func = void (*)(void*);
  20:./h/thread.h  **** public:
  21:./h/thread.h  **** 
  22:./h/thread.h  ****     static int create(_thread** thread, func function, void* arg, void* stack, bool start = true);
  23:./h/thread.h  **** 
  24:./h/thread.h  ****     /// @brief exit from current thread
  25:./h/thread.h  ****     /// @return whether the exit was successful
  26:./h/thread.h  ****     static int exit();
  27:./h/thread.h  **** 
  28:./h/thread.h  ****     /// @brief dispatch current thread
  29:./h/thread.h  ****     static void dispatch();
  30:./h/thread.h  **** 
  31:./h/thread.h  ****     /// @brief joins this thread onto the given thread
  32:./h/thread.h  ****     /// @param thread thread to join onto
  33:./h/thread.h  ****     void join(_thread* thread);
  34:./h/thread.h  **** 
  35:./h/thread.h  ****     /// @brief currently running thread (monoprocessor system)
  36:./h/thread.h  ****     static _thread* currentThread;
  37:./h/thread.h  **** 
  38:./h/thread.h  ****     /// @brief set thread blocked state
  39:./h/thread.h  ****     /// @param blocked new state
  40:./h/thread.h  ****     void setBlocked(bool blocked);
  41:./h/thread.h  **** 
  42:./h/thread.h  ****     /// @brief set thread closed state
  43:./h/thread.h  ****     /// @param closed new state
  44:./h/thread.h  ****     void setClosed(bool closed);
  45:./h/thread.h  **** 
  46:./h/thread.h  ****     /// @brief set thread sleeping state
  47:./h/thread.h  ****     /// @param sleeping new state
  48:./h/thread.h  ****     void setSleeping(bool sleeping);
  49:./h/thread.h  ****     
  50:./h/thread.h  ****     uint32 ID;
  51:./h/thread.h  **** 
  52:./h/thread.h  **** private:
  53:./h/thread.h  ****     _thread(func function, void* arg);
  54:./h/thread.h  **** 
  55:./h/thread.h  ****     static void wrapper();
  56:./h/thread.h  **** 
  57:./h/thread.h  ****     void unJoin();
  58:./h/thread.h  **** 
  59:./h/thread.h  ****     struct contextWrapper{
  26              		.loc 2 59 12 is_stmt 0
  27 000c 23380500 		sd	zero,16(a0)
  28              	.LVL2:
  29              	.LBE8:
  30              	.LBE7:
  23:src/thread.cpp ****     function = function;
  31              		.loc 1 23 5 is_stmt 1
  24:src/thread.cpp ****     arg = arg;
  32              		.loc 1 24 5
GAS LISTING /tmp/ccSozyKx.s 			page 3


  25:src/thread.cpp ****     ID = nextID++;
  33              		.loc 1 25 5
  34              		.loc 1 25 16 is_stmt 0
  35 0010 17070000 		lla	a4,.LANCHOR0
  35      13070700 
  36 0018 83270700 		lw	a5,0(a4)
  37 001c 9B861700 		addiw	a3,a5,1
  38 0020 2320D700 		sw	a3,0(a4)
  39              		.loc 1 25 8
  40 0024 2320F500 		sw	a5,0(a0)
  26:src/thread.cpp ****     closed = 0;
  41              		.loc 1 26 5 is_stmt 1
  42              		.loc 1 26 12 is_stmt 0
  43 0028 8337050A 		ld	a5,160(a0)
  27:src/thread.cpp ****     blocked = 0;
  44              		.loc 1 27 5 is_stmt 1
  28:src/thread.cpp ****     sleeping = 0;
  45              		.loc 1 28 5
  29:src/thread.cpp ****     finished = 0;
  46              		.loc 1 29 5
  30:src/thread.cpp ****     kernel = (function == 0);
  47              		.loc 1 30 5
  48              		.loc 1 30 12 is_stmt 0
  49 002c 93B51500 		seqz	a1,a1
  50              	.LVL3:
  51 0030 93954500 		slli	a1,a1,4
  52 0034 93F707FE 		andi	a5,a5,-32
  53 0038 B3E7B700 		or	a5,a5,a1
  31:src/thread.cpp ****     reserved = 0;
  54              		.loc 1 31 5 is_stmt 1
  55              		.loc 1 31 14 is_stmt 0
  56 003c 17070000 		ld	a4,.LC0
  56      03370700 
  57 0044 B3F7E700 		and	a5,a5,a4
  58 0048 2330F50A 		sd	a5,160(a0)
  32:src/thread.cpp ****     joinHead = 0;
  59              		.loc 1 32 5 is_stmt 1
  60              		.loc 1 32 14 is_stmt 0
  61 004c 23300508 		sd	zero,128(a0)
  33:src/thread.cpp ****     timeLeft = 0;
  62              		.loc 1 33 5 is_stmt 1
  63              		.loc 1 33 14 is_stmt 0
  64 0050 23380508 		sd	zero,144(a0)
  34:src/thread.cpp ****     stackStart = 0;
  65              		.loc 1 34 5 is_stmt 1
  66              		.loc 1 34 16 is_stmt 0
  67 0054 233C0508 		sd	zero,152(a0)
  35:src/thread.cpp ****     
  36:src/thread.cpp ****     context.s0 = 0;
  68              		.loc 1 36 5 is_stmt 1
  69              		.loc 1 36 16 is_stmt 0
  70 0058 233C0500 		sd	zero,24(a0)
  37:src/thread.cpp ****     context.s1 = 0;
  71              		.loc 1 37 5 is_stmt 1
  72              		.loc 1 37 16 is_stmt 0
  73 005c 23300502 		sd	zero,32(a0)
  38:src/thread.cpp ****     context.s2 = 0;
GAS LISTING /tmp/ccSozyKx.s 			page 4


  74              		.loc 1 38 5 is_stmt 1
  75              		.loc 1 38 16 is_stmt 0
  76 0060 23340502 		sd	zero,40(a0)
  39:src/thread.cpp ****     context.s3 = 0;
  77              		.loc 1 39 5 is_stmt 1
  78              		.loc 1 39 16 is_stmt 0
  79 0064 23380502 		sd	zero,48(a0)
  40:src/thread.cpp ****     context.s4 = 0;
  80              		.loc 1 40 5 is_stmt 1
  81              		.loc 1 40 16 is_stmt 0
  82 0068 233C0502 		sd	zero,56(a0)
  41:src/thread.cpp ****     context.s5 = 0;
  83              		.loc 1 41 5 is_stmt 1
  84              		.loc 1 41 16 is_stmt 0
  85 006c 23300504 		sd	zero,64(a0)
  42:src/thread.cpp ****     context.s6 = 0;
  86              		.loc 1 42 5 is_stmt 1
  87              		.loc 1 42 16 is_stmt 0
  88 0070 23340504 		sd	zero,72(a0)
  43:src/thread.cpp ****     context.s7 = 0;
  89              		.loc 1 43 5 is_stmt 1
  90              		.loc 1 43 16 is_stmt 0
  91 0074 23380504 		sd	zero,80(a0)
  44:src/thread.cpp ****     context.s8 = 0;
  92              		.loc 1 44 5 is_stmt 1
  93              		.loc 1 44 16 is_stmt 0
  94 0078 233C0504 		sd	zero,88(a0)
  45:src/thread.cpp ****     context.s9 = 0;
  95              		.loc 1 45 5 is_stmt 1
  96              		.loc 1 45 16 is_stmt 0
  97 007c 23300506 		sd	zero,96(a0)
  46:src/thread.cpp ****     context.s10 = 0;
  98              		.loc 1 46 5 is_stmt 1
  99              		.loc 1 46 17 is_stmt 0
 100 0080 23340506 		sd	zero,104(a0)
  47:src/thread.cpp ****     context.s11 = 0;
 101              		.loc 1 47 5 is_stmt 1
 102              		.loc 1 47 17 is_stmt 0
 103 0084 23380506 		sd	zero,112(a0)
  48:src/thread.cpp **** 
  49:src/thread.cpp ****     context.sstatus = 0;
 104              		.loc 1 49 5 is_stmt 1
 105              		.loc 1 49 21 is_stmt 0
 106 0088 233C0506 		sd	zero,120(a0)
  50:src/thread.cpp ****     /// register x2 is the stack pointer
  51:src/thread.cpp ****     context.sp = (uint64)stackStart;
 107              		.loc 1 51 5 is_stmt 1
  52:src/thread.cpp ****     /// register x1 is the return address
  53:src/thread.cpp ****     context.pc = (uint64)wrapper;
 108              		.loc 1 53 5
 109              		.loc 1 53 16 is_stmt 0
 110 008c 97070000 		lla	a5,_ZN7_thread7wrapperEv
 110      93870700 
 111 0094 2334F500 		sd	a5,8(a0)
 112              	.LBE6:
  54:src/thread.cpp **** }
 113              		.loc 1 54 1
GAS LISTING /tmp/ccSozyKx.s 			page 5


 114 0098 03348100 		ld	s0,8(sp)
 115              		.cfi_restore 8
 116              		.cfi_def_cfa 2, 16
 117 009c 13010101 		addi	sp,sp,16
 118              		.cfi_def_cfa_offset 0
 119 00a0 67800000 		jr	ra
 120              		.cfi_endproc
 121              	.LFE4:
 123              		.globl	_ZN7_threadC1EPFvPvES0_
 124              		.set	_ZN7_threadC1EPFvPvES0_,_ZN7_threadC2EPFvPvES0_
 125              		.align	2
 126              		.globl	_Z10popSppSpiev
 128              	_Z10popSppSpiev:
 129              	.LFB6:
  55:src/thread.cpp **** 
  56:src/thread.cpp **** void popSppSpie(){
 130              		.loc 1 56 18 is_stmt 1
 131              		.cfi_startproc
 132 00a4 130101FF 		addi	sp,sp,-16
 133              		.cfi_def_cfa_offset 16
 134 00a8 23348100 		sd	s0,8(sp)
 135              		.cfi_offset 8, -8
 136 00ac 13040101 		addi	s0,sp,16
 137              		.cfi_def_cfa 8, 0
  57:src/thread.cpp ****     __asm__ volatile ("csrw sepc, ra");
 138              		.loc 1 57 5
 139              		.loc 1 57 39 is_stmt 0
 140              	#APP
 141              	# 57 "src/thread.cpp" 1
  58              	    __asm__ volatile ("sret");
 142              		csrw sepc, ra
 143              	# 0 "" 2
 144              		.loc 1 58 5 is_stmt 1
 145              		.loc 1 58 30 is_stmt 0
 146              	# 58 "src/thread.cpp" 1
  59              	}
 147              		sret
 148              	# 0 "" 2
 149              		.loc 1 59 1
 150              	#NO_APP
 151 00b8 03348100 		ld	s0,8(sp)
 152              		.cfi_restore 8
 153              		.cfi_def_cfa 2, 16
 154 00bc 13010101 		addi	sp,sp,16
 155              		.cfi_def_cfa_offset 0
 156 00c0 67800000 		jr	ra
 157              		.cfi_endproc
 158              	.LFE6:
 160              		.align	2
 161              		.globl	_ZN7_thread6unJoinEv
 163              	_ZN7_thread6unJoinEv:
 164              	.LFB8:
  60:src/thread.cpp **** 
  61:src/thread.cpp **** void _thread::wrapper(){
  62:src/thread.cpp ****     // popSppSpie();
  63:src/thread.cpp **** 
  64:src/thread.cpp ****     currentThread->function(currentThread->arg);
GAS LISTING /tmp/ccSozyKx.s 			page 6


  65:src/thread.cpp ****     currentThread->unJoin();
  66:src/thread.cpp ****     exit();
  67:src/thread.cpp **** }
  68:src/thread.cpp **** 
  69:src/thread.cpp **** void _thread::unJoin(){
 165              		.loc 1 69 23 is_stmt 1
 166              		.cfi_startproc
 167              	.LVL4:
 168 00c4 130101FE 		addi	sp,sp,-32
 169              		.cfi_def_cfa_offset 32
 170 00c8 233C1100 		sd	ra,24(sp)
 171 00cc 23388100 		sd	s0,16(sp)
 172 00d0 23349100 		sd	s1,8(sp)
 173 00d4 23302101 		sd	s2,0(sp)
 174              		.cfi_offset 1, -8
 175              		.cfi_offset 8, -16
 176              		.cfi_offset 9, -24
 177              		.cfi_offset 18, -32
 178 00d8 13040102 		addi	s0,sp,32
 179              		.cfi_def_cfa 8, 0
  70:src/thread.cpp ****     ThreadJoinList* current = joinHead;
 180              		.loc 1 70 5
 181              		.loc 1 70 21 is_stmt 0
 182 00dc 83340508 		ld	s1,128(a0)
 183              	.LVL5:
 184              	.L7:
  71:src/thread.cpp ****     while(current != 0){
 185              		.loc 1 71 5 is_stmt 1
 186              		.loc 1 71 19
 187 00e0 638E040C 		beqz	s1,.L5
 188              	.LBB9:
  72:src/thread.cpp ****         thread_t thread = current->thread;
 189              		.loc 1 72 9
 190              		.loc 1 72 18 is_stmt 0
 191 00e4 03C50400 		lbu	a0,0(s1)
 192 00e8 83C71400 		lbu	a5,1(s1)
 193 00ec 93978700 		slli	a5,a5,8
 194 00f0 B3E7A700 		or	a5,a5,a0
 195 00f4 03C52400 		lbu	a0,2(s1)
 196 00f8 13150501 		slli	a0,a0,16
 197 00fc B367F500 		or	a5,a0,a5
 198 0100 03C53400 		lbu	a0,3(s1)
 199 0104 13158501 		slli	a0,a0,24
 200 0108 3365F500 		or	a0,a0,a5
 201 010c 83C74400 		lbu	a5,4(s1)
 202 0110 93970702 		slli	a5,a5,32
 203 0114 33E5A700 		or	a0,a5,a0
 204 0118 83C75400 		lbu	a5,5(s1)
 205 011c 93978702 		slli	a5,a5,40
 206 0120 B3E7A700 		or	a5,a5,a0
 207 0124 03C56400 		lbu	a0,6(s1)
 208 0128 13150503 		slli	a0,a0,48
 209 012c B367F500 		or	a5,a0,a5
 210 0130 03C57400 		lbu	a0,7(s1)
 211 0134 13158503 		slli	a0,a0,56
 212 0138 3365F500 		or	a0,a0,a5
 213              	.LVL6:
GAS LISTING /tmp/ccSozyKx.s 			page 7


  73:src/thread.cpp ****         thread->blocked = false;
 214              		.loc 1 73 9 is_stmt 1
 215              		.loc 1 73 25 is_stmt 0
 216 013c 8337050A 		ld	a5,160(a0)
 217 0140 93F7D7FF 		andi	a5,a5,-3
 218 0144 2330F50A 		sd	a5,160(a0)
  74:src/thread.cpp ****         Scheduler::put(thread);
 219              		.loc 1 74 9 is_stmt 1
 220              		.loc 1 74 23 is_stmt 0
 221 0148 97000000 		call	_ZN9Scheduler3putEP7_thread@plt
 221      E7800000 
 222              	.LVL7:
  75:src/thread.cpp ****         ThreadJoinList* next = current->next;
 223              		.loc 1 75 9 is_stmt 1
 224              		.loc 1 75 25 is_stmt 0
 225 0150 03C98400 		lbu	s2,8(s1)
 226 0154 83C79400 		lbu	a5,9(s1)
 227 0158 93978700 		slli	a5,a5,8
 228 015c B3E72701 		or	a5,a5,s2
 229 0160 03C9A400 		lbu	s2,10(s1)
 230 0164 13190901 		slli	s2,s2,16
 231 0168 B367F900 		or	a5,s2,a5
 232 016c 03C9B400 		lbu	s2,11(s1)
 233 0170 13198901 		slli	s2,s2,24
 234 0174 3369F900 		or	s2,s2,a5
 235 0178 83C7C400 		lbu	a5,12(s1)
 236 017c 93970702 		slli	a5,a5,32
 237 0180 33E92701 		or	s2,a5,s2
 238 0184 83C7D400 		lbu	a5,13(s1)
 239 0188 93978702 		slli	a5,a5,40
 240 018c B3E72701 		or	a5,a5,s2
 241 0190 03C9E400 		lbu	s2,14(s1)
 242 0194 13190903 		slli	s2,s2,48
 243 0198 B367F900 		or	a5,s2,a5
 244 019c 03C9F400 		lbu	s2,15(s1)
 245 01a0 13198903 		slli	s2,s2,56
 246 01a4 3369F900 		or	s2,s2,a5
 247              	.LVL8:
  76:src/thread.cpp ****         mem_free(current);
 248              		.loc 1 76 9 is_stmt 1
 249              		.loc 1 76 17 is_stmt 0
 250 01a8 13850400 		mv	a0,s1
 251 01ac 97000000 		call	_Z8mem_freePv@plt
 251      E7800000 
 252              	.LVL9:
  77:src/thread.cpp ****         current = next;
 253              		.loc 1 77 9 is_stmt 1
 254              		.loc 1 77 17 is_stmt 0
 255 01b4 93040900 		mv	s1,s2
 256              	.LBE9:
  71:src/thread.cpp ****         thread_t thread = current->thread;
 257              		.loc 1 71 5
 258 01b8 6FF09FF2 		j	.L7
 259              	.LVL10:
 260              	.L5:
  78:src/thread.cpp ****     }
  79:src/thread.cpp **** }
GAS LISTING /tmp/ccSozyKx.s 			page 8


 261              		.loc 1 79 1
 262 01bc 83308101 		ld	ra,24(sp)
 263              		.cfi_restore 1
 264 01c0 03340101 		ld	s0,16(sp)
 265              		.cfi_restore 8
 266              		.cfi_def_cfa 2, 32
 267 01c4 83348100 		ld	s1,8(sp)
 268              		.cfi_restore 9
 269              	.LVL11:
 270 01c8 03390100 		ld	s2,0(sp)
 271              		.cfi_restore 18
 272 01cc 13010102 		addi	sp,sp,32
 273              		.cfi_def_cfa_offset 0
 274 01d0 67800000 		jr	ra
 275              		.cfi_endproc
 276              	.LFE8:
 278              		.align	2
 279              		.globl	_ZN7_thread6createEPPS_PFvPvES2_S2_b
 281              	_ZN7_thread6createEPPS_PFvPvES2_S2_b:
 282              	.LFB9:
  80:src/thread.cpp **** 
  81:src/thread.cpp **** int _thread::create(thread_t* thread, func function, void* arg, void* stack, bool start){
 283              		.loc 1 81 89 is_stmt 1
 284              		.cfi_startproc
 285              	.LVL12:
 286 01d4 130101FC 		addi	sp,sp,-64
 287              		.cfi_def_cfa_offset 64
 288 01d8 233C1102 		sd	ra,56(sp)
 289 01dc 23388102 		sd	s0,48(sp)
 290 01e0 23349102 		sd	s1,40(sp)
 291 01e4 23302103 		sd	s2,32(sp)
 292 01e8 233C3101 		sd	s3,24(sp)
 293 01ec 23384101 		sd	s4,16(sp)
 294 01f0 23345101 		sd	s5,8(sp)
 295              		.cfi_offset 1, -8
 296              		.cfi_offset 8, -16
 297              		.cfi_offset 9, -24
 298              		.cfi_offset 18, -32
 299              		.cfi_offset 19, -40
 300              		.cfi_offset 20, -48
 301              		.cfi_offset 21, -56
 302 01f4 13040104 		addi	s0,sp,64
 303              		.cfi_def_cfa 8, 0
 304 01f8 93040500 		mv	s1,a0
 305 01fc 13890500 		mv	s2,a1
 306 0200 930A0600 		mv	s5,a2
 307 0204 93890600 		mv	s3,a3
 308 0208 130A0700 		mv	s4,a4
  82:src/thread.cpp **** 
  83:src/thread.cpp ****     *thread = (_thread*)mem_alloc(sizeof(_thread));
 309              		.loc 1 83 5
 310              		.loc 1 83 34 is_stmt 0
 311 020c 1305800B 		li	a0,184
 312              	.LVL13:
 313 0210 97000000 		call	_Z9mem_allocm@plt
 313      E7800000 
 314              	.LVL14:
GAS LISTING /tmp/ccSozyKx.s 			page 9


 315              		.loc 1 83 13
 316 0218 23B0A400 		sd	a0,0(s1)
  84:src/thread.cpp ****     if(*thread == 0){
 317              		.loc 1 84 5 is_stmt 1
 318 021c 63000518 		beqz	a0,.L11
  85:src/thread.cpp ****         return -1;
  86:src/thread.cpp ****     }
  87:src/thread.cpp ****     (*thread)->function = function;
 319              		.loc 1 87 5
 320              		.loc 1 87 25 is_stmt 0
 321 0220 2334250B 		sd	s2,168(a0)
  88:src/thread.cpp ****     (*thread)->arg = arg;
 322              		.loc 1 88 5 is_stmt 1
 323              		.loc 1 88 6 is_stmt 0
 324 0224 83B70400 		ld	a5,0(s1)
 325              		.loc 1 88 20
 326 0228 23B8570B 		sd	s5,176(a5)
  89:src/thread.cpp ****     (*thread)->ID = nextID++;
 327              		.loc 1 89 5 is_stmt 1
 328              		.loc 1 89 27 is_stmt 0
 329 022c 17070000 		lla	a4,.LANCHOR0
 329      13070700 
 330 0234 83270700 		lw	a5,0(a4)
 331 0238 9B861700 		addiw	a3,a5,1
 332 023c 2320D700 		sw	a3,0(a4)
 333              		.loc 1 89 6
 334 0240 03B70400 		ld	a4,0(s1)
 335              		.loc 1 89 19
 336 0244 2320F700 		sw	a5,0(a4)
  90:src/thread.cpp ****     (*thread)->closed = false;
 337              		.loc 1 90 5 is_stmt 1
 338              		.loc 1 90 6 is_stmt 0
 339 0248 03B70400 		ld	a4,0(s1)
 340              		.loc 1 90 23
 341 024c 8337070A 		ld	a5,160(a4)
 342 0250 93F7E7FF 		andi	a5,a5,-2
 343 0254 2330F70A 		sd	a5,160(a4)
  91:src/thread.cpp ****     (*thread)->blocked = false;
 344              		.loc 1 91 5 is_stmt 1
 345              		.loc 1 91 6 is_stmt 0
 346 0258 03B70400 		ld	a4,0(s1)
 347              		.loc 1 91 24
 348 025c 8337070A 		ld	a5,160(a4)
 349 0260 93F7D7FF 		andi	a5,a5,-3
 350 0264 2330F70A 		sd	a5,160(a4)
  92:src/thread.cpp ****     (*thread)->sleeping = false;
 351              		.loc 1 92 5 is_stmt 1
 352              		.loc 1 92 6 is_stmt 0
 353 0268 03B70400 		ld	a4,0(s1)
 354              		.loc 1 92 25
 355 026c 8337070A 		ld	a5,160(a4)
 356 0270 93F7B7FF 		andi	a5,a5,-5
 357 0274 2330F70A 		sd	a5,160(a4)
  93:src/thread.cpp ****     (*thread)->finished = false;
 358              		.loc 1 93 5 is_stmt 1
 359              		.loc 1 93 6 is_stmt 0
 360 0278 03B70400 		ld	a4,0(s1)
GAS LISTING /tmp/ccSozyKx.s 			page 10


 361              		.loc 1 93 25
 362 027c 8337070A 		ld	a5,160(a4)
 363 0280 93F777FF 		andi	a5,a5,-9
 364 0284 2330F70A 		sd	a5,160(a4)
  94:src/thread.cpp ****     (*thread)->kernel = (function == 0);
 365              		.loc 1 94 5 is_stmt 1
 366              		.loc 1 94 6 is_stmt 0
 367 0288 03B70400 		ld	a4,0(s1)
 368              		.loc 1 94 23
 369 028c 13391900 		seqz	s2,s2
 370              	.LVL15:
 371 0290 13194900 		slli	s2,s2,4
 372 0294 8337070A 		ld	a5,160(a4)
 373 0298 93F7F7FE 		andi	a5,a5,-17
 374 029c 33E92701 		or	s2,a5,s2
 375 02a0 2330270B 		sd	s2,160(a4)
  95:src/thread.cpp ****     (*thread)->reserved = 0;
 376              		.loc 1 95 5 is_stmt 1
 377              		.loc 1 95 6 is_stmt 0
 378 02a4 03B70400 		ld	a4,0(s1)
 379              		.loc 1 95 25
 380 02a8 8337070A 		ld	a5,160(a4)
 381 02ac 97060000 		ld	a3,.LC0
 381      83B60600 
 382 02b4 B3F7D700 		and	a5,a5,a3
 383 02b8 2330F70A 		sd	a5,160(a4)
  96:src/thread.cpp ****     (*thread)->joinHead = 0;
 384              		.loc 1 96 5 is_stmt 1
 385              		.loc 1 96 6 is_stmt 0
 386 02bc 83B70400 		ld	a5,0(s1)
 387              		.loc 1 96 25
 388 02c0 23B00708 		sd	zero,128(a5)
  97:src/thread.cpp ****     (*thread)->joinTail = 0;
 389              		.loc 1 97 5 is_stmt 1
 390              		.loc 1 97 6 is_stmt 0
 391 02c4 83B70400 		ld	a5,0(s1)
 392              		.loc 1 97 25
 393 02c8 23B40708 		sd	zero,136(a5)
  98:src/thread.cpp ****     (*thread)->timeLeft = 0;
 394              		.loc 1 98 5 is_stmt 1
 395              		.loc 1 98 6 is_stmt 0
 396 02cc 83B70400 		ld	a5,0(s1)
 397              		.loc 1 98 25
 398 02d0 23B80708 		sd	zero,144(a5)
  99:src/thread.cpp ****     (*thread)->stackStart = 0;
 399              		.loc 1 99 5 is_stmt 1
 400              		.loc 1 99 6 is_stmt 0
 401 02d4 83B70400 		ld	a5,0(s1)
 402              		.loc 1 99 27
 403 02d8 23BC0708 		sd	zero,152(a5)
 100:src/thread.cpp **** 
 101:src/thread.cpp ****     (*thread)->context.s0 = 0;
 404              		.loc 1 101 5 is_stmt 1
 405              		.loc 1 101 6 is_stmt 0
 406 02dc 83B70400 		ld	a5,0(s1)
 407              		.loc 1 101 27
 408 02e0 23BC0700 		sd	zero,24(a5)
GAS LISTING /tmp/ccSozyKx.s 			page 11


 102:src/thread.cpp ****     (*thread)->context.s1 = 0;
 409              		.loc 1 102 5 is_stmt 1
 410              		.loc 1 102 6 is_stmt 0
 411 02e4 83B70400 		ld	a5,0(s1)
 412              		.loc 1 102 27
 413 02e8 23B00702 		sd	zero,32(a5)
 103:src/thread.cpp ****     (*thread)->context.s2 = 0;
 414              		.loc 1 103 5 is_stmt 1
 415              		.loc 1 103 6 is_stmt 0
 416 02ec 83B70400 		ld	a5,0(s1)
 417              		.loc 1 103 27
 418 02f0 23B40702 		sd	zero,40(a5)
 104:src/thread.cpp ****     (*thread)->context.s3 = 0;
 419              		.loc 1 104 5 is_stmt 1
 420              		.loc 1 104 6 is_stmt 0
 421 02f4 83B70400 		ld	a5,0(s1)
 422              		.loc 1 104 27
 423 02f8 23B80702 		sd	zero,48(a5)
 105:src/thread.cpp ****     (*thread)->context.s4 = 0;
 424              		.loc 1 105 5 is_stmt 1
 425              		.loc 1 105 6 is_stmt 0
 426 02fc 83B70400 		ld	a5,0(s1)
 427              		.loc 1 105 27
 428 0300 23BC0702 		sd	zero,56(a5)
 106:src/thread.cpp ****     (*thread)->context.s5 = 0;
 429              		.loc 1 106 5 is_stmt 1
 430              		.loc 1 106 6 is_stmt 0
 431 0304 83B70400 		ld	a5,0(s1)
 432              		.loc 1 106 27
 433 0308 23B00704 		sd	zero,64(a5)
 107:src/thread.cpp ****     (*thread)->context.s6 = 0;
 434              		.loc 1 107 5 is_stmt 1
 435              		.loc 1 107 6 is_stmt 0
 436 030c 83B70400 		ld	a5,0(s1)
 437              		.loc 1 107 27
 438 0310 23B40704 		sd	zero,72(a5)
 108:src/thread.cpp ****     (*thread)->context.s7 = 0;
 439              		.loc 1 108 5 is_stmt 1
 440              		.loc 1 108 6 is_stmt 0
 441 0314 83B70400 		ld	a5,0(s1)
 442              		.loc 1 108 27
 443 0318 23B80704 		sd	zero,80(a5)
 109:src/thread.cpp ****     (*thread)->context.s8 = 0;
 444              		.loc 1 109 5 is_stmt 1
 445              		.loc 1 109 6 is_stmt 0
 446 031c 83B70400 		ld	a5,0(s1)
 447              		.loc 1 109 27
 448 0320 23BC0704 		sd	zero,88(a5)
 110:src/thread.cpp ****     (*thread)->context.s9 = 0;
 449              		.loc 1 110 5 is_stmt 1
 450              		.loc 1 110 6 is_stmt 0
 451 0324 83B70400 		ld	a5,0(s1)
 452              		.loc 1 110 27
 453 0328 23B00706 		sd	zero,96(a5)
 111:src/thread.cpp ****     (*thread)->context.s10 = 0;
 454              		.loc 1 111 5 is_stmt 1
 455              		.loc 1 111 6 is_stmt 0
GAS LISTING /tmp/ccSozyKx.s 			page 12


 456 032c 83B70400 		ld	a5,0(s1)
 457              		.loc 1 111 28
 458 0330 23B40706 		sd	zero,104(a5)
 112:src/thread.cpp ****     (*thread)->context.s11 = 0;
 459              		.loc 1 112 5 is_stmt 1
 460              		.loc 1 112 6 is_stmt 0
 461 0334 83B70400 		ld	a5,0(s1)
 462              		.loc 1 112 28
 463 0338 23B80706 		sd	zero,112(a5)
 113:src/thread.cpp ****     /// register x2 is the stack pointer
 114:src/thread.cpp ****     (*thread)->context.sp = (uint64)stack;
 464              		.loc 1 114 5 is_stmt 1
 465              		.loc 1 114 6 is_stmt 0
 466 033c 83B70400 		ld	a5,0(s1)
 467              		.loc 1 114 27
 468 0340 23B83701 		sd	s3,16(a5)
 115:src/thread.cpp ****     /// register x1 is the return address
 116:src/thread.cpp ****     (*thread)->context.pc = (uint64)wrapper;
 469              		.loc 1 116 5 is_stmt 1
 470              		.loc 1 116 6 is_stmt 0
 471 0344 83B70400 		ld	a5,0(s1)
 472              		.loc 1 116 27
 473 0348 17070000 		lla	a4,_ZN7_thread7wrapperEv
 473      13070700 
 474 0350 23B4E700 		sd	a4,8(a5)
 117:src/thread.cpp **** 
 118:src/thread.cpp ****     (*thread)->stackStart = stack;
 475              		.loc 1 118 5 is_stmt 1
 476              		.loc 1 118 6 is_stmt 0
 477 0354 83B70400 		ld	a5,0(s1)
 478              		.loc 1 118 27
 479 0358 23BC3709 		sd	s3,152(a5)
 119:src/thread.cpp ****     if(start){
 480              		.loc 1 119 5 is_stmt 1
 481 035c 63160A02 		bnez	s4,.L14
 120:src/thread.cpp ****         Scheduler::put(*thread);
 121:src/thread.cpp ****     }
 122:src/thread.cpp ****     return 0;
 482              		.loc 1 122 12 is_stmt 0
 483 0360 13050000 		li	a0,0
 484              	.L10:
 123:src/thread.cpp **** }
 485              		.loc 1 123 1
 486 0364 83308103 		ld	ra,56(sp)
 487              		.cfi_remember_state
 488              		.cfi_restore 1
 489 0368 03340103 		ld	s0,48(sp)
 490              		.cfi_restore 8
 491              		.cfi_def_cfa 2, 64
 492 036c 83348102 		ld	s1,40(sp)
 493              		.cfi_restore 9
 494              	.LVL16:
 495 0370 03390102 		ld	s2,32(sp)
 496              		.cfi_restore 18
 497 0374 83398101 		ld	s3,24(sp)
 498              		.cfi_restore 19
 499              	.LVL17:
GAS LISTING /tmp/ccSozyKx.s 			page 13


 500 0378 033A0101 		ld	s4,16(sp)
 501              		.cfi_restore 20
 502 037c 833A8100 		ld	s5,8(sp)
 503              		.cfi_restore 21
 504              	.LVL18:
 505 0380 13010104 		addi	sp,sp,64
 506              		.cfi_def_cfa_offset 0
 507 0384 67800000 		jr	ra
 508              	.LVL19:
 509              	.L14:
 510              		.cfi_restore_state
 120:src/thread.cpp ****         Scheduler::put(*thread);
 511              		.loc 1 120 9 is_stmt 1
 120:src/thread.cpp ****         Scheduler::put(*thread);
 512              		.loc 1 120 23 is_stmt 0
 513 0388 03B50400 		ld	a0,0(s1)
 514 038c 97000000 		call	_ZN9Scheduler3putEP7_thread@plt
 514      E7800000 
 515              	.LVL20:
 122:src/thread.cpp **** }
 516              		.loc 1 122 12
 517 0394 13050000 		li	a0,0
 518 0398 6FF0DFFC 		j	.L10
 519              	.LVL21:
 520              	.L11:
  85:src/thread.cpp ****     }
 521              		.loc 1 85 17
 522 039c 1305F0FF 		li	a0,-1
 523 03a0 6FF05FFC 		j	.L10
 524              		.cfi_endproc
 525              	.LFE9:
 527              		.align	2
 528              		.globl	_ZN7_thread10setBlockedEb
 530              	_ZN7_thread10setBlockedEb:
 531              	.LFB12:
 124:src/thread.cpp **** 
 125:src/thread.cpp **** void _thread::join(thread_t thread){
 126:src/thread.cpp ****     /// cannot join to a finished or closed thread
 127:src/thread.cpp ****     if(thread->finished || thread->closed){
 128:src/thread.cpp ****         return;
 129:src/thread.cpp ****     }
 130:src/thread.cpp ****     ThreadJoinList* newJoin = (ThreadJoinList*)mem_alloc(sizeof(ThreadJoinList));
 131:src/thread.cpp ****     this->blocked = true;
 132:src/thread.cpp ****     newJoin->thread = this;
 133:src/thread.cpp ****     newJoin->next = 0;
 134:src/thread.cpp ****     if(thread->joinHead == 0){
 135:src/thread.cpp ****         thread->joinHead = newJoin;
 136:src/thread.cpp ****         thread->joinTail = newJoin;
 137:src/thread.cpp ****     }else{
 138:src/thread.cpp ****         thread->joinTail->next = newJoin;
 139:src/thread.cpp ****         thread->joinTail = newJoin;
 140:src/thread.cpp ****     }
 141:src/thread.cpp ****     // Scheduler::remove(this);
 142:src/thread.cpp ****     dispatch();
 143:src/thread.cpp **** }
 144:src/thread.cpp **** 
 145:src/thread.cpp **** int _thread::exit(){
GAS LISTING /tmp/ccSozyKx.s 			page 14


 146:src/thread.cpp **** 
 147:src/thread.cpp ****     if(currentThread->closed){
 148:src/thread.cpp ****         return -1;
 149:src/thread.cpp ****     }
 150:src/thread.cpp ****     if(currentThread->blocked){
 151:src/thread.cpp ****         return -2;
 152:src/thread.cpp ****     }
 153:src/thread.cpp ****     if(currentThread->sleeping){
 154:src/thread.cpp ****         return -3;
 155:src/thread.cpp ****     }
 156:src/thread.cpp ****     currentThread->finished = 1;
 157:src/thread.cpp ****     dispatch();
 158:src/thread.cpp ****     return 0;
 159:src/thread.cpp **** }
 160:src/thread.cpp **** 
 161:src/thread.cpp **** void _thread::setBlocked(bool blocked){
 532              		.loc 1 161 39 is_stmt 1
 533              		.cfi_startproc
 534              	.LVL22:
 535 03a4 130101FF 		addi	sp,sp,-16
 536              		.cfi_def_cfa_offset 16
 537 03a8 23348100 		sd	s0,8(sp)
 538              		.cfi_offset 8, -8
 539 03ac 13040101 		addi	s0,sp,16
 540              		.cfi_def_cfa 8, 0
 162:src/thread.cpp ****     this->blocked = blocked;
 541              		.loc 1 162 5
 542              		.loc 1 162 19 is_stmt 0
 543 03b0 93F51500 		andi	a1,a1,1
 544              	.LVL23:
 545 03b4 93971500 		slli	a5,a1,1
 546 03b8 8335050A 		ld	a1,160(a0)
 547 03bc 93F5D5FF 		andi	a1,a1,-3
 548 03c0 B3E5F500 		or	a1,a1,a5
 549 03c4 2330B50A 		sd	a1,160(a0)
 163:src/thread.cpp **** }
 550              		.loc 1 163 1
 551 03c8 03348100 		ld	s0,8(sp)
 552              		.cfi_restore 8
 553              		.cfi_def_cfa 2, 16
 554 03cc 13010101 		addi	sp,sp,16
 555              		.cfi_def_cfa_offset 0
 556 03d0 67800000 		jr	ra
 557              		.cfi_endproc
 558              	.LFE12:
 560              		.align	2
 561              		.globl	_ZN7_thread9setClosedEb
 563              	_ZN7_thread9setClosedEb:
 564              	.LFB13:
 164:src/thread.cpp **** 
 165:src/thread.cpp **** void _thread::setClosed(bool closed){
 565              		.loc 1 165 37 is_stmt 1
 566              		.cfi_startproc
 567              	.LVL24:
 568 03d4 130101FF 		addi	sp,sp,-16
 569              		.cfi_def_cfa_offset 16
 570 03d8 23348100 		sd	s0,8(sp)
GAS LISTING /tmp/ccSozyKx.s 			page 15


 571              		.cfi_offset 8, -8
 572 03dc 13040101 		addi	s0,sp,16
 573              		.cfi_def_cfa 8, 0
 166:src/thread.cpp ****     this->closed = closed;
 574              		.loc 1 166 5
 575              		.loc 1 166 18 is_stmt 0
 576 03e0 93F71500 		andi	a5,a1,1
 577 03e4 8335050A 		ld	a1,160(a0)
 578              	.LVL25:
 579 03e8 93F5E5FF 		andi	a1,a1,-2
 580 03ec B3E5F500 		or	a1,a1,a5
 581 03f0 2330B50A 		sd	a1,160(a0)
 167:src/thread.cpp **** }
 582              		.loc 1 167 1
 583 03f4 03348100 		ld	s0,8(sp)
 584              		.cfi_restore 8
 585              		.cfi_def_cfa 2, 16
 586 03f8 13010101 		addi	sp,sp,16
 587              		.cfi_def_cfa_offset 0
 588 03fc 67800000 		jr	ra
 589              		.cfi_endproc
 590              	.LFE13:
 592              		.align	2
 593              		.globl	_ZN7_thread11setSleepingEb
 595              	_ZN7_thread11setSleepingEb:
 596              	.LFB14:
 168:src/thread.cpp **** 
 169:src/thread.cpp **** void _thread::setSleeping(bool sleeping){
 597              		.loc 1 169 41 is_stmt 1
 598              		.cfi_startproc
 599              	.LVL26:
 600 0400 130101FF 		addi	sp,sp,-16
 601              		.cfi_def_cfa_offset 16
 602 0404 23348100 		sd	s0,8(sp)
 603              		.cfi_offset 8, -8
 604 0408 13040101 		addi	s0,sp,16
 605              		.cfi_def_cfa 8, 0
 170:src/thread.cpp ****     this->sleeping = sleeping;
 606              		.loc 1 170 5
 607              		.loc 1 170 20 is_stmt 0
 608 040c 93F51500 		andi	a1,a1,1
 609              	.LVL27:
 610 0410 93972500 		slli	a5,a1,2
 611 0414 8335050A 		ld	a1,160(a0)
 612 0418 93F5B5FF 		andi	a1,a1,-5
 613 041c B3E5F500 		or	a1,a1,a5
 614 0420 2330B50A 		sd	a1,160(a0)
 171:src/thread.cpp **** }
 615              		.loc 1 171 1
 616 0424 03348100 		ld	s0,8(sp)
 617              		.cfi_restore 8
 618              		.cfi_def_cfa 2, 16
 619 0428 13010101 		addi	sp,sp,16
 620              		.cfi_def_cfa_offset 0
 621 042c 67800000 		jr	ra
 622              		.cfi_endproc
 623              	.LFE14:
GAS LISTING /tmp/ccSozyKx.s 			page 16


 625              		.align	2
 626              		.globl	_ZN7_thread13contextSwitchEPNS_14contextWrapperES1_
 628              	_ZN7_thread13contextSwitchEPNS_14contextWrapperES1_:
 629              	.LFB16:
 172:src/thread.cpp **** 
 173:src/thread.cpp **** void _thread::dispatch(){
 174:src/thread.cpp ****     _thread* oldThread = currentThread;
 175:src/thread.cpp **** 
 176:src/thread.cpp ****     currentThread =  Scheduler::get();
 177:src/thread.cpp ****     if(currentThread == 0){
 178:src/thread.cpp ****         currentThread = oldThread;
 179:src/thread.cpp ****         return;
 180:src/thread.cpp ****     }
 181:src/thread.cpp ****     
 182:src/thread.cpp ****     if(oldThread != 0 && !oldThread->closed && !oldThread->blocked && !oldThread->sleeping && !oldT
 183:src/thread.cpp ****             Scheduler::put(oldThread);
 184:src/thread.cpp ****     }
 185:src/thread.cpp ****     // while(newThread != 0 && (newThread->closed || newThread->blocked || newThread->sleeping || n
 186:src/thread.cpp ****     //     newThread = Scheduler::get();
 187:src/thread.cpp ****     // }
 188:src/thread.cpp ****     // if(newThread == 0){
 189:src/thread.cpp ****     //     return;
 190:src/thread.cpp ****     // }
 191:src/thread.cpp ****     contextSwitch(oldThread == 0?0:&(oldThread->context), &(currentThread->context));
 192:src/thread.cpp **** }
 193:src/thread.cpp **** 
 194:src/thread.cpp **** void _thread::contextSwitch(contextWrapper *oldContext, contextWrapper *newContext){
 630              		.loc 1 194 84 is_stmt 1
 631              		.cfi_startproc
 632              	.LVL28:
 633 0430 130101FF 		addi	sp,sp,-16
 634              		.cfi_def_cfa_offset 16
 635 0434 23348100 		sd	s0,8(sp)
 636              		.cfi_offset 8, -8
 637 0438 13040101 		addi	s0,sp,16
 638              		.cfi_def_cfa 8, 0
 195:src/thread.cpp **** 
 196:src/thread.cpp **** 
 197:src/thread.cpp ****     if(oldContext != 0){
 639              		.loc 1 197 5
 640 043c 63020504 		beqz	a0,.L22
 198:src/thread.cpp ****         // oldContext->pc = pc;
 199:src/thread.cpp ****         __asm__ volatile ("sd ra, 0 * 8(a0)");
 641              		.loc 1 199 9
 642              		.loc 1 199 46 is_stmt 0
 643              	#APP
 644              	# 199 "src/thread.cpp" 1
 200              	        __asm__ volatile ("sd sp, 1 * 8(a0)");
 645              		sd ra, 0 * 8(a0)
 646              	# 0 "" 2
 647              		.loc 1 200 9 is_stmt 1
 648              		.loc 1 200 46 is_stmt 0
 649              	# 200 "src/thread.cpp" 1
 201              	
 202:src/thread.cpp ****         __asm__ volatile ("sd s0, 2 * 8(a0)");
 650              		sd sp, 1 * 8(a0)
 651              	# 0 "" 2
GAS LISTING /tmp/ccSozyKx.s 			page 17


 652              		.loc 1 202 9 is_stmt 1
 653              		.loc 1 202 46 is_stmt 0
 654              	# 202 "src/thread.cpp" 1
 203              	        __asm__ volatile ("sd s1, 3 * 8(a0)");
 655              		sd s0, 2 * 8(a0)
 656              	# 0 "" 2
 657              		.loc 1 203 9 is_stmt 1
 658              		.loc 1 203 46 is_stmt 0
 659              	# 203 "src/thread.cpp" 1
 204              	        __asm__ volatile ("sd s2, 4 * 8(a0)");
 660              		sd s1, 3 * 8(a0)
 661              	# 0 "" 2
 662              		.loc 1 204 9 is_stmt 1
 663              		.loc 1 204 46 is_stmt 0
 664              	# 204 "src/thread.cpp" 1
 205              	        __asm__ volatile ("sd s3, 5 * 8(a0)");
 665              		sd s2, 4 * 8(a0)
 666              	# 0 "" 2
 667              		.loc 1 205 9 is_stmt 1
 668              		.loc 1 205 46 is_stmt 0
 669              	# 205 "src/thread.cpp" 1
 206              	        __asm__ volatile ("sd s4, 6 * 8(a0)");
 670              		sd s3, 5 * 8(a0)
 671              	# 0 "" 2
 672              		.loc 1 206 9 is_stmt 1
 673              		.loc 1 206 46 is_stmt 0
 674              	# 206 "src/thread.cpp" 1
 207              	        __asm__ volatile ("sd s5, 7 * 8(a0)");
 675              		sd s4, 6 * 8(a0)
 676              	# 0 "" 2
 677              		.loc 1 207 9 is_stmt 1
 678              		.loc 1 207 46 is_stmt 0
 679              	# 207 "src/thread.cpp" 1
 208              	        __asm__ volatile ("sd s6, 8 * 8(a0)");
 680              		sd s5, 7 * 8(a0)
 681              	# 0 "" 2
 682              		.loc 1 208 9 is_stmt 1
 683              		.loc 1 208 46 is_stmt 0
 684              	# 208 "src/thread.cpp" 1
 209              	        __asm__ volatile ("sd s7, 9 * 8(a0)");
 685              		sd s6, 8 * 8(a0)
 686              	# 0 "" 2
 687              		.loc 1 209 9 is_stmt 1
 688              		.loc 1 209 46 is_stmt 0
 689              	# 209 "src/thread.cpp" 1
 210              	        __asm__ volatile ("sd s8, 10 * 8(a0)");
 690              		sd s7, 9 * 8(a0)
 691              	# 0 "" 2
 692              		.loc 1 210 9 is_stmt 1
 693              		.loc 1 210 47 is_stmt 0
 694              	# 210 "src/thread.cpp" 1
 211              	        __asm__ volatile ("sd s9, 11 * 8(a0)");
 695              		sd s8, 10 * 8(a0)
 696              	# 0 "" 2
 697              		.loc 1 211 9 is_stmt 1
 698              		.loc 1 211 47 is_stmt 0
 699              	# 211 "src/thread.cpp" 1
GAS LISTING /tmp/ccSozyKx.s 			page 18


 212              	        __asm__ volatile ("sd s10, 12 * 8(a0)");
 700              		sd s9, 11 * 8(a0)
 701              	# 0 "" 2
 702              		.loc 1 212 9 is_stmt 1
 703              		.loc 1 212 48 is_stmt 0
 704              	# 212 "src/thread.cpp" 1
 213              	        __asm__ volatile ("sd s11, 13 * 8(a0)");
 705              		sd s10, 12 * 8(a0)
 706              	# 0 "" 2
 707              		.loc 1 213 9 is_stmt 1
 708              		.loc 1 213 48 is_stmt 0
 709              	# 213 "src/thread.cpp" 1
 214              	        
 215:src/thread.cpp ****         __asm__ volatile("csrr s0, sstatus");
 710              		sd s11, 13 * 8(a0)
 711              	# 0 "" 2
 712              		.loc 1 215 9 is_stmt 1
 713              		.loc 1 215 45 is_stmt 0
 714              	# 215 "src/thread.cpp" 1
 216              	        __asm__ volatile ("sd s0, 14 * 8(a0)");
 715              		csrr s0, sstatus
 716              	# 0 "" 2
 717              		.loc 1 216 9 is_stmt 1
 718              		.loc 1 216 47 is_stmt 0
 719              	# 216 "src/thread.cpp" 1
 217              	    }
 720              		sd s0, 14 * 8(a0)
 721              	# 0 "" 2
 722              	#NO_APP
 723              	.L22:
 218:src/thread.cpp ****     if(newContext->sp != 0){
 724              		.loc 1 218 5 is_stmt 1
 725              		.loc 1 218 20 is_stmt 0
 726 0480 83B78500 		ld	a5,8(a1)
 727              		.loc 1 218 5
 728 0484 63840700 		beqz	a5,.L23
 219:src/thread.cpp ****         __asm__ volatile ("ld sp, 8(a1)");
 729              		.loc 1 219 9 is_stmt 1
 730              		.loc 1 219 42 is_stmt 0
 731              	#APP
 732              	# 219 "src/thread.cpp" 1
 220              	    }
 733              		ld sp, 8(a1)
 734              	# 0 "" 2
 735              	#NO_APP
 736              	.L23:
 221:src/thread.cpp ****     __asm__ volatile ("ld ra, 0(a1)");
 737              		.loc 1 221 5 is_stmt 1
 738              		.loc 1 221 38 is_stmt 0
 739              	#APP
 740              	# 221 "src/thread.cpp" 1
 222              	
 223:src/thread.cpp ****     __asm__ volatile ("ld s0, 14 * 8(a0)");
 741              		ld ra, 0(a1)
 742              	# 0 "" 2
 743              		.loc 1 223 5 is_stmt 1
 744              		.loc 1 223 43 is_stmt 0
GAS LISTING /tmp/ccSozyKx.s 			page 19


 745              	# 223 "src/thread.cpp" 1
 224              	    __asm__ volatile("csrw sstatus, s0");
 746              		ld s0, 14 * 8(a0)
 747              	# 0 "" 2
 748              		.loc 1 224 5 is_stmt 1
 749              		.loc 1 224 41 is_stmt 0
 750              	# 224 "src/thread.cpp" 1
 225              	
 226:src/thread.cpp ****     __asm__ volatile ("ld s0, 2 * 8(a1)");
 751              		csrw sstatus, s0
 752              	# 0 "" 2
 753              		.loc 1 226 5 is_stmt 1
 754              		.loc 1 226 42 is_stmt 0
 755              	# 226 "src/thread.cpp" 1
 227              	    __asm__ volatile ("ld s1, 3 * 8(a1)");
 756              		ld s0, 2 * 8(a1)
 757              	# 0 "" 2
 758              		.loc 1 227 5 is_stmt 1
 759              		.loc 1 227 42 is_stmt 0
 760              	# 227 "src/thread.cpp" 1
 228              	    __asm__ volatile ("ld s2, 4 * 8(a1)");
 761              		ld s1, 3 * 8(a1)
 762              	# 0 "" 2
 763              		.loc 1 228 5 is_stmt 1
 764              		.loc 1 228 42 is_stmt 0
 765              	# 228 "src/thread.cpp" 1
 229              	    __asm__ volatile ("ld s3, 5 * 8(a1)");
 766              		ld s2, 4 * 8(a1)
 767              	# 0 "" 2
 768              		.loc 1 229 5 is_stmt 1
 769              		.loc 1 229 42 is_stmt 0
 770              	# 229 "src/thread.cpp" 1
 230              	    __asm__ volatile ("ld s4, 6 * 8(a1)");
 771              		ld s3, 5 * 8(a1)
 772              	# 0 "" 2
 773              		.loc 1 230 5 is_stmt 1
 774              		.loc 1 230 42 is_stmt 0
 775              	# 230 "src/thread.cpp" 1
 231              	    __asm__ volatile ("ld s5, 7 * 8(a1)");
 776              		ld s4, 6 * 8(a1)
 777              	# 0 "" 2
 778              		.loc 1 231 5 is_stmt 1
 779              		.loc 1 231 42 is_stmt 0
 780              	# 231 "src/thread.cpp" 1
 232              	    __asm__ volatile ("ld s6, 8 * 8(a1)");
 781              		ld s5, 7 * 8(a1)
 782              	# 0 "" 2
 783              		.loc 1 232 5 is_stmt 1
 784              		.loc 1 232 42 is_stmt 0
 785              	# 232 "src/thread.cpp" 1
 233              	    __asm__ volatile ("ld s7, 9 * 8(a1)");
 786              		ld s6, 8 * 8(a1)
 787              	# 0 "" 2
 788              		.loc 1 233 5 is_stmt 1
 789              		.loc 1 233 42 is_stmt 0
 790              	# 233 "src/thread.cpp" 1
 234              	    __asm__ volatile ("ld s8, 10 * 8(a1)");
GAS LISTING /tmp/ccSozyKx.s 			page 20


 791              		ld s7, 9 * 8(a1)
 792              	# 0 "" 2
 793              		.loc 1 234 5 is_stmt 1
 794              		.loc 1 234 43 is_stmt 0
 795              	# 234 "src/thread.cpp" 1
 235              	    __asm__ volatile ("ld s9, 11 * 8(a1)");
 796              		ld s8, 10 * 8(a1)
 797              	# 0 "" 2
 798              		.loc 1 235 5 is_stmt 1
 799              		.loc 1 235 43 is_stmt 0
 800              	# 235 "src/thread.cpp" 1
 236              	    __asm__ volatile ("ld s10, 12 * 8(a1)");
 801              		ld s9, 11 * 8(a1)
 802              	# 0 "" 2
 803              		.loc 1 236 5 is_stmt 1
 804              		.loc 1 236 44 is_stmt 0
 805              	# 236 "src/thread.cpp" 1
 237              	    __asm__ volatile ("ld s11, 13 * 8(a1)");
 806              		ld s10, 12 * 8(a1)
 807              	# 0 "" 2
 808              		.loc 1 237 5 is_stmt 1
 809              		.loc 1 237 44 is_stmt 0
 810              	# 237 "src/thread.cpp" 1
 238              	
 239:src/thread.cpp ****     return;
 811              		ld s11, 13 * 8(a1)
 812              	# 0 "" 2
 813              		.loc 1 239 5 is_stmt 1
 240:src/thread.cpp **** 
 241:src/thread.cpp **** }
 814              		.loc 1 241 1 is_stmt 0
 815              	#NO_APP
 816 04c8 03348100 		ld	s0,8(sp)
 817              		.cfi_restore 8
 818              		.cfi_def_cfa 2, 16
 819 04cc 13010101 		addi	sp,sp,16
 820              		.cfi_def_cfa_offset 0
 821 04d0 67800000 		jr	ra
 822              		.cfi_endproc
 823              	.LFE16:
 825              		.align	2
 826              		.globl	_ZN7_thread8dispatchEv
 828              	_ZN7_thread8dispatchEv:
 829              	.LFB15:
 173:src/thread.cpp ****     _thread* oldThread = currentThread;
 830              		.loc 1 173 25 is_stmt 1
 831              		.cfi_startproc
 832 04d4 130101FE 		addi	sp,sp,-32
 833              		.cfi_def_cfa_offset 32
 834 04d8 233C1100 		sd	ra,24(sp)
 835 04dc 23388100 		sd	s0,16(sp)
 836 04e0 23349100 		sd	s1,8(sp)
 837 04e4 23302101 		sd	s2,0(sp)
 838              		.cfi_offset 1, -8
 839              		.cfi_offset 8, -16
 840              		.cfi_offset 9, -24
 841              		.cfi_offset 18, -32
GAS LISTING /tmp/ccSozyKx.s 			page 21


 842 04e8 13040102 		addi	s0,sp,32
 843              		.cfi_def_cfa 8, 0
 174:src/thread.cpp **** 
 844              		.loc 1 174 5
 174:src/thread.cpp **** 
 845              		.loc 1 174 14 is_stmt 0
 846 04ec 17090000 		lla	s2,.LANCHOR0
 846      13090900 
 847 04f4 83348900 		ld	s1,8(s2)
 848              	.LVL29:
 176:src/thread.cpp ****     if(currentThread == 0){
 849              		.loc 1 176 5 is_stmt 1
 176:src/thread.cpp ****     if(currentThread == 0){
 850              		.loc 1 176 36 is_stmt 0
 851 04f8 97000000 		call	_ZN9Scheduler3getEv@plt
 851      E7800000 
 852              	.LVL30:
 176:src/thread.cpp ****     if(currentThread == 0){
 853              		.loc 1 176 19
 854 0500 2334A900 		sd	a0,8(s2)
 177:src/thread.cpp ****         currentThread = oldThread;
 855              		.loc 1 177 5 is_stmt 1
 856 0504 63060504 		beqz	a0,.L31
 182:src/thread.cpp ****             Scheduler::put(oldThread);
 857              		.loc 1 182 5
 858 0508 63880400 		beqz	s1,.L28
 182:src/thread.cpp ****             Scheduler::put(oldThread);
 859              		.loc 1 182 92 is_stmt 0 discriminator 1
 860 050c 83B7040A 		ld	a5,160(s1)
 861 0510 93F7F700 		andi	a5,a5,15
 862 0514 63840704 		beqz	a5,.L32
 863              	.L28:
 191:src/thread.cpp **** }
 864              		.loc 1 191 5 is_stmt 1
 191:src/thread.cpp **** }
 865              		.loc 1 191 18 is_stmt 0
 866 0518 63840400 		beqz	s1,.L29
 191:src/thread.cpp **** }
 867              		.loc 1 191 18 discriminator 1
 868 051c 93848400 		addi	s1,s1,8
 869              	.LVL31:
 870              	.L29:
 191:src/thread.cpp **** }
 871              		.loc 1 191 18 discriminator 4
 872 0520 97050000 		ld	a1,.LANCHOR0+8
 872      83B50500 
 873 0528 93858500 		addi	a1,a1,8
 874 052c 13850400 		mv	a0,s1
 875 0530 97000000 		call	_ZN7_thread13contextSwitchEPNS_14contextWrapperES1_
 875      E7800000 
 876              	.LVL32:
 877              	.L25:
 192:src/thread.cpp **** 
 878              		.loc 1 192 1
 879 0538 83308101 		ld	ra,24(sp)
 880              		.cfi_remember_state
 881              		.cfi_restore 1
GAS LISTING /tmp/ccSozyKx.s 			page 22


 882 053c 03340101 		ld	s0,16(sp)
 883              		.cfi_restore 8
 884              		.cfi_def_cfa 2, 32
 885 0540 83348100 		ld	s1,8(sp)
 886              		.cfi_restore 9
 887 0544 03390100 		ld	s2,0(sp)
 888              		.cfi_restore 18
 889 0548 13010102 		addi	sp,sp,32
 890              		.cfi_def_cfa_offset 0
 891 054c 67800000 		jr	ra
 892              	.LVL33:
 893              	.L31:
 894              		.cfi_restore_state
 178:src/thread.cpp ****         return;
 895              		.loc 1 178 9 is_stmt 1
 178:src/thread.cpp ****         return;
 896              		.loc 1 178 23 is_stmt 0
 897 0550 97070000 		sd	s1,.LANCHOR0+8,a5
 897      23B09700 
 179:src/thread.cpp ****     }
 898              		.loc 1 179 9 is_stmt 1
 899 0558 6FF01FFE 		j	.L25
 900              	.L32:
 183:src/thread.cpp ****     }
 901              		.loc 1 183 13
 183:src/thread.cpp ****     }
 902              		.loc 1 183 27 is_stmt 0
 903 055c 13850400 		mv	a0,s1
 904 0560 97000000 		call	_ZN9Scheduler3putEP7_thread@plt
 904      E7800000 
 905              	.LVL34:
 906 0568 6FF01FFB 		j	.L28
 907              		.cfi_endproc
 908              	.LFE15:
 910              		.align	2
 911              		.globl	_ZN7_thread4joinEPS_
 913              	_ZN7_thread4joinEPS_:
 914              	.LFB10:
 125:src/thread.cpp ****     /// cannot join to a finished or closed thread
 915              		.loc 1 125 36 is_stmt 1
 916              		.cfi_startproc
 917              	.LVL35:
 127:src/thread.cpp ****         return;
 918              		.loc 1 127 5
 127:src/thread.cpp ****         return;
 919              		.loc 1 127 25 is_stmt 0
 920 056c 83B7050A 		ld	a5,160(a1)
 921 0570 93F79700 		andi	a5,a5,9
 127:src/thread.cpp ****         return;
 922              		.loc 1 127 5
 923 0574 63840700 		beqz	a5,.L41
 924 0578 67800000 		ret
 925              	.L41:
 125:src/thread.cpp ****     /// cannot join to a finished or closed thread
 926              		.loc 1 125 36
 927 057c 130101FE 		addi	sp,sp,-32
 928              		.cfi_def_cfa_offset 32
GAS LISTING /tmp/ccSozyKx.s 			page 23


 929 0580 233C1100 		sd	ra,24(sp)
 930 0584 23388100 		sd	s0,16(sp)
 931 0588 23349100 		sd	s1,8(sp)
 932 058c 23302101 		sd	s2,0(sp)
 933              		.cfi_offset 1, -8
 934              		.cfi_offset 8, -16
 935              		.cfi_offset 9, -24
 936              		.cfi_offset 18, -32
 937 0590 13040102 		addi	s0,sp,32
 938              		.cfi_def_cfa 8, 0
 939 0594 93040500 		mv	s1,a0
 940 0598 13890500 		mv	s2,a1
 130:src/thread.cpp ****     this->blocked = true;
 941              		.loc 1 130 5 is_stmt 1
 130:src/thread.cpp ****     this->blocked = true;
 942              		.loc 1 130 57 is_stmt 0
 943 059c 13050001 		li	a0,16
 944              	.LVL36:
 945 05a0 97000000 		call	_Z9mem_allocm@plt
 945      E7800000 
 946              	.LVL37:
 131:src/thread.cpp ****     newJoin->thread = this;
 947              		.loc 1 131 5 is_stmt 1
 131:src/thread.cpp ****     newJoin->thread = this;
 948              		.loc 1 131 19 is_stmt 0
 949 05a8 03B7040A 		ld	a4,160(s1)
 950 05ac 13672700 		ori	a4,a4,2
 951 05b0 23B0E40A 		sd	a4,160(s1)
 132:src/thread.cpp ****     newJoin->next = 0;
 952              		.loc 1 132 5 is_stmt 1
 132:src/thread.cpp ****     newJoin->next = 0;
 953              		.loc 1 132 21 is_stmt 0
 954 05b4 23009500 		sb	s1,0(a0)
 955 05b8 13D78400 		srli	a4,s1,8
 956 05bc A300E500 		sb	a4,1(a0)
 957 05c0 13D70401 		srli	a4,s1,16
 958 05c4 2301E500 		sb	a4,2(a0)
 959 05c8 1BD78401 		srliw	a4,s1,24
 960 05cc A301E500 		sb	a4,3(a0)
 961 05d0 13D70402 		srli	a4,s1,32
 962 05d4 2302E500 		sb	a4,4(a0)
 963 05d8 13D78402 		srli	a4,s1,40
 964 05dc A302E500 		sb	a4,5(a0)
 965 05e0 13D70403 		srli	a4,s1,48
 966 05e4 2303E500 		sb	a4,6(a0)
 967 05e8 93D48403 		srli	s1,s1,56
 968              	.LVL38:
 969 05ec A3039500 		sb	s1,7(a0)
 133:src/thread.cpp ****     if(thread->joinHead == 0){
 970              		.loc 1 133 5 is_stmt 1
 133:src/thread.cpp ****     if(thread->joinHead == 0){
 971              		.loc 1 133 19 is_stmt 0
 972 05f0 23040500 		sb	zero,8(a0)
 973 05f4 A3040500 		sb	zero,9(a0)
 974 05f8 23050500 		sb	zero,10(a0)
 975 05fc A3050500 		sb	zero,11(a0)
 976 0600 23060500 		sb	zero,12(a0)
GAS LISTING /tmp/ccSozyKx.s 			page 24


 977 0604 A3060500 		sb	zero,13(a0)
 978 0608 23070500 		sb	zero,14(a0)
 979 060c A3070500 		sb	zero,15(a0)
 134:src/thread.cpp ****         thread->joinHead = newJoin;
 980              		.loc 1 134 5 is_stmt 1
 134:src/thread.cpp ****         thread->joinHead = newJoin;
 981              		.loc 1 134 16 is_stmt 0
 982 0610 03370908 		ld	a4,128(s2)
 134:src/thread.cpp ****         thread->joinHead = newJoin;
 983              		.loc 1 134 5
 984 0614 63040706 		beqz	a4,.L42
 138:src/thread.cpp ****         thread->joinTail = newJoin;
 985              		.loc 1 138 9 is_stmt 1
 138:src/thread.cpp ****         thread->joinTail = newJoin;
 986              		.loc 1 138 17 is_stmt 0
 987 0618 03378908 		ld	a4,136(s2)
 138:src/thread.cpp ****         thread->joinTail = newJoin;
 988              		.loc 1 138 32
 989 061c 2304A700 		sb	a0,8(a4)
 990 0620 93568500 		srli	a3,a0,8
 991 0624 A304D700 		sb	a3,9(a4)
 992 0628 93560501 		srli	a3,a0,16
 993 062c 2305D700 		sb	a3,10(a4)
 994 0630 9B568501 		srliw	a3,a0,24
 995 0634 A305D700 		sb	a3,11(a4)
 996 0638 93560502 		srli	a3,a0,32
 997 063c 2306D700 		sb	a3,12(a4)
 998 0640 93568502 		srli	a3,a0,40
 999 0644 A306D700 		sb	a3,13(a4)
 1000 0648 93560503 		srli	a3,a0,48
 1001 064c 2307D700 		sb	a3,14(a4)
 1002 0650 93568503 		srli	a3,a0,56
 1003 0654 A307D700 		sb	a3,15(a4)
 139:src/thread.cpp ****     }
 1004              		.loc 1 139 9 is_stmt 1
 139:src/thread.cpp ****     }
 1005              		.loc 1 139 26 is_stmt 0
 1006 0658 2334A908 		sd	a0,136(s2)
 1007              	.L36:
 142:src/thread.cpp **** }
 1008              		.loc 1 142 5 is_stmt 1
 142:src/thread.cpp **** }
 1009              		.loc 1 142 13 is_stmt 0
 1010 065c 97000000 		call	_ZN7_thread8dispatchEv
 1010      E7800000 
 1011              	.LVL39:
 143:src/thread.cpp **** 
 1012              		.loc 1 143 1
 1013 0664 83308101 		ld	ra,24(sp)
 1014              		.cfi_remember_state
 1015              		.cfi_restore 1
 1016 0668 03340101 		ld	s0,16(sp)
 1017              		.cfi_restore 8
 1018              		.cfi_def_cfa 2, 32
 1019 066c 83348100 		ld	s1,8(sp)
 1020              		.cfi_restore 9
 1021 0670 03390100 		ld	s2,0(sp)
GAS LISTING /tmp/ccSozyKx.s 			page 25


 1022              		.cfi_restore 18
 1023              	.LVL40:
 1024 0674 13010102 		addi	sp,sp,32
 1025              		.cfi_def_cfa_offset 0
 1026 0678 67800000 		jr	ra
 1027              	.LVL41:
 1028              	.L42:
 1029              		.cfi_restore_state
 135:src/thread.cpp ****         thread->joinTail = newJoin;
 1030              		.loc 1 135 9 is_stmt 1
 135:src/thread.cpp ****         thread->joinTail = newJoin;
 1031              		.loc 1 135 26 is_stmt 0
 1032 067c 2330A908 		sd	a0,128(s2)
 136:src/thread.cpp ****     }else{
 1033              		.loc 1 136 9 is_stmt 1
 136:src/thread.cpp ****     }else{
 1034              		.loc 1 136 26 is_stmt 0
 1035 0680 2334A908 		sd	a0,136(s2)
 1036 0684 6FF09FFD 		j	.L36
 1037              		.cfi_endproc
 1038              	.LFE10:
 1040              		.align	2
 1041              		.globl	_ZN7_thread4exitEv
 1043              	_ZN7_thread4exitEv:
 1044              	.LFB11:
 145:src/thread.cpp **** 
 1045              		.loc 1 145 20 is_stmt 1
 1046              		.cfi_startproc
 147:src/thread.cpp ****         return -1;
 1047              		.loc 1 147 5
 147:src/thread.cpp ****         return -1;
 1048              		.loc 1 147 29 is_stmt 0
 1049 0688 17070000 		ld	a4,.LANCHOR0+8
 1049      03370700 
 1050 0690 8337070A 		ld	a5,160(a4)
 1051 0694 93F61700 		andi	a3,a5,1
 147:src/thread.cpp ****         return -1;
 1052              		.loc 1 147 5
 1053 0698 63960604 		bnez	a3,.L45
 150:src/thread.cpp ****         return -2;
 1054              		.loc 1 150 5 is_stmt 1
 150:src/thread.cpp ****         return -2;
 1055              		.loc 1 150 30 is_stmt 0
 1056 069c 93F62700 		andi	a3,a5,2
 150:src/thread.cpp ****         return -2;
 1057              		.loc 1 150 5
 1058 06a0 63960604 		bnez	a3,.L46
 153:src/thread.cpp ****         return -3;
 1059              		.loc 1 153 5 is_stmt 1
 153:src/thread.cpp ****         return -3;
 1060              		.loc 1 153 31 is_stmt 0
 1061 06a4 93F74700 		andi	a5,a5,4
 153:src/thread.cpp ****         return -3;
 1062              		.loc 1 153 5
 1063 06a8 63960704 		bnez	a5,.L47
 145:src/thread.cpp **** 
 1064              		.loc 1 145 20
GAS LISTING /tmp/ccSozyKx.s 			page 26


 1065 06ac 130101FF 		addi	sp,sp,-16
 1066              		.cfi_def_cfa_offset 16
 1067 06b0 23341100 		sd	ra,8(sp)
 1068 06b4 23308100 		sd	s0,0(sp)
 1069              		.cfi_offset 1, -8
 1070              		.cfi_offset 8, -16
 1071 06b8 13040101 		addi	s0,sp,16
 1072              		.cfi_def_cfa 8, 0
 156:src/thread.cpp ****     dispatch();
 1073              		.loc 1 156 5 is_stmt 1
 156:src/thread.cpp ****     dispatch();
 1074              		.loc 1 156 29 is_stmt 0
 1075 06bc 8337070A 		ld	a5,160(a4)
 1076 06c0 93E78700 		ori	a5,a5,8
 1077 06c4 2330F70A 		sd	a5,160(a4)
 157:src/thread.cpp ****     return 0;
 1078              		.loc 1 157 5 is_stmt 1
 157:src/thread.cpp ****     return 0;
 1079              		.loc 1 157 13 is_stmt 0
 1080 06c8 97000000 		call	_ZN7_thread8dispatchEv
 1080      E7800000 
 1081              	.LVL42:
 158:src/thread.cpp **** }
 1082              		.loc 1 158 5 is_stmt 1
 158:src/thread.cpp **** }
 1083              		.loc 1 158 12 is_stmt 0
 1084 06d0 13050000 		li	a0,0
 159:src/thread.cpp **** 
 1085              		.loc 1 159 1
 1086 06d4 83308100 		ld	ra,8(sp)
 1087              		.cfi_restore 1
 1088 06d8 03340100 		ld	s0,0(sp)
 1089              		.cfi_restore 8
 1090              		.cfi_def_cfa 2, 16
 1091 06dc 13010101 		addi	sp,sp,16
 1092              		.cfi_def_cfa_offset 0
 1093 06e0 67800000 		jr	ra
 1094              	.L45:
 148:src/thread.cpp ****     }
 1095              		.loc 1 148 17
 1096 06e4 1305F0FF 		li	a0,-1
 1097 06e8 67800000 		ret
 1098              	.L46:
 151:src/thread.cpp ****     }
 1099              		.loc 1 151 17
 1100 06ec 1305E0FF 		li	a0,-2
 1101 06f0 67800000 		ret
 1102              	.L47:
 154:src/thread.cpp ****     }
 1103              		.loc 1 154 17
 1104 06f4 1305D0FF 		li	a0,-3
 159:src/thread.cpp **** 
 1105              		.loc 1 159 1
 1106 06f8 67800000 		ret
 1107              		.cfi_endproc
 1108              	.LFE11:
 1110              		.align	2
GAS LISTING /tmp/ccSozyKx.s 			page 27


 1111              		.globl	_ZN7_thread7wrapperEv
 1113              	_ZN7_thread7wrapperEv:
 1114              	.LFB7:
  61:src/thread.cpp ****     // popSppSpie();
 1115              		.loc 1 61 24 is_stmt 1
 1116              		.cfi_startproc
 1117 06fc 130101FE 		addi	sp,sp,-32
 1118              		.cfi_def_cfa_offset 32
 1119 0700 233C1100 		sd	ra,24(sp)
 1120 0704 23388100 		sd	s0,16(sp)
 1121 0708 23349100 		sd	s1,8(sp)
 1122              		.cfi_offset 1, -8
 1123              		.cfi_offset 8, -16
 1124              		.cfi_offset 9, -24
 1125 070c 13040102 		addi	s0,sp,32
 1126              		.cfi_def_cfa 8, 0
  64:src/thread.cpp ****     currentThread->unJoin();
 1127              		.loc 1 64 5
  64:src/thread.cpp ****     currentThread->unJoin();
 1128              		.loc 1 64 20 is_stmt 0
 1129 0710 97040000 		lla	s1,.LANCHOR0
 1129      93840400 
 1130 0718 83B78400 		ld	a5,8(s1)
 1131 071c 03B7870A 		ld	a4,168(a5)
  64:src/thread.cpp ****     currentThread->unJoin();
 1132              		.loc 1 64 28
 1133 0720 03B5070B 		ld	a0,176(a5)
 1134 0724 E7000700 		jalr	a4
 1135              	.LVL43:
  65:src/thread.cpp ****     exit();
 1136              		.loc 1 65 5 is_stmt 1
  65:src/thread.cpp ****     exit();
 1137              		.loc 1 65 26 is_stmt 0
 1138 0728 03B58400 		ld	a0,8(s1)
 1139 072c 97000000 		call	_ZN7_thread6unJoinEv
 1139      E7800000 
 1140              	.LVL44:
  66:src/thread.cpp **** }
 1141              		.loc 1 66 5 is_stmt 1
  66:src/thread.cpp **** }
 1142              		.loc 1 66 9 is_stmt 0
 1143 0734 97000000 		call	_ZN7_thread4exitEv
 1143      E7800000 
 1144              	.LVL45:
  67:src/thread.cpp **** 
 1145              		.loc 1 67 1
 1146 073c 83308101 		ld	ra,24(sp)
 1147              		.cfi_restore 1
 1148 0740 03340101 		ld	s0,16(sp)
 1149              		.cfi_restore 8
 1150              		.cfi_def_cfa 2, 32
 1151 0744 83348100 		ld	s1,8(sp)
 1152              		.cfi_restore 9
 1153 0748 13010102 		addi	sp,sp,32
 1154              		.cfi_def_cfa_offset 0
 1155 074c 67800000 		jr	ra
 1156              		.cfi_endproc
GAS LISTING /tmp/ccSozyKx.s 			page 28


 1157              	.LFE7:
 1159              		.globl	_ZN7_thread6nextIDE
 1160              		.globl	_ZN7_thread13currentThreadE
 1161              		.section	.rodata.cst8,"aM",@progbits,8
 1162              		.align	3
 1163              	.LC0:
 1164 0000 FFFFFFFF 		.dword	-1152921500311879681
 1164      000000F0 
 1165              		.bss
 1166              		.align	3
 1167              		.set	.LANCHOR0,. + 0
 1170              	_ZN7_thread6nextIDE:
 1171 0000 00000000 		.zero	4
 1172 0004 00000000 		.zero	4
 1175              	_ZN7_thread13currentThreadE:
 1176 0008 00000000 		.zero	8
 1176      00000000 
 1177              		.text
 1178              	.Letext0:
 1179              		.file 3 "./lib/hw.h"
 1180              		.file 4 "./h/sched.h"
 1181              		.file 5 "./h/syscalls_c.h"
GAS LISTING /tmp/ccSozyKx.s 			page 29


DEFINED SYMBOLS
                            *ABS*:0000000000000000 thread.cpp
     /tmp/ccSozyKx.s:9      .text:0000000000000000 _ZN7_threadC2EPFvPvES0_
     /tmp/ccSozyKx.s:13     .text:0000000000000000 .L0 
     /tmp/ccSozyKx.s:15     .text:0000000000000000 .L0 
     /tmp/ccSozyKx.s:16     .text:0000000000000004 .L0 
     /tmp/ccSozyKx.s:18     .text:0000000000000008 .L0 
     /tmp/ccSozyKx.s:20     .text:000000000000000c .L0 
     /tmp/ccSozyKx.s:27     .text:000000000000000c .L0 
     /tmp/ccSozyKx.s:32     .text:0000000000000010 .L0 
     /tmp/ccSozyKx.s:33     .text:0000000000000010 .L0 
     /tmp/ccSozyKx.s:34     .text:0000000000000010 .L0 
     /tmp/ccSozyKx.s:35     .text:0000000000000010 .L0 
     /tmp/ccSozyKx.s:40     .text:0000000000000024 .L0 
     /tmp/ccSozyKx.s:42     .text:0000000000000028 .L0 
     /tmp/ccSozyKx.s:43     .text:0000000000000028 .L0 
     /tmp/ccSozyKx.s:45     .text:000000000000002c .L0 
     /tmp/ccSozyKx.s:46     .text:000000000000002c .L0 
     /tmp/ccSozyKx.s:47     .text:000000000000002c .L0 
     /tmp/ccSozyKx.s:48     .text:000000000000002c .L0 
     /tmp/ccSozyKx.s:49     .text:000000000000002c .L0 
     /tmp/ccSozyKx.s:55     .text:000000000000003c .L0 
     /tmp/ccSozyKx.s:56     .text:000000000000003c .L0 
     /tmp/ccSozyKx.s:60     .text:000000000000004c .L0 
     /tmp/ccSozyKx.s:61     .text:000000000000004c .L0 
     /tmp/ccSozyKx.s:63     .text:0000000000000050 .L0 
     /tmp/ccSozyKx.s:64     .text:0000000000000050 .L0 
     /tmp/ccSozyKx.s:66     .text:0000000000000054 .L0 
     /tmp/ccSozyKx.s:67     .text:0000000000000054 .L0 
     /tmp/ccSozyKx.s:69     .text:0000000000000058 .L0 
     /tmp/ccSozyKx.s:70     .text:0000000000000058 .L0 
     /tmp/ccSozyKx.s:72     .text:000000000000005c .L0 
     /tmp/ccSozyKx.s:73     .text:000000000000005c .L0 
     /tmp/ccSozyKx.s:75     .text:0000000000000060 .L0 
     /tmp/ccSozyKx.s:76     .text:0000000000000060 .L0 
     /tmp/ccSozyKx.s:78     .text:0000000000000064 .L0 
     /tmp/ccSozyKx.s:79     .text:0000000000000064 .L0 
     /tmp/ccSozyKx.s:81     .text:0000000000000068 .L0 
     /tmp/ccSozyKx.s:82     .text:0000000000000068 .L0 
     /tmp/ccSozyKx.s:84     .text:000000000000006c .L0 
     /tmp/ccSozyKx.s:85     .text:000000000000006c .L0 
     /tmp/ccSozyKx.s:87     .text:0000000000000070 .L0 
     /tmp/ccSozyKx.s:88     .text:0000000000000070 .L0 
     /tmp/ccSozyKx.s:90     .text:0000000000000074 .L0 
     /tmp/ccSozyKx.s:91     .text:0000000000000074 .L0 
     /tmp/ccSozyKx.s:93     .text:0000000000000078 .L0 
     /tmp/ccSozyKx.s:94     .text:0000000000000078 .L0 
     /tmp/ccSozyKx.s:96     .text:000000000000007c .L0 
     /tmp/ccSozyKx.s:97     .text:000000000000007c .L0 
     /tmp/ccSozyKx.s:99     .text:0000000000000080 .L0 
     /tmp/ccSozyKx.s:100    .text:0000000000000080 .L0 
     /tmp/ccSozyKx.s:102    .text:0000000000000084 .L0 
     /tmp/ccSozyKx.s:103    .text:0000000000000084 .L0 
     /tmp/ccSozyKx.s:105    .text:0000000000000088 .L0 
     /tmp/ccSozyKx.s:106    .text:0000000000000088 .L0 
     /tmp/ccSozyKx.s:108    .text:000000000000008c .L0 
     /tmp/ccSozyKx.s:109    .text:000000000000008c .L0 
GAS LISTING /tmp/ccSozyKx.s 			page 30


     /tmp/ccSozyKx.s:1113   .text:00000000000006fc _ZN7_thread7wrapperEv
     /tmp/ccSozyKx.s:110    .text:000000000000008c .L0 
     /tmp/ccSozyKx.s:114    .text:0000000000000098 .L0 
     /tmp/ccSozyKx.s:115    .text:000000000000009c .L0 
     /tmp/ccSozyKx.s:116    .text:000000000000009c .L0 
     /tmp/ccSozyKx.s:118    .text:00000000000000a0 .L0 
     /tmp/ccSozyKx.s:120    .text:00000000000000a4 .L0 
     /tmp/ccSozyKx.s:9      .text:0000000000000000 _ZN7_threadC1EPFvPvES0_
     /tmp/ccSozyKx.s:128    .text:00000000000000a4 _Z10popSppSpiev
     /tmp/ccSozyKx.s:131    .text:00000000000000a4 .L0 
     /tmp/ccSozyKx.s:132    .text:00000000000000a4 .L0 
     /tmp/ccSozyKx.s:133    .text:00000000000000a8 .L0 
     /tmp/ccSozyKx.s:135    .text:00000000000000ac .L0 
     /tmp/ccSozyKx.s:137    .text:00000000000000b0 .L0 
     /tmp/ccSozyKx.s:139    .text:00000000000000b0 .L0 
      src/thread.cpp:57     .text:00000000000000b0 .L0 
     /tmp/ccSozyKx.s:145    .text:00000000000000b4 .L0 
      src/thread.cpp:58     .text:00000000000000b4 .L0 
     /tmp/ccSozyKx.s:151    .text:00000000000000b8 .L0 
     /tmp/ccSozyKx.s:152    .text:00000000000000bc .L0 
     /tmp/ccSozyKx.s:153    .text:00000000000000bc .L0 
     /tmp/ccSozyKx.s:155    .text:00000000000000c0 .L0 
     /tmp/ccSozyKx.s:157    .text:00000000000000c4 .L0 
     /tmp/ccSozyKx.s:163    .text:00000000000000c4 _ZN7_thread6unJoinEv
     /tmp/ccSozyKx.s:166    .text:00000000000000c4 .L0 
     /tmp/ccSozyKx.s:168    .text:00000000000000c4 .L0 
     /tmp/ccSozyKx.s:169    .text:00000000000000c8 .L0 
     /tmp/ccSozyKx.s:174    .text:00000000000000d8 .L0 
     /tmp/ccSozyKx.s:175    .text:00000000000000d8 .L0 
     /tmp/ccSozyKx.s:176    .text:00000000000000d8 .L0 
     /tmp/ccSozyKx.s:177    .text:00000000000000d8 .L0 
     /tmp/ccSozyKx.s:179    .text:00000000000000dc .L0 
     /tmp/ccSozyKx.s:181    .text:00000000000000dc .L0 
     /tmp/ccSozyKx.s:182    .text:00000000000000dc .L0 
     /tmp/ccSozyKx.s:186    .text:00000000000000e0 .L0 
     /tmp/ccSozyKx.s:187    .text:00000000000000e0 .L0 
     /tmp/ccSozyKx.s:190    .text:00000000000000e4 .L0 
     /tmp/ccSozyKx.s:191    .text:00000000000000e4 .L0 
     /tmp/ccSozyKx.s:215    .text:000000000000013c .L0 
     /tmp/ccSozyKx.s:216    .text:000000000000013c .L0 
     /tmp/ccSozyKx.s:220    .text:0000000000000148 .L0 
     /tmp/ccSozyKx.s:221    .text:0000000000000148 .L0 
     /tmp/ccSozyKx.s:224    .text:0000000000000150 .L0 
     /tmp/ccSozyKx.s:225    .text:0000000000000150 .L0 
     /tmp/ccSozyKx.s:249    .text:00000000000001a8 .L0 
     /tmp/ccSozyKx.s:250    .text:00000000000001a8 .L0 
     /tmp/ccSozyKx.s:254    .text:00000000000001b4 .L0 
     /tmp/ccSozyKx.s:255    .text:00000000000001b4 .L0 
     /tmp/ccSozyKx.s:258    .text:00000000000001b8 .L0 
     /tmp/ccSozyKx.s:262    .text:00000000000001bc .L0 
     /tmp/ccSozyKx.s:263    .text:00000000000001c0 .L0 
     /tmp/ccSozyKx.s:265    .text:00000000000001c4 .L0 
     /tmp/ccSozyKx.s:266    .text:00000000000001c4 .L0 
     /tmp/ccSozyKx.s:268    .text:00000000000001c8 .L0 
     /tmp/ccSozyKx.s:271    .text:00000000000001cc .L0 
     /tmp/ccSozyKx.s:273    .text:00000000000001d0 .L0 
     /tmp/ccSozyKx.s:275    .text:00000000000001d4 .L0 
GAS LISTING /tmp/ccSozyKx.s 			page 31


     /tmp/ccSozyKx.s:281    .text:00000000000001d4 _ZN7_thread6createEPPS_PFvPvES2_S2_b
     /tmp/ccSozyKx.s:284    .text:00000000000001d4 .L0 
     /tmp/ccSozyKx.s:286    .text:00000000000001d4 .L0 
     /tmp/ccSozyKx.s:287    .text:00000000000001d8 .L0 
     /tmp/ccSozyKx.s:295    .text:00000000000001f4 .L0 
     /tmp/ccSozyKx.s:296    .text:00000000000001f4 .L0 
     /tmp/ccSozyKx.s:297    .text:00000000000001f4 .L0 
     /tmp/ccSozyKx.s:298    .text:00000000000001f4 .L0 
     /tmp/ccSozyKx.s:299    .text:00000000000001f4 .L0 
     /tmp/ccSozyKx.s:300    .text:00000000000001f4 .L0 
     /tmp/ccSozyKx.s:301    .text:00000000000001f4 .L0 
     /tmp/ccSozyKx.s:303    .text:00000000000001f8 .L0 
     /tmp/ccSozyKx.s:310    .text:000000000000020c .L0 
     /tmp/ccSozyKx.s:311    .text:000000000000020c .L0 
     /tmp/ccSozyKx.s:316    .text:0000000000000218 .L0 
     /tmp/ccSozyKx.s:318    .text:000000000000021c .L0 
     /tmp/ccSozyKx.s:320    .text:0000000000000220 .L0 
     /tmp/ccSozyKx.s:321    .text:0000000000000220 .L0 
     /tmp/ccSozyKx.s:323    .text:0000000000000224 .L0 
     /tmp/ccSozyKx.s:324    .text:0000000000000224 .L0 
     /tmp/ccSozyKx.s:326    .text:0000000000000228 .L0 
     /tmp/ccSozyKx.s:328    .text:000000000000022c .L0 
     /tmp/ccSozyKx.s:329    .text:000000000000022c .L0 
     /tmp/ccSozyKx.s:334    .text:0000000000000240 .L0 
     /tmp/ccSozyKx.s:336    .text:0000000000000244 .L0 
     /tmp/ccSozyKx.s:338    .text:0000000000000248 .L0 
     /tmp/ccSozyKx.s:339    .text:0000000000000248 .L0 
     /tmp/ccSozyKx.s:341    .text:000000000000024c .L0 
     /tmp/ccSozyKx.s:345    .text:0000000000000258 .L0 
     /tmp/ccSozyKx.s:346    .text:0000000000000258 .L0 
     /tmp/ccSozyKx.s:348    .text:000000000000025c .L0 
     /tmp/ccSozyKx.s:352    .text:0000000000000268 .L0 
     /tmp/ccSozyKx.s:353    .text:0000000000000268 .L0 
     /tmp/ccSozyKx.s:355    .text:000000000000026c .L0 
     /tmp/ccSozyKx.s:359    .text:0000000000000278 .L0 
     /tmp/ccSozyKx.s:360    .text:0000000000000278 .L0 
     /tmp/ccSozyKx.s:362    .text:000000000000027c .L0 
     /tmp/ccSozyKx.s:366    .text:0000000000000288 .L0 
     /tmp/ccSozyKx.s:367    .text:0000000000000288 .L0 
     /tmp/ccSozyKx.s:369    .text:000000000000028c .L0 
     /tmp/ccSozyKx.s:377    .text:00000000000002a4 .L0 
     /tmp/ccSozyKx.s:378    .text:00000000000002a4 .L0 
     /tmp/ccSozyKx.s:380    .text:00000000000002a8 .L0 
     /tmp/ccSozyKx.s:385    .text:00000000000002bc .L0 
     /tmp/ccSozyKx.s:386    .text:00000000000002bc .L0 
     /tmp/ccSozyKx.s:388    .text:00000000000002c0 .L0 
     /tmp/ccSozyKx.s:390    .text:00000000000002c4 .L0 
     /tmp/ccSozyKx.s:391    .text:00000000000002c4 .L0 
     /tmp/ccSozyKx.s:393    .text:00000000000002c8 .L0 
     /tmp/ccSozyKx.s:395    .text:00000000000002cc .L0 
     /tmp/ccSozyKx.s:396    .text:00000000000002cc .L0 
     /tmp/ccSozyKx.s:398    .text:00000000000002d0 .L0 
     /tmp/ccSozyKx.s:400    .text:00000000000002d4 .L0 
     /tmp/ccSozyKx.s:401    .text:00000000000002d4 .L0 
     /tmp/ccSozyKx.s:403    .text:00000000000002d8 .L0 
     /tmp/ccSozyKx.s:405    .text:00000000000002dc .L0 
     /tmp/ccSozyKx.s:406    .text:00000000000002dc .L0 
GAS LISTING /tmp/ccSozyKx.s 			page 32


     /tmp/ccSozyKx.s:408    .text:00000000000002e0 .L0 
     /tmp/ccSozyKx.s:410    .text:00000000000002e4 .L0 
     /tmp/ccSozyKx.s:411    .text:00000000000002e4 .L0 
     /tmp/ccSozyKx.s:413    .text:00000000000002e8 .L0 
     /tmp/ccSozyKx.s:415    .text:00000000000002ec .L0 
     /tmp/ccSozyKx.s:416    .text:00000000000002ec .L0 
     /tmp/ccSozyKx.s:418    .text:00000000000002f0 .L0 
     /tmp/ccSozyKx.s:420    .text:00000000000002f4 .L0 
     /tmp/ccSozyKx.s:421    .text:00000000000002f4 .L0 
     /tmp/ccSozyKx.s:423    .text:00000000000002f8 .L0 
     /tmp/ccSozyKx.s:425    .text:00000000000002fc .L0 
     /tmp/ccSozyKx.s:426    .text:00000000000002fc .L0 
     /tmp/ccSozyKx.s:428    .text:0000000000000300 .L0 
     /tmp/ccSozyKx.s:430    .text:0000000000000304 .L0 
     /tmp/ccSozyKx.s:431    .text:0000000000000304 .L0 
     /tmp/ccSozyKx.s:433    .text:0000000000000308 .L0 
     /tmp/ccSozyKx.s:435    .text:000000000000030c .L0 
     /tmp/ccSozyKx.s:436    .text:000000000000030c .L0 
     /tmp/ccSozyKx.s:438    .text:0000000000000310 .L0 
     /tmp/ccSozyKx.s:440    .text:0000000000000314 .L0 
     /tmp/ccSozyKx.s:441    .text:0000000000000314 .L0 
     /tmp/ccSozyKx.s:443    .text:0000000000000318 .L0 
     /tmp/ccSozyKx.s:445    .text:000000000000031c .L0 
     /tmp/ccSozyKx.s:446    .text:000000000000031c .L0 
     /tmp/ccSozyKx.s:448    .text:0000000000000320 .L0 
     /tmp/ccSozyKx.s:450    .text:0000000000000324 .L0 
     /tmp/ccSozyKx.s:451    .text:0000000000000324 .L0 
     /tmp/ccSozyKx.s:453    .text:0000000000000328 .L0 
     /tmp/ccSozyKx.s:455    .text:000000000000032c .L0 
     /tmp/ccSozyKx.s:456    .text:000000000000032c .L0 
     /tmp/ccSozyKx.s:458    .text:0000000000000330 .L0 
     /tmp/ccSozyKx.s:460    .text:0000000000000334 .L0 
     /tmp/ccSozyKx.s:461    .text:0000000000000334 .L0 
     /tmp/ccSozyKx.s:463    .text:0000000000000338 .L0 
     /tmp/ccSozyKx.s:465    .text:000000000000033c .L0 
     /tmp/ccSozyKx.s:466    .text:000000000000033c .L0 
     /tmp/ccSozyKx.s:468    .text:0000000000000340 .L0 
     /tmp/ccSozyKx.s:470    .text:0000000000000344 .L0 
     /tmp/ccSozyKx.s:471    .text:0000000000000344 .L0 
     /tmp/ccSozyKx.s:473    .text:0000000000000348 .L0 
     /tmp/ccSozyKx.s:476    .text:0000000000000354 .L0 
     /tmp/ccSozyKx.s:477    .text:0000000000000354 .L0 
     /tmp/ccSozyKx.s:479    .text:0000000000000358 .L0 
     /tmp/ccSozyKx.s:481    .text:000000000000035c .L0 
     /tmp/ccSozyKx.s:483    .text:0000000000000360 .L0 
     /tmp/ccSozyKx.s:486    .text:0000000000000364 .L0 
     /tmp/ccSozyKx.s:487    .text:0000000000000368 .L0 
     /tmp/ccSozyKx.s:488    .text:0000000000000368 .L0 
     /tmp/ccSozyKx.s:490    .text:000000000000036c .L0 
     /tmp/ccSozyKx.s:491    .text:000000000000036c .L0 
     /tmp/ccSozyKx.s:493    .text:0000000000000370 .L0 
     /tmp/ccSozyKx.s:496    .text:0000000000000374 .L0 
     /tmp/ccSozyKx.s:498    .text:0000000000000378 .L0 
     /tmp/ccSozyKx.s:501    .text:000000000000037c .L0 
     /tmp/ccSozyKx.s:503    .text:0000000000000380 .L0 
     /tmp/ccSozyKx.s:506    .text:0000000000000384 .L0 
     /tmp/ccSozyKx.s:510    .text:0000000000000388 .L0 
GAS LISTING /tmp/ccSozyKx.s 			page 33


     /tmp/ccSozyKx.s:512    .text:0000000000000388 .L0 
     /tmp/ccSozyKx.s:513    .text:0000000000000388 .L0 
     /tmp/ccSozyKx.s:517    .text:0000000000000394 .L0 
     /tmp/ccSozyKx.s:522    .text:000000000000039c .L0 
     /tmp/ccSozyKx.s:524    .text:00000000000003a4 .L0 
     /tmp/ccSozyKx.s:530    .text:00000000000003a4 _ZN7_thread10setBlockedEb
     /tmp/ccSozyKx.s:533    .text:00000000000003a4 .L0 
     /tmp/ccSozyKx.s:535    .text:00000000000003a4 .L0 
     /tmp/ccSozyKx.s:536    .text:00000000000003a8 .L0 
     /tmp/ccSozyKx.s:538    .text:00000000000003ac .L0 
     /tmp/ccSozyKx.s:540    .text:00000000000003b0 .L0 
     /tmp/ccSozyKx.s:542    .text:00000000000003b0 .L0 
     /tmp/ccSozyKx.s:543    .text:00000000000003b0 .L0 
     /tmp/ccSozyKx.s:551    .text:00000000000003c8 .L0 
     /tmp/ccSozyKx.s:552    .text:00000000000003cc .L0 
     /tmp/ccSozyKx.s:553    .text:00000000000003cc .L0 
     /tmp/ccSozyKx.s:555    .text:00000000000003d0 .L0 
     /tmp/ccSozyKx.s:557    .text:00000000000003d4 .L0 
     /tmp/ccSozyKx.s:563    .text:00000000000003d4 _ZN7_thread9setClosedEb
     /tmp/ccSozyKx.s:566    .text:00000000000003d4 .L0 
     /tmp/ccSozyKx.s:568    .text:00000000000003d4 .L0 
     /tmp/ccSozyKx.s:569    .text:00000000000003d8 .L0 
     /tmp/ccSozyKx.s:571    .text:00000000000003dc .L0 
     /tmp/ccSozyKx.s:573    .text:00000000000003e0 .L0 
     /tmp/ccSozyKx.s:575    .text:00000000000003e0 .L0 
     /tmp/ccSozyKx.s:576    .text:00000000000003e0 .L0 
     /tmp/ccSozyKx.s:583    .text:00000000000003f4 .L0 
     /tmp/ccSozyKx.s:584    .text:00000000000003f8 .L0 
     /tmp/ccSozyKx.s:585    .text:00000000000003f8 .L0 
     /tmp/ccSozyKx.s:587    .text:00000000000003fc .L0 
     /tmp/ccSozyKx.s:589    .text:0000000000000400 .L0 
     /tmp/ccSozyKx.s:595    .text:0000000000000400 _ZN7_thread11setSleepingEb
     /tmp/ccSozyKx.s:598    .text:0000000000000400 .L0 
     /tmp/ccSozyKx.s:600    .text:0000000000000400 .L0 
     /tmp/ccSozyKx.s:601    .text:0000000000000404 .L0 
     /tmp/ccSozyKx.s:603    .text:0000000000000408 .L0 
     /tmp/ccSozyKx.s:605    .text:000000000000040c .L0 
     /tmp/ccSozyKx.s:607    .text:000000000000040c .L0 
     /tmp/ccSozyKx.s:608    .text:000000000000040c .L0 
     /tmp/ccSozyKx.s:616    .text:0000000000000424 .L0 
     /tmp/ccSozyKx.s:617    .text:0000000000000428 .L0 
     /tmp/ccSozyKx.s:618    .text:0000000000000428 .L0 
     /tmp/ccSozyKx.s:620    .text:000000000000042c .L0 
     /tmp/ccSozyKx.s:622    .text:0000000000000430 .L0 
     /tmp/ccSozyKx.s:628    .text:0000000000000430 _ZN7_thread13contextSwitchEPNS_14contextWrapperES1_
     /tmp/ccSozyKx.s:631    .text:0000000000000430 .L0 
     /tmp/ccSozyKx.s:633    .text:0000000000000430 .L0 
     /tmp/ccSozyKx.s:634    .text:0000000000000434 .L0 
     /tmp/ccSozyKx.s:636    .text:0000000000000438 .L0 
     /tmp/ccSozyKx.s:638    .text:000000000000043c .L0 
     /tmp/ccSozyKx.s:640    .text:000000000000043c .L0 
     /tmp/ccSozyKx.s:642    .text:0000000000000440 .L0 
      src/thread.cpp:199    .text:0000000000000440 .L0 
     /tmp/ccSozyKx.s:648    .text:0000000000000444 .L0 
      src/thread.cpp:200    .text:0000000000000444 .L0 
     /tmp/ccSozyKx.s:653    .text:0000000000000448 .L0 
      src/thread.cpp:202    .text:0000000000000448 .L0 
GAS LISTING /tmp/ccSozyKx.s 			page 34


     /tmp/ccSozyKx.s:658    .text:000000000000044c .L0 
      src/thread.cpp:203    .text:000000000000044c .L0 
     /tmp/ccSozyKx.s:663    .text:0000000000000450 .L0 
      src/thread.cpp:204    .text:0000000000000450 .L0 
     /tmp/ccSozyKx.s:668    .text:0000000000000454 .L0 
      src/thread.cpp:205    .text:0000000000000454 .L0 
     /tmp/ccSozyKx.s:673    .text:0000000000000458 .L0 
      src/thread.cpp:206    .text:0000000000000458 .L0 
     /tmp/ccSozyKx.s:678    .text:000000000000045c .L0 
      src/thread.cpp:207    .text:000000000000045c .L0 
     /tmp/ccSozyKx.s:683    .text:0000000000000460 .L0 
      src/thread.cpp:208    .text:0000000000000460 .L0 
     /tmp/ccSozyKx.s:688    .text:0000000000000464 .L0 
      src/thread.cpp:209    .text:0000000000000464 .L0 
     /tmp/ccSozyKx.s:693    .text:0000000000000468 .L0 
      src/thread.cpp:210    .text:0000000000000468 .L0 
     /tmp/ccSozyKx.s:698    .text:000000000000046c .L0 
      src/thread.cpp:211    .text:000000000000046c .L0 
     /tmp/ccSozyKx.s:703    .text:0000000000000470 .L0 
      src/thread.cpp:212    .text:0000000000000470 .L0 
     /tmp/ccSozyKx.s:708    .text:0000000000000474 .L0 
      src/thread.cpp:213    .text:0000000000000474 .L0 
     /tmp/ccSozyKx.s:713    .text:0000000000000478 .L0 
      src/thread.cpp:215    .text:0000000000000478 .L0 
     /tmp/ccSozyKx.s:718    .text:000000000000047c .L0 
      src/thread.cpp:216    .text:000000000000047c .L0 
     /tmp/ccSozyKx.s:725    .text:0000000000000480 .L0 
     /tmp/ccSozyKx.s:726    .text:0000000000000480 .L0 
     /tmp/ccSozyKx.s:728    .text:0000000000000484 .L0 
     /tmp/ccSozyKx.s:730    .text:0000000000000488 .L0 
      src/thread.cpp:219    .text:0000000000000488 .L0 
     /tmp/ccSozyKx.s:738    .text:000000000000048c .L0 
      src/thread.cpp:221    .text:000000000000048c .L0 
     /tmp/ccSozyKx.s:744    .text:0000000000000490 .L0 
      src/thread.cpp:223    .text:0000000000000490 .L0 
     /tmp/ccSozyKx.s:749    .text:0000000000000494 .L0 
      src/thread.cpp:224    .text:0000000000000494 .L0 
     /tmp/ccSozyKx.s:754    .text:0000000000000498 .L0 
      src/thread.cpp:226    .text:0000000000000498 .L0 
     /tmp/ccSozyKx.s:759    .text:000000000000049c .L0 
      src/thread.cpp:227    .text:000000000000049c .L0 
     /tmp/ccSozyKx.s:764    .text:00000000000004a0 .L0 
      src/thread.cpp:228    .text:00000000000004a0 .L0 
     /tmp/ccSozyKx.s:769    .text:00000000000004a4 .L0 
      src/thread.cpp:229    .text:00000000000004a4 .L0 
     /tmp/ccSozyKx.s:774    .text:00000000000004a8 .L0 
      src/thread.cpp:230    .text:00000000000004a8 .L0 
     /tmp/ccSozyKx.s:779    .text:00000000000004ac .L0 
      src/thread.cpp:231    .text:00000000000004ac .L0 
     /tmp/ccSozyKx.s:784    .text:00000000000004b0 .L0 
      src/thread.cpp:232    .text:00000000000004b0 .L0 
     /tmp/ccSozyKx.s:789    .text:00000000000004b4 .L0 
      src/thread.cpp:233    .text:00000000000004b4 .L0 
     /tmp/ccSozyKx.s:794    .text:00000000000004b8 .L0 
      src/thread.cpp:234    .text:00000000000004b8 .L0 
     /tmp/ccSozyKx.s:799    .text:00000000000004bc .L0 
      src/thread.cpp:235    .text:00000000000004bc .L0 
GAS LISTING /tmp/ccSozyKx.s 			page 35


     /tmp/ccSozyKx.s:804    .text:00000000000004c0 .L0 
      src/thread.cpp:236    .text:00000000000004c0 .L0 
     /tmp/ccSozyKx.s:809    .text:00000000000004c4 .L0 
      src/thread.cpp:237    .text:00000000000004c4 .L0 
     /tmp/ccSozyKx.s:814    .text:00000000000004c8 .L0 
     /tmp/ccSozyKx.s:816    .text:00000000000004c8 .L0 
     /tmp/ccSozyKx.s:817    .text:00000000000004cc .L0 
     /tmp/ccSozyKx.s:818    .text:00000000000004cc .L0 
     /tmp/ccSozyKx.s:820    .text:00000000000004d0 .L0 
     /tmp/ccSozyKx.s:822    .text:00000000000004d4 .L0 
     /tmp/ccSozyKx.s:828    .text:00000000000004d4 _ZN7_thread8dispatchEv
     /tmp/ccSozyKx.s:831    .text:00000000000004d4 .L0 
     /tmp/ccSozyKx.s:832    .text:00000000000004d4 .L0 
     /tmp/ccSozyKx.s:833    .text:00000000000004d8 .L0 
     /tmp/ccSozyKx.s:838    .text:00000000000004e8 .L0 
     /tmp/ccSozyKx.s:839    .text:00000000000004e8 .L0 
     /tmp/ccSozyKx.s:840    .text:00000000000004e8 .L0 
     /tmp/ccSozyKx.s:841    .text:00000000000004e8 .L0 
     /tmp/ccSozyKx.s:843    .text:00000000000004ec .L0 
     /tmp/ccSozyKx.s:845    .text:00000000000004ec .L0 
     /tmp/ccSozyKx.s:846    .text:00000000000004ec .L0 
     /tmp/ccSozyKx.s:850    .text:00000000000004f8 .L0 
     /tmp/ccSozyKx.s:851    .text:00000000000004f8 .L0 
     /tmp/ccSozyKx.s:854    .text:0000000000000500 .L0 
     /tmp/ccSozyKx.s:856    .text:0000000000000504 .L0 
     /tmp/ccSozyKx.s:858    .text:0000000000000508 .L0 
     /tmp/ccSozyKx.s:860    .text:000000000000050c .L0 
     /tmp/ccSozyKx.s:865    .text:0000000000000518 .L0 
     /tmp/ccSozyKx.s:866    .text:0000000000000518 .L0 
     /tmp/ccSozyKx.s:868    .text:000000000000051c .L0 
     /tmp/ccSozyKx.s:872    .text:0000000000000520 .L0 
     /tmp/ccSozyKx.s:879    .text:0000000000000538 .L0 
     /tmp/ccSozyKx.s:880    .text:000000000000053c .L0 
     /tmp/ccSozyKx.s:881    .text:000000000000053c .L0 
     /tmp/ccSozyKx.s:883    .text:0000000000000540 .L0 
     /tmp/ccSozyKx.s:884    .text:0000000000000540 .L0 
     /tmp/ccSozyKx.s:886    .text:0000000000000544 .L0 
     /tmp/ccSozyKx.s:888    .text:0000000000000548 .L0 
     /tmp/ccSozyKx.s:890    .text:000000000000054c .L0 
     /tmp/ccSozyKx.s:894    .text:0000000000000550 .L0 
     /tmp/ccSozyKx.s:896    .text:0000000000000550 .L0 
     /tmp/ccSozyKx.s:897    .text:0000000000000550 .L0 
     /tmp/ccSozyKx.s:899    .text:0000000000000558 .L0 
     /tmp/ccSozyKx.s:902    .text:000000000000055c .L0 
     /tmp/ccSozyKx.s:903    .text:000000000000055c .L0 
     /tmp/ccSozyKx.s:907    .text:000000000000056c .L0 
     /tmp/ccSozyKx.s:913    .text:000000000000056c _ZN7_thread4joinEPS_
     /tmp/ccSozyKx.s:916    .text:000000000000056c .L0 
     /tmp/ccSozyKx.s:918    .text:000000000000056c .L0 
     /tmp/ccSozyKx.s:919    .text:000000000000056c .L0 
     /tmp/ccSozyKx.s:920    .text:000000000000056c .L0 
     /tmp/ccSozyKx.s:923    .text:0000000000000574 .L0 
     /tmp/ccSozyKx.s:927    .text:000000000000057c .L0 
     /tmp/ccSozyKx.s:928    .text:0000000000000580 .L0 
     /tmp/ccSozyKx.s:933    .text:0000000000000590 .L0 
     /tmp/ccSozyKx.s:934    .text:0000000000000590 .L0 
     /tmp/ccSozyKx.s:935    .text:0000000000000590 .L0 
GAS LISTING /tmp/ccSozyKx.s 			page 36


     /tmp/ccSozyKx.s:936    .text:0000000000000590 .L0 
     /tmp/ccSozyKx.s:938    .text:0000000000000594 .L0 
     /tmp/ccSozyKx.s:942    .text:000000000000059c .L0 
     /tmp/ccSozyKx.s:943    .text:000000000000059c .L0 
     /tmp/ccSozyKx.s:948    .text:00000000000005a8 .L0 
     /tmp/ccSozyKx.s:949    .text:00000000000005a8 .L0 
     /tmp/ccSozyKx.s:953    .text:00000000000005b4 .L0 
     /tmp/ccSozyKx.s:954    .text:00000000000005b4 .L0 
     /tmp/ccSozyKx.s:971    .text:00000000000005f0 .L0 
     /tmp/ccSozyKx.s:972    .text:00000000000005f0 .L0 
     /tmp/ccSozyKx.s:981    .text:0000000000000610 .L0 
     /tmp/ccSozyKx.s:982    .text:0000000000000610 .L0 
     /tmp/ccSozyKx.s:984    .text:0000000000000614 .L0 
     /tmp/ccSozyKx.s:986    .text:0000000000000618 .L0 
     /tmp/ccSozyKx.s:987    .text:0000000000000618 .L0 
     /tmp/ccSozyKx.s:989    .text:000000000000061c .L0 
     /tmp/ccSozyKx.s:1005   .text:0000000000000658 .L0 
     /tmp/ccSozyKx.s:1006   .text:0000000000000658 .L0 
     /tmp/ccSozyKx.s:1009   .text:000000000000065c .L0 
     /tmp/ccSozyKx.s:1010   .text:000000000000065c .L0 
     /tmp/ccSozyKx.s:1013   .text:0000000000000664 .L0 
     /tmp/ccSozyKx.s:1014   .text:0000000000000668 .L0 
     /tmp/ccSozyKx.s:1015   .text:0000000000000668 .L0 
     /tmp/ccSozyKx.s:1017   .text:000000000000066c .L0 
     /tmp/ccSozyKx.s:1018   .text:000000000000066c .L0 
     /tmp/ccSozyKx.s:1020   .text:0000000000000670 .L0 
     /tmp/ccSozyKx.s:1022   .text:0000000000000674 .L0 
     /tmp/ccSozyKx.s:1025   .text:0000000000000678 .L0 
     /tmp/ccSozyKx.s:1029   .text:000000000000067c .L0 
     /tmp/ccSozyKx.s:1031   .text:000000000000067c .L0 
     /tmp/ccSozyKx.s:1032   .text:000000000000067c .L0 
     /tmp/ccSozyKx.s:1034   .text:0000000000000680 .L0 
     /tmp/ccSozyKx.s:1035   .text:0000000000000680 .L0 
     /tmp/ccSozyKx.s:1037   .text:0000000000000688 .L0 
     /tmp/ccSozyKx.s:1043   .text:0000000000000688 _ZN7_thread4exitEv
     /tmp/ccSozyKx.s:1046   .text:0000000000000688 .L0 
     /tmp/ccSozyKx.s:1047   .text:0000000000000688 .L0 
     /tmp/ccSozyKx.s:1048   .text:0000000000000688 .L0 
     /tmp/ccSozyKx.s:1049   .text:0000000000000688 .L0 
     /tmp/ccSozyKx.s:1053   .text:0000000000000698 .L0 
     /tmp/ccSozyKx.s:1055   .text:000000000000069c .L0 
     /tmp/ccSozyKx.s:1056   .text:000000000000069c .L0 
     /tmp/ccSozyKx.s:1058   .text:00000000000006a0 .L0 
     /tmp/ccSozyKx.s:1060   .text:00000000000006a4 .L0 
     /tmp/ccSozyKx.s:1061   .text:00000000000006a4 .L0 
     /tmp/ccSozyKx.s:1063   .text:00000000000006a8 .L0 
     /tmp/ccSozyKx.s:1065   .text:00000000000006ac .L0 
     /tmp/ccSozyKx.s:1066   .text:00000000000006b0 .L0 
     /tmp/ccSozyKx.s:1069   .text:00000000000006b8 .L0 
     /tmp/ccSozyKx.s:1070   .text:00000000000006b8 .L0 
     /tmp/ccSozyKx.s:1072   .text:00000000000006bc .L0 
     /tmp/ccSozyKx.s:1074   .text:00000000000006bc .L0 
     /tmp/ccSozyKx.s:1075   .text:00000000000006bc .L0 
     /tmp/ccSozyKx.s:1079   .text:00000000000006c8 .L0 
     /tmp/ccSozyKx.s:1080   .text:00000000000006c8 .L0 
     /tmp/ccSozyKx.s:1083   .text:00000000000006d0 .L0 
     /tmp/ccSozyKx.s:1084   .text:00000000000006d0 .L0 
GAS LISTING /tmp/ccSozyKx.s 			page 37


     /tmp/ccSozyKx.s:1086   .text:00000000000006d4 .L0 
     /tmp/ccSozyKx.s:1087   .text:00000000000006d8 .L0 
     /tmp/ccSozyKx.s:1089   .text:00000000000006dc .L0 
     /tmp/ccSozyKx.s:1090   .text:00000000000006dc .L0 
     /tmp/ccSozyKx.s:1092   .text:00000000000006e0 .L0 
     /tmp/ccSozyKx.s:1096   .text:00000000000006e4 .L0 
     /tmp/ccSozyKx.s:1100   .text:00000000000006ec .L0 
     /tmp/ccSozyKx.s:1104   .text:00000000000006f4 .L0 
     /tmp/ccSozyKx.s:1106   .text:00000000000006f8 .L0 
     /tmp/ccSozyKx.s:1107   .text:00000000000006fc .L0 
     /tmp/ccSozyKx.s:1116   .text:00000000000006fc .L0 
     /tmp/ccSozyKx.s:1117   .text:00000000000006fc .L0 
     /tmp/ccSozyKx.s:1118   .text:0000000000000700 .L0 
     /tmp/ccSozyKx.s:1122   .text:000000000000070c .L0 
     /tmp/ccSozyKx.s:1123   .text:000000000000070c .L0 
     /tmp/ccSozyKx.s:1124   .text:000000000000070c .L0 
     /tmp/ccSozyKx.s:1126   .text:0000000000000710 .L0 
     /tmp/ccSozyKx.s:1128   .text:0000000000000710 .L0 
     /tmp/ccSozyKx.s:1129   .text:0000000000000710 .L0 
     /tmp/ccSozyKx.s:1133   .text:0000000000000720 .L0 
     /tmp/ccSozyKx.s:1137   .text:0000000000000728 .L0 
     /tmp/ccSozyKx.s:1138   .text:0000000000000728 .L0 
     /tmp/ccSozyKx.s:1142   .text:0000000000000734 .L0 
     /tmp/ccSozyKx.s:1143   .text:0000000000000734 .L0 
     /tmp/ccSozyKx.s:1146   .text:000000000000073c .L0 
     /tmp/ccSozyKx.s:1147   .text:0000000000000740 .L0 
     /tmp/ccSozyKx.s:1149   .text:0000000000000744 .L0 
     /tmp/ccSozyKx.s:1150   .text:0000000000000744 .L0 
     /tmp/ccSozyKx.s:1152   .text:0000000000000748 .L0 
     /tmp/ccSozyKx.s:1154   .text:000000000000074c .L0 
     /tmp/ccSozyKx.s:1156   .text:0000000000000750 .L0 
     /tmp/ccSozyKx.s:1170   .bss:0000000000000000 _ZN7_thread6nextIDE
     /tmp/ccSozyKx.s:1175   .bss:0000000000000008 _ZN7_thread13currentThreadE
     /tmp/ccSozyKx.s:1167   .bss:0000000000000000 .LANCHOR0
     /tmp/ccSozyKx.s:1182   .text:0000000000000750 .L0 
     /tmp/ccSozyKx.s:35     .text:0000000000000010 .L0 
     /tmp/ccSozyKx.s:1163   .rodata.cst8:0000000000000000 .LC0
     /tmp/ccSozyKx.s:56     .text:000000000000003c .L0 
     /tmp/ccSozyKx.s:110    .text:000000000000008c .L0 
     /tmp/ccSozyKx.s:329    .text:000000000000022c .L0 
     /tmp/ccSozyKx.s:381    .text:00000000000002ac .L0 
     /tmp/ccSozyKx.s:473    .text:0000000000000348 .L0 
     /tmp/ccSozyKx.s:846    .text:00000000000004ec .L0 
     /tmp/ccSozyKx.s:872    .text:0000000000000520 .L0 
     /tmp/ccSozyKx.s:897    .text:0000000000000550 .L0 
     /tmp/ccSozyKx.s:1049   .text:0000000000000688 .L0 
     /tmp/ccSozyKx.s:1129   .text:0000000000000710 .L0 
     /tmp/ccSozyKx.s:260    .text:00000000000001bc .L5
     /tmp/ccSozyKx.s:184    .text:00000000000000e0 .L7
     /tmp/ccSozyKx.s:520    .text:000000000000039c .L11
     /tmp/ccSozyKx.s:509    .text:0000000000000388 .L14
     /tmp/ccSozyKx.s:484    .text:0000000000000364 .L10
     /tmp/ccSozyKx.s:723    .text:0000000000000480 .L22
     /tmp/ccSozyKx.s:736    .text:000000000000048c .L23
     /tmp/ccSozyKx.s:893    .text:0000000000000550 .L31
     /tmp/ccSozyKx.s:863    .text:0000000000000518 .L28
     /tmp/ccSozyKx.s:900    .text:000000000000055c .L32
GAS LISTING /tmp/ccSozyKx.s 			page 38


     /tmp/ccSozyKx.s:870    .text:0000000000000520 .L29
     /tmp/ccSozyKx.s:877    .text:0000000000000538 .L25
     /tmp/ccSozyKx.s:925    .text:000000000000057c .L41
     /tmp/ccSozyKx.s:1028   .text:000000000000067c .L42
     /tmp/ccSozyKx.s:1007   .text:000000000000065c .L36
     /tmp/ccSozyKx.s:1094   .text:00000000000006e4 .L45
     /tmp/ccSozyKx.s:1098   .text:00000000000006ec .L46
     /tmp/ccSozyKx.s:1102   .text:00000000000006f4 .L47
     /tmp/ccSozyKx.s:2329   .debug_abbrev:0000000000000000 .Ldebug_abbrev0
     /tmp/ccSozyKx.s:3715   .debug_str:0000000000000418 .LASF80
     /tmp/ccSozyKx.s:3587   .debug_str:00000000000000e5 .LASF81
     /tmp/ccSozyKx.s:3663   .debug_str:000000000000029b .LASF82
     /tmp/ccSozyKx.s:5      .text:0000000000000000 .Ltext0
     /tmp/ccSozyKx.s:1178   .text:0000000000000750 .Letext0
     /tmp/ccSozyKx.s:3555   .debug_line:0000000000000000 .Ldebug_line0
     /tmp/ccSozyKx.s:3653   .debug_str:000000000000026a .LASF0
     /tmp/ccSozyKx.s:3671   .debug_str:0000000000000305 .LASF1
     /tmp/ccSozyKx.s:3639   .debug_str:0000000000000214 .LASF2
     /tmp/ccSozyKx.s:3701   .debug_str:00000000000003c2 .LASF3
     /tmp/ccSozyKx.s:3619   .debug_str:00000000000001ae .LASF4
     /tmp/ccSozyKx.s:3705   .debug_str:00000000000003d9 .LASF5
     /tmp/ccSozyKx.s:3581   .debug_str:00000000000000c4 .LASF6
     /tmp/ccSozyKx.s:3603   .debug_str:0000000000000146 .LASF7
     /tmp/ccSozyKx.s:3673   .debug_str:0000000000000318 .LASF8
     /tmp/ccSozyKx.s:3651   .debug_str:0000000000000257 .LASF9
     /tmp/ccSozyKx.s:3725   .debug_str:000000000000052d .LASF10
     /tmp/ccSozyKx.s:3613   .debug_str:0000000000000184 .LASF11
     /tmp/ccSozyKx.s:3683   .debug_str:0000000000000350 .LASF12
     /tmp/ccSozyKx.s:3719   .debug_str:00000000000004e6 .LASF13
     /tmp/ccSozyKx.s:3583   .debug_str:00000000000000cb .LASF14
     /tmp/ccSozyKx.s:3563   .debug_str:000000000000001b .LASF15
     /tmp/ccSozyKx.s:3589   .debug_str:00000000000000f4 .LASF16
     /tmp/ccSozyKx.s:3699   .debug_str:00000000000003ac .LASF17
     /tmp/ccSozyKx.s:3597   .debug_str:0000000000000124 .LASF18
     /tmp/ccSozyKx.s:3617   .debug_str:00000000000001a6 .LASF35
     /tmp/ccSozyKx.s:3643   .debug_str:0000000000000227 .LASF20
     /tmp/ccSozyKx.s:3695   .debug_str:0000000000000399 .LASF19
     /tmp/ccSozyKx.s:3739   .debug_str:000000000000059f .LASF83
     /tmp/ccSozyKx.s:3645   .debug_str:0000000000000236 .LASF21
     /tmp/ccSozyKx.s:3675   .debug_str:000000000000032b .LASF22
     /tmp/ccSozyKx.s:3745   .debug_str:00000000000005d0 .LASF23
     /tmp/ccSozyKx.s:3631   .debug_str:00000000000001f6 .LASF25
     /tmp/ccSozyKx.s:3565   .debug_str:000000000000002b .LASF27
     /tmp/ccSozyKx.s:3611   .debug_str:000000000000017f .LASF24
     /tmp/ccSozyKx.s:3633   .debug_str:00000000000001fd .LASF57
     /tmp/ccSozyKx.s:3731   .debug_str:0000000000000570 .LASF59
     /tmp/ccSozyKx.s:3655   .debug_str:0000000000000277 .LASF84
     /tmp/ccSozyKx.s:3711   .debug_str:00000000000003f8 .LASF85
     /tmp/ccSozyKx.s:3707   .debug_str:00000000000003eb .LASF26
     /tmp/ccSozyKx.s:3627   .debug_str:00000000000001da .LASF28
     /tmp/ccSozyKx.s:3605   .debug_str:000000000000014d .LASF86
     /tmp/ccSozyKx.s:3567   .debug_str:0000000000000050 .LASF29
     /tmp/ccSozyKx.s:3749   .debug_str:00000000000005f5 .LASF30
     /tmp/ccSozyKx.s:3585   .debug_str:00000000000000db .LASF31
     /tmp/ccSozyKx.s:3573   .debug_str:0000000000000072 .LASF32
     /tmp/ccSozyKx.s:3609   .debug_str:0000000000000173 .LASF33
     /tmp/ccSozyKx.s:3729   .debug_str:0000000000000555 .LASF34
GAS LISTING /tmp/ccSozyKx.s 			page 39


     /tmp/ccSozyKx.s:3727   .debug_str:000000000000053d .LASF37
     /tmp/ccSozyKx.s:3709   .debug_str:00000000000003f0 .LASF87
     /tmp/ccSozyKx.s:3691   .debug_str:000000000000037a .LASF88
     /tmp/ccSozyKx.s:3625   .debug_str:00000000000001d3 .LASF36
     /tmp/ccSozyKx.s:3623   .debug_str:00000000000001be .LASF38
     /tmp/ccSozyKx.s:3659   .debug_str:000000000000028b .LASF39
     /tmp/ccSozyKx.s:3713   .debug_str:000000000000040f .LASF40
     /tmp/ccSozyKx.s:3689   .debug_str:0000000000000371 .LASF41
     /tmp/ccSozyKx.s:3621   .debug_str:00000000000001b5 .LASF42
     /tmp/ccSozyKx.s:3635   .debug_str:0000000000000202 .LASF43
     /tmp/ccSozyKx.s:3637   .debug_str:000000000000020d .LASF44
     /tmp/ccSozyKx.s:3559   .debug_str:0000000000000009 .LASF45
     /tmp/ccSozyKx.s:3685   .debug_str:000000000000035f .LASF46
     /tmp/ccSozyKx.s:3693   .debug_str:0000000000000390 .LASF47
     /tmp/ccSozyKx.s:3601   .debug_str:000000000000013f .LASF48
     /tmp/ccSozyKx.s:3737   .debug_str:0000000000000596 .LASF49
     /tmp/ccSozyKx.s:3677   .debug_str:0000000000000332 .LASF50
     /tmp/ccSozyKx.s:3629   .debug_str:00000000000001ef .LASF51
     /tmp/ccSozyKx.s:3733   .debug_str:0000000000000583 .LASF89
     /tmp/ccSozyKx.s:3665   .debug_str:00000000000002b7 .LASF90
     /tmp/ccSozyKx.s:3571   .debug_str:000000000000006d .LASF52
     /tmp/ccSozyKx.s:3557   .debug_str:0000000000000000 .LASF53
     /tmp/ccSozyKx.s:3679   .debug_str:000000000000033b .LASF54
     /tmp/ccSozyKx.s:3657   .debug_str:0000000000000280 .LASF55
     /tmp/ccSozyKx.s:3569   .debug_str:000000000000005b .LASF56
     /tmp/ccSozyKx.s:3723   .debug_str:0000000000000511 .LASF91
     /tmp/ccSozyKx.s:3615   .debug_str:0000000000000192 .LASF92
     /tmp/ccSozyKx.s:3593   .debug_str:000000000000010e .LASF58
     /tmp/ccSozyKx.s:3607   .debug_str:000000000000015b .LASF60
     /tmp/ccSozyKx.s:3579   .debug_str:00000000000000bb .LASF61
     /tmp/ccSozyKx.s:3575   .debug_str:000000000000008a .LASF62
     /tmp/ccSozyKx.s:3599   .debug_str:000000000000013a .LASF63
     /tmp/ccSozyKx.s:3641   .debug_str:0000000000000222 .LASF64
     /tmp/ccSozyKx.s:3717   .debug_str:00000000000004dc .LASF65
     /tmp/ccSozyKx.s:3721   .debug_str:00000000000004f5 .LASF66
     /tmp/ccSozyKx.s:3667   .debug_str:00000000000002eb .LASF67
     /tmp/ccSozyKx.s:629    .text:0000000000000430 .LFB16
     /tmp/ccSozyKx.s:823    .text:00000000000004d4 .LFE16
     /tmp/ccSozyKx.s:3681   .debug_str:0000000000000345 .LASF68
     /tmp/ccSozyKx.s:3743   .debug_str:00000000000005c5 .LASF69
     /tmp/ccSozyKx.s:829    .text:00000000000004d4 .LFB15
     /tmp/ccSozyKx.s:908    .text:000000000000056c .LFE15
     /tmp/ccSozyKx.s:3647   .debug_str:0000000000000245 .LASF70
     /tmp/ccSozyKx.s:3270   .debug_loc:0000000000000000 .LLST14
     /tmp/ccSozyKx.s:852    .text:0000000000000500 .LVL30
     /tmp/ccSozyKx.s:876    .text:0000000000000538 .LVL32
     /tmp/ccSozyKx.s:905    .text:0000000000000568 .LVL34
     /tmp/ccSozyKx.s:596    .text:0000000000000400 .LFB14
     /tmp/ccSozyKx.s:623    .text:0000000000000430 .LFE14
     /tmp/ccSozyKx.s:3735   .debug_str:0000000000000591 .LASF71
     /tmp/ccSozyKx.s:3281   .debug_loc:0000000000000036 .LLST13
     /tmp/ccSozyKx.s:564    .text:00000000000003d4 .LFB13
     /tmp/ccSozyKx.s:590    .text:0000000000000400 .LFE13
     /tmp/ccSozyKx.s:3295   .debug_loc:000000000000006f .LLST12
     /tmp/ccSozyKx.s:531    .text:00000000000003a4 .LFB12
     /tmp/ccSozyKx.s:558    .text:00000000000003d4 .LFE12
     /tmp/ccSozyKx.s:3309   .debug_loc:00000000000000a8 .LLST11
GAS LISTING /tmp/ccSozyKx.s 			page 40


     /tmp/ccSozyKx.s:1044   .text:0000000000000688 .LFB11
     /tmp/ccSozyKx.s:1108   .text:00000000000006fc .LFE11
     /tmp/ccSozyKx.s:1081   .text:00000000000006d0 .LVL42
     /tmp/ccSozyKx.s:914    .text:000000000000056c .LFB10
     /tmp/ccSozyKx.s:1038   .text:0000000000000688 .LFE10
     /tmp/ccSozyKx.s:3323   .debug_loc:00000000000000e1 .LLST15
     /tmp/ccSozyKx.s:3341   .debug_loc:000000000000012d .LLST16
     /tmp/ccSozyKx.s:3649   .debug_str:000000000000024f .LASF72
     /tmp/ccSozyKx.s:3363   .debug_loc:000000000000018c .LLST17
     /tmp/ccSozyKx.s:946    .text:00000000000005a8 .LVL37
     /tmp/ccSozyKx.s:1011   .text:0000000000000664 .LVL39
     /tmp/ccSozyKx.s:282    .text:00000000000001d4 .LFB9
     /tmp/ccSozyKx.s:525    .text:00000000000003a4 .LFE9
     /tmp/ccSozyKx.s:3374   .debug_loc:00000000000001c2 .LLST6
     /tmp/ccSozyKx.s:3396   .debug_loc:0000000000000221 .LLST7
     /tmp/ccSozyKx.s:3418   .debug_loc:0000000000000280 .LLST8
     /tmp/ccSozyKx.s:3741   .debug_str:00000000000005bf .LASF73
     /tmp/ccSozyKx.s:3440   .debug_loc:00000000000002df .LLST9
     /tmp/ccSozyKx.s:3669   .debug_str:00000000000002ff .LASF74
     /tmp/ccSozyKx.s:3462   .debug_loc:000000000000033e .LLST10
     /tmp/ccSozyKx.s:314    .text:0000000000000218 .LVL14
     /tmp/ccSozyKx.s:515    .text:0000000000000394 .LVL20
     /tmp/ccSozyKx.s:164    .text:00000000000000c4 .LFB8
     /tmp/ccSozyKx.s:276    .text:00000000000001d4 .LFE8
     /tmp/ccSozyKx.s:3476   .debug_loc:0000000000000377 .LLST2
     /tmp/ccSozyKx.s:3661   .debug_str:0000000000000293 .LASF75
     /tmp/ccSozyKx.s:3490   .debug_loc:00000000000003b0 .LLST3
     /tmp/ccSozyKx.s:188    .text:00000000000000e4 .LBB9
     /tmp/ccSozyKx.s:256    .text:00000000000001b8 .LBE9
     /tmp/ccSozyKx.s:3505   .debug_loc:00000000000003f9 .LLST4
     /tmp/ccSozyKx.s:3512   .debug_loc:000000000000041c .LLST5
     /tmp/ccSozyKx.s:222    .text:0000000000000150 .LVL7
     /tmp/ccSozyKx.s:252    .text:00000000000001b4 .LVL9
     /tmp/ccSozyKx.s:1114   .text:00000000000006fc .LFB7
     /tmp/ccSozyKx.s:1157   .text:0000000000000750 .LFE7
     /tmp/ccSozyKx.s:1140   .text:0000000000000734 .LVL44
     /tmp/ccSozyKx.s:1144   .text:000000000000073c .LVL45
     /tmp/ccSozyKx.s:3697   .debug_str:00000000000003a1 .LASF93
     /tmp/ccSozyKx.s:3703   .debug_str:00000000000003c9 .LASF94
     /tmp/ccSozyKx.s:129    .text:00000000000000a4 .LFB6
     /tmp/ccSozyKx.s:158    .text:00000000000000c4 .LFE6
     /tmp/ccSozyKx.s:3577   .debug_str:00000000000000a3 .LASF95
     /tmp/ccSozyKx.s:10     .text:0000000000000000 .LFB4
     /tmp/ccSozyKx.s:121    .text:00000000000000a4 .LFE4
     /tmp/ccSozyKx.s:3519   .debug_loc:000000000000043f .LLST0
     /tmp/ccSozyKx.s:23     .text:000000000000000c .LBB7
     /tmp/ccSozyKx.s:30     .text:0000000000000010 .LBE7
     /tmp/ccSozyKx.s:3533   .debug_loc:0000000000000478 .LLST1
     /tmp/ccSozyKx.s:3747   .debug_str:00000000000005d5 .LASF96
     /tmp/ccSozyKx.s:3595   .debug_str:0000000000000116 .LASF76
     /tmp/ccSozyKx.s:3561   .debug_str:0000000000000011 .LASF78
     /tmp/ccSozyKx.s:3591   .debug_str:0000000000000100 .LASF77
     /tmp/ccSozyKx.s:3687   .debug_str:0000000000000368 .LASF79
     /tmp/ccSozyKx.s:848    .text:00000000000004f8 .LVL29
     /tmp/ccSozyKx.s:869    .text:0000000000000520 .LVL31
     /tmp/ccSozyKx.s:892    .text:0000000000000550 .LVL33
     /tmp/ccSozyKx.s:599    .text:0000000000000400 .LVL26
GAS LISTING /tmp/ccSozyKx.s 			page 41


     /tmp/ccSozyKx.s:609    .text:0000000000000410 .LVL27
     /tmp/ccSozyKx.s:567    .text:00000000000003d4 .LVL24
     /tmp/ccSozyKx.s:578    .text:00000000000003e8 .LVL25
     /tmp/ccSozyKx.s:534    .text:00000000000003a4 .LVL22
     /tmp/ccSozyKx.s:544    .text:00000000000003b4 .LVL23
     /tmp/ccSozyKx.s:917    .text:000000000000056c .LVL35
     /tmp/ccSozyKx.s:944    .text:00000000000005a0 .LVL36
     /tmp/ccSozyKx.s:968    .text:00000000000005ec .LVL38
     /tmp/ccSozyKx.s:1023   .text:0000000000000674 .LVL40
     /tmp/ccSozyKx.s:1027   .text:000000000000067c .LVL41
     /tmp/ccSozyKx.s:285    .text:00000000000001d4 .LVL12
     /tmp/ccSozyKx.s:312    .text:0000000000000210 .LVL13
     /tmp/ccSozyKx.s:494    .text:0000000000000370 .LVL16
     /tmp/ccSozyKx.s:508    .text:0000000000000388 .LVL19
     /tmp/ccSozyKx.s:370    .text:0000000000000290 .LVL15
     /tmp/ccSozyKx.s:519    .text:000000000000039c .LVL21
     /tmp/ccSozyKx.s:504    .text:0000000000000380 .LVL18
     /tmp/ccSozyKx.s:499    .text:0000000000000378 .LVL17
     /tmp/ccSozyKx.s:167    .text:00000000000000c4 .LVL4
     /tmp/ccSozyKx.s:183    .text:00000000000000e0 .LVL5
     /tmp/ccSozyKx.s:259    .text:00000000000001bc .LVL10
     /tmp/ccSozyKx.s:269    .text:00000000000001c8 .LVL11
     /tmp/ccSozyKx.s:213    .text:000000000000013c .LVL6
     /tmp/ccSozyKx.s:247    .text:00000000000001a8 .LVL8
     /tmp/ccSozyKx.s:14     .text:0000000000000000 .LVL0
     /tmp/ccSozyKx.s:50     .text:0000000000000030 .LVL3
     /tmp/ccSozyKx.s:21     .text:000000000000000c .LVL1
     /tmp/ccSozyKx.s:28     .text:0000000000000010 .LVL2
     /tmp/ccSozyKx.s:1183   .debug_info:0000000000000000 .Ldebug_info0

UNDEFINED SYMBOLS
_ZN9Scheduler3putEP7_thread
_Z8mem_freePv
_Z9mem_allocm
_ZN9Scheduler3getEv
