GAS LISTING /tmp/ccKGcIcU.s 			page 1


   1              		.file	"thread.cpp"
   2              		.option pic
   3              		.option norelax
   4              		.text
   5              	.Ltext0:
   6              		.align	2
   7              		.globl	_ZN7_threadC2EPFvPvES0_
   9              	_ZN7_threadC2EPFvPvES0_:
  10              	.LFB4:
  11              		.file 1 "src/thread.cpp"
   1:src/thread.cpp **** /**
   2:src/thread.cpp ****  * @file thread.cpp
   3:src/thread.cpp ****  * @author stcksmsh (vukicevickosta@gmail.com)
   4:src/thread.cpp ****  * @brief the thread class implementation
   5:src/thread.cpp ****  * @version 0.1
   6:src/thread.cpp ****  * @date 2024-01-02
   7:src/thread.cpp ****  * 
   8:src/thread.cpp ****  * @copyright Copyright (c) 2024
   9:src/thread.cpp ****  * 
  10:src/thread.cpp ****  */
  11:src/thread.cpp **** 
  12:src/thread.cpp **** 
  13:src/thread.cpp **** #include "thread.h"
  14:src/thread.cpp **** #include "assert.h"
  15:src/thread.cpp **** #include "sched.h"
  16:src/thread.cpp **** #include "syscalls_c.h"
  17:src/thread.cpp **** 
  18:src/thread.cpp **** thread_t _thread::currentThread = nullptr;
  19:src/thread.cpp **** uint32 _thread::nextID = 0;
  20:src/thread.cpp **** 
  21:src/thread.cpp **** _thread::_thread(func function, void* arg){
  12              		.loc 1 21 1
  13              		.cfi_startproc
  14              	.LVL0:
  15 0000 130101FF 		addi	sp,sp,-16
  16              		.cfi_def_cfa_offset 16
  17 0004 23348100 		sd	s0,8(sp)
  18              		.cfi_offset 8, -8
  19 0008 13040101 		addi	s0,sp,16
  20              		.cfi_def_cfa 8, 0
  21              	.LVL1:
  22              	.LBB6:
  23              	.LBB7:
  24              	.LBB8:
  25              		.file 2 "./h/thread.h"
   1:./h/thread.h  **** /**
   2:./h/thread.h  ****  * @file thread.h
   3:./h/thread.h  ****  * @author stcksmsh (vukicevickosta@gmail.com)
   4:./h/thread.h  ****  * @brief the thread class
   5:./h/thread.h  ****  * @version 0.1
   6:./h/thread.h  ****  * @date 2024-01-02
   7:./h/thread.h  ****  * 
   8:./h/thread.h  ****  * @copyright Copyright (c) 2024
   9:./h/thread.h  ****  * 
  10:./h/thread.h  ****  */
  11:./h/thread.h  **** #ifndef THREAD_H
  12:./h/thread.h  **** #define THREAD_H
GAS LISTING /tmp/ccKGcIcU.s 			page 2


  13:./h/thread.h  **** 
  14:./h/thread.h  **** #include "types.h"
  15:./h/thread.h  **** #include "attributes.h"
  16:./h/thread.h  **** 
  17:./h/thread.h  **** /// @brief the thread class
  18:./h/thread.h  **** class _thread{
  19:./h/thread.h  ****     using func = void (*)(void*);
  20:./h/thread.h  **** public:
  21:./h/thread.h  **** 
  22:./h/thread.h  ****     static int create(_thread** thread, func function, void* arg, void* stack, bool start = true);
  23:./h/thread.h  **** 
  24:./h/thread.h  ****     /// @brief exit from current thread
  25:./h/thread.h  ****     /// @return whether the exit was successful
  26:./h/thread.h  ****     static int exit();
  27:./h/thread.h  **** 
  28:./h/thread.h  ****     /// @brief dispatch current thread
  29:./h/thread.h  ****     static void dispatch();
  30:./h/thread.h  **** 
  31:./h/thread.h  ****     /// @brief joins this thread onto the given thread
  32:./h/thread.h  ****     /// @param thread thread to join onto
  33:./h/thread.h  ****     void join(_thread* thread);
  34:./h/thread.h  **** 
  35:./h/thread.h  ****     /// @brief currently running thread (monoprocessor system)
  36:./h/thread.h  ****     static _thread* currentThread;
  37:./h/thread.h  **** 
  38:./h/thread.h  ****     /// @brief set thread blocked state
  39:./h/thread.h  ****     /// @param blocked new state
  40:./h/thread.h  ****     void setBlocked(bool blocked);
  41:./h/thread.h  **** 
  42:./h/thread.h  ****     /// @brief set thread closed state
  43:./h/thread.h  ****     /// @param closed new state
  44:./h/thread.h  ****     void setClosed(bool closed);
  45:./h/thread.h  **** 
  46:./h/thread.h  ****     /// @brief set thread sleeping state
  47:./h/thread.h  ****     /// @param sleeping new state
  48:./h/thread.h  ****     void setSleeping(bool sleeping);
  49:./h/thread.h  ****     
  50:./h/thread.h  ****     uint32 ID;
  51:./h/thread.h  **** 
  52:./h/thread.h  **** private:
  53:./h/thread.h  ****     _thread(func function, void* arg);
  54:./h/thread.h  **** 
  55:./h/thread.h  ****     static void wrapper();
  56:./h/thread.h  **** 
  57:./h/thread.h  ****     void unJoin();
  58:./h/thread.h  **** 
  59:./h/thread.h  ****     struct contextWrapper{
  26              		.loc 2 59 12 is_stmt 0
  27 000c 23380500 		sd	zero,16(a0)
  28              	.LVL2:
  29              	.LBE8:
  30              	.LBE7:
  22:src/thread.cpp ****     function = function;
  31              		.loc 1 22 5 is_stmt 1
  23:src/thread.cpp ****     arg = arg;
  32              		.loc 1 23 5
  24:src/thread.cpp ****     ID = nextID++;
GAS LISTING /tmp/ccKGcIcU.s 			page 3


  33              		.loc 1 24 5
  34              		.loc 1 24 16 is_stmt 0
  35 0010 17070000 		lla	a4,.LANCHOR0
  35      13070700 
  36 0018 83270700 		lw	a5,0(a4)
  37 001c 9B861700 		addiw	a3,a5,1
  38 0020 2320D700 		sw	a3,0(a4)
  39              		.loc 1 24 8
  40 0024 2320F500 		sw	a5,0(a0)
  25:src/thread.cpp ****     closed = 0;
  41              		.loc 1 25 5 is_stmt 1
  26:src/thread.cpp ****     blocked = 0;
  42              		.loc 1 26 5
  27:src/thread.cpp ****     sleeping = 0;
  43              		.loc 1 27 5
  28:src/thread.cpp ****     finished = 0;
  44              		.loc 1 28 5
  29:src/thread.cpp ****     reserved = 0;
  45              		.loc 1 29 5
  46              		.loc 1 29 14 is_stmt 0
  47 0028 2320050A 		sw	zero,160(a0)
  30:src/thread.cpp ****     joinHead = nullptr;
  48              		.loc 1 30 5 is_stmt 1
  49              		.loc 1 30 14 is_stmt 0
  50 002c 23300508 		sd	zero,128(a0)
  31:src/thread.cpp ****     timeLeft = 0;
  51              		.loc 1 31 5 is_stmt 1
  52              		.loc 1 31 14 is_stmt 0
  53 0030 23380508 		sd	zero,144(a0)
  32:src/thread.cpp ****     stackStart = 0;
  54              		.loc 1 32 5 is_stmt 1
  55              		.loc 1 32 16 is_stmt 0
  56 0034 233C0508 		sd	zero,152(a0)
  33:src/thread.cpp ****     
  34:src/thread.cpp ****     context.s0 = 0;
  57              		.loc 1 34 5 is_stmt 1
  58              		.loc 1 34 16 is_stmt 0
  59 0038 233C0500 		sd	zero,24(a0)
  35:src/thread.cpp ****     context.s1 = 0;
  60              		.loc 1 35 5 is_stmt 1
  61              		.loc 1 35 16 is_stmt 0
  62 003c 23300502 		sd	zero,32(a0)
  36:src/thread.cpp ****     context.s2 = 0;
  63              		.loc 1 36 5 is_stmt 1
  64              		.loc 1 36 16 is_stmt 0
  65 0040 23340502 		sd	zero,40(a0)
  37:src/thread.cpp ****     context.s3 = 0;
  66              		.loc 1 37 5 is_stmt 1
  67              		.loc 1 37 16 is_stmt 0
  68 0044 23380502 		sd	zero,48(a0)
  38:src/thread.cpp ****     context.s4 = 0;
  69              		.loc 1 38 5 is_stmt 1
  70              		.loc 1 38 16 is_stmt 0
  71 0048 233C0502 		sd	zero,56(a0)
  39:src/thread.cpp ****     context.s5 = 0;
  72              		.loc 1 39 5 is_stmt 1
  73              		.loc 1 39 16 is_stmt 0
GAS LISTING /tmp/ccKGcIcU.s 			page 4


  74 004c 23300504 		sd	zero,64(a0)
  40:src/thread.cpp ****     context.s6 = 0;
  75              		.loc 1 40 5 is_stmt 1
  76              		.loc 1 40 16 is_stmt 0
  77 0050 23340504 		sd	zero,72(a0)
  41:src/thread.cpp ****     context.s7 = 0;
  78              		.loc 1 41 5 is_stmt 1
  79              		.loc 1 41 16 is_stmt 0
  80 0054 23380504 		sd	zero,80(a0)
  42:src/thread.cpp ****     context.s8 = 0;
  81              		.loc 1 42 5 is_stmt 1
  82              		.loc 1 42 16 is_stmt 0
  83 0058 233C0504 		sd	zero,88(a0)
  43:src/thread.cpp ****     context.s9 = 0;
  84              		.loc 1 43 5 is_stmt 1
  85              		.loc 1 43 16 is_stmt 0
  86 005c 23300506 		sd	zero,96(a0)
  44:src/thread.cpp ****     context.s10 = 0;
  87              		.loc 1 44 5 is_stmt 1
  88              		.loc 1 44 17 is_stmt 0
  89 0060 23340506 		sd	zero,104(a0)
  45:src/thread.cpp ****     context.s11 = 0;
  90              		.loc 1 45 5 is_stmt 1
  91              		.loc 1 45 17 is_stmt 0
  92 0064 23380506 		sd	zero,112(a0)
  46:src/thread.cpp **** 
  47:src/thread.cpp ****     context.sstatus = 0;
  93              		.loc 1 47 5 is_stmt 1
  94              		.loc 1 47 21 is_stmt 0
  95 0068 233C0506 		sd	zero,120(a0)
  48:src/thread.cpp ****     /// register x2 is the stack pointer
  49:src/thread.cpp ****     context.sp = (uint64)stackStart;
  96              		.loc 1 49 5 is_stmt 1
  50:src/thread.cpp ****     /// register x1 is the return address
  51:src/thread.cpp ****     context.pc = (uint64)wrapper;
  97              		.loc 1 51 5
  98              		.loc 1 51 16 is_stmt 0
  99 006c 97070000 		lla	a5,_ZN7_thread7wrapperEv
  99      93870700 
 100 0074 2334F500 		sd	a5,8(a0)
 101              	.LBE6:
  52:src/thread.cpp **** }
 102              		.loc 1 52 1
 103 0078 03348100 		ld	s0,8(sp)
 104              		.cfi_restore 8
 105              		.cfi_def_cfa 2, 16
 106 007c 13010101 		addi	sp,sp,16
 107              		.cfi_def_cfa_offset 0
 108 0080 67800000 		jr	ra
 109              		.cfi_endproc
 110              	.LFE4:
 112              		.globl	_ZN7_threadC1EPFvPvES0_
 113              		.set	_ZN7_threadC1EPFvPvES0_,_ZN7_threadC2EPFvPvES0_
 114              		.align	2
 115              		.globl	_Z10popSppSpiev
 117              	_Z10popSppSpiev:
 118              	.LFB6:
GAS LISTING /tmp/ccKGcIcU.s 			page 5


  53:src/thread.cpp **** 
  54:src/thread.cpp **** void popSppSpie(){
 119              		.loc 1 54 18 is_stmt 1
 120              		.cfi_startproc
 121 0084 130101FF 		addi	sp,sp,-16
 122              		.cfi_def_cfa_offset 16
 123 0088 23348100 		sd	s0,8(sp)
 124              		.cfi_offset 8, -8
 125 008c 13040101 		addi	s0,sp,16
 126              		.cfi_def_cfa 8, 0
  55:src/thread.cpp ****     __asm__ volatile ("csrw sepc, ra");
 127              		.loc 1 55 5
 128              		.loc 1 55 39 is_stmt 0
 129              	#APP
 130              	# 55 "src/thread.cpp" 1
  56              	    __asm__ volatile ("sret");
 131              		csrw sepc, ra
 132              	# 0 "" 2
 133              		.loc 1 56 5 is_stmt 1
 134              		.loc 1 56 30 is_stmt 0
 135              	# 56 "src/thread.cpp" 1
  57              	}
 136              		sret
 137              	# 0 "" 2
 138              		.loc 1 57 1
 139              	#NO_APP
 140 0098 03348100 		ld	s0,8(sp)
 141              		.cfi_restore 8
 142              		.cfi_def_cfa 2, 16
 143 009c 13010101 		addi	sp,sp,16
 144              		.cfi_def_cfa_offset 0
 145 00a0 67800000 		jr	ra
 146              		.cfi_endproc
 147              	.LFE6:
 149              		.align	2
 150              		.globl	_ZN7_thread6unJoinEv
 152              	_ZN7_thread6unJoinEv:
 153              	.LFB8:
  58:src/thread.cpp **** 
  59:src/thread.cpp **** void _thread::wrapper(){
  60:src/thread.cpp ****     popSppSpie();
  61:src/thread.cpp ****     currentThread->function(currentThread->arg);
  62:src/thread.cpp ****     currentThread->unJoin();
  63:src/thread.cpp ****     exit();
  64:src/thread.cpp **** }
  65:src/thread.cpp **** 
  66:src/thread.cpp **** void _thread::unJoin(){
 154              		.loc 1 66 23 is_stmt 1
 155              		.cfi_startproc
 156              	.LVL3:
 157 00a4 130101FE 		addi	sp,sp,-32
 158              		.cfi_def_cfa_offset 32
 159 00a8 233C1100 		sd	ra,24(sp)
 160 00ac 23388100 		sd	s0,16(sp)
 161 00b0 23349100 		sd	s1,8(sp)
 162 00b4 23302101 		sd	s2,0(sp)
 163              		.cfi_offset 1, -8
GAS LISTING /tmp/ccKGcIcU.s 			page 6


 164              		.cfi_offset 8, -16
 165              		.cfi_offset 9, -24
 166              		.cfi_offset 18, -32
 167 00b8 13040102 		addi	s0,sp,32
 168              		.cfi_def_cfa 8, 0
  67:src/thread.cpp ****     // putc('u');
  68:src/thread.cpp ****     ThreadJoinList* current = joinHead;
 169              		.loc 1 68 5
 170              		.loc 1 68 21 is_stmt 0
 171 00bc 83340508 		ld	s1,128(a0)
 172              	.LVL4:
 173              	.L7:
  69:src/thread.cpp ****     while(current != nullptr){
 174              		.loc 1 69 5 is_stmt 1
 175              		.loc 1 69 19
 176 00c0 6388040C 		beqz	s1,.L5
 177              	.LBB9:
  70:src/thread.cpp ****         thread_t thread = current->thread;
 178              		.loc 1 70 9
 179              		.loc 1 70 18 is_stmt 0
 180 00c4 83C70400 		lbu	a5,0(s1)
 181 00c8 03C51400 		lbu	a0,1(s1)
 182 00cc 13158500 		slli	a0,a0,8
 183 00d0 3365F500 		or	a0,a0,a5
 184 00d4 83C72400 		lbu	a5,2(s1)
 185 00d8 93970701 		slli	a5,a5,16
 186 00dc B3E7A700 		or	a5,a5,a0
 187 00e0 03C53400 		lbu	a0,3(s1)
 188 00e4 13158501 		slli	a0,a0,24
 189 00e8 3365F500 		or	a0,a0,a5
 190 00ec 83C74400 		lbu	a5,4(s1)
 191 00f0 93970702 		slli	a5,a5,32
 192 00f4 B3E7A700 		or	a5,a5,a0
 193 00f8 03C55400 		lbu	a0,5(s1)
 194 00fc 13158502 		slli	a0,a0,40
 195 0100 3365F500 		or	a0,a0,a5
 196 0104 83C76400 		lbu	a5,6(s1)
 197 0108 93970703 		slli	a5,a5,48
 198 010c B3E7A700 		or	a5,a5,a0
 199 0110 03C57400 		lbu	a0,7(s1)
 200 0114 13158503 		slli	a0,a0,56
 201              	.LVL5:
  71:src/thread.cpp ****         Scheduler::put(thread);
 202              		.loc 1 71 9 is_stmt 1
 203              		.loc 1 71 23 is_stmt 0
 204 0118 3365F500 		or	a0,a0,a5
 205              	.LVL6:
 206 011c 97000000 		call	_ZN9Scheduler3putEP7_thread@plt
 206      E7800000 
 207              	.LVL7:
  72:src/thread.cpp ****         ThreadJoinList* next = current->next;
 208              		.loc 1 72 9 is_stmt 1
 209              		.loc 1 72 25 is_stmt 0
 210 0124 03C98400 		lbu	s2,8(s1)
 211 0128 83C79400 		lbu	a5,9(s1)
 212 012c 93978700 		slli	a5,a5,8
 213 0130 B3E72701 		or	a5,a5,s2
GAS LISTING /tmp/ccKGcIcU.s 			page 7


 214 0134 03C9A400 		lbu	s2,10(s1)
 215 0138 13190901 		slli	s2,s2,16
 216 013c B367F900 		or	a5,s2,a5
 217 0140 03C9B400 		lbu	s2,11(s1)
 218 0144 13198901 		slli	s2,s2,24
 219 0148 3369F900 		or	s2,s2,a5
 220 014c 83C7C400 		lbu	a5,12(s1)
 221 0150 93970702 		slli	a5,a5,32
 222 0154 33E92701 		or	s2,a5,s2
 223 0158 83C7D400 		lbu	a5,13(s1)
 224 015c 93978702 		slli	a5,a5,40
 225 0160 B3E72701 		or	a5,a5,s2
 226 0164 03C9E400 		lbu	s2,14(s1)
 227 0168 13190903 		slli	s2,s2,48
 228 016c B367F900 		or	a5,s2,a5
 229 0170 03C9F400 		lbu	s2,15(s1)
 230 0174 13198903 		slli	s2,s2,56
 231 0178 3369F900 		or	s2,s2,a5
 232              	.LVL8:
  73:src/thread.cpp ****         mem_free(current);
 233              		.loc 1 73 9 is_stmt 1
 234              		.loc 1 73 17 is_stmt 0
 235 017c 13850400 		mv	a0,s1
 236 0180 97000000 		call	_Z8mem_freePv@plt
 236      E7800000 
 237              	.LVL9:
  74:src/thread.cpp ****         current = next;
 238              		.loc 1 74 9 is_stmt 1
 239              		.loc 1 74 17 is_stmt 0
 240 0188 93040900 		mv	s1,s2
 241              	.LBE9:
  69:src/thread.cpp ****         thread_t thread = current->thread;
 242              		.loc 1 69 5
 243 018c 6FF05FF3 		j	.L7
 244              	.LVL10:
 245              	.L5:
  75:src/thread.cpp ****     }
  76:src/thread.cpp **** }
 246              		.loc 1 76 1
 247 0190 83308101 		ld	ra,24(sp)
 248              		.cfi_restore 1
 249 0194 03340101 		ld	s0,16(sp)
 250              		.cfi_restore 8
 251              		.cfi_def_cfa 2, 32
 252 0198 83348100 		ld	s1,8(sp)
 253              		.cfi_restore 9
 254              	.LVL11:
 255 019c 03390100 		ld	s2,0(sp)
 256              		.cfi_restore 18
 257 01a0 13010102 		addi	sp,sp,32
 258              		.cfi_def_cfa_offset 0
 259 01a4 67800000 		jr	ra
 260              		.cfi_endproc
 261              	.LFE8:
 263              		.align	2
 264              		.globl	_ZN7_thread6createEPPS_PFvPvES2_S2_b
 266              	_ZN7_thread6createEPPS_PFvPvES2_S2_b:
GAS LISTING /tmp/ccKGcIcU.s 			page 8


 267              	.LFB9:
  77:src/thread.cpp **** 
  78:src/thread.cpp **** int _thread::create(thread_t* thread, func function, void* arg, void* stack, bool start){
 268              		.loc 1 78 89 is_stmt 1
 269              		.cfi_startproc
 270              	.LVL12:
 271 01a8 130101FC 		addi	sp,sp,-64
 272              		.cfi_def_cfa_offset 64
 273 01ac 233C1102 		sd	ra,56(sp)
 274 01b0 23388102 		sd	s0,48(sp)
 275 01b4 23349102 		sd	s1,40(sp)
 276 01b8 23302103 		sd	s2,32(sp)
 277 01bc 233C3101 		sd	s3,24(sp)
 278 01c0 23384101 		sd	s4,16(sp)
 279 01c4 23345101 		sd	s5,8(sp)
 280              		.cfi_offset 1, -8
 281              		.cfi_offset 8, -16
 282              		.cfi_offset 9, -24
 283              		.cfi_offset 18, -32
 284              		.cfi_offset 19, -40
 285              		.cfi_offset 20, -48
 286              		.cfi_offset 21, -56
 287 01c8 13040104 		addi	s0,sp,64
 288              		.cfi_def_cfa 8, 0
 289 01cc 93040500 		mv	s1,a0
 290 01d0 938A0500 		mv	s5,a1
 291 01d4 130A0600 		mv	s4,a2
 292 01d8 13890600 		mv	s2,a3
 293 01dc 93090700 		mv	s3,a4
  79:src/thread.cpp ****     *thread = (thread_t)mem_alloc(sizeof(_thread));
 294              		.loc 1 79 5
 295              		.loc 1 79 34 is_stmt 0
 296 01e0 1305800B 		li	a0,184
 297              	.LVL13:
 298 01e4 97000000 		call	_Z9mem_allocm@plt
 298      E7800000 
 299              	.LVL14:
 300              		.loc 1 79 13
 301 01ec 23B0A400 		sd	a0,0(s1)
  80:src/thread.cpp ****     
  81:src/thread.cpp ****     (*thread)->function = function;
 302              		.loc 1 81 5 is_stmt 1
 303              		.loc 1 81 25 is_stmt 0
 304 01f0 2334550B 		sd	s5,168(a0)
  82:src/thread.cpp ****     (*thread)->arg = arg;
 305              		.loc 1 82 5 is_stmt 1
 306              		.loc 1 82 6 is_stmt 0
 307 01f4 83B70400 		ld	a5,0(s1)
 308              		.loc 1 82 20
 309 01f8 23B8470B 		sd	s4,176(a5)
  83:src/thread.cpp ****     (*thread)->ID = nextID++;
 310              		.loc 1 83 5 is_stmt 1
 311              		.loc 1 83 27 is_stmt 0
 312 01fc 17070000 		lla	a4,.LANCHOR0
 312      13070700 
 313 0204 83270700 		lw	a5,0(a4)
 314 0208 9B861700 		addiw	a3,a5,1
GAS LISTING /tmp/ccKGcIcU.s 			page 9


 315 020c 2320D700 		sw	a3,0(a4)
 316              		.loc 1 83 6
 317 0210 03B70400 		ld	a4,0(s1)
 318              		.loc 1 83 19
 319 0214 2320F700 		sw	a5,0(a4)
  84:src/thread.cpp ****     (*thread)->closed = false;
 320              		.loc 1 84 5 is_stmt 1
 321              		.loc 1 84 6 is_stmt 0
 322 0218 03B70400 		ld	a4,0(s1)
 323              		.loc 1 84 23
 324 021c 8327070A 		lw	a5,160(a4)
 325 0220 93F7E7FF 		andi	a5,a5,-2
 326 0224 2320F70A 		sw	a5,160(a4)
  85:src/thread.cpp ****     (*thread)->blocked = false;
 327              		.loc 1 85 5 is_stmt 1
 328              		.loc 1 85 6 is_stmt 0
 329 0228 03B70400 		ld	a4,0(s1)
 330              		.loc 1 85 24
 331 022c 8327070A 		lw	a5,160(a4)
 332 0230 93F7D7FF 		andi	a5,a5,-3
 333 0234 2320F70A 		sw	a5,160(a4)
  86:src/thread.cpp ****     (*thread)->sleeping = false;
 334              		.loc 1 86 5 is_stmt 1
 335              		.loc 1 86 6 is_stmt 0
 336 0238 03B70400 		ld	a4,0(s1)
 337              		.loc 1 86 25
 338 023c 8327070A 		lw	a5,160(a4)
 339 0240 93F7B7FF 		andi	a5,a5,-5
 340 0244 2320F70A 		sw	a5,160(a4)
  87:src/thread.cpp ****     (*thread)->finished = false;
 341              		.loc 1 87 5 is_stmt 1
 342              		.loc 1 87 6 is_stmt 0
 343 0248 03B70400 		ld	a4,0(s1)
 344              		.loc 1 87 25
 345 024c 8327070A 		lw	a5,160(a4)
 346 0250 93F777FF 		andi	a5,a5,-9
 347 0254 2320F70A 		sw	a5,160(a4)
  88:src/thread.cpp ****     (*thread)->reserved = 0;
 348              		.loc 1 88 5 is_stmt 1
 349              		.loc 1 88 6 is_stmt 0
 350 0258 03B70400 		ld	a4,0(s1)
 351              		.loc 1 88 25
 352 025c 8327070A 		lw	a5,160(a4)
 353 0260 93F7F700 		andi	a5,a5,15
 354 0264 2320F70A 		sw	a5,160(a4)
  89:src/thread.cpp ****     (*thread)->joinHead = nullptr;
 355              		.loc 1 89 5 is_stmt 1
 356              		.loc 1 89 6 is_stmt 0
 357 0268 83B70400 		ld	a5,0(s1)
 358              		.loc 1 89 25
 359 026c 23B00708 		sd	zero,128(a5)
  90:src/thread.cpp ****     (*thread)->joinTail = nullptr;
 360              		.loc 1 90 5 is_stmt 1
 361              		.loc 1 90 6 is_stmt 0
 362 0270 83B70400 		ld	a5,0(s1)
 363              		.loc 1 90 25
 364 0274 23B40708 		sd	zero,136(a5)
GAS LISTING /tmp/ccKGcIcU.s 			page 10


  91:src/thread.cpp ****     (*thread)->timeLeft = 0;
 365              		.loc 1 91 5 is_stmt 1
 366              		.loc 1 91 6 is_stmt 0
 367 0278 83B70400 		ld	a5,0(s1)
 368              		.loc 1 91 25
 369 027c 23B80708 		sd	zero,144(a5)
  92:src/thread.cpp ****     (*thread)->stackStart = 0;
 370              		.loc 1 92 5 is_stmt 1
 371              		.loc 1 92 6 is_stmt 0
 372 0280 83B70400 		ld	a5,0(s1)
 373              		.loc 1 92 27
 374 0284 23BC0708 		sd	zero,152(a5)
  93:src/thread.cpp **** 
  94:src/thread.cpp ****     (*thread)->context.s0 = 0;
 375              		.loc 1 94 5 is_stmt 1
 376              		.loc 1 94 6 is_stmt 0
 377 0288 83B70400 		ld	a5,0(s1)
 378              		.loc 1 94 27
 379 028c 23BC0700 		sd	zero,24(a5)
  95:src/thread.cpp ****     (*thread)->context.s1 = 0;
 380              		.loc 1 95 5 is_stmt 1
 381              		.loc 1 95 6 is_stmt 0
 382 0290 83B70400 		ld	a5,0(s1)
 383              		.loc 1 95 27
 384 0294 23B00702 		sd	zero,32(a5)
  96:src/thread.cpp ****     (*thread)->context.s2 = 0;
 385              		.loc 1 96 5 is_stmt 1
 386              		.loc 1 96 6 is_stmt 0
 387 0298 83B70400 		ld	a5,0(s1)
 388              		.loc 1 96 27
 389 029c 23B40702 		sd	zero,40(a5)
  97:src/thread.cpp ****     (*thread)->context.s3 = 0;
 390              		.loc 1 97 5 is_stmt 1
 391              		.loc 1 97 6 is_stmt 0
 392 02a0 83B70400 		ld	a5,0(s1)
 393              		.loc 1 97 27
 394 02a4 23B80702 		sd	zero,48(a5)
  98:src/thread.cpp ****     (*thread)->context.s4 = 0;
 395              		.loc 1 98 5 is_stmt 1
 396              		.loc 1 98 6 is_stmt 0
 397 02a8 83B70400 		ld	a5,0(s1)
 398              		.loc 1 98 27
 399 02ac 23BC0702 		sd	zero,56(a5)
  99:src/thread.cpp ****     (*thread)->context.s5 = 0;
 400              		.loc 1 99 5 is_stmt 1
 401              		.loc 1 99 6 is_stmt 0
 402 02b0 83B70400 		ld	a5,0(s1)
 403              		.loc 1 99 27
 404 02b4 23B00704 		sd	zero,64(a5)
 100:src/thread.cpp ****     (*thread)->context.s6 = 0;
 405              		.loc 1 100 5 is_stmt 1
 406              		.loc 1 100 6 is_stmt 0
 407 02b8 83B70400 		ld	a5,0(s1)
 408              		.loc 1 100 27
 409 02bc 23B40704 		sd	zero,72(a5)
 101:src/thread.cpp ****     (*thread)->context.s7 = 0;
 410              		.loc 1 101 5 is_stmt 1
GAS LISTING /tmp/ccKGcIcU.s 			page 11


 411              		.loc 1 101 6 is_stmt 0
 412 02c0 83B70400 		ld	a5,0(s1)
 413              		.loc 1 101 27
 414 02c4 23B80704 		sd	zero,80(a5)
 102:src/thread.cpp ****     (*thread)->context.s8 = 0;
 415              		.loc 1 102 5 is_stmt 1
 416              		.loc 1 102 6 is_stmt 0
 417 02c8 83B70400 		ld	a5,0(s1)
 418              		.loc 1 102 27
 419 02cc 23BC0704 		sd	zero,88(a5)
 103:src/thread.cpp ****     (*thread)->context.s9 = 0;
 420              		.loc 1 103 5 is_stmt 1
 421              		.loc 1 103 6 is_stmt 0
 422 02d0 83B70400 		ld	a5,0(s1)
 423              		.loc 1 103 27
 424 02d4 23B00706 		sd	zero,96(a5)
 104:src/thread.cpp ****     (*thread)->context.s10 = 0;
 425              		.loc 1 104 5 is_stmt 1
 426              		.loc 1 104 6 is_stmt 0
 427 02d8 83B70400 		ld	a5,0(s1)
 428              		.loc 1 104 28
 429 02dc 23B40706 		sd	zero,104(a5)
 105:src/thread.cpp ****     (*thread)->context.s11 = 0;
 430              		.loc 1 105 5 is_stmt 1
 431              		.loc 1 105 6 is_stmt 0
 432 02e0 83B70400 		ld	a5,0(s1)
 433              		.loc 1 105 28
 434 02e4 23B80706 		sd	zero,112(a5)
 106:src/thread.cpp **** 
 107:src/thread.cpp ****     /// register x2 is the stack pointer
 108:src/thread.cpp ****     (*thread)->context.sp = (uint64)stack;
 435              		.loc 1 108 5 is_stmt 1
 436              		.loc 1 108 6 is_stmt 0
 437 02e8 83B70400 		ld	a5,0(s1)
 438              		.loc 1 108 27
 439 02ec 23B82701 		sd	s2,16(a5)
 109:src/thread.cpp ****     /// register x1 is the return address
 110:src/thread.cpp ****     (*thread)->context.pc = (uint64)wrapper;
 440              		.loc 1 110 5 is_stmt 1
 441              		.loc 1 110 6 is_stmt 0
 442 02f0 83B70400 		ld	a5,0(s1)
 443              		.loc 1 110 27
 444 02f4 17070000 		lla	a4,_ZN7_thread7wrapperEv
 444      13070700 
 445 02fc 23B4E700 		sd	a4,8(a5)
 111:src/thread.cpp **** 
 112:src/thread.cpp ****     (*thread)->stackStart = stack;
 446              		.loc 1 112 5 is_stmt 1
 447              		.loc 1 112 6 is_stmt 0
 448 0300 83B70400 		ld	a5,0(s1)
 449              		.loc 1 112 27
 450 0304 23BC2709 		sd	s2,152(a5)
 113:src/thread.cpp ****     if(start){
 451              		.loc 1 113 5 is_stmt 1
 452 0308 63960902 		bnez	s3,.L12
 453              	.L10:
 114:src/thread.cpp ****         Scheduler::put(*thread);
GAS LISTING /tmp/ccKGcIcU.s 			page 12


 115:src/thread.cpp ****     }
 116:src/thread.cpp ****     return 0;
 454              		.loc 1 116 5
 117:src/thread.cpp **** }
 455              		.loc 1 117 1 is_stmt 0
 456 030c 13050000 		li	a0,0
 457 0310 83308103 		ld	ra,56(sp)
 458              		.cfi_remember_state
 459              		.cfi_restore 1
 460 0314 03340103 		ld	s0,48(sp)
 461              		.cfi_restore 8
 462              		.cfi_def_cfa 2, 64
 463 0318 83348102 		ld	s1,40(sp)
 464              		.cfi_restore 9
 465              	.LVL15:
 466 031c 03390102 		ld	s2,32(sp)
 467              		.cfi_restore 18
 468              	.LVL16:
 469 0320 83398101 		ld	s3,24(sp)
 470              		.cfi_restore 19
 471 0324 033A0101 		ld	s4,16(sp)
 472              		.cfi_restore 20
 473              	.LVL17:
 474 0328 833A8100 		ld	s5,8(sp)
 475              		.cfi_restore 21
 476              	.LVL18:
 477 032c 13010104 		addi	sp,sp,64
 478              		.cfi_def_cfa_offset 0
 479 0330 67800000 		jr	ra
 480              	.LVL19:
 481              	.L12:
 482              		.cfi_restore_state
 114:src/thread.cpp ****         Scheduler::put(*thread);
 483              		.loc 1 114 9 is_stmt 1
 114:src/thread.cpp ****         Scheduler::put(*thread);
 484              		.loc 1 114 23 is_stmt 0
 485 0334 03B50400 		ld	a0,0(s1)
 486 0338 97000000 		call	_ZN9Scheduler3putEP7_thread@plt
 486      E7800000 
 487              	.LVL20:
 488 0340 6FF0DFFC 		j	.L10
 489              		.cfi_endproc
 490              	.LFE9:
 492              		.align	2
 493              		.globl	_ZN7_thread10setBlockedEb
 495              	_ZN7_thread10setBlockedEb:
 496              	.LFB12:
 118:src/thread.cpp **** 
 119:src/thread.cpp **** void _thread::join(thread_t thread){
 120:src/thread.cpp ****     /// cannot join to a finished or closed thread
 121:src/thread.cpp ****     if(thread->finished || thread->closed){
 122:src/thread.cpp ****         return;
 123:src/thread.cpp ****     }
 124:src/thread.cpp ****     ThreadJoinList* newJoin = (ThreadJoinList*)mem_alloc(sizeof(ThreadJoinList));
 125:src/thread.cpp ****     this->blocked = true;
 126:src/thread.cpp ****     newJoin->thread = this;
 127:src/thread.cpp ****     newJoin->next = nullptr;
GAS LISTING /tmp/ccKGcIcU.s 			page 13


 128:src/thread.cpp ****     if(thread->joinHead == nullptr){
 129:src/thread.cpp ****         thread->joinHead = newJoin;
 130:src/thread.cpp ****         thread->joinTail = newJoin;
 131:src/thread.cpp ****     }else{
 132:src/thread.cpp ****         thread->joinTail->next = newJoin;
 133:src/thread.cpp ****         thread->joinTail = newJoin;
 134:src/thread.cpp ****     }
 135:src/thread.cpp ****     // Scheduler::remove(this);
 136:src/thread.cpp ****     dispatch();
 137:src/thread.cpp **** }
 138:src/thread.cpp **** 
 139:src/thread.cpp **** int _thread::exit(){
 140:src/thread.cpp ****     if(currentThread->closed){
 141:src/thread.cpp ****         return -1;
 142:src/thread.cpp ****     }
 143:src/thread.cpp ****     if(currentThread->blocked){
 144:src/thread.cpp ****         return -2;
 145:src/thread.cpp ****     }
 146:src/thread.cpp ****     if(currentThread->sleeping){
 147:src/thread.cpp ****         return -3;
 148:src/thread.cpp ****     }
 149:src/thread.cpp ****     currentThread->finished = 1;
 150:src/thread.cpp ****     dispatch();
 151:src/thread.cpp ****     return 0;
 152:src/thread.cpp **** }
 153:src/thread.cpp **** 
 154:src/thread.cpp **** void _thread::setBlocked(bool blocked){
 497              		.loc 1 154 39 is_stmt 1
 498              		.cfi_startproc
 499              	.LVL21:
 500 0344 130101FF 		addi	sp,sp,-16
 501              		.cfi_def_cfa_offset 16
 502 0348 23348100 		sd	s0,8(sp)
 503              		.cfi_offset 8, -8
 504 034c 13040101 		addi	s0,sp,16
 505              		.cfi_def_cfa 8, 0
 155:src/thread.cpp ****     this->blocked = blocked;
 506              		.loc 1 155 5
 507              		.loc 1 155 19 is_stmt 0
 508 0350 93F51500 		andi	a1,a1,1
 509              	.LVL22:
 510 0354 9B971500 		slliw	a5,a1,1
 511 0358 8325050A 		lw	a1,160(a0)
 512 035c 93F5D5FF 		andi	a1,a1,-3
 513 0360 B3E5F500 		or	a1,a1,a5
 514 0364 2320B50A 		sw	a1,160(a0)
 156:src/thread.cpp **** }
 515              		.loc 1 156 1
 516 0368 03348100 		ld	s0,8(sp)
 517              		.cfi_restore 8
 518              		.cfi_def_cfa 2, 16
 519 036c 13010101 		addi	sp,sp,16
 520              		.cfi_def_cfa_offset 0
 521 0370 67800000 		jr	ra
 522              		.cfi_endproc
 523              	.LFE12:
 525              		.align	2
GAS LISTING /tmp/ccKGcIcU.s 			page 14


 526              		.globl	_ZN7_thread9setClosedEb
 528              	_ZN7_thread9setClosedEb:
 529              	.LFB13:
 157:src/thread.cpp **** 
 158:src/thread.cpp **** void _thread::setClosed(bool closed){
 530              		.loc 1 158 37 is_stmt 1
 531              		.cfi_startproc
 532              	.LVL23:
 533 0374 130101FF 		addi	sp,sp,-16
 534              		.cfi_def_cfa_offset 16
 535 0378 23348100 		sd	s0,8(sp)
 536              		.cfi_offset 8, -8
 537 037c 13040101 		addi	s0,sp,16
 538              		.cfi_def_cfa 8, 0
 159:src/thread.cpp ****     this->closed = closed;
 539              		.loc 1 159 5
 540              		.loc 1 159 18 is_stmt 0
 541 0380 93F71500 		andi	a5,a1,1
 542 0384 8325050A 		lw	a1,160(a0)
 543              	.LVL24:
 544 0388 93F5E5FF 		andi	a1,a1,-2
 545 038c B3E5F500 		or	a1,a1,a5
 546 0390 2320B50A 		sw	a1,160(a0)
 160:src/thread.cpp **** }
 547              		.loc 1 160 1
 548 0394 03348100 		ld	s0,8(sp)
 549              		.cfi_restore 8
 550              		.cfi_def_cfa 2, 16
 551 0398 13010101 		addi	sp,sp,16
 552              		.cfi_def_cfa_offset 0
 553 039c 67800000 		jr	ra
 554              		.cfi_endproc
 555              	.LFE13:
 557              		.align	2
 558              		.globl	_ZN7_thread11setSleepingEb
 560              	_ZN7_thread11setSleepingEb:
 561              	.LFB14:
 161:src/thread.cpp **** 
 162:src/thread.cpp **** void _thread::setSleeping(bool sleeping){
 562              		.loc 1 162 41 is_stmt 1
 563              		.cfi_startproc
 564              	.LVL25:
 565 03a0 130101FF 		addi	sp,sp,-16
 566              		.cfi_def_cfa_offset 16
 567 03a4 23348100 		sd	s0,8(sp)
 568              		.cfi_offset 8, -8
 569 03a8 13040101 		addi	s0,sp,16
 570              		.cfi_def_cfa 8, 0
 163:src/thread.cpp ****     this->sleeping = sleeping;
 571              		.loc 1 163 5
 572              		.loc 1 163 20 is_stmt 0
 573 03ac 93F51500 		andi	a1,a1,1
 574              	.LVL26:
 575 03b0 9B972500 		slliw	a5,a1,2
 576 03b4 8325050A 		lw	a1,160(a0)
 577 03b8 93F5B5FF 		andi	a1,a1,-5
 578 03bc B3E5F500 		or	a1,a1,a5
GAS LISTING /tmp/ccKGcIcU.s 			page 15


 579 03c0 2320B50A 		sw	a1,160(a0)
 164:src/thread.cpp **** }
 580              		.loc 1 164 1
 581 03c4 03348100 		ld	s0,8(sp)
 582              		.cfi_restore 8
 583              		.cfi_def_cfa 2, 16
 584 03c8 13010101 		addi	sp,sp,16
 585              		.cfi_def_cfa_offset 0
 586 03cc 67800000 		jr	ra
 587              		.cfi_endproc
 588              	.LFE14:
 590              		.align	2
 591              		.globl	_ZN7_thread13contextSwitchEPNS_14contextWrapperES1_
 593              	_ZN7_thread13contextSwitchEPNS_14contextWrapperES1_:
 594              	.LFB16:
 165:src/thread.cpp **** 
 166:src/thread.cpp **** void _thread::dispatch(){
 167:src/thread.cpp ****     _thread* oldThread = currentThread;
 168:src/thread.cpp ****     if(oldThread != nullptr && !oldThread->closed && !oldThread->blocked && !oldThread->sleeping &&
 169:src/thread.cpp ****             Scheduler::put(oldThread);
 170:src/thread.cpp ****     }   
 171:src/thread.cpp ****     // while(newThread != nullptr && (newThread->closed || newThread->blocked || newThread->sleepin
 172:src/thread.cpp ****     //     newThread = Scheduler::get();
 173:src/thread.cpp ****     // }
 174:src/thread.cpp ****     // if(newThread == nullptr){
 175:src/thread.cpp ****     //     return;
 176:src/thread.cpp ****     // }
 177:src/thread.cpp ****     currentThread =  Scheduler::get();
 178:src/thread.cpp ****     if(currentThread == nullptr){
 179:src/thread.cpp ****         return;
 180:src/thread.cpp ****     }
 181:src/thread.cpp ****     contextSwitch(oldThread == nullptr?nullptr:&oldThread->context, &(currentThread->context));
 182:src/thread.cpp **** }
 183:src/thread.cpp **** 
 184:src/thread.cpp **** void _thread::contextSwitch(contextWrapper *oldContext, contextWrapper *newContext){
 595              		.loc 1 184 84 is_stmt 1
 596              		.cfi_startproc
 597              	.LVL27:
 598 03d0 130101FF 		addi	sp,sp,-16
 599              		.cfi_def_cfa_offset 16
 600 03d4 23348100 		sd	s0,8(sp)
 601              		.cfi_offset 8, -8
 602 03d8 13040101 		addi	s0,sp,16
 603              		.cfi_def_cfa 8, 0
 185:src/thread.cpp ****     if(oldContext != nullptr){
 604              		.loc 1 185 5
 605 03dc 63000508 		beqz	a0,.L20
 186:src/thread.cpp **** 
 187:src/thread.cpp ****         __asm__ volatile ("mv %0, sp" : "=r"(oldContext->sp));
 606              		.loc 1 187 9
 607              		.loc 1 187 62 is_stmt 0
 608              	#APP
 609              	# 187 "src/thread.cpp" 1
 188              	        __asm__ volatile ("mv %0, ra" : "=r"(oldContext->pc));
 610              		mv a5, sp
 611              	# 0 "" 2
 612              	#NO_APP
GAS LISTING /tmp/ccKGcIcU.s 			page 16


 613 03e4 2334F500 		sd	a5,8(a0)
 614              		.loc 1 188 9 is_stmt 1
 615              		.loc 1 188 62 is_stmt 0
 616              	#APP
 617              	# 188 "src/thread.cpp" 1
 189              	
 618              		mv a5, ra
 619              	# 0 "" 2
 620              	#NO_APP
 621 03ec 2330F500 		sd	a5,0(a0)
 190:src/thread.cpp ****         __asm__ volatile ("mv %0, s0" : "=r"(oldContext->s0));
 622              		.loc 1 190 9 is_stmt 1
 623              		.loc 1 190 62 is_stmt 0
 624              	#APP
 625              	# 190 "src/thread.cpp" 1
 191              	        __asm__ volatile ("mv %0, s1" : "=r"(oldContext->s1));
 626              		mv a5, s0
 627              	# 0 "" 2
 628              	#NO_APP
 629 03f4 2338F500 		sd	a5,16(a0)
 630              		.loc 1 191 9 is_stmt 1
 631              		.loc 1 191 62 is_stmt 0
 632              	#APP
 633              	# 191 "src/thread.cpp" 1
 192              	        __asm__ volatile ("mv %0, s2" : "=r"(oldContext->s2));
 634              		mv a5, s1
 635              	# 0 "" 2
 636              	#NO_APP
 637 03fc 233CF500 		sd	a5,24(a0)
 638              		.loc 1 192 9 is_stmt 1
 639              		.loc 1 192 62 is_stmt 0
 640              	#APP
 641              	# 192 "src/thread.cpp" 1
 193              	        __asm__ volatile ("mv %0, s3" : "=r"(oldContext->s3));
 642              		mv a5, s2
 643              	# 0 "" 2
 644              	#NO_APP
 645 0404 2330F502 		sd	a5,32(a0)
 646              		.loc 1 193 9 is_stmt 1
 647              		.loc 1 193 62 is_stmt 0
 648              	#APP
 649              	# 193 "src/thread.cpp" 1
 194              	        __asm__ volatile ("mv %0, s4" : "=r"(oldContext->s4));
 650              		mv a5, s3
 651              	# 0 "" 2
 652              	#NO_APP
 653 040c 2334F502 		sd	a5,40(a0)
 654              		.loc 1 194 9 is_stmt 1
 655              		.loc 1 194 62 is_stmt 0
 656              	#APP
 657              	# 194 "src/thread.cpp" 1
 195              	        __asm__ volatile ("mv %0, s5" : "=r"(oldContext->s5));
 658              		mv a5, s4
 659              	# 0 "" 2
 660              	#NO_APP
 661 0414 2338F502 		sd	a5,48(a0)
 662              		.loc 1 195 9 is_stmt 1
GAS LISTING /tmp/ccKGcIcU.s 			page 17


 663              		.loc 1 195 62 is_stmt 0
 664              	#APP
 665              	# 195 "src/thread.cpp" 1
 196              	        __asm__ volatile ("mv %0, s6" : "=r"(oldContext->s6));
 666              		mv a5, s5
 667              	# 0 "" 2
 668              	#NO_APP
 669 041c 233CF502 		sd	a5,56(a0)
 670              		.loc 1 196 9 is_stmt 1
 671              		.loc 1 196 62 is_stmt 0
 672              	#APP
 673              	# 196 "src/thread.cpp" 1
 197              	        __asm__ volatile ("mv %0, s7" : "=r"(oldContext->s7));
 674              		mv a5, s6
 675              	# 0 "" 2
 676              	#NO_APP
 677 0424 2330F504 		sd	a5,64(a0)
 678              		.loc 1 197 9 is_stmt 1
 679              		.loc 1 197 62 is_stmt 0
 680              	#APP
 681              	# 197 "src/thread.cpp" 1
 198              	        __asm__ volatile ("mv %0, s8" : "=r"(oldContext->s8));
 682              		mv a5, s7
 683              	# 0 "" 2
 684              	#NO_APP
 685 042c 2334F504 		sd	a5,72(a0)
 686              		.loc 1 198 9 is_stmt 1
 687              		.loc 1 198 62 is_stmt 0
 688              	#APP
 689              	# 198 "src/thread.cpp" 1
 199              	        __asm__ volatile ("mv %0, s9" : "=r"(oldContext->s9));
 690              		mv a5, s8
 691              	# 0 "" 2
 692              	#NO_APP
 693 0434 2338F504 		sd	a5,80(a0)
 694              		.loc 1 199 9 is_stmt 1
 695              		.loc 1 199 62 is_stmt 0
 696              	#APP
 697              	# 199 "src/thread.cpp" 1
 200              	        __asm__ volatile ("mv %0, s10" : "=r"(oldContext->s10));
 698              		mv a5, s9
 699              	# 0 "" 2
 700              	#NO_APP
 701 043c 233CF504 		sd	a5,88(a0)
 702              		.loc 1 200 9 is_stmt 1
 703              		.loc 1 200 64 is_stmt 0
 704              	#APP
 705              	# 200 "src/thread.cpp" 1
 201              	        __asm__ volatile ("mv %0, s11" : "=r"(oldContext->s11));
 706              		mv a5, s10
 707              	# 0 "" 2
 708              	#NO_APP
 709 0444 2330F506 		sd	a5,96(a0)
 710              		.loc 1 201 9 is_stmt 1
 711              		.loc 1 201 64 is_stmt 0
 712              	#APP
 713              	# 201 "src/thread.cpp" 1
GAS LISTING /tmp/ccKGcIcU.s 			page 18


 202              	
 714              		mv a5, s11
 715              	# 0 "" 2
 716              	#NO_APP
 717 044c 2334F506 		sd	a5,104(a0)
 203:src/thread.cpp ****         __asm__ volatile ("csrr s0, sstatus");
 718              		.loc 1 203 9 is_stmt 1
 719              		.loc 1 203 46 is_stmt 0
 720              	#APP
 721              	# 203 "src/thread.cpp" 1
 204              	        __asm__ volatile ("mv %0, s0" : "=r"(oldContext->sstatus));
 722              		csrr s0, sstatus
 723              	# 0 "" 2
 724              		.loc 1 204 9 is_stmt 1
 725              		.loc 1 204 67 is_stmt 0
 726              	# 204 "src/thread.cpp" 1
 205              	
 727              		mv a5, s0
 728              	# 0 "" 2
 729              	#NO_APP
 730 0458 2338F506 		sd	a5,112(a0)
 731              	.L20:
 206:src/thread.cpp ****     }
 207:src/thread.cpp ****     if(newContext->sp != 0){
 732              		.loc 1 207 5 is_stmt 1
 733              		.loc 1 207 20 is_stmt 0
 734 045c 83B78500 		ld	a5,8(a1)
 735              		.loc 1 207 5
 736 0460 63840700 		beqz	a5,.L21
 208:src/thread.cpp ****         __asm__ volatile ("mv sp, %0" :: "r"(newContext->sp));
 737              		.loc 1 208 9 is_stmt 1
 738              		.loc 1 208 62 is_stmt 0
 739              	#APP
 740              	# 208 "src/thread.cpp" 1
 209              	    }
 741              		mv sp, a5
 742              	# 0 "" 2
 743              	#NO_APP
 744              	.L21:
 210:src/thread.cpp **** 
 211:src/thread.cpp ****     
 212:src/thread.cpp ****     __asm__ volatile ("mv s0, %0" :: "r"(newContext->sstatus));
 745              		.loc 1 212 5 is_stmt 1
 746              		.loc 1 212 54 is_stmt 0
 747 0468 83B70507 		ld	a5,112(a1)
 748              		.loc 1 212 63
 749              	#APP
 750              	# 212 "src/thread.cpp" 1
 213              	    __asm__ volatile ("csrw sstatus, s0");
 751              		mv s0, a5
 752              	# 0 "" 2
 753              		.loc 1 213 5 is_stmt 1
 754              		.loc 1 213 42 is_stmt 0
 755              	# 213 "src/thread.cpp" 1
 214              	
 215:src/thread.cpp ****     __asm__ volatile ("mv s0, %0" :: "r"(newContext->s0));
 756              		csrw sstatus, s0
GAS LISTING /tmp/ccKGcIcU.s 			page 19


 757              	# 0 "" 2
 758              		.loc 1 215 5 is_stmt 1
 759              		.loc 1 215 54 is_stmt 0
 760              	#NO_APP
 761 0474 83B70501 		ld	a5,16(a1)
 762              		.loc 1 215 58
 763              	#APP
 764              	# 215 "src/thread.cpp" 1
 216              	    __asm__ volatile ("mv s1, %0" :: "r"(newContext->s1));
 765              		mv s0, a5
 766              	# 0 "" 2
 767              		.loc 1 216 5 is_stmt 1
 768              		.loc 1 216 54 is_stmt 0
 769              	#NO_APP
 770 047c 83B78501 		ld	a5,24(a1)
 771              		.loc 1 216 58
 772              	#APP
 773              	# 216 "src/thread.cpp" 1
 217              	    __asm__ volatile ("mv s2, %0" :: "r"(newContext->s2));
 774              		mv s1, a5
 775              	# 0 "" 2
 776              		.loc 1 217 5 is_stmt 1
 777              		.loc 1 217 54 is_stmt 0
 778              	#NO_APP
 779 0484 83B70502 		ld	a5,32(a1)
 780              		.loc 1 217 58
 781              	#APP
 782              	# 217 "src/thread.cpp" 1
 218              	    __asm__ volatile ("mv s3, %0" :: "r"(newContext->s3));
 783              		mv s2, a5
 784              	# 0 "" 2
 785              		.loc 1 218 5 is_stmt 1
 786              		.loc 1 218 54 is_stmt 0
 787              	#NO_APP
 788 048c 83B78502 		ld	a5,40(a1)
 789              		.loc 1 218 58
 790              	#APP
 791              	# 218 "src/thread.cpp" 1
 219              	    __asm__ volatile ("mv s4, %0" :: "r"(newContext->s4));
 792              		mv s3, a5
 793              	# 0 "" 2
 794              		.loc 1 219 5 is_stmt 1
 795              		.loc 1 219 54 is_stmt 0
 796              	#NO_APP
 797 0494 83B70503 		ld	a5,48(a1)
 798              		.loc 1 219 58
 799              	#APP
 800              	# 219 "src/thread.cpp" 1
 220              	    __asm__ volatile ("mv s5, %0" :: "r"(newContext->s5));
 801              		mv s4, a5
 802              	# 0 "" 2
 803              		.loc 1 220 5 is_stmt 1
 804              		.loc 1 220 54 is_stmt 0
 805              	#NO_APP
 806 049c 83B78503 		ld	a5,56(a1)
 807              		.loc 1 220 58
 808              	#APP
GAS LISTING /tmp/ccKGcIcU.s 			page 20


 809              	# 220 "src/thread.cpp" 1
 221              	    __asm__ volatile ("mv s6, %0" :: "r"(newContext->s6));
 810              		mv s5, a5
 811              	# 0 "" 2
 812              		.loc 1 221 5 is_stmt 1
 813              		.loc 1 221 54 is_stmt 0
 814              	#NO_APP
 815 04a4 83B70504 		ld	a5,64(a1)
 816              		.loc 1 221 58
 817              	#APP
 818              	# 221 "src/thread.cpp" 1
 222              	    __asm__ volatile ("mv s7, %0" :: "r"(newContext->s7));
 819              		mv s6, a5
 820              	# 0 "" 2
 821              		.loc 1 222 5 is_stmt 1
 822              		.loc 1 222 54 is_stmt 0
 823              	#NO_APP
 824 04ac 83B78504 		ld	a5,72(a1)
 825              		.loc 1 222 58
 826              	#APP
 827              	# 222 "src/thread.cpp" 1
 223              	    __asm__ volatile ("mv s8, %0" :: "r"(newContext->s8));
 828              		mv s7, a5
 829              	# 0 "" 2
 830              		.loc 1 223 5 is_stmt 1
 831              		.loc 1 223 54 is_stmt 0
 832              	#NO_APP
 833 04b4 83B70505 		ld	a5,80(a1)
 834              		.loc 1 223 58
 835              	#APP
 836              	# 223 "src/thread.cpp" 1
 224              	    __asm__ volatile ("mv s9, %0" :: "r"(newContext->s9));
 837              		mv s8, a5
 838              	# 0 "" 2
 839              		.loc 1 224 5 is_stmt 1
 840              		.loc 1 224 54 is_stmt 0
 841              	#NO_APP
 842 04bc 83B78505 		ld	a5,88(a1)
 843              		.loc 1 224 58
 844              	#APP
 845              	# 224 "src/thread.cpp" 1
 225              	    __asm__ volatile ("mv s10, %0" :: "r"(newContext->s10));
 846              		mv s9, a5
 847              	# 0 "" 2
 848              		.loc 1 225 5 is_stmt 1
 849              		.loc 1 225 55 is_stmt 0
 850              	#NO_APP
 851 04c4 83B70506 		ld	a5,96(a1)
 852              		.loc 1 225 60
 853              	#APP
 854              	# 225 "src/thread.cpp" 1
 226              	    __asm__ volatile ("mv s11, %0" :: "r"(newContext->s11));
 855              		mv s10, a5
 856              	# 0 "" 2
 857              		.loc 1 226 5 is_stmt 1
 858              		.loc 1 226 55 is_stmt 0
 859              	#NO_APP
GAS LISTING /tmp/ccKGcIcU.s 			page 21


 860 04cc 83B78506 		ld	a5,104(a1)
 861              		.loc 1 226 60
 862              	#APP
 863              	# 226 "src/thread.cpp" 1
 227              	
 228:src/thread.cpp ****     __asm__ volatile ("mv ra, %0" :: "r"(newContext->pc));
 864              		mv s11, a5
 865              	# 0 "" 2
 866              		.loc 1 228 5 is_stmt 1
 867              		.loc 1 228 54 is_stmt 0
 868              	#NO_APP
 869 04d4 83B70500 		ld	a5,0(a1)
 870              		.loc 1 228 58
 871              	#APP
 872              	# 228 "src/thread.cpp" 1
 229              	    return;
 873              		mv ra, a5
 874              	# 0 "" 2
 875              		.loc 1 229 5 is_stmt 1
 230:src/thread.cpp **** }
 876              		.loc 1 230 1 is_stmt 0
 877              	#NO_APP
 878 04dc 03348100 		ld	s0,8(sp)
 879              		.cfi_restore 8
 880              		.cfi_def_cfa 2, 16
 881 04e0 13010101 		addi	sp,sp,16
 882              		.cfi_def_cfa_offset 0
 883 04e4 67800000 		jr	ra
 884              		.cfi_endproc
 885              	.LFE16:
 887              		.align	2
 888              		.globl	_ZN7_thread8dispatchEv
 890              	_ZN7_thread8dispatchEv:
 891              	.LFB15:
 166:src/thread.cpp ****     _thread* oldThread = currentThread;
 892              		.loc 1 166 25 is_stmt 1
 893              		.cfi_startproc
 894 04e8 130101FE 		addi	sp,sp,-32
 895              		.cfi_def_cfa_offset 32
 896 04ec 233C1100 		sd	ra,24(sp)
 897 04f0 23388100 		sd	s0,16(sp)
 898 04f4 23349100 		sd	s1,8(sp)
 899              		.cfi_offset 1, -8
 900              		.cfi_offset 8, -16
 901              		.cfi_offset 9, -24
 902 04f8 13040102 		addi	s0,sp,32
 903              		.cfi_def_cfa 8, 0
 167:src/thread.cpp ****     if(oldThread != nullptr && !oldThread->closed && !oldThread->blocked && !oldThread->sleeping &&
 904              		.loc 1 167 5
 167:src/thread.cpp ****     if(oldThread != nullptr && !oldThread->closed && !oldThread->blocked && !oldThread->sleeping &&
 905              		.loc 1 167 14 is_stmt 0
 906 04fc 97040000 		ld	s1,.LANCHOR0+8
 906      83B40400 
 907              	.LVL28:
 168:src/thread.cpp ****             Scheduler::put(oldThread);
 908              		.loc 1 168 5 is_stmt 1
 909 0504 63880400 		beqz	s1,.L24
GAS LISTING /tmp/ccKGcIcU.s 			page 22


 168:src/thread.cpp ****             Scheduler::put(oldThread);
 910              		.loc 1 168 98 is_stmt 0 discriminator 1
 911 0508 83B7040A 		ld	a5,160(s1)
 912 050c 93F7F700 		andi	a5,a5,15
 913 0510 63820704 		beqz	a5,.L28
 914              	.L24:
 177:src/thread.cpp ****     if(currentThread == nullptr){
 915              		.loc 1 177 5 is_stmt 1
 177:src/thread.cpp ****     if(currentThread == nullptr){
 916              		.loc 1 177 36 is_stmt 0
 917 0514 97000000 		call	_ZN9Scheduler3getEv@plt
 917      E7800000 
 918              	.LVL29:
 177:src/thread.cpp ****     if(currentThread == nullptr){
 919              		.loc 1 177 19
 920 051c 97070000 		sd	a0,.LANCHOR0+8,a5
 920      23B0A700 
 178:src/thread.cpp ****         return;
 921              		.loc 1 178 5 is_stmt 1
 922 0524 630E0500 		beqz	a0,.L23
 181:src/thread.cpp **** }
 923              		.loc 1 181 5
 181:src/thread.cpp **** }
 924              		.loc 1 181 18 is_stmt 0
 925 0528 63840400 		beqz	s1,.L26
 181:src/thread.cpp **** }
 926              		.loc 1 181 18 discriminator 1
 927 052c 93848400 		addi	s1,s1,8
 928              	.LVL30:
 929              	.L26:
 181:src/thread.cpp **** }
 930              		.loc 1 181 18 discriminator 4
 931 0530 93058500 		addi	a1,a0,8
 932 0534 13850400 		mv	a0,s1
 933 0538 97000000 		call	_ZN7_thread13contextSwitchEPNS_14contextWrapperES1_
 933      E7800000 
 934              	.LVL31:
 935              	.L23:
 182:src/thread.cpp **** 
 936              		.loc 1 182 1
 937 0540 83308101 		ld	ra,24(sp)
 938              		.cfi_remember_state
 939              		.cfi_restore 1
 940 0544 03340101 		ld	s0,16(sp)
 941              		.cfi_restore 8
 942              		.cfi_def_cfa 2, 32
 943 0548 83348100 		ld	s1,8(sp)
 944              		.cfi_restore 9
 945 054c 13010102 		addi	sp,sp,32
 946              		.cfi_def_cfa_offset 0
 947 0550 67800000 		jr	ra
 948              	.LVL32:
 949              	.L28:
 950              		.cfi_restore_state
 169:src/thread.cpp ****     }   
 951              		.loc 1 169 13 is_stmt 1
 169:src/thread.cpp ****     }   
GAS LISTING /tmp/ccKGcIcU.s 			page 23


 952              		.loc 1 169 27 is_stmt 0
 953 0554 13850400 		mv	a0,s1
 954 0558 97000000 		call	_ZN9Scheduler3putEP7_thread@plt
 954      E7800000 
 955              	.LVL33:
 956 0560 6FF05FFB 		j	.L24
 957              		.cfi_endproc
 958              	.LFE15:
 960              		.align	2
 961              		.globl	_ZN7_thread4joinEPS_
 963              	_ZN7_thread4joinEPS_:
 964              	.LFB10:
 119:src/thread.cpp ****     /// cannot join to a finished or closed thread
 965              		.loc 1 119 36 is_stmt 1
 966              		.cfi_startproc
 967              	.LVL34:
 121:src/thread.cpp ****         return;
 968              		.loc 1 121 5
 121:src/thread.cpp ****         return;
 969              		.loc 1 121 25 is_stmt 0
 970 0564 83B7050A 		ld	a5,160(a1)
 971 0568 93F79700 		andi	a5,a5,9
 121:src/thread.cpp ****         return;
 972              		.loc 1 121 5
 973 056c 63840700 		beqz	a5,.L37
 974 0570 67800000 		ret
 975              	.L37:
 119:src/thread.cpp ****     /// cannot join to a finished or closed thread
 976              		.loc 1 119 36
 977 0574 130101FE 		addi	sp,sp,-32
 978              		.cfi_def_cfa_offset 32
 979 0578 233C1100 		sd	ra,24(sp)
 980 057c 23388100 		sd	s0,16(sp)
 981 0580 23349100 		sd	s1,8(sp)
 982 0584 23302101 		sd	s2,0(sp)
 983              		.cfi_offset 1, -8
 984              		.cfi_offset 8, -16
 985              		.cfi_offset 9, -24
 986              		.cfi_offset 18, -32
 987 0588 13040102 		addi	s0,sp,32
 988              		.cfi_def_cfa 8, 0
 989 058c 93040500 		mv	s1,a0
 990 0590 13890500 		mv	s2,a1
 124:src/thread.cpp ****     this->blocked = true;
 991              		.loc 1 124 5 is_stmt 1
 124:src/thread.cpp ****     this->blocked = true;
 992              		.loc 1 124 57 is_stmt 0
 993 0594 13050001 		li	a0,16
 994              	.LVL35:
 995 0598 97000000 		call	_Z9mem_allocm@plt
 995      E7800000 
 996              	.LVL36:
 125:src/thread.cpp ****     newJoin->thread = this;
 997              		.loc 1 125 5 is_stmt 1
 125:src/thread.cpp ****     newJoin->thread = this;
 998              		.loc 1 125 19 is_stmt 0
 999 05a0 03A7040A 		lw	a4,160(s1)
GAS LISTING /tmp/ccKGcIcU.s 			page 24


 1000 05a4 13672700 		ori	a4,a4,2
 1001 05a8 23A0E40A 		sw	a4,160(s1)
 126:src/thread.cpp ****     newJoin->next = nullptr;
 1002              		.loc 1 126 5 is_stmt 1
 126:src/thread.cpp ****     newJoin->next = nullptr;
 1003              		.loc 1 126 21 is_stmt 0
 1004 05ac 23009500 		sb	s1,0(a0)
 1005 05b0 13D78400 		srli	a4,s1,8
 1006 05b4 A300E500 		sb	a4,1(a0)
 1007 05b8 13D70401 		srli	a4,s1,16
 1008 05bc 2301E500 		sb	a4,2(a0)
 1009 05c0 1BD78401 		srliw	a4,s1,24
 1010 05c4 A301E500 		sb	a4,3(a0)
 1011 05c8 13D70402 		srli	a4,s1,32
 1012 05cc 2302E500 		sb	a4,4(a0)
 1013 05d0 13D78402 		srli	a4,s1,40
 1014 05d4 A302E500 		sb	a4,5(a0)
 1015 05d8 13D70403 		srli	a4,s1,48
 1016 05dc 2303E500 		sb	a4,6(a0)
 1017 05e0 93D48403 		srli	s1,s1,56
 1018              	.LVL37:
 1019 05e4 A3039500 		sb	s1,7(a0)
 127:src/thread.cpp ****     if(thread->joinHead == nullptr){
 1020              		.loc 1 127 5 is_stmt 1
 127:src/thread.cpp ****     if(thread->joinHead == nullptr){
 1021              		.loc 1 127 19 is_stmt 0
 1022 05e8 23040500 		sb	zero,8(a0)
 1023 05ec A3040500 		sb	zero,9(a0)
 1024 05f0 23050500 		sb	zero,10(a0)
 1025 05f4 A3050500 		sb	zero,11(a0)
 1026 05f8 23060500 		sb	zero,12(a0)
 1027 05fc A3060500 		sb	zero,13(a0)
 1028 0600 23070500 		sb	zero,14(a0)
 1029 0604 A3070500 		sb	zero,15(a0)
 128:src/thread.cpp ****         thread->joinHead = newJoin;
 1030              		.loc 1 128 5 is_stmt 1
 128:src/thread.cpp ****         thread->joinHead = newJoin;
 1031              		.loc 1 128 16 is_stmt 0
 1032 0608 03370908 		ld	a4,128(s2)
 128:src/thread.cpp ****         thread->joinHead = newJoin;
 1033              		.loc 1 128 5
 1034 060c 63040706 		beqz	a4,.L38
 132:src/thread.cpp ****         thread->joinTail = newJoin;
 1035              		.loc 1 132 9 is_stmt 1
 132:src/thread.cpp ****         thread->joinTail = newJoin;
 1036              		.loc 1 132 17 is_stmt 0
 1037 0610 03378908 		ld	a4,136(s2)
 132:src/thread.cpp ****         thread->joinTail = newJoin;
 1038              		.loc 1 132 32
 1039 0614 2304A700 		sb	a0,8(a4)
 1040 0618 93568500 		srli	a3,a0,8
 1041 061c A304D700 		sb	a3,9(a4)
 1042 0620 93560501 		srli	a3,a0,16
 1043 0624 2305D700 		sb	a3,10(a4)
 1044 0628 9B568501 		srliw	a3,a0,24
 1045 062c A305D700 		sb	a3,11(a4)
 1046 0630 93560502 		srli	a3,a0,32
GAS LISTING /tmp/ccKGcIcU.s 			page 25


 1047 0634 2306D700 		sb	a3,12(a4)
 1048 0638 93568502 		srli	a3,a0,40
 1049 063c A306D700 		sb	a3,13(a4)
 1050 0640 93560503 		srli	a3,a0,48
 1051 0644 2307D700 		sb	a3,14(a4)
 1052 0648 93568503 		srli	a3,a0,56
 1053 064c A307D700 		sb	a3,15(a4)
 133:src/thread.cpp ****     }
 1054              		.loc 1 133 9 is_stmt 1
 133:src/thread.cpp ****     }
 1055              		.loc 1 133 26 is_stmt 0
 1056 0650 2334A908 		sd	a0,136(s2)
 1057              	.L32:
 136:src/thread.cpp **** }
 1058              		.loc 1 136 5 is_stmt 1
 136:src/thread.cpp **** }
 1059              		.loc 1 136 13 is_stmt 0
 1060 0654 97000000 		call	_ZN7_thread8dispatchEv
 1060      E7800000 
 1061              	.LVL38:
 137:src/thread.cpp **** 
 1062              		.loc 1 137 1
 1063 065c 83308101 		ld	ra,24(sp)
 1064              		.cfi_remember_state
 1065              		.cfi_restore 1
 1066 0660 03340101 		ld	s0,16(sp)
 1067              		.cfi_restore 8
 1068              		.cfi_def_cfa 2, 32
 1069 0664 83348100 		ld	s1,8(sp)
 1070              		.cfi_restore 9
 1071 0668 03390100 		ld	s2,0(sp)
 1072              		.cfi_restore 18
 1073              	.LVL39:
 1074 066c 13010102 		addi	sp,sp,32
 1075              		.cfi_def_cfa_offset 0
 1076 0670 67800000 		jr	ra
 1077              	.LVL40:
 1078              	.L38:
 1079              		.cfi_restore_state
 129:src/thread.cpp ****         thread->joinTail = newJoin;
 1080              		.loc 1 129 9 is_stmt 1
 129:src/thread.cpp ****         thread->joinTail = newJoin;
 1081              		.loc 1 129 26 is_stmt 0
 1082 0674 2330A908 		sd	a0,128(s2)
 130:src/thread.cpp ****     }else{
 1083              		.loc 1 130 9 is_stmt 1
 130:src/thread.cpp ****     }else{
 1084              		.loc 1 130 26 is_stmt 0
 1085 0678 2334A908 		sd	a0,136(s2)
 1086 067c 6FF09FFD 		j	.L32
 1087              		.cfi_endproc
 1088              	.LFE10:
 1090              		.align	2
 1091              		.globl	_ZN7_thread4exitEv
 1093              	_ZN7_thread4exitEv:
 1094              	.LFB11:
 139:src/thread.cpp ****     if(currentThread->closed){
GAS LISTING /tmp/ccKGcIcU.s 			page 26


 1095              		.loc 1 139 20 is_stmt 1
 1096              		.cfi_startproc
 140:src/thread.cpp ****         return -1;
 1097              		.loc 1 140 5
 140:src/thread.cpp ****         return -1;
 1098              		.loc 1 140 29 is_stmt 0
 1099 0680 17070000 		ld	a4,.LANCHOR0+8
 1099      03370700 
 1100 0688 8327070A 		lw	a5,160(a4)
 1101 068c 93F61700 		andi	a3,a5,1
 140:src/thread.cpp ****         return -1;
 1102              		.loc 1 140 5
 1103 0690 63960604 		bnez	a3,.L41
 143:src/thread.cpp ****         return -2;
 1104              		.loc 1 143 5 is_stmt 1
 143:src/thread.cpp ****         return -2;
 1105              		.loc 1 143 30 is_stmt 0
 1106 0694 93F62700 		andi	a3,a5,2
 143:src/thread.cpp ****         return -2;
 1107              		.loc 1 143 5
 1108 0698 63960604 		bnez	a3,.L42
 146:src/thread.cpp ****         return -3;
 1109              		.loc 1 146 5 is_stmt 1
 146:src/thread.cpp ****         return -3;
 1110              		.loc 1 146 31 is_stmt 0
 1111 069c 93F74700 		andi	a5,a5,4
 146:src/thread.cpp ****         return -3;
 1112              		.loc 1 146 5
 1113 06a0 63960704 		bnez	a5,.L43
 139:src/thread.cpp ****     if(currentThread->closed){
 1114              		.loc 1 139 20
 1115 06a4 130101FF 		addi	sp,sp,-16
 1116              		.cfi_def_cfa_offset 16
 1117 06a8 23341100 		sd	ra,8(sp)
 1118 06ac 23308100 		sd	s0,0(sp)
 1119              		.cfi_offset 1, -8
 1120              		.cfi_offset 8, -16
 1121 06b0 13040101 		addi	s0,sp,16
 1122              		.cfi_def_cfa 8, 0
 149:src/thread.cpp ****     dispatch();
 1123              		.loc 1 149 5 is_stmt 1
 149:src/thread.cpp ****     dispatch();
 1124              		.loc 1 149 29 is_stmt 0
 1125 06b4 8327070A 		lw	a5,160(a4)
 1126 06b8 93E78700 		ori	a5,a5,8
 1127 06bc 2320F70A 		sw	a5,160(a4)
 150:src/thread.cpp ****     return 0;
 1128              		.loc 1 150 5 is_stmt 1
 150:src/thread.cpp ****     return 0;
 1129              		.loc 1 150 13 is_stmt 0
 1130 06c0 97000000 		call	_ZN7_thread8dispatchEv
 1130      E7800000 
 1131              	.LVL41:
 151:src/thread.cpp **** }
 1132              		.loc 1 151 5 is_stmt 1
 151:src/thread.cpp **** }
 1133              		.loc 1 151 12 is_stmt 0
GAS LISTING /tmp/ccKGcIcU.s 			page 27


 1134 06c8 13050000 		li	a0,0
 152:src/thread.cpp **** 
 1135              		.loc 1 152 1
 1136 06cc 83308100 		ld	ra,8(sp)
 1137              		.cfi_restore 1
 1138 06d0 03340100 		ld	s0,0(sp)
 1139              		.cfi_restore 8
 1140              		.cfi_def_cfa 2, 16
 1141 06d4 13010101 		addi	sp,sp,16
 1142              		.cfi_def_cfa_offset 0
 1143 06d8 67800000 		jr	ra
 1144              	.L41:
 141:src/thread.cpp ****     }
 1145              		.loc 1 141 17
 1146 06dc 1305F0FF 		li	a0,-1
 1147 06e0 67800000 		ret
 1148              	.L42:
 144:src/thread.cpp ****     }
 1149              		.loc 1 144 17
 1150 06e4 1305E0FF 		li	a0,-2
 1151 06e8 67800000 		ret
 1152              	.L43:
 147:src/thread.cpp ****     }
 1153              		.loc 1 147 17
 1154 06ec 1305D0FF 		li	a0,-3
 152:src/thread.cpp **** 
 1155              		.loc 1 152 1
 1156 06f0 67800000 		ret
 1157              		.cfi_endproc
 1158              	.LFE11:
 1160              		.align	2
 1161              		.globl	_ZN7_thread7wrapperEv
 1163              	_ZN7_thread7wrapperEv:
 1164              	.LFB7:
  59:src/thread.cpp ****     popSppSpie();
 1165              		.loc 1 59 24 is_stmt 1
 1166              		.cfi_startproc
 1167 06f4 130101FE 		addi	sp,sp,-32
 1168              		.cfi_def_cfa_offset 32
 1169 06f8 233C1100 		sd	ra,24(sp)
 1170 06fc 23388100 		sd	s0,16(sp)
 1171 0700 23349100 		sd	s1,8(sp)
 1172              		.cfi_offset 1, -8
 1173              		.cfi_offset 8, -16
 1174              		.cfi_offset 9, -24
 1175 0704 13040102 		addi	s0,sp,32
 1176              		.cfi_def_cfa 8, 0
  60:src/thread.cpp ****     currentThread->function(currentThread->arg);
 1177              		.loc 1 60 5
  60:src/thread.cpp ****     currentThread->function(currentThread->arg);
 1178              		.loc 1 60 15 is_stmt 0
 1179 0708 97000000 		call	_Z10popSppSpiev
 1179      E7800000 
 1180              	.LVL42:
  61:src/thread.cpp ****     currentThread->unJoin();
 1181              		.loc 1 61 5 is_stmt 1
  61:src/thread.cpp ****     currentThread->unJoin();
GAS LISTING /tmp/ccKGcIcU.s 			page 28


 1182              		.loc 1 61 20 is_stmt 0
 1183 0710 97040000 		lla	s1,.LANCHOR0
 1183      93840400 
 1184 0718 83B78400 		ld	a5,8(s1)
 1185 071c 03B7870A 		ld	a4,168(a5)
  61:src/thread.cpp ****     currentThread->unJoin();
 1186              		.loc 1 61 28
 1187 0720 03B5070B 		ld	a0,176(a5)
 1188 0724 E7000700 		jalr	a4
 1189              	.LVL43:
  62:src/thread.cpp ****     exit();
 1190              		.loc 1 62 5 is_stmt 1
  62:src/thread.cpp ****     exit();
 1191              		.loc 1 62 26 is_stmt 0
 1192 0728 03B58400 		ld	a0,8(s1)
 1193 072c 97000000 		call	_ZN7_thread6unJoinEv
 1193      E7800000 
 1194              	.LVL44:
  63:src/thread.cpp **** }
 1195              		.loc 1 63 5 is_stmt 1
  63:src/thread.cpp **** }
 1196              		.loc 1 63 9 is_stmt 0
 1197 0734 97000000 		call	_ZN7_thread4exitEv
 1197      E7800000 
 1198              	.LVL45:
  64:src/thread.cpp **** 
 1199              		.loc 1 64 1
 1200 073c 83308101 		ld	ra,24(sp)
 1201              		.cfi_restore 1
 1202 0740 03340101 		ld	s0,16(sp)
 1203              		.cfi_restore 8
 1204              		.cfi_def_cfa 2, 32
 1205 0744 83348100 		ld	s1,8(sp)
 1206              		.cfi_restore 9
 1207 0748 13010102 		addi	sp,sp,32
 1208              		.cfi_def_cfa_offset 0
 1209 074c 67800000 		jr	ra
 1210              		.cfi_endproc
 1211              	.LFE7:
 1213              		.globl	_ZN7_thread6nextIDE
 1214              		.globl	_ZN7_thread13currentThreadE
 1215              		.bss
 1216              		.align	3
 1217              		.set	.LANCHOR0,. + 0
 1220              	_ZN7_thread6nextIDE:
 1221 0000 00000000 		.zero	4
 1222 0004 00000000 		.zero	4
 1225              	_ZN7_thread13currentThreadE:
 1226 0008 00000000 		.zero	8
 1226      00000000 
 1227              		.text
 1228              	.Letext0:
 1229              		.file 3 "./lib/hw.h"
 1230              		.file 4 "./h/sched.h"
 1231              		.file 5 "./h/syscalls_c.h"
GAS LISTING /tmp/ccKGcIcU.s 			page 29


DEFINED SYMBOLS
                            *ABS*:0000000000000000 thread.cpp
     /tmp/ccKGcIcU.s:9      .text:0000000000000000 _ZN7_threadC2EPFvPvES0_
     /tmp/ccKGcIcU.s:13     .text:0000000000000000 .L0 
     /tmp/ccKGcIcU.s:15     .text:0000000000000000 .L0 
     /tmp/ccKGcIcU.s:16     .text:0000000000000004 .L0 
     /tmp/ccKGcIcU.s:18     .text:0000000000000008 .L0 
     /tmp/ccKGcIcU.s:20     .text:000000000000000c .L0 
     /tmp/ccKGcIcU.s:27     .text:000000000000000c .L0 
     /tmp/ccKGcIcU.s:32     .text:0000000000000010 .L0 
     /tmp/ccKGcIcU.s:33     .text:0000000000000010 .L0 
     /tmp/ccKGcIcU.s:34     .text:0000000000000010 .L0 
     /tmp/ccKGcIcU.s:35     .text:0000000000000010 .L0 
     /tmp/ccKGcIcU.s:40     .text:0000000000000024 .L0 
     /tmp/ccKGcIcU.s:42     .text:0000000000000028 .L0 
     /tmp/ccKGcIcU.s:43     .text:0000000000000028 .L0 
     /tmp/ccKGcIcU.s:44     .text:0000000000000028 .L0 
     /tmp/ccKGcIcU.s:45     .text:0000000000000028 .L0 
     /tmp/ccKGcIcU.s:46     .text:0000000000000028 .L0 
     /tmp/ccKGcIcU.s:47     .text:0000000000000028 .L0 
     /tmp/ccKGcIcU.s:49     .text:000000000000002c .L0 
     /tmp/ccKGcIcU.s:50     .text:000000000000002c .L0 
     /tmp/ccKGcIcU.s:52     .text:0000000000000030 .L0 
     /tmp/ccKGcIcU.s:53     .text:0000000000000030 .L0 
     /tmp/ccKGcIcU.s:55     .text:0000000000000034 .L0 
     /tmp/ccKGcIcU.s:56     .text:0000000000000034 .L0 
     /tmp/ccKGcIcU.s:58     .text:0000000000000038 .L0 
     /tmp/ccKGcIcU.s:59     .text:0000000000000038 .L0 
     /tmp/ccKGcIcU.s:61     .text:000000000000003c .L0 
     /tmp/ccKGcIcU.s:62     .text:000000000000003c .L0 
     /tmp/ccKGcIcU.s:64     .text:0000000000000040 .L0 
     /tmp/ccKGcIcU.s:65     .text:0000000000000040 .L0 
     /tmp/ccKGcIcU.s:67     .text:0000000000000044 .L0 
     /tmp/ccKGcIcU.s:68     .text:0000000000000044 .L0 
     /tmp/ccKGcIcU.s:70     .text:0000000000000048 .L0 
     /tmp/ccKGcIcU.s:71     .text:0000000000000048 .L0 
     /tmp/ccKGcIcU.s:73     .text:000000000000004c .L0 
     /tmp/ccKGcIcU.s:74     .text:000000000000004c .L0 
     /tmp/ccKGcIcU.s:76     .text:0000000000000050 .L0 
     /tmp/ccKGcIcU.s:77     .text:0000000000000050 .L0 
     /tmp/ccKGcIcU.s:79     .text:0000000000000054 .L0 
     /tmp/ccKGcIcU.s:80     .text:0000000000000054 .L0 
     /tmp/ccKGcIcU.s:82     .text:0000000000000058 .L0 
     /tmp/ccKGcIcU.s:83     .text:0000000000000058 .L0 
     /tmp/ccKGcIcU.s:85     .text:000000000000005c .L0 
     /tmp/ccKGcIcU.s:86     .text:000000000000005c .L0 
     /tmp/ccKGcIcU.s:88     .text:0000000000000060 .L0 
     /tmp/ccKGcIcU.s:89     .text:0000000000000060 .L0 
     /tmp/ccKGcIcU.s:91     .text:0000000000000064 .L0 
     /tmp/ccKGcIcU.s:92     .text:0000000000000064 .L0 
     /tmp/ccKGcIcU.s:94     .text:0000000000000068 .L0 
     /tmp/ccKGcIcU.s:95     .text:0000000000000068 .L0 
     /tmp/ccKGcIcU.s:97     .text:000000000000006c .L0 
     /tmp/ccKGcIcU.s:98     .text:000000000000006c .L0 
     /tmp/ccKGcIcU.s:1163   .text:00000000000006f4 _ZN7_thread7wrapperEv
     /tmp/ccKGcIcU.s:99     .text:000000000000006c .L0 
     /tmp/ccKGcIcU.s:103    .text:0000000000000078 .L0 
GAS LISTING /tmp/ccKGcIcU.s 			page 30


     /tmp/ccKGcIcU.s:104    .text:000000000000007c .L0 
     /tmp/ccKGcIcU.s:105    .text:000000000000007c .L0 
     /tmp/ccKGcIcU.s:107    .text:0000000000000080 .L0 
     /tmp/ccKGcIcU.s:109    .text:0000000000000084 .L0 
     /tmp/ccKGcIcU.s:9      .text:0000000000000000 _ZN7_threadC1EPFvPvES0_
     /tmp/ccKGcIcU.s:117    .text:0000000000000084 _Z10popSppSpiev
     /tmp/ccKGcIcU.s:120    .text:0000000000000084 .L0 
     /tmp/ccKGcIcU.s:121    .text:0000000000000084 .L0 
     /tmp/ccKGcIcU.s:122    .text:0000000000000088 .L0 
     /tmp/ccKGcIcU.s:124    .text:000000000000008c .L0 
     /tmp/ccKGcIcU.s:126    .text:0000000000000090 .L0 
     /tmp/ccKGcIcU.s:128    .text:0000000000000090 .L0 
      src/thread.cpp:55     .text:0000000000000090 .L0 
     /tmp/ccKGcIcU.s:134    .text:0000000000000094 .L0 
      src/thread.cpp:56     .text:0000000000000094 .L0 
     /tmp/ccKGcIcU.s:140    .text:0000000000000098 .L0 
     /tmp/ccKGcIcU.s:141    .text:000000000000009c .L0 
     /tmp/ccKGcIcU.s:142    .text:000000000000009c .L0 
     /tmp/ccKGcIcU.s:144    .text:00000000000000a0 .L0 
     /tmp/ccKGcIcU.s:146    .text:00000000000000a4 .L0 
     /tmp/ccKGcIcU.s:152    .text:00000000000000a4 _ZN7_thread6unJoinEv
     /tmp/ccKGcIcU.s:155    .text:00000000000000a4 .L0 
     /tmp/ccKGcIcU.s:157    .text:00000000000000a4 .L0 
     /tmp/ccKGcIcU.s:158    .text:00000000000000a8 .L0 
     /tmp/ccKGcIcU.s:163    .text:00000000000000b8 .L0 
     /tmp/ccKGcIcU.s:164    .text:00000000000000b8 .L0 
     /tmp/ccKGcIcU.s:165    .text:00000000000000b8 .L0 
     /tmp/ccKGcIcU.s:166    .text:00000000000000b8 .L0 
     /tmp/ccKGcIcU.s:168    .text:00000000000000bc .L0 
     /tmp/ccKGcIcU.s:170    .text:00000000000000bc .L0 
     /tmp/ccKGcIcU.s:171    .text:00000000000000bc .L0 
     /tmp/ccKGcIcU.s:175    .text:00000000000000c0 .L0 
     /tmp/ccKGcIcU.s:176    .text:00000000000000c0 .L0 
     /tmp/ccKGcIcU.s:179    .text:00000000000000c4 .L0 
     /tmp/ccKGcIcU.s:180    .text:00000000000000c4 .L0 
     /tmp/ccKGcIcU.s:203    .text:0000000000000118 .L0 
     /tmp/ccKGcIcU.s:204    .text:0000000000000118 .L0 
     /tmp/ccKGcIcU.s:209    .text:0000000000000124 .L0 
     /tmp/ccKGcIcU.s:210    .text:0000000000000124 .L0 
     /tmp/ccKGcIcU.s:234    .text:000000000000017c .L0 
     /tmp/ccKGcIcU.s:235    .text:000000000000017c .L0 
     /tmp/ccKGcIcU.s:239    .text:0000000000000188 .L0 
     /tmp/ccKGcIcU.s:240    .text:0000000000000188 .L0 
     /tmp/ccKGcIcU.s:243    .text:000000000000018c .L0 
     /tmp/ccKGcIcU.s:247    .text:0000000000000190 .L0 
     /tmp/ccKGcIcU.s:248    .text:0000000000000194 .L0 
     /tmp/ccKGcIcU.s:250    .text:0000000000000198 .L0 
     /tmp/ccKGcIcU.s:251    .text:0000000000000198 .L0 
     /tmp/ccKGcIcU.s:253    .text:000000000000019c .L0 
     /tmp/ccKGcIcU.s:256    .text:00000000000001a0 .L0 
     /tmp/ccKGcIcU.s:258    .text:00000000000001a4 .L0 
     /tmp/ccKGcIcU.s:260    .text:00000000000001a8 .L0 
     /tmp/ccKGcIcU.s:266    .text:00000000000001a8 _ZN7_thread6createEPPS_PFvPvES2_S2_b
     /tmp/ccKGcIcU.s:269    .text:00000000000001a8 .L0 
     /tmp/ccKGcIcU.s:271    .text:00000000000001a8 .L0 
     /tmp/ccKGcIcU.s:272    .text:00000000000001ac .L0 
     /tmp/ccKGcIcU.s:280    .text:00000000000001c8 .L0 
GAS LISTING /tmp/ccKGcIcU.s 			page 31


     /tmp/ccKGcIcU.s:281    .text:00000000000001c8 .L0 
     /tmp/ccKGcIcU.s:282    .text:00000000000001c8 .L0 
     /tmp/ccKGcIcU.s:283    .text:00000000000001c8 .L0 
     /tmp/ccKGcIcU.s:284    .text:00000000000001c8 .L0 
     /tmp/ccKGcIcU.s:285    .text:00000000000001c8 .L0 
     /tmp/ccKGcIcU.s:286    .text:00000000000001c8 .L0 
     /tmp/ccKGcIcU.s:288    .text:00000000000001cc .L0 
     /tmp/ccKGcIcU.s:295    .text:00000000000001e0 .L0 
     /tmp/ccKGcIcU.s:296    .text:00000000000001e0 .L0 
     /tmp/ccKGcIcU.s:301    .text:00000000000001ec .L0 
     /tmp/ccKGcIcU.s:303    .text:00000000000001f0 .L0 
     /tmp/ccKGcIcU.s:304    .text:00000000000001f0 .L0 
     /tmp/ccKGcIcU.s:306    .text:00000000000001f4 .L0 
     /tmp/ccKGcIcU.s:307    .text:00000000000001f4 .L0 
     /tmp/ccKGcIcU.s:309    .text:00000000000001f8 .L0 
     /tmp/ccKGcIcU.s:311    .text:00000000000001fc .L0 
     /tmp/ccKGcIcU.s:312    .text:00000000000001fc .L0 
     /tmp/ccKGcIcU.s:317    .text:0000000000000210 .L0 
     /tmp/ccKGcIcU.s:319    .text:0000000000000214 .L0 
     /tmp/ccKGcIcU.s:321    .text:0000000000000218 .L0 
     /tmp/ccKGcIcU.s:322    .text:0000000000000218 .L0 
     /tmp/ccKGcIcU.s:324    .text:000000000000021c .L0 
     /tmp/ccKGcIcU.s:328    .text:0000000000000228 .L0 
     /tmp/ccKGcIcU.s:329    .text:0000000000000228 .L0 
     /tmp/ccKGcIcU.s:331    .text:000000000000022c .L0 
     /tmp/ccKGcIcU.s:335    .text:0000000000000238 .L0 
     /tmp/ccKGcIcU.s:336    .text:0000000000000238 .L0 
     /tmp/ccKGcIcU.s:338    .text:000000000000023c .L0 
     /tmp/ccKGcIcU.s:342    .text:0000000000000248 .L0 
     /tmp/ccKGcIcU.s:343    .text:0000000000000248 .L0 
     /tmp/ccKGcIcU.s:345    .text:000000000000024c .L0 
     /tmp/ccKGcIcU.s:349    .text:0000000000000258 .L0 
     /tmp/ccKGcIcU.s:350    .text:0000000000000258 .L0 
     /tmp/ccKGcIcU.s:352    .text:000000000000025c .L0 
     /tmp/ccKGcIcU.s:356    .text:0000000000000268 .L0 
     /tmp/ccKGcIcU.s:357    .text:0000000000000268 .L0 
     /tmp/ccKGcIcU.s:359    .text:000000000000026c .L0 
     /tmp/ccKGcIcU.s:361    .text:0000000000000270 .L0 
     /tmp/ccKGcIcU.s:362    .text:0000000000000270 .L0 
     /tmp/ccKGcIcU.s:364    .text:0000000000000274 .L0 
     /tmp/ccKGcIcU.s:366    .text:0000000000000278 .L0 
     /tmp/ccKGcIcU.s:367    .text:0000000000000278 .L0 
     /tmp/ccKGcIcU.s:369    .text:000000000000027c .L0 
     /tmp/ccKGcIcU.s:371    .text:0000000000000280 .L0 
     /tmp/ccKGcIcU.s:372    .text:0000000000000280 .L0 
     /tmp/ccKGcIcU.s:374    .text:0000000000000284 .L0 
     /tmp/ccKGcIcU.s:376    .text:0000000000000288 .L0 
     /tmp/ccKGcIcU.s:377    .text:0000000000000288 .L0 
     /tmp/ccKGcIcU.s:379    .text:000000000000028c .L0 
     /tmp/ccKGcIcU.s:381    .text:0000000000000290 .L0 
     /tmp/ccKGcIcU.s:382    .text:0000000000000290 .L0 
     /tmp/ccKGcIcU.s:384    .text:0000000000000294 .L0 
     /tmp/ccKGcIcU.s:386    .text:0000000000000298 .L0 
     /tmp/ccKGcIcU.s:387    .text:0000000000000298 .L0 
     /tmp/ccKGcIcU.s:389    .text:000000000000029c .L0 
     /tmp/ccKGcIcU.s:391    .text:00000000000002a0 .L0 
     /tmp/ccKGcIcU.s:392    .text:00000000000002a0 .L0 
GAS LISTING /tmp/ccKGcIcU.s 			page 32


     /tmp/ccKGcIcU.s:394    .text:00000000000002a4 .L0 
     /tmp/ccKGcIcU.s:396    .text:00000000000002a8 .L0 
     /tmp/ccKGcIcU.s:397    .text:00000000000002a8 .L0 
     /tmp/ccKGcIcU.s:399    .text:00000000000002ac .L0 
     /tmp/ccKGcIcU.s:401    .text:00000000000002b0 .L0 
     /tmp/ccKGcIcU.s:402    .text:00000000000002b0 .L0 
     /tmp/ccKGcIcU.s:404    .text:00000000000002b4 .L0 
     /tmp/ccKGcIcU.s:406    .text:00000000000002b8 .L0 
     /tmp/ccKGcIcU.s:407    .text:00000000000002b8 .L0 
     /tmp/ccKGcIcU.s:409    .text:00000000000002bc .L0 
     /tmp/ccKGcIcU.s:411    .text:00000000000002c0 .L0 
     /tmp/ccKGcIcU.s:412    .text:00000000000002c0 .L0 
     /tmp/ccKGcIcU.s:414    .text:00000000000002c4 .L0 
     /tmp/ccKGcIcU.s:416    .text:00000000000002c8 .L0 
     /tmp/ccKGcIcU.s:417    .text:00000000000002c8 .L0 
     /tmp/ccKGcIcU.s:419    .text:00000000000002cc .L0 
     /tmp/ccKGcIcU.s:421    .text:00000000000002d0 .L0 
     /tmp/ccKGcIcU.s:422    .text:00000000000002d0 .L0 
     /tmp/ccKGcIcU.s:424    .text:00000000000002d4 .L0 
     /tmp/ccKGcIcU.s:426    .text:00000000000002d8 .L0 
     /tmp/ccKGcIcU.s:427    .text:00000000000002d8 .L0 
     /tmp/ccKGcIcU.s:429    .text:00000000000002dc .L0 
     /tmp/ccKGcIcU.s:431    .text:00000000000002e0 .L0 
     /tmp/ccKGcIcU.s:432    .text:00000000000002e0 .L0 
     /tmp/ccKGcIcU.s:434    .text:00000000000002e4 .L0 
     /tmp/ccKGcIcU.s:436    .text:00000000000002e8 .L0 
     /tmp/ccKGcIcU.s:437    .text:00000000000002e8 .L0 
     /tmp/ccKGcIcU.s:439    .text:00000000000002ec .L0 
     /tmp/ccKGcIcU.s:441    .text:00000000000002f0 .L0 
     /tmp/ccKGcIcU.s:442    .text:00000000000002f0 .L0 
     /tmp/ccKGcIcU.s:444    .text:00000000000002f4 .L0 
     /tmp/ccKGcIcU.s:447    .text:0000000000000300 .L0 
     /tmp/ccKGcIcU.s:448    .text:0000000000000300 .L0 
     /tmp/ccKGcIcU.s:450    .text:0000000000000304 .L0 
     /tmp/ccKGcIcU.s:452    .text:0000000000000308 .L0 
     /tmp/ccKGcIcU.s:455    .text:000000000000030c .L0 
     /tmp/ccKGcIcU.s:456    .text:000000000000030c .L0 
     /tmp/ccKGcIcU.s:458    .text:0000000000000314 .L0 
     /tmp/ccKGcIcU.s:459    .text:0000000000000314 .L0 
     /tmp/ccKGcIcU.s:461    .text:0000000000000318 .L0 
     /tmp/ccKGcIcU.s:462    .text:0000000000000318 .L0 
     /tmp/ccKGcIcU.s:464    .text:000000000000031c .L0 
     /tmp/ccKGcIcU.s:467    .text:0000000000000320 .L0 
     /tmp/ccKGcIcU.s:470    .text:0000000000000324 .L0 
     /tmp/ccKGcIcU.s:472    .text:0000000000000328 .L0 
     /tmp/ccKGcIcU.s:475    .text:000000000000032c .L0 
     /tmp/ccKGcIcU.s:478    .text:0000000000000330 .L0 
     /tmp/ccKGcIcU.s:482    .text:0000000000000334 .L0 
     /tmp/ccKGcIcU.s:484    .text:0000000000000334 .L0 
     /tmp/ccKGcIcU.s:485    .text:0000000000000334 .L0 
     /tmp/ccKGcIcU.s:489    .text:0000000000000344 .L0 
     /tmp/ccKGcIcU.s:495    .text:0000000000000344 _ZN7_thread10setBlockedEb
     /tmp/ccKGcIcU.s:498    .text:0000000000000344 .L0 
     /tmp/ccKGcIcU.s:500    .text:0000000000000344 .L0 
     /tmp/ccKGcIcU.s:501    .text:0000000000000348 .L0 
     /tmp/ccKGcIcU.s:503    .text:000000000000034c .L0 
     /tmp/ccKGcIcU.s:505    .text:0000000000000350 .L0 
GAS LISTING /tmp/ccKGcIcU.s 			page 33


     /tmp/ccKGcIcU.s:507    .text:0000000000000350 .L0 
     /tmp/ccKGcIcU.s:508    .text:0000000000000350 .L0 
     /tmp/ccKGcIcU.s:516    .text:0000000000000368 .L0 
     /tmp/ccKGcIcU.s:517    .text:000000000000036c .L0 
     /tmp/ccKGcIcU.s:518    .text:000000000000036c .L0 
     /tmp/ccKGcIcU.s:520    .text:0000000000000370 .L0 
     /tmp/ccKGcIcU.s:522    .text:0000000000000374 .L0 
     /tmp/ccKGcIcU.s:528    .text:0000000000000374 _ZN7_thread9setClosedEb
     /tmp/ccKGcIcU.s:531    .text:0000000000000374 .L0 
     /tmp/ccKGcIcU.s:533    .text:0000000000000374 .L0 
     /tmp/ccKGcIcU.s:534    .text:0000000000000378 .L0 
     /tmp/ccKGcIcU.s:536    .text:000000000000037c .L0 
     /tmp/ccKGcIcU.s:538    .text:0000000000000380 .L0 
     /tmp/ccKGcIcU.s:540    .text:0000000000000380 .L0 
     /tmp/ccKGcIcU.s:541    .text:0000000000000380 .L0 
     /tmp/ccKGcIcU.s:548    .text:0000000000000394 .L0 
     /tmp/ccKGcIcU.s:549    .text:0000000000000398 .L0 
     /tmp/ccKGcIcU.s:550    .text:0000000000000398 .L0 
     /tmp/ccKGcIcU.s:552    .text:000000000000039c .L0 
     /tmp/ccKGcIcU.s:554    .text:00000000000003a0 .L0 
     /tmp/ccKGcIcU.s:560    .text:00000000000003a0 _ZN7_thread11setSleepingEb
     /tmp/ccKGcIcU.s:563    .text:00000000000003a0 .L0 
     /tmp/ccKGcIcU.s:565    .text:00000000000003a0 .L0 
     /tmp/ccKGcIcU.s:566    .text:00000000000003a4 .L0 
     /tmp/ccKGcIcU.s:568    .text:00000000000003a8 .L0 
     /tmp/ccKGcIcU.s:570    .text:00000000000003ac .L0 
     /tmp/ccKGcIcU.s:572    .text:00000000000003ac .L0 
     /tmp/ccKGcIcU.s:573    .text:00000000000003ac .L0 
     /tmp/ccKGcIcU.s:581    .text:00000000000003c4 .L0 
     /tmp/ccKGcIcU.s:582    .text:00000000000003c8 .L0 
     /tmp/ccKGcIcU.s:583    .text:00000000000003c8 .L0 
     /tmp/ccKGcIcU.s:585    .text:00000000000003cc .L0 
     /tmp/ccKGcIcU.s:587    .text:00000000000003d0 .L0 
     /tmp/ccKGcIcU.s:593    .text:00000000000003d0 _ZN7_thread13contextSwitchEPNS_14contextWrapperES1_
     /tmp/ccKGcIcU.s:596    .text:00000000000003d0 .L0 
     /tmp/ccKGcIcU.s:598    .text:00000000000003d0 .L0 
     /tmp/ccKGcIcU.s:599    .text:00000000000003d4 .L0 
     /tmp/ccKGcIcU.s:601    .text:00000000000003d8 .L0 
     /tmp/ccKGcIcU.s:603    .text:00000000000003dc .L0 
     /tmp/ccKGcIcU.s:605    .text:00000000000003dc .L0 
     /tmp/ccKGcIcU.s:607    .text:00000000000003e0 .L0 
      src/thread.cpp:187    .text:00000000000003e0 .L0 
     /tmp/ccKGcIcU.s:615    .text:00000000000003e8 .L0 
      src/thread.cpp:188    .text:00000000000003e8 .L0 
     /tmp/ccKGcIcU.s:623    .text:00000000000003f0 .L0 
      src/thread.cpp:190    .text:00000000000003f0 .L0 
     /tmp/ccKGcIcU.s:631    .text:00000000000003f8 .L0 
      src/thread.cpp:191    .text:00000000000003f8 .L0 
     /tmp/ccKGcIcU.s:639    .text:0000000000000400 .L0 
      src/thread.cpp:192    .text:0000000000000400 .L0 
     /tmp/ccKGcIcU.s:647    .text:0000000000000408 .L0 
      src/thread.cpp:193    .text:0000000000000408 .L0 
     /tmp/ccKGcIcU.s:655    .text:0000000000000410 .L0 
      src/thread.cpp:194    .text:0000000000000410 .L0 
     /tmp/ccKGcIcU.s:663    .text:0000000000000418 .L0 
      src/thread.cpp:195    .text:0000000000000418 .L0 
     /tmp/ccKGcIcU.s:671    .text:0000000000000420 .L0 
GAS LISTING /tmp/ccKGcIcU.s 			page 34


      src/thread.cpp:196    .text:0000000000000420 .L0 
     /tmp/ccKGcIcU.s:679    .text:0000000000000428 .L0 
      src/thread.cpp:197    .text:0000000000000428 .L0 
     /tmp/ccKGcIcU.s:687    .text:0000000000000430 .L0 
      src/thread.cpp:198    .text:0000000000000430 .L0 
     /tmp/ccKGcIcU.s:695    .text:0000000000000438 .L0 
      src/thread.cpp:199    .text:0000000000000438 .L0 
     /tmp/ccKGcIcU.s:703    .text:0000000000000440 .L0 
      src/thread.cpp:200    .text:0000000000000440 .L0 
     /tmp/ccKGcIcU.s:711    .text:0000000000000448 .L0 
      src/thread.cpp:201    .text:0000000000000448 .L0 
     /tmp/ccKGcIcU.s:719    .text:0000000000000450 .L0 
      src/thread.cpp:203    .text:0000000000000450 .L0 
     /tmp/ccKGcIcU.s:725    .text:0000000000000454 .L0 
      src/thread.cpp:204    .text:0000000000000454 .L0 
     /tmp/ccKGcIcU.s:733    .text:000000000000045c .L0 
     /tmp/ccKGcIcU.s:734    .text:000000000000045c .L0 
     /tmp/ccKGcIcU.s:736    .text:0000000000000460 .L0 
     /tmp/ccKGcIcU.s:738    .text:0000000000000464 .L0 
      src/thread.cpp:208    .text:0000000000000464 .L0 
     /tmp/ccKGcIcU.s:746    .text:0000000000000468 .L0 
     /tmp/ccKGcIcU.s:747    .text:0000000000000468 .L0 
      src/thread.cpp:212    .text:000000000000046c .L0 
     /tmp/ccKGcIcU.s:754    .text:0000000000000470 .L0 
      src/thread.cpp:213    .text:0000000000000470 .L0 
     /tmp/ccKGcIcU.s:759    .text:0000000000000474 .L0 
     /tmp/ccKGcIcU.s:761    .text:0000000000000474 .L0 
      src/thread.cpp:215    .text:0000000000000478 .L0 
     /tmp/ccKGcIcU.s:768    .text:000000000000047c .L0 
     /tmp/ccKGcIcU.s:770    .text:000000000000047c .L0 
      src/thread.cpp:216    .text:0000000000000480 .L0 
     /tmp/ccKGcIcU.s:777    .text:0000000000000484 .L0 
     /tmp/ccKGcIcU.s:779    .text:0000000000000484 .L0 
      src/thread.cpp:217    .text:0000000000000488 .L0 
     /tmp/ccKGcIcU.s:786    .text:000000000000048c .L0 
     /tmp/ccKGcIcU.s:788    .text:000000000000048c .L0 
      src/thread.cpp:218    .text:0000000000000490 .L0 
     /tmp/ccKGcIcU.s:795    .text:0000000000000494 .L0 
     /tmp/ccKGcIcU.s:797    .text:0000000000000494 .L0 
      src/thread.cpp:219    .text:0000000000000498 .L0 
     /tmp/ccKGcIcU.s:804    .text:000000000000049c .L0 
     /tmp/ccKGcIcU.s:806    .text:000000000000049c .L0 
      src/thread.cpp:220    .text:00000000000004a0 .L0 
     /tmp/ccKGcIcU.s:813    .text:00000000000004a4 .L0 
     /tmp/ccKGcIcU.s:815    .text:00000000000004a4 .L0 
      src/thread.cpp:221    .text:00000000000004a8 .L0 
     /tmp/ccKGcIcU.s:822    .text:00000000000004ac .L0 
     /tmp/ccKGcIcU.s:824    .text:00000000000004ac .L0 
      src/thread.cpp:222    .text:00000000000004b0 .L0 
     /tmp/ccKGcIcU.s:831    .text:00000000000004b4 .L0 
     /tmp/ccKGcIcU.s:833    .text:00000000000004b4 .L0 
      src/thread.cpp:223    .text:00000000000004b8 .L0 
     /tmp/ccKGcIcU.s:840    .text:00000000000004bc .L0 
     /tmp/ccKGcIcU.s:842    .text:00000000000004bc .L0 
      src/thread.cpp:224    .text:00000000000004c0 .L0 
     /tmp/ccKGcIcU.s:849    .text:00000000000004c4 .L0 
     /tmp/ccKGcIcU.s:851    .text:00000000000004c4 .L0 
GAS LISTING /tmp/ccKGcIcU.s 			page 35


      src/thread.cpp:225    .text:00000000000004c8 .L0 
     /tmp/ccKGcIcU.s:858    .text:00000000000004cc .L0 
     /tmp/ccKGcIcU.s:860    .text:00000000000004cc .L0 
      src/thread.cpp:226    .text:00000000000004d0 .L0 
     /tmp/ccKGcIcU.s:867    .text:00000000000004d4 .L0 
     /tmp/ccKGcIcU.s:869    .text:00000000000004d4 .L0 
      src/thread.cpp:228    .text:00000000000004d8 .L0 
     /tmp/ccKGcIcU.s:876    .text:00000000000004dc .L0 
     /tmp/ccKGcIcU.s:878    .text:00000000000004dc .L0 
     /tmp/ccKGcIcU.s:879    .text:00000000000004e0 .L0 
     /tmp/ccKGcIcU.s:880    .text:00000000000004e0 .L0 
     /tmp/ccKGcIcU.s:882    .text:00000000000004e4 .L0 
     /tmp/ccKGcIcU.s:884    .text:00000000000004e8 .L0 
     /tmp/ccKGcIcU.s:890    .text:00000000000004e8 _ZN7_thread8dispatchEv
     /tmp/ccKGcIcU.s:893    .text:00000000000004e8 .L0 
     /tmp/ccKGcIcU.s:894    .text:00000000000004e8 .L0 
     /tmp/ccKGcIcU.s:895    .text:00000000000004ec .L0 
     /tmp/ccKGcIcU.s:899    .text:00000000000004f8 .L0 
     /tmp/ccKGcIcU.s:900    .text:00000000000004f8 .L0 
     /tmp/ccKGcIcU.s:901    .text:00000000000004f8 .L0 
     /tmp/ccKGcIcU.s:903    .text:00000000000004fc .L0 
     /tmp/ccKGcIcU.s:905    .text:00000000000004fc .L0 
     /tmp/ccKGcIcU.s:906    .text:00000000000004fc .L0 
     /tmp/ccKGcIcU.s:909    .text:0000000000000504 .L0 
     /tmp/ccKGcIcU.s:911    .text:0000000000000508 .L0 
     /tmp/ccKGcIcU.s:916    .text:0000000000000514 .L0 
     /tmp/ccKGcIcU.s:917    .text:0000000000000514 .L0 
     /tmp/ccKGcIcU.s:920    .text:000000000000051c .L0 
     /tmp/ccKGcIcU.s:922    .text:0000000000000524 .L0 
     /tmp/ccKGcIcU.s:924    .text:0000000000000528 .L0 
     /tmp/ccKGcIcU.s:925    .text:0000000000000528 .L0 
     /tmp/ccKGcIcU.s:927    .text:000000000000052c .L0 
     /tmp/ccKGcIcU.s:931    .text:0000000000000530 .L0 
     /tmp/ccKGcIcU.s:937    .text:0000000000000540 .L0 
     /tmp/ccKGcIcU.s:938    .text:0000000000000544 .L0 
     /tmp/ccKGcIcU.s:939    .text:0000000000000544 .L0 
     /tmp/ccKGcIcU.s:941    .text:0000000000000548 .L0 
     /tmp/ccKGcIcU.s:942    .text:0000000000000548 .L0 
     /tmp/ccKGcIcU.s:944    .text:000000000000054c .L0 
     /tmp/ccKGcIcU.s:946    .text:0000000000000550 .L0 
     /tmp/ccKGcIcU.s:950    .text:0000000000000554 .L0 
     /tmp/ccKGcIcU.s:952    .text:0000000000000554 .L0 
     /tmp/ccKGcIcU.s:953    .text:0000000000000554 .L0 
     /tmp/ccKGcIcU.s:957    .text:0000000000000564 .L0 
     /tmp/ccKGcIcU.s:963    .text:0000000000000564 _ZN7_thread4joinEPS_
     /tmp/ccKGcIcU.s:966    .text:0000000000000564 .L0 
     /tmp/ccKGcIcU.s:968    .text:0000000000000564 .L0 
     /tmp/ccKGcIcU.s:969    .text:0000000000000564 .L0 
     /tmp/ccKGcIcU.s:970    .text:0000000000000564 .L0 
     /tmp/ccKGcIcU.s:973    .text:000000000000056c .L0 
     /tmp/ccKGcIcU.s:977    .text:0000000000000574 .L0 
     /tmp/ccKGcIcU.s:978    .text:0000000000000578 .L0 
     /tmp/ccKGcIcU.s:983    .text:0000000000000588 .L0 
     /tmp/ccKGcIcU.s:984    .text:0000000000000588 .L0 
     /tmp/ccKGcIcU.s:985    .text:0000000000000588 .L0 
     /tmp/ccKGcIcU.s:986    .text:0000000000000588 .L0 
     /tmp/ccKGcIcU.s:988    .text:000000000000058c .L0 
GAS LISTING /tmp/ccKGcIcU.s 			page 36


     /tmp/ccKGcIcU.s:992    .text:0000000000000594 .L0 
     /tmp/ccKGcIcU.s:993    .text:0000000000000594 .L0 
     /tmp/ccKGcIcU.s:998    .text:00000000000005a0 .L0 
     /tmp/ccKGcIcU.s:999    .text:00000000000005a0 .L0 
     /tmp/ccKGcIcU.s:1003   .text:00000000000005ac .L0 
     /tmp/ccKGcIcU.s:1004   .text:00000000000005ac .L0 
     /tmp/ccKGcIcU.s:1021   .text:00000000000005e8 .L0 
     /tmp/ccKGcIcU.s:1022   .text:00000000000005e8 .L0 
     /tmp/ccKGcIcU.s:1031   .text:0000000000000608 .L0 
     /tmp/ccKGcIcU.s:1032   .text:0000000000000608 .L0 
     /tmp/ccKGcIcU.s:1034   .text:000000000000060c .L0 
     /tmp/ccKGcIcU.s:1036   .text:0000000000000610 .L0 
     /tmp/ccKGcIcU.s:1037   .text:0000000000000610 .L0 
     /tmp/ccKGcIcU.s:1039   .text:0000000000000614 .L0 
     /tmp/ccKGcIcU.s:1055   .text:0000000000000650 .L0 
     /tmp/ccKGcIcU.s:1056   .text:0000000000000650 .L0 
     /tmp/ccKGcIcU.s:1059   .text:0000000000000654 .L0 
     /tmp/ccKGcIcU.s:1060   .text:0000000000000654 .L0 
     /tmp/ccKGcIcU.s:1063   .text:000000000000065c .L0 
     /tmp/ccKGcIcU.s:1064   .text:0000000000000660 .L0 
     /tmp/ccKGcIcU.s:1065   .text:0000000000000660 .L0 
     /tmp/ccKGcIcU.s:1067   .text:0000000000000664 .L0 
     /tmp/ccKGcIcU.s:1068   .text:0000000000000664 .L0 
     /tmp/ccKGcIcU.s:1070   .text:0000000000000668 .L0 
     /tmp/ccKGcIcU.s:1072   .text:000000000000066c .L0 
     /tmp/ccKGcIcU.s:1075   .text:0000000000000670 .L0 
     /tmp/ccKGcIcU.s:1079   .text:0000000000000674 .L0 
     /tmp/ccKGcIcU.s:1081   .text:0000000000000674 .L0 
     /tmp/ccKGcIcU.s:1082   .text:0000000000000674 .L0 
     /tmp/ccKGcIcU.s:1084   .text:0000000000000678 .L0 
     /tmp/ccKGcIcU.s:1085   .text:0000000000000678 .L0 
     /tmp/ccKGcIcU.s:1087   .text:0000000000000680 .L0 
     /tmp/ccKGcIcU.s:1093   .text:0000000000000680 _ZN7_thread4exitEv
     /tmp/ccKGcIcU.s:1096   .text:0000000000000680 .L0 
     /tmp/ccKGcIcU.s:1097   .text:0000000000000680 .L0 
     /tmp/ccKGcIcU.s:1098   .text:0000000000000680 .L0 
     /tmp/ccKGcIcU.s:1099   .text:0000000000000680 .L0 
     /tmp/ccKGcIcU.s:1103   .text:0000000000000690 .L0 
     /tmp/ccKGcIcU.s:1105   .text:0000000000000694 .L0 
     /tmp/ccKGcIcU.s:1106   .text:0000000000000694 .L0 
     /tmp/ccKGcIcU.s:1108   .text:0000000000000698 .L0 
     /tmp/ccKGcIcU.s:1110   .text:000000000000069c .L0 
     /tmp/ccKGcIcU.s:1111   .text:000000000000069c .L0 
     /tmp/ccKGcIcU.s:1113   .text:00000000000006a0 .L0 
     /tmp/ccKGcIcU.s:1115   .text:00000000000006a4 .L0 
     /tmp/ccKGcIcU.s:1116   .text:00000000000006a8 .L0 
     /tmp/ccKGcIcU.s:1119   .text:00000000000006b0 .L0 
     /tmp/ccKGcIcU.s:1120   .text:00000000000006b0 .L0 
     /tmp/ccKGcIcU.s:1122   .text:00000000000006b4 .L0 
     /tmp/ccKGcIcU.s:1124   .text:00000000000006b4 .L0 
     /tmp/ccKGcIcU.s:1125   .text:00000000000006b4 .L0 
     /tmp/ccKGcIcU.s:1129   .text:00000000000006c0 .L0 
     /tmp/ccKGcIcU.s:1130   .text:00000000000006c0 .L0 
     /tmp/ccKGcIcU.s:1133   .text:00000000000006c8 .L0 
     /tmp/ccKGcIcU.s:1134   .text:00000000000006c8 .L0 
     /tmp/ccKGcIcU.s:1136   .text:00000000000006cc .L0 
     /tmp/ccKGcIcU.s:1137   .text:00000000000006d0 .L0 
GAS LISTING /tmp/ccKGcIcU.s 			page 37


     /tmp/ccKGcIcU.s:1139   .text:00000000000006d4 .L0 
     /tmp/ccKGcIcU.s:1140   .text:00000000000006d4 .L0 
     /tmp/ccKGcIcU.s:1142   .text:00000000000006d8 .L0 
     /tmp/ccKGcIcU.s:1146   .text:00000000000006dc .L0 
     /tmp/ccKGcIcU.s:1150   .text:00000000000006e4 .L0 
     /tmp/ccKGcIcU.s:1154   .text:00000000000006ec .L0 
     /tmp/ccKGcIcU.s:1156   .text:00000000000006f0 .L0 
     /tmp/ccKGcIcU.s:1157   .text:00000000000006f4 .L0 
     /tmp/ccKGcIcU.s:1166   .text:00000000000006f4 .L0 
     /tmp/ccKGcIcU.s:1167   .text:00000000000006f4 .L0 
     /tmp/ccKGcIcU.s:1168   .text:00000000000006f8 .L0 
     /tmp/ccKGcIcU.s:1172   .text:0000000000000704 .L0 
     /tmp/ccKGcIcU.s:1173   .text:0000000000000704 .L0 
     /tmp/ccKGcIcU.s:1174   .text:0000000000000704 .L0 
     /tmp/ccKGcIcU.s:1176   .text:0000000000000708 .L0 
     /tmp/ccKGcIcU.s:1178   .text:0000000000000708 .L0 
     /tmp/ccKGcIcU.s:1179   .text:0000000000000708 .L0 
     /tmp/ccKGcIcU.s:1182   .text:0000000000000710 .L0 
     /tmp/ccKGcIcU.s:1183   .text:0000000000000710 .L0 
     /tmp/ccKGcIcU.s:1187   .text:0000000000000720 .L0 
     /tmp/ccKGcIcU.s:1191   .text:0000000000000728 .L0 
     /tmp/ccKGcIcU.s:1192   .text:0000000000000728 .L0 
     /tmp/ccKGcIcU.s:1196   .text:0000000000000734 .L0 
     /tmp/ccKGcIcU.s:1197   .text:0000000000000734 .L0 
     /tmp/ccKGcIcU.s:1200   .text:000000000000073c .L0 
     /tmp/ccKGcIcU.s:1201   .text:0000000000000740 .L0 
     /tmp/ccKGcIcU.s:1203   .text:0000000000000744 .L0 
     /tmp/ccKGcIcU.s:1204   .text:0000000000000744 .L0 
     /tmp/ccKGcIcU.s:1206   .text:0000000000000748 .L0 
     /tmp/ccKGcIcU.s:1208   .text:000000000000074c .L0 
     /tmp/ccKGcIcU.s:1210   .text:0000000000000750 .L0 
     /tmp/ccKGcIcU.s:1220   .bss:0000000000000000 _ZN7_thread6nextIDE
     /tmp/ccKGcIcU.s:1225   .bss:0000000000000008 _ZN7_thread13currentThreadE
     /tmp/ccKGcIcU.s:1217   .bss:0000000000000000 .LANCHOR0
     /tmp/ccKGcIcU.s:1232   .text:0000000000000750 .L0 
     /tmp/ccKGcIcU.s:35     .text:0000000000000010 .L0 
     /tmp/ccKGcIcU.s:99     .text:000000000000006c .L0 
     /tmp/ccKGcIcU.s:312    .text:00000000000001fc .L0 
     /tmp/ccKGcIcU.s:444    .text:00000000000002f4 .L0 
     /tmp/ccKGcIcU.s:906    .text:00000000000004fc .L0 
     /tmp/ccKGcIcU.s:920    .text:000000000000051c .L0 
     /tmp/ccKGcIcU.s:1099   .text:0000000000000680 .L0 
     /tmp/ccKGcIcU.s:1183   .text:0000000000000710 .L0 
     /tmp/ccKGcIcU.s:245    .text:0000000000000190 .L5
     /tmp/ccKGcIcU.s:173    .text:00000000000000c0 .L7
     /tmp/ccKGcIcU.s:481    .text:0000000000000334 .L12
     /tmp/ccKGcIcU.s:453    .text:000000000000030c .L10
     /tmp/ccKGcIcU.s:731    .text:000000000000045c .L20
     /tmp/ccKGcIcU.s:744    .text:0000000000000468 .L21
     /tmp/ccKGcIcU.s:914    .text:0000000000000514 .L24
     /tmp/ccKGcIcU.s:949    .text:0000000000000554 .L28
     /tmp/ccKGcIcU.s:935    .text:0000000000000540 .L23
     /tmp/ccKGcIcU.s:929    .text:0000000000000530 .L26
     /tmp/ccKGcIcU.s:975    .text:0000000000000574 .L37
     /tmp/ccKGcIcU.s:1078   .text:0000000000000674 .L38
     /tmp/ccKGcIcU.s:1057   .text:0000000000000654 .L32
     /tmp/ccKGcIcU.s:1144   .text:00000000000006dc .L41
GAS LISTING /tmp/ccKGcIcU.s 			page 38


     /tmp/ccKGcIcU.s:1148   .text:00000000000006e4 .L42
     /tmp/ccKGcIcU.s:1152   .text:00000000000006ec .L43
     /tmp/ccKGcIcU.s:2373   .debug_abbrev:0000000000000000 .Ldebug_abbrev0
     /tmp/ccKGcIcU.s:3752   .debug_str:0000000000000402 .LASF79
     /tmp/ccKGcIcU.s:3628   .debug_str:00000000000000f2 .LASF80
     /tmp/ccKGcIcU.s:3606   .debug_str:0000000000000050 .LASF81
     /tmp/ccKGcIcU.s:5      .text:0000000000000000 .Ltext0
     /tmp/ccKGcIcU.s:1228   .text:0000000000000750 .Letext0
     /tmp/ccKGcIcU.s:3594   .debug_line:0000000000000000 .Ldebug_line0
     /tmp/ccKGcIcU.s:3690   .debug_str:0000000000000262 .LASF0
     /tmp/ccKGcIcU.s:3708   .debug_str:00000000000002ef .LASF1
     /tmp/ccKGcIcU.s:3676   .debug_str:000000000000020c .LASF2
     /tmp/ccKGcIcU.s:3738   .debug_str:00000000000003ac .LASF3
     /tmp/ccKGcIcU.s:3656   .debug_str:00000000000001a6 .LASF4
     /tmp/ccKGcIcU.s:3742   .debug_str:00000000000003c3 .LASF5
     /tmp/ccKGcIcU.s:3622   .debug_str:00000000000000d1 .LASF6
     /tmp/ccKGcIcU.s:3640   .debug_str:000000000000013e .LASF7
     /tmp/ccKGcIcU.s:3710   .debug_str:0000000000000302 .LASF8
     /tmp/ccKGcIcU.s:3688   .debug_str:000000000000024f .LASF9
     /tmp/ccKGcIcU.s:3762   .debug_str:0000000000000517 .LASF10
     /tmp/ccKGcIcU.s:3650   .debug_str:000000000000017c .LASF11
     /tmp/ccKGcIcU.s:3720   .debug_str:000000000000033a .LASF12
     /tmp/ccKGcIcU.s:3756   .debug_str:00000000000004d0 .LASF13
     /tmp/ccKGcIcU.s:3624   .debug_str:00000000000000d8 .LASF14
     /tmp/ccKGcIcU.s:3602   .debug_str:000000000000001b .LASF15
     /tmp/ccKGcIcU.s:3630   .debug_str:0000000000000101 .LASF16
     /tmp/ccKGcIcU.s:3736   .debug_str:0000000000000396 .LASF17
     /tmp/ccKGcIcU.s:3636   .debug_str:0000000000000123 .LASF18
     /tmp/ccKGcIcU.s:3654   .debug_str:000000000000019e .LASF35
     /tmp/ccKGcIcU.s:3680   .debug_str:000000000000021f .LASF20
     /tmp/ccKGcIcU.s:3732   .debug_str:0000000000000383 .LASF19
     /tmp/ccKGcIcU.s:3776   .debug_str:0000000000000589 .LASF82
     /tmp/ccKGcIcU.s:3682   .debug_str:000000000000022e .LASF21
     /tmp/ccKGcIcU.s:3712   .debug_str:0000000000000315 .LASF22
     /tmp/ccKGcIcU.s:3782   .debug_str:00000000000005ba .LASF23
     /tmp/ccKGcIcU.s:3668   .debug_str:00000000000001ee .LASF25
     /tmp/ccKGcIcU.s:3604   .debug_str:000000000000002b .LASF27
     /tmp/ccKGcIcU.s:3648   .debug_str:0000000000000177 .LASF24
     /tmp/ccKGcIcU.s:3670   .debug_str:00000000000001f5 .LASF56
     /tmp/ccKGcIcU.s:3768   .debug_str:000000000000055a .LASF58
     /tmp/ccKGcIcU.s:3692   .debug_str:000000000000026f .LASF83
     /tmp/ccKGcIcU.s:3748   .debug_str:00000000000003e2 .LASF84
     /tmp/ccKGcIcU.s:3744   .debug_str:00000000000003d5 .LASF26
     /tmp/ccKGcIcU.s:3664   .debug_str:00000000000001d2 .LASF28
     /tmp/ccKGcIcU.s:3642   .debug_str:0000000000000145 .LASF85
     /tmp/ccKGcIcU.s:3608   .debug_str:000000000000005d .LASF29
     /tmp/ccKGcIcU.s:3786   .debug_str:00000000000005df .LASF30
     /tmp/ccKGcIcU.s:3626   .debug_str:00000000000000e8 .LASF31
     /tmp/ccKGcIcU.s:3614   .debug_str:000000000000007f .LASF32
     /tmp/ccKGcIcU.s:3646   .debug_str:000000000000016b .LASF33
     /tmp/ccKGcIcU.s:3766   .debug_str:000000000000053f .LASF34
     /tmp/ccKGcIcU.s:3764   .debug_str:0000000000000527 .LASF37
     /tmp/ccKGcIcU.s:3746   .debug_str:00000000000003da .LASF86
     /tmp/ccKGcIcU.s:3728   .debug_str:0000000000000364 .LASF87
     /tmp/ccKGcIcU.s:3662   .debug_str:00000000000001cb .LASF36
     /tmp/ccKGcIcU.s:3660   .debug_str:00000000000001b6 .LASF38
     /tmp/ccKGcIcU.s:3696   .debug_str:0000000000000283 .LASF39
GAS LISTING /tmp/ccKGcIcU.s 			page 39


     /tmp/ccKGcIcU.s:3750   .debug_str:00000000000003f9 .LASF40
     /tmp/ccKGcIcU.s:3726   .debug_str:000000000000035b .LASF41
     /tmp/ccKGcIcU.s:3658   .debug_str:00000000000001ad .LASF42
     /tmp/ccKGcIcU.s:3672   .debug_str:00000000000001fa .LASF43
     /tmp/ccKGcIcU.s:3674   .debug_str:0000000000000205 .LASF44
     /tmp/ccKGcIcU.s:3598   .debug_str:0000000000000009 .LASF45
     /tmp/ccKGcIcU.s:3722   .debug_str:0000000000000349 .LASF46
     /tmp/ccKGcIcU.s:3730   .debug_str:000000000000037a .LASF47
     /tmp/ccKGcIcU.s:3774   .debug_str:0000000000000580 .LASF48
     /tmp/ccKGcIcU.s:3714   .debug_str:000000000000031c .LASF49
     /tmp/ccKGcIcU.s:3666   .debug_str:00000000000001e7 .LASF50
     /tmp/ccKGcIcU.s:3770   .debug_str:000000000000056d .LASF88
     /tmp/ccKGcIcU.s:3702   .debug_str:00000000000002a1 .LASF89
     /tmp/ccKGcIcU.s:3612   .debug_str:000000000000007a .LASF51
     /tmp/ccKGcIcU.s:3596   .debug_str:0000000000000000 .LASF52
     /tmp/ccKGcIcU.s:3716   .debug_str:0000000000000325 .LASF53
     /tmp/ccKGcIcU.s:3694   .debug_str:0000000000000278 .LASF54
     /tmp/ccKGcIcU.s:3610   .debug_str:0000000000000068 .LASF55
     /tmp/ccKGcIcU.s:3760   .debug_str:00000000000004fb .LASF90
     /tmp/ccKGcIcU.s:3652   .debug_str:000000000000018a .LASF91
     /tmp/ccKGcIcU.s:3632   .debug_str:000000000000010d .LASF57
     /tmp/ccKGcIcU.s:3644   .debug_str:0000000000000153 .LASF59
     /tmp/ccKGcIcU.s:3620   .debug_str:00000000000000c8 .LASF60
     /tmp/ccKGcIcU.s:3616   .debug_str:0000000000000097 .LASF61
     /tmp/ccKGcIcU.s:3638   .debug_str:0000000000000139 .LASF62
     /tmp/ccKGcIcU.s:3678   .debug_str:000000000000021a .LASF63
     /tmp/ccKGcIcU.s:3754   .debug_str:00000000000004c6 .LASF64
     /tmp/ccKGcIcU.s:3758   .debug_str:00000000000004df .LASF65
     /tmp/ccKGcIcU.s:3704   .debug_str:00000000000002d5 .LASF66
     /tmp/ccKGcIcU.s:594    .text:00000000000003d0 .LFB16
     /tmp/ccKGcIcU.s:885    .text:00000000000004e8 .LFE16
     /tmp/ccKGcIcU.s:3718   .debug_str:000000000000032f .LASF67
     /tmp/ccKGcIcU.s:3780   .debug_str:00000000000005af .LASF68
     /tmp/ccKGcIcU.s:891    .text:00000000000004e8 .LFB15
     /tmp/ccKGcIcU.s:958    .text:0000000000000564 .LFE15
     /tmp/ccKGcIcU.s:3684   .debug_str:000000000000023d .LASF69
     /tmp/ccKGcIcU.s:3314   .debug_loc:0000000000000000 .LLST13
     /tmp/ccKGcIcU.s:918    .text:000000000000051c .LVL29
     /tmp/ccKGcIcU.s:934    .text:0000000000000540 .LVL31
     /tmp/ccKGcIcU.s:955    .text:0000000000000560 .LVL33
     /tmp/ccKGcIcU.s:561    .text:00000000000003a0 .LFB14
     /tmp/ccKGcIcU.s:588    .text:00000000000003d0 .LFE14
     /tmp/ccKGcIcU.s:3772   .debug_str:000000000000057b .LASF70
     /tmp/ccKGcIcU.s:3325   .debug_loc:0000000000000036 .LLST12
     /tmp/ccKGcIcU.s:529    .text:0000000000000374 .LFB13
     /tmp/ccKGcIcU.s:555    .text:00000000000003a0 .LFE13
     /tmp/ccKGcIcU.s:3339   .debug_loc:000000000000006f .LLST11
     /tmp/ccKGcIcU.s:496    .text:0000000000000344 .LFB12
     /tmp/ccKGcIcU.s:523    .text:0000000000000374 .LFE12
     /tmp/ccKGcIcU.s:3353   .debug_loc:00000000000000a8 .LLST10
     /tmp/ccKGcIcU.s:1094   .text:0000000000000680 .LFB11
     /tmp/ccKGcIcU.s:1158   .text:00000000000006f4 .LFE11
     /tmp/ccKGcIcU.s:1131   .text:00000000000006c8 .LVL41
     /tmp/ccKGcIcU.s:964    .text:0000000000000564 .LFB10
     /tmp/ccKGcIcU.s:1088   .text:0000000000000680 .LFE10
     /tmp/ccKGcIcU.s:3367   .debug_loc:00000000000000e1 .LLST14
     /tmp/ccKGcIcU.s:3385   .debug_loc:000000000000012d .LLST15
GAS LISTING /tmp/ccKGcIcU.s 			page 40


     /tmp/ccKGcIcU.s:3686   .debug_str:0000000000000247 .LASF71
     /tmp/ccKGcIcU.s:3407   .debug_loc:000000000000018c .LLST16
     /tmp/ccKGcIcU.s:996    .text:00000000000005a0 .LVL36
     /tmp/ccKGcIcU.s:1061   .text:000000000000065c .LVL38
     /tmp/ccKGcIcU.s:267    .text:00000000000001a8 .LFB9
     /tmp/ccKGcIcU.s:490    .text:0000000000000344 .LFE9
     /tmp/ccKGcIcU.s:3418   .debug_loc:00000000000001c2 .LLST5
     /tmp/ccKGcIcU.s:3440   .debug_loc:0000000000000221 .LLST6
     /tmp/ccKGcIcU.s:3462   .debug_loc:0000000000000280 .LLST7
     /tmp/ccKGcIcU.s:3778   .debug_str:00000000000005a9 .LASF72
     /tmp/ccKGcIcU.s:3484   .debug_loc:00000000000002df .LLST8
     /tmp/ccKGcIcU.s:3706   .debug_str:00000000000002e9 .LASF73
     /tmp/ccKGcIcU.s:3506   .debug_loc:000000000000033e .LLST9
     /tmp/ccKGcIcU.s:299    .text:00000000000001ec .LVL14
     /tmp/ccKGcIcU.s:487    .text:0000000000000340 .LVL20
     /tmp/ccKGcIcU.s:153    .text:00000000000000a4 .LFB8
     /tmp/ccKGcIcU.s:261    .text:00000000000001a8 .LFE8
     /tmp/ccKGcIcU.s:3520   .debug_loc:0000000000000377 .LLST1
     /tmp/ccKGcIcU.s:3698   .debug_str:000000000000028b .LASF74
     /tmp/ccKGcIcU.s:3534   .debug_loc:00000000000003b0 .LLST2
     /tmp/ccKGcIcU.s:177    .text:00000000000000c4 .LBB9
     /tmp/ccKGcIcU.s:241    .text:000000000000018c .LBE9
     /tmp/ccKGcIcU.s:3549   .debug_loc:00000000000003f9 .LLST3
     /tmp/ccKGcIcU.s:3565   .debug_loc:0000000000000434 .LLST4
     /tmp/ccKGcIcU.s:207    .text:0000000000000124 .LVL7
     /tmp/ccKGcIcU.s:237    .text:0000000000000188 .LVL9
     /tmp/ccKGcIcU.s:1164   .text:00000000000006f4 .LFB7
     /tmp/ccKGcIcU.s:1211   .text:0000000000000750 .LFE7
     /tmp/ccKGcIcU.s:1180   .text:0000000000000710 .LVL42
     /tmp/ccKGcIcU.s:1194   .text:0000000000000734 .LVL44
     /tmp/ccKGcIcU.s:1198   .text:000000000000073c .LVL45
     /tmp/ccKGcIcU.s:3734   .debug_str:000000000000038b .LASF92
     /tmp/ccKGcIcU.s:3740   .debug_str:00000000000003b3 .LASF93
     /tmp/ccKGcIcU.s:118    .text:0000000000000084 .LFB6
     /tmp/ccKGcIcU.s:147    .text:00000000000000a4 .LFE6
     /tmp/ccKGcIcU.s:3618   .debug_str:00000000000000b0 .LASF94
     /tmp/ccKGcIcU.s:10     .text:0000000000000000 .LFB4
     /tmp/ccKGcIcU.s:110    .text:0000000000000084 .LFE4
     /tmp/ccKGcIcU.s:23     .text:000000000000000c .LBB7
     /tmp/ccKGcIcU.s:30     .text:0000000000000010 .LBE7
     /tmp/ccKGcIcU.s:3572   .debug_loc:0000000000000457 .LLST0
     /tmp/ccKGcIcU.s:3784   .debug_str:00000000000005bf .LASF95
     /tmp/ccKGcIcU.s:3634   .debug_str:0000000000000115 .LASF75
     /tmp/ccKGcIcU.s:3600   .debug_str:0000000000000011 .LASF77
     /tmp/ccKGcIcU.s:3700   .debug_str:0000000000000293 .LASF76
     /tmp/ccKGcIcU.s:3724   .debug_str:0000000000000352 .LASF78
     /tmp/ccKGcIcU.s:907    .text:0000000000000504 .LVL28
     /tmp/ccKGcIcU.s:928    .text:0000000000000530 .LVL30
     /tmp/ccKGcIcU.s:948    .text:0000000000000554 .LVL32
     /tmp/ccKGcIcU.s:564    .text:00000000000003a0 .LVL25
     /tmp/ccKGcIcU.s:574    .text:00000000000003b0 .LVL26
     /tmp/ccKGcIcU.s:532    .text:0000000000000374 .LVL23
     /tmp/ccKGcIcU.s:543    .text:0000000000000388 .LVL24
     /tmp/ccKGcIcU.s:499    .text:0000000000000344 .LVL21
     /tmp/ccKGcIcU.s:509    .text:0000000000000354 .LVL22
     /tmp/ccKGcIcU.s:967    .text:0000000000000564 .LVL34
     /tmp/ccKGcIcU.s:994    .text:0000000000000598 .LVL35
GAS LISTING /tmp/ccKGcIcU.s 			page 41


     /tmp/ccKGcIcU.s:1018   .text:00000000000005e4 .LVL37
     /tmp/ccKGcIcU.s:1073   .text:000000000000066c .LVL39
     /tmp/ccKGcIcU.s:1077   .text:0000000000000674 .LVL40
     /tmp/ccKGcIcU.s:270    .text:00000000000001a8 .LVL12
     /tmp/ccKGcIcU.s:297    .text:00000000000001e4 .LVL13
     /tmp/ccKGcIcU.s:465    .text:000000000000031c .LVL15
     /tmp/ccKGcIcU.s:480    .text:0000000000000334 .LVL19
     /tmp/ccKGcIcU.s:476    .text:000000000000032c .LVL18
     /tmp/ccKGcIcU.s:473    .text:0000000000000328 .LVL17
     /tmp/ccKGcIcU.s:468    .text:0000000000000320 .LVL16
     /tmp/ccKGcIcU.s:156    .text:00000000000000a4 .LVL3
     /tmp/ccKGcIcU.s:172    .text:00000000000000c0 .LVL4
     /tmp/ccKGcIcU.s:244    .text:0000000000000190 .LVL10
     /tmp/ccKGcIcU.s:254    .text:000000000000019c .LVL11
     /tmp/ccKGcIcU.s:201    .text:0000000000000118 .LVL5
     /tmp/ccKGcIcU.s:205    .text:000000000000011c .LVL6
     /tmp/ccKGcIcU.s:232    .text:000000000000017c .LVL8
     /tmp/ccKGcIcU.s:21     .text:000000000000000c .LVL1
     /tmp/ccKGcIcU.s:28     .text:0000000000000010 .LVL2
     /tmp/ccKGcIcU.s:1233   .debug_info:0000000000000000 .Ldebug_info0

UNDEFINED SYMBOLS
_ZN9Scheduler3putEP7_thread
_Z8mem_freePv
_Z9mem_allocm
_ZN9Scheduler3getEv
