GAS LISTING /tmp/ccoXhpV5.s 			page 1


   1              		.file	"timer.cpp"
   2              		.option pic
   3              		.option norelax
   4              		.text
   5              	.Ltext0:
   6              		.section	.rodata.str1.8,"aMS",@progbits,1
   7              		.align	3
   8              	.LC0:
   9 0000 54696D65 		.string	"Timer::Timer()"
   9      723A3A54 
   9      696D6572 
   9      282900
  10 000f 00       		.align	3
  11              	.LC1:
  12 0010 7372632F 		.string	"src/timer.cpp"
  12      74696D65 
  12      722E6370 
  12      7000
  13 001e 0000     		.align	3
  14              	.LC2:
  15 0020 696E7374 		.string	"instance == 0"
  15      616E6365 
  15      203D3D20 
  15      3000
  16              		.text
  17              		.align	2
  18              		.globl	_ZN5TimerC2Ev
  20              	_ZN5TimerC2Ev:
  21              	.LFB1:
  22              		.file 1 "src/timer.cpp"
   1:src/timer.cpp **** /**
   2:src/timer.cpp ****  * @file timer.cpp
   3:src/timer.cpp ****  * @author stcksmsh (vukicevickosta@gmail.com)
   4:src/timer.cpp ****  * @brief implementation of the timer class
   5:src/timer.cpp ****  * @version 0.1
   6:src/timer.cpp ****  * @date 2024-01-02
   7:src/timer.cpp ****  * 
   8:src/timer.cpp ****  * @copyright Copyright (c) 2024
   9:src/timer.cpp ****  * 
  10:src/timer.cpp ****  */
  11:src/timer.cpp **** 
  12:src/timer.cpp **** #include "timer.h"
  13:src/timer.cpp **** #include "syscalls_c.h"
  14:src/timer.cpp **** #include "sched.h"
  15:src/timer.cpp **** #include "assert.h"
  16:src/timer.cpp **** 
  17:src/timer.cpp **** Timer* Timer::instance = 0;
  18:src/timer.cpp **** 
  19:src/timer.cpp **** Timer::Timer(){
  23              		.loc 1 19 1
  24              		.cfi_startproc
  25              	.LVL0:
  26 0000 130101FE 		addi	sp,sp,-32
  27              		.cfi_def_cfa_offset 32
  28 0004 233C1100 		sd	ra,24(sp)
  29 0008 23388100 		sd	s0,16(sp)
  30 000c 23349100 		sd	s1,8(sp)
GAS LISTING /tmp/ccoXhpV5.s 			page 2


  31              		.cfi_offset 1, -8
  32              		.cfi_offset 8, -16
  33              		.cfi_offset 9, -24
  34 0010 13040102 		addi	s0,sp,32
  35              		.cfi_def_cfa 8, 0
  36 0014 93040500 		mv	s1,a0
  37              	.LBB2:
  20:src/timer.cpp ****     assert(instance == 0);
  38              		.loc 1 20 5
  39 0018 97070000 		ld	a5,.LANCHOR0
  39      83B70700 
  40 0020 63940702 		bnez	a5,.L4
  41              	.LVL1:
  42              	.L2:
  43              		.loc 1 20 26 discriminator 3
  21:src/timer.cpp ****     instance = this;
  44              		.loc 1 21 5 discriminator 3
  45              		.loc 1 21 14 is_stmt 0 discriminator 3
  46 0024 97070000 		sd	s1,.LANCHOR0,a5
  46      23B09700 
  22:src/timer.cpp ****     sleepingHead = 0;
  47              		.loc 1 22 5 is_stmt 1 discriminator 3
  48              		.loc 1 22 18 is_stmt 0 discriminator 3
  49 002c 23B00400 		sd	zero,0(s1)
  23:src/timer.cpp ****     time = 0;
  50              		.loc 1 23 5 is_stmt 1 discriminator 3
  51              		.loc 1 23 10 is_stmt 0 discriminator 3
  52 0030 23B40400 		sd	zero,8(s1)
  53              	.LBE2:
  24:src/timer.cpp **** }
  54              		.loc 1 24 1 discriminator 3
  55 0034 83308101 		ld	ra,24(sp)
  56              		.cfi_remember_state
  57              		.cfi_restore 1
  58 0038 03340101 		ld	s0,16(sp)
  59              		.cfi_restore 8
  60              		.cfi_def_cfa 2, 32
  61 003c 83348100 		ld	s1,8(sp)
  62              		.cfi_restore 9
  63              	.LVL2:
  64 0040 13010102 		addi	sp,sp,32
  65              		.cfi_def_cfa_offset 0
  66 0044 67800000 		jr	ra
  67              	.LVL3:
  68              	.L4:
  69              		.cfi_restore_state
  70              	.LBB3:
  20:src/timer.cpp ****     instance = this;
  71              		.loc 1 20 5 is_stmt 1 discriminator 1
  72 0048 97060000 		lla	a3,.LC0
  72      93860600 
  73 0050 13064001 		li	a2,20
  74 0054 97050000 		lla	a1,.LC1
  74      93850500 
  75 005c 17050000 		lla	a0,.LC2
  75      13050500 
  76 0064 97000000 		call	_Z13assert_failedPKcS0_jS0_@plt
GAS LISTING /tmp/ccoXhpV5.s 			page 3


  76      E7800000 
  77              	.LVL4:
  78 006c 6FF09FFB 		j	.L2
  79              	.LBE3:
  80              		.cfi_endproc
  81              	.LFE1:
  83              		.globl	_ZN5TimerC1Ev
  84              		.set	_ZN5TimerC1Ev,_ZN5TimerC2Ev
  85              		.align	2
  86              		.globl	_ZN5TimerD2Ev
  88              	_ZN5TimerD2Ev:
  89              	.LFB4:
  25:src/timer.cpp **** 
  26:src/timer.cpp **** Timer::~Timer(){
  90              		.loc 1 26 1
  91              		.cfi_startproc
  92              		.cfi_personality 0x9b,DW.ref.__gxx_personality_v0
  93              		.cfi_lsda 0x1b,.LLSDA4
  94              	.LVL5:
  95              	.LBB4:
  27:src/timer.cpp ****     threadSleepWrapper* current = sleepingHead;
  96              		.loc 1 27 5
  97              		.loc 1 27 25 is_stmt 0
  98 0070 03350500 		ld	a0,0(a0)
  99              	.LVL6:
  28:src/timer.cpp ****     while(current != 0){
 100              		.loc 1 28 5 is_stmt 1
 101              		.loc 1 28 19
 102 0074 63000504 		beqz	a0,.L13
 103              	.LBE4:
  26:src/timer.cpp ****     threadSleepWrapper* current = sleepingHead;
 104              		.loc 1 26 1 is_stmt 0
 105 0078 130101FE 		addi	sp,sp,-32
 106              		.cfi_def_cfa_offset 32
 107 007c 233C1100 		sd	ra,24(sp)
 108 0080 23388100 		sd	s0,16(sp)
 109 0084 23349100 		sd	s1,8(sp)
 110              		.cfi_offset 1, -8
 111              		.cfi_offset 8, -16
 112              		.cfi_offset 9, -24
 113 0088 13040102 		addi	s0,sp,32
 114              		.cfi_def_cfa 8, 0
 115              	.L11:
 116              	.LBB6:
 117              	.LBB5:
  29:src/timer.cpp ****         threadSleepWrapper* next = current->next;
 118              		.loc 1 29 9 is_stmt 1
 119              		.loc 1 29 29 is_stmt 0
 120 008c 83340501 		ld	s1,16(a0)
 121              	.LVL7:
  30:src/timer.cpp ****         mem_free(current);
 122              		.loc 1 30 9 is_stmt 1
 123              		.loc 1 30 17 is_stmt 0
 124 0090 97000000 		call	_Z8mem_freePv@plt
 124      E7800000 
 125              	.LVL8:
  31:src/timer.cpp ****         current = next;
GAS LISTING /tmp/ccoXhpV5.s 			page 4


 126              		.loc 1 31 9 is_stmt 1
 127              		.loc 1 31 17 is_stmt 0
 128 0098 13850400 		mv	a0,s1
 129              	.LBE5:
  28:src/timer.cpp ****         threadSleepWrapper* next = current->next;
 130              		.loc 1 28 5 is_stmt 1
  28:src/timer.cpp ****         threadSleepWrapper* next = current->next;
 131              		.loc 1 28 19
 132 009c E39804FE 		bnez	s1,.L11
 133              	.LBE6:
  32:src/timer.cpp ****     }
  33:src/timer.cpp **** }
 134              		.loc 1 33 1 is_stmt 0
 135 00a0 83308101 		ld	ra,24(sp)
 136              		.cfi_restore 1
 137 00a4 03340101 		ld	s0,16(sp)
 138              		.cfi_restore 8
 139              		.cfi_def_cfa 2, 32
 140 00a8 83348100 		ld	s1,8(sp)
 141              		.cfi_restore 9
 142              	.LVL9:
 143 00ac 13010102 		addi	sp,sp,32
 144              		.cfi_def_cfa_offset 0
 145 00b0 67800000 		jr	ra
 146              	.LVL10:
 147              	.L13:
 148 00b4 67800000 		ret
 149              		.cfi_endproc
 150              	.LFE4:
 151              		.globl	__gxx_personality_v0
 152              		.section	.gcc_except_table,"a",@progbits
 153              	.LLSDA4:
 154 0000 FF       		.byte	0xff
 155 0001 FF       		.byte	0xff
 156 0002 03       		.byte	0x3
 157 0003 00       		.byte	0
 158              		.text
 160              		.globl	_ZN5TimerD1Ev
 161              		.set	_ZN5TimerD1Ev,_ZN5TimerD2Ev
 162              		.section	.rodata.str1.8
 163 002e 0000     		.align	3
 164              	.LC3:
 165 0030 73746174 		.string	"static Timer& Timer::getInstance()"
 165      69632054 
 165      696D6572 
 165      26205469 
 165      6D65723A 
 166 0053 00000000 		.align	3
 166      00
 167              	.LC4:
 168 0058 696E7374 		.string	"instance != 0"
 168      616E6365 
 168      20213D20 
 168      3000
 169              		.text
 170              		.align	2
 171              		.globl	_ZN5Timer11getInstanceEv
GAS LISTING /tmp/ccoXhpV5.s 			page 5


 173              	_ZN5Timer11getInstanceEv:
 174              	.LFB6:
  34:src/timer.cpp **** 
  35:src/timer.cpp **** Timer& Timer::getInstance(){
 175              		.loc 1 35 28 is_stmt 1
 176              		.cfi_startproc
  36:src/timer.cpp ****     assert(instance != 0);
 177              		.loc 1 36 5
 178 00b8 97070000 		ld	a5,.LANCHOR0
 178      83B70700 
 179 00c0 63880700 		beqz	a5,.L20
 180              		.loc 1 36 26
  37:src/timer.cpp ****     return *instance;
 181              		.loc 1 37 5
  38:src/timer.cpp **** }
 182              		.loc 1 38 1 is_stmt 0
 183 00c4 17050000 		ld	a0,.LANCHOR0
 183      03350500 
 184 00cc 67800000 		ret
 185              	.L20:
  35:src/timer.cpp ****     assert(instance != 0);
 186              		.loc 1 35 28 discriminator 1
 187 00d0 130101FF 		addi	sp,sp,-16
 188              		.cfi_def_cfa_offset 16
 189 00d4 23341100 		sd	ra,8(sp)
 190 00d8 23308100 		sd	s0,0(sp)
 191              		.cfi_offset 1, -8
 192              		.cfi_offset 8, -16
 193 00dc 13040101 		addi	s0,sp,16
 194              		.cfi_def_cfa 8, 0
  36:src/timer.cpp ****     return *instance;
 195              		.loc 1 36 5 is_stmt 1 discriminator 1
 196 00e0 97060000 		lla	a3,.LC3
 196      93860600 
 197 00e8 13064002 		li	a2,36
 198 00ec 97050000 		lla	a1,.LC1
 198      93850500 
 199 00f4 17050000 		lla	a0,.LC4
 199      13050500 
 200 00fc 97000000 		call	_Z13assert_failedPKcS0_jS0_@plt
 200      E7800000 
 201              	.LVL11:
  36:src/timer.cpp ****     return *instance;
 202              		.loc 1 36 26 discriminator 1
  37:src/timer.cpp **** }
 203              		.loc 1 37 5 discriminator 1
 204              		.loc 1 38 1 is_stmt 0 discriminator 1
 205 0104 17050000 		ld	a0,.LANCHOR0
 205      03350500 
 206 010c 83308100 		ld	ra,8(sp)
 207              		.cfi_restore 1
 208 0110 03340100 		ld	s0,0(sp)
 209              		.cfi_restore 8
 210              		.cfi_def_cfa 2, 16
 211 0114 13010101 		addi	sp,sp,16
 212              		.cfi_def_cfa_offset 0
 213 0118 67800000 		jr	ra
GAS LISTING /tmp/ccoXhpV5.s 			page 6


 214              		.cfi_endproc
 215              	.LFE6:
 217              		.align	2
 218              		.globl	_ZN5Timer4tickEv
 220              	_ZN5Timer4tickEv:
 221              	.LFB7:
  39:src/timer.cpp **** 
  40:src/timer.cpp **** void Timer::tick(){
 222              		.loc 1 40 19 is_stmt 1
 223              		.cfi_startproc
 224              	.LVL12:
 225 011c 130101FD 		addi	sp,sp,-48
 226              		.cfi_def_cfa_offset 48
 227 0120 23341102 		sd	ra,40(sp)
 228 0124 23308102 		sd	s0,32(sp)
 229 0128 233C9100 		sd	s1,24(sp)
 230 012c 23382101 		sd	s2,16(sp)
 231 0130 23343101 		sd	s3,8(sp)
 232              		.cfi_offset 1, -8
 233              		.cfi_offset 8, -16
 234              		.cfi_offset 9, -24
 235              		.cfi_offset 18, -32
 236              		.cfi_offset 19, -40
 237 0134 13040103 		addi	s0,sp,48
 238              		.cfi_def_cfa 8, 0
 239 0138 13090500 		mv	s2,a0
  41:src/timer.cpp ****     if(time % 10 == 0){
 240              		.loc 1 41 5
 241              		.loc 1 41 8 is_stmt 0
 242 013c 83378500 		ld	a5,8(a0)
 243              		.loc 1 41 13
 244 0140 1307A000 		li	a4,10
 245 0144 B3F7E702 		remu	a5,a5,a4
 246              		.loc 1 41 5
 247 0148 638C0700 		beqz	a5,.L27
 248              	.LVL13:
 249              	.L22:
  42:src/timer.cpp ****         putc('t');
  43:src/timer.cpp ****     }
  44:src/timer.cpp ****     time += 1;
 250              		.loc 1 44 5 is_stmt 1
 251              		.loc 1 44 10 is_stmt 0
 252 014c 83378900 		ld	a5,8(s2)
 253 0150 93871700 		addi	a5,a5,1
 254 0154 2334F900 		sd	a5,8(s2)
  45:src/timer.cpp ****     threadSleepWrapper* current = sleepingHead;
 255              		.loc 1 45 5 is_stmt 1
 256              		.loc 1 45 25 is_stmt 0
 257 0158 83340900 		ld	s1,0(s2)
 258              	.LVL14:
 259 015c 6F008002 		j	.L25
 260              	.LVL15:
 261              	.L27:
  42:src/timer.cpp ****         putc('t');
 262              		.loc 1 42 9 is_stmt 1
  42:src/timer.cpp ****         putc('t');
 263              		.loc 1 42 13 is_stmt 0
GAS LISTING /tmp/ccoXhpV5.s 			page 7


 264 0160 13054007 		li	a0,116
 265              	.LVL16:
 266 0164 97000000 		call	_Z4putcc@plt
 266      E7800000 
 267              	.LVL17:
 268 016c 6FF01FFE 		j	.L22
 269              	.LVL18:
 270              	.L28:
 271              	.LBB7:
 272              	.LBB8:
  46:src/timer.cpp ****     while(current != 0){
  47:src/timer.cpp ****         if(current->wakeUpTime <= time){
  48:src/timer.cpp ****             putc('w');
  49:src/timer.cpp ****             current->thread->setSleeping(false);
  50:src/timer.cpp ****             Scheduler::put(current->thread);
  51:src/timer.cpp ****             threadSleepWrapper* next = current->next;
  52:src/timer.cpp ****             if(current == sleepingHead){
  53:src/timer.cpp ****                 sleepingHead = next;
 273              		.loc 1 53 17 is_stmt 1
 274              		.loc 1 53 30 is_stmt 0
 275 0170 23303901 		sd	s3,0(s2)
 276              	.L24:
  54:src/timer.cpp ****             }
  55:src/timer.cpp ****             mem_free(current);
 277              		.loc 1 55 13 is_stmt 1
 278              		.loc 1 55 21 is_stmt 0
 279 0174 13850400 		mv	a0,s1
 280 0178 97000000 		call	_Z8mem_freePv@plt
 280      E7800000 
 281              	.LVL19:
  56:src/timer.cpp ****             current = next;
 282              		.loc 1 56 13 is_stmt 1
 283              		.loc 1 56 21 is_stmt 0
 284 0180 93840900 		mv	s1,s3
 285              	.LVL20:
 286              	.L25:
 287              	.LBE8:
 288              	.LBE7:
  46:src/timer.cpp ****     while(current != 0){
 289              		.loc 1 46 5 is_stmt 1
  46:src/timer.cpp ****     while(current != 0){
 290              		.loc 1 46 19
 291 0184 63840404 		beqz	s1,.L21
  47:src/timer.cpp ****             putc('w');
 292              		.loc 1 47 9
 293              	.LBB10:
  47:src/timer.cpp ****             putc('w');
 294              		.loc 1 47 21 is_stmt 0
 295 0188 03B78400 		ld	a4,8(s1)
  47:src/timer.cpp ****             putc('w');
 296              		.loc 1 47 35
 297 018c 83378900 		ld	a5,8(s2)
  47:src/timer.cpp ****             putc('w');
 298              		.loc 1 47 9
 299 0190 63EEE702 		bgtu	a4,a5,.L21
 300              	.LBB9:
  48:src/timer.cpp ****             current->thread->setSleeping(false);
GAS LISTING /tmp/ccoXhpV5.s 			page 8


 301              		.loc 1 48 13 is_stmt 1
  48:src/timer.cpp ****             current->thread->setSleeping(false);
 302              		.loc 1 48 17 is_stmt 0
 303 0194 13057007 		li	a0,119
 304 0198 97000000 		call	_Z4putcc@plt
 304      E7800000 
 305              	.LVL21:
  49:src/timer.cpp ****             Scheduler::put(current->thread);
 306              		.loc 1 49 13 is_stmt 1
  49:src/timer.cpp ****             Scheduler::put(current->thread);
 307              		.loc 1 49 41 is_stmt 0
 308 01a0 93050000 		li	a1,0
 309 01a4 03B50400 		ld	a0,0(s1)
 310 01a8 97000000 		call	_ZN7_thread11setSleepingEb@plt
 310      E7800000 
 311              	.LVL22:
  50:src/timer.cpp ****             threadSleepWrapper* next = current->next;
 312              		.loc 1 50 13 is_stmt 1
  50:src/timer.cpp ****             threadSleepWrapper* next = current->next;
 313              		.loc 1 50 27 is_stmt 0
 314 01b0 03B50400 		ld	a0,0(s1)
 315 01b4 97000000 		call	_ZN9Scheduler3putEP7_thread@plt
 315      E7800000 
 316              	.LVL23:
  51:src/timer.cpp ****             if(current == sleepingHead){
 317              		.loc 1 51 13 is_stmt 1
  51:src/timer.cpp ****             if(current == sleepingHead){
 318              		.loc 1 51 33 is_stmt 0
 319 01bc 83B90401 		ld	s3,16(s1)
 320              	.LVL24:
  52:src/timer.cpp ****                 sleepingHead = next;
 321              		.loc 1 52 13 is_stmt 1
  52:src/timer.cpp ****                 sleepingHead = next;
 322              		.loc 1 52 27 is_stmt 0
 323 01c0 83370900 		ld	a5,0(s2)
  52:src/timer.cpp ****                 sleepingHead = next;
 324              		.loc 1 52 13
 325 01c4 E39897FA 		bne	a5,s1,.L24
 326 01c8 6FF09FFA 		j	.L28
 327              	.LVL25:
 328              	.L21:
 329              	.LBE9:
 330              	.LBE10:
  57:src/timer.cpp ****         }else{
  58:src/timer.cpp ****             break;
  59:src/timer.cpp ****         }
  60:src/timer.cpp ****     }
  61:src/timer.cpp **** }
 331              		.loc 1 61 1
 332 01cc 83308102 		ld	ra,40(sp)
 333              		.cfi_restore 1
 334 01d0 03340102 		ld	s0,32(sp)
 335              		.cfi_restore 8
 336              		.cfi_def_cfa 2, 48
 337 01d4 83348101 		ld	s1,24(sp)
 338              		.cfi_restore 9
 339              	.LVL26:
GAS LISTING /tmp/ccoXhpV5.s 			page 9


 340 01d8 03390101 		ld	s2,16(sp)
 341              		.cfi_restore 18
 342              	.LVL27:
 343 01dc 83398100 		ld	s3,8(sp)
 344              		.cfi_restore 19
 345 01e0 13010103 		addi	sp,sp,48
 346              		.cfi_def_cfa_offset 0
 347 01e4 67800000 		jr	ra
 348              		.cfi_endproc
 349              	.LFE7:
 351              		.align	2
 352              		.globl	_ZN5Timer5sleepEm
 354              	_ZN5Timer5sleepEm:
 355              	.LFB8:
  62:src/timer.cpp **** 
  63:src/timer.cpp **** int Timer::sleep(time_t timeToSleep){
 356              		.loc 1 63 37 is_stmt 1
 357              		.cfi_startproc
 358              	.LVL28:
 359 01e8 130101FC 		addi	sp,sp,-64
 360              		.cfi_def_cfa_offset 64
 361 01ec 233C1102 		sd	ra,56(sp)
 362 01f0 23388102 		sd	s0,48(sp)
 363 01f4 23349102 		sd	s1,40(sp)
 364 01f8 23302103 		sd	s2,32(sp)
 365 01fc 233C3101 		sd	s3,24(sp)
 366 0200 23384101 		sd	s4,16(sp)
 367 0204 23345101 		sd	s5,8(sp)
 368              		.cfi_offset 1, -8
 369              		.cfi_offset 8, -16
 370              		.cfi_offset 9, -24
 371              		.cfi_offset 18, -32
 372              		.cfi_offset 19, -40
 373              		.cfi_offset 20, -48
 374              		.cfi_offset 21, -56
 375 0208 13040104 		addi	s0,sp,64
 376              		.cfi_def_cfa 8, 0
 377 020c 130A0500 		mv	s4,a0
 378 0210 13890500 		mv	s2,a1
  64:src/timer.cpp ****     thread_t thread = _thread::currentThread;
 379              		.loc 1 64 5
 380              		.loc 1 64 14 is_stmt 0
 381 0214 97070000 		la	a5,_ZN7_thread13currentThreadE
 381      83B70700 
 382 021c 83BA0700 		ld	s5,0(a5)
 383              	.LVL29:
  65:src/timer.cpp ****     threadSleepWrapper* newSleepingThread = (threadSleepWrapper*)mem_alloc(sizeof(threadSleepWrappe
 384              		.loc 1 65 5 is_stmt 1
 385              		.loc 1 65 75 is_stmt 0
 386 0220 13058001 		li	a0,24
 387              	.LVL30:
 388 0224 97000000 		call	_Z9mem_allocm@plt
 388      E7800000 
 389              	.LVL31:
 390 022c 93090500 		mv	s3,a0
 391              	.LVL32:
  66:src/timer.cpp ****     newSleepingThread->thread = thread;
GAS LISTING /tmp/ccoXhpV5.s 			page 10


 392              		.loc 1 66 5 is_stmt 1
 393              		.loc 1 66 31 is_stmt 0
 394 0230 23305501 		sd	s5,0(a0)
  67:src/timer.cpp ****     newSleepingThread->wakeUpTime = time + timeToSleep;
 395              		.loc 1 67 5 is_stmt 1
 396              		.loc 1 67 37 is_stmt 0
 397 0234 83348A00 		ld	s1,8(s4)
 398              		.loc 1 67 42
 399 0238 B3842401 		add	s1,s1,s2
 400              		.loc 1 67 35
 401 023c 23349500 		sd	s1,8(a0)
  68:src/timer.cpp ****     newSleepingThread->next = 0;
 402              		.loc 1 68 5 is_stmt 1
 403              		.loc 1 68 29 is_stmt 0
 404 0240 23380500 		sd	zero,16(a0)
  69:src/timer.cpp **** 
  70:src/timer.cpp ****     time_t w = newSleepingThread->wakeUpTime;
 405              		.loc 1 70 5 is_stmt 1
 406              	.LVL33:
  71:src/timer.cpp ****     putc('w');
 407              		.loc 1 71 5
 408              		.loc 1 71 9 is_stmt 0
 409 0244 13057007 		li	a0,119
 410              	.LVL34:
 411 0248 97000000 		call	_Z4putcc@plt
 411      E7800000 
 412              	.LVL35:
 413              	.L31:
  72:src/timer.cpp ****     while(w > 0){
 414              		.loc 1 72 5 is_stmt 1
 415              		.loc 1 72 13
 416 0250 63800402 		beqz	s1,.L30
  73:src/timer.cpp ****         putc('0' + w % 10);
 417              		.loc 1 73 9
 418              		.loc 1 73 22 is_stmt 0
 419 0254 1309A000 		li	s2,10
 420 0258 33F52403 		remu	a0,s1,s2
 421              		.loc 1 73 13
 422 025c 13050503 		addi	a0,a0,48
 423 0260 97000000 		call	_Z4putcc@plt
 423      E7800000 
 424              	.LVL36:
  74:src/timer.cpp ****         w /= 10;
 425              		.loc 1 74 9 is_stmt 1
 426              		.loc 1 74 11 is_stmt 0
 427 0268 B3D42403 		divu	s1,s1,s2
 428              	.LVL37:
  72:src/timer.cpp ****     while(w > 0){
 429              		.loc 1 72 5
 430 026c 6FF05FFE 		j	.L31
 431              	.L30:
  75:src/timer.cpp ****     }
  76:src/timer.cpp ****     putc('\n');
 432              		.loc 1 76 5 is_stmt 1
 433              		.loc 1 76 9 is_stmt 0
 434 0270 1305A000 		li	a0,10
 435 0274 97000000 		call	_Z4putcc@plt
GAS LISTING /tmp/ccoXhpV5.s 			page 11


 435      E7800000 
 436              	.LVL38:
  77:src/timer.cpp **** 
  78:src/timer.cpp ****     if(sleepingHead == 0){
 437              		.loc 1 78 5 is_stmt 1
 438              	.LBB11:
 439              		.loc 1 78 8 is_stmt 0
 440 027c 83370A00 		ld	a5,0(s4)
 441              		.loc 1 78 5
 442 0280 63880706 		beqz	a5,.L36
 443              	.L32:
 444              	.LVL39:
 445              	.LBB12:
  79:src/timer.cpp ****         sleepingHead = newSleepingThread;
  80:src/timer.cpp ****     }else{
  81:src/timer.cpp ****         threadSleepWrapper* current = sleepingHead;
  82:src/timer.cpp ****         while(current->next != 0 && current->next->wakeUpTime < newSleepingThread->wakeUpTime){
 446              		.loc 1 82 9 is_stmt 1
 447              		.loc 1 82 34
 448 0284 13860700 		mv	a2,a5
 449              		.loc 1 82 24 is_stmt 0
 450 0288 83B70701 		ld	a5,16(a5)
 451              	.LVL40:
 452              		.loc 1 82 34
 453 028c 63880700 		beqz	a5,.L34
 454              		.loc 1 82 52 discriminator 1
 455 0290 83B68700 		ld	a3,8(a5)
 456              		.loc 1 82 84 discriminator 1
 457 0294 03B78900 		ld	a4,8(s3)
 458              		.loc 1 82 34 discriminator 1
 459 0298 E3E6E6FE 		bltu	a3,a4,.L32
 460              	.L34:
  83:src/timer.cpp ****             current = current->next;
  84:src/timer.cpp ****         }
  85:src/timer.cpp ****         newSleepingThread->next = current->next;
 461              		.loc 1 85 9 is_stmt 1
 462              		.loc 1 85 33 is_stmt 0
 463 029c 23B8F900 		sd	a5,16(s3)
  86:src/timer.cpp ****         current->next = newSleepingThread;
 464              		.loc 1 86 9 is_stmt 1
 465              		.loc 1 86 23 is_stmt 0
 466 02a0 23383601 		sd	s3,16(a2)
 467              	.LVL41:
 468              	.L33:
 469              	.LBE12:
 470              	.LBE11:
  87:src/timer.cpp ****     }
  88:src/timer.cpp ****     thread->setSleeping(true);
 471              		.loc 1 88 5 is_stmt 1
 472              		.loc 1 88 24 is_stmt 0
 473 02a4 93051000 		li	a1,1
 474 02a8 13850A00 		mv	a0,s5
 475 02ac 97000000 		call	_ZN7_thread11setSleepingEb@plt
 475      E7800000 
 476              	.LVL42:
  89:src/timer.cpp ****     putc('s');
 477              		.loc 1 89 5 is_stmt 1
GAS LISTING /tmp/ccoXhpV5.s 			page 12


 478              		.loc 1 89 9 is_stmt 0
 479 02b4 13053007 		li	a0,115
 480 02b8 97000000 		call	_Z4putcc@plt
 480      E7800000 
 481              	.LVL43:
  90:src/timer.cpp ****     thread_dispatch();
 482              		.loc 1 90 5 is_stmt 1
 483              		.loc 1 90 20 is_stmt 0
 484 02c0 97000000 		call	_Z15thread_dispatchv@plt
 484      E7800000 
 485              	.LVL44:
  91:src/timer.cpp ****     return 0;
 486              		.loc 1 91 5 is_stmt 1
  92:src/timer.cpp **** }
 487              		.loc 1 92 1 is_stmt 0
 488 02c8 13050000 		li	a0,0
 489 02cc 83308103 		ld	ra,56(sp)
 490              		.cfi_remember_state
 491              		.cfi_restore 1
 492 02d0 03340103 		ld	s0,48(sp)
 493              		.cfi_restore 8
 494              		.cfi_def_cfa 2, 64
 495 02d4 83348102 		ld	s1,40(sp)
 496              		.cfi_restore 9
 497              	.LVL45:
 498 02d8 03390102 		ld	s2,32(sp)
 499              		.cfi_restore 18
 500 02dc 83398101 		ld	s3,24(sp)
 501              		.cfi_restore 19
 502              	.LVL46:
 503 02e0 033A0101 		ld	s4,16(sp)
 504              		.cfi_restore 20
 505              	.LVL47:
 506 02e4 833A8100 		ld	s5,8(sp)
 507              		.cfi_restore 21
 508              	.LVL48:
 509 02e8 13010104 		addi	sp,sp,64
 510              		.cfi_def_cfa_offset 0
 511 02ec 67800000 		jr	ra
 512              	.LVL49:
 513              	.L36:
 514              		.cfi_restore_state
 515              	.LBB13:
  79:src/timer.cpp ****     }else{
 516              		.loc 1 79 9 is_stmt 1
  79:src/timer.cpp ****     }else{
 517              		.loc 1 79 22 is_stmt 0
 518 02f0 23303A01 		sd	s3,0(s4)
 519 02f4 6FF01FFB 		j	.L33
 520              	.LBE13:
 521              		.cfi_endproc
 522              	.LFE8:
 524              		.align	2
 525              		.globl	_ZN5Timer17noSleepingThreadsEv
 527              	_ZN5Timer17noSleepingThreadsEv:
 528              	.LFB9:
  93:src/timer.cpp **** 
GAS LISTING /tmp/ccoXhpV5.s 			page 13


  94:src/timer.cpp **** bool Timer::noSleepingThreads(){
 529              		.loc 1 94 32 is_stmt 1
 530              		.cfi_startproc
 531              	.LVL50:
 532 02f8 130101FF 		addi	sp,sp,-16
 533              		.cfi_def_cfa_offset 16
 534 02fc 23348100 		sd	s0,8(sp)
 535              		.cfi_offset 8, -8
 536 0300 13040101 		addi	s0,sp,16
 537              		.cfi_def_cfa 8, 0
  95:src/timer.cpp ****     return sleepingHead == 0;
 538              		.loc 1 95 5
 539              		.loc 1 95 12 is_stmt 0
 540 0304 03350500 		ld	a0,0(a0)
 541              	.LVL51:
  96:src/timer.cpp **** }...
 542              		.loc 1 96 1
 543 0308 13351500 		seqz	a0,a0
 544 030c 03348100 		ld	s0,8(sp)
 545              		.cfi_restore 8
 546              		.cfi_def_cfa 2, 16
 547 0310 13010101 		addi	sp,sp,16
 548              		.cfi_def_cfa_offset 0
 549 0314 67800000 		jr	ra
 550              		.cfi_endproc
 551              	.LFE9:
 553              		.globl	_ZN5Timer8instanceE
 554              		.bss
 555              		.align	3
 556              		.set	.LANCHOR0,. + 0
 559              	_ZN5Timer8instanceE:
 560 0000 00000000 		.zero	8
 560      00000000 
 561              		.text
 562              	.Letext0:
 563              		.file 2 "./lib/hw.h"
 564              		.file 3 "./h/thread.h"
 565              		.file 4 "./h/timer.h"
 566              		.file 5 "./h/sched.h"
 567              		.file 6 "./h/syscalls_c.h"
 568              		.file 7 "./h/assert.h"
 3295              		.align	3
 3298              	DW.ref.__gxx_personality_v0:
 3299 0000 00000000 		.dword	__gxx_personality_v0
 3299      00000000 
 3300              		.ident	"GCC: (Ubuntu 9.4.0-1ubuntu1~20.04) 9.4.0"
 3301              		.section	.note.GNU-stack,"",@progbits
GAS LISTING /tmp/ccoXhpV5.s 			page 14


DEFINED SYMBOLS
                            *ABS*:0000000000000000 timer.cpp
     /tmp/ccoXhpV5.s:20     .text:0000000000000000 _ZN5TimerC2Ev
     /tmp/ccoXhpV5.s:24     .text:0000000000000000 .L0 
     /tmp/ccoXhpV5.s:26     .text:0000000000000000 .L0 
     /tmp/ccoXhpV5.s:27     .text:0000000000000004 .L0 
     /tmp/ccoXhpV5.s:31     .text:0000000000000010 .L0 
     /tmp/ccoXhpV5.s:32     .text:0000000000000010 .L0 
     /tmp/ccoXhpV5.s:33     .text:0000000000000010 .L0 
     /tmp/ccoXhpV5.s:35     .text:0000000000000014 .L0 
     /tmp/ccoXhpV5.s:39     .text:0000000000000018 .L0 
     /tmp/ccoXhpV5.s:44     .text:0000000000000024 .L0 
     /tmp/ccoXhpV5.s:45     .text:0000000000000024 .L0 
     /tmp/ccoXhpV5.s:46     .text:0000000000000024 .L0 
     /tmp/ccoXhpV5.s:48     .text:000000000000002c .L0 
     /tmp/ccoXhpV5.s:49     .text:000000000000002c .L0 
     /tmp/ccoXhpV5.s:51     .text:0000000000000030 .L0 
     /tmp/ccoXhpV5.s:52     .text:0000000000000030 .L0 
     /tmp/ccoXhpV5.s:55     .text:0000000000000034 .L0 
     /tmp/ccoXhpV5.s:56     .text:0000000000000038 .L0 
     /tmp/ccoXhpV5.s:57     .text:0000000000000038 .L0 
     /tmp/ccoXhpV5.s:59     .text:000000000000003c .L0 
     /tmp/ccoXhpV5.s:60     .text:000000000000003c .L0 
     /tmp/ccoXhpV5.s:62     .text:0000000000000040 .L0 
     /tmp/ccoXhpV5.s:65     .text:0000000000000044 .L0 
     /tmp/ccoXhpV5.s:69     .text:0000000000000048 .L0 
     /tmp/ccoXhpV5.s:72     .text:0000000000000048 .L0 
     /tmp/ccoXhpV5.s:80     .text:0000000000000070 .L0 
     /tmp/ccoXhpV5.s:20     .text:0000000000000000 _ZN5TimerC1Ev
     /tmp/ccoXhpV5.s:88     .text:0000000000000070 _ZN5TimerD2Ev
     /tmp/ccoXhpV5.s:91     .text:0000000000000070 .L0 
     /tmp/ccoXhpV5.s:3298   .data.rel.local.DW.ref.__gxx_personality_v0:0000000000000000 DW.ref.__gxx_personality_v0
     /tmp/ccoXhpV5.s:96     .text:0000000000000070 .L0 
     /tmp/ccoXhpV5.s:97     .text:0000000000000070 .L0 
     /tmp/ccoXhpV5.s:98     .text:0000000000000070 .L0 
     /tmp/ccoXhpV5.s:101    .text:0000000000000074 .L0 
     /tmp/ccoXhpV5.s:102    .text:0000000000000074 .L0 
     /tmp/ccoXhpV5.s:105    .text:0000000000000078 .L0 
     /tmp/ccoXhpV5.s:106    .text:000000000000007c .L0 
     /tmp/ccoXhpV5.s:110    .text:0000000000000088 .L0 
     /tmp/ccoXhpV5.s:111    .text:0000000000000088 .L0 
     /tmp/ccoXhpV5.s:112    .text:0000000000000088 .L0 
     /tmp/ccoXhpV5.s:114    .text:000000000000008c .L0 
     /tmp/ccoXhpV5.s:119    .text:000000000000008c .L0 
     /tmp/ccoXhpV5.s:120    .text:000000000000008c .L0 
     /tmp/ccoXhpV5.s:123    .text:0000000000000090 .L0 
     /tmp/ccoXhpV5.s:124    .text:0000000000000090 .L0 
     /tmp/ccoXhpV5.s:127    .text:0000000000000098 .L0 
     /tmp/ccoXhpV5.s:128    .text:0000000000000098 .L0 
     /tmp/ccoXhpV5.s:131    .text:000000000000009c .L0 
     /tmp/ccoXhpV5.s:132    .text:000000000000009c .L0 
     /tmp/ccoXhpV5.s:135    .text:00000000000000a0 .L0 
     /tmp/ccoXhpV5.s:136    .text:00000000000000a4 .L0 
     /tmp/ccoXhpV5.s:138    .text:00000000000000a8 .L0 
     /tmp/ccoXhpV5.s:139    .text:00000000000000a8 .L0 
     /tmp/ccoXhpV5.s:141    .text:00000000000000ac .L0 
     /tmp/ccoXhpV5.s:144    .text:00000000000000b0 .L0 
GAS LISTING /tmp/ccoXhpV5.s 			page 15


     /tmp/ccoXhpV5.s:149    .text:00000000000000b8 .L0 
     /tmp/ccoXhpV5.s:88     .text:0000000000000070 _ZN5TimerD1Ev
     /tmp/ccoXhpV5.s:173    .text:00000000000000b8 _ZN5Timer11getInstanceEv
     /tmp/ccoXhpV5.s:176    .text:00000000000000b8 .L0 
     /tmp/ccoXhpV5.s:177    .text:00000000000000b8 .L0 
     /tmp/ccoXhpV5.s:178    .text:00000000000000b8 .L0 
     /tmp/ccoXhpV5.s:181    .text:00000000000000c4 .L0 
     /tmp/ccoXhpV5.s:182    .text:00000000000000c4 .L0 
     /tmp/ccoXhpV5.s:183    .text:00000000000000c4 .L0 
     /tmp/ccoXhpV5.s:187    .text:00000000000000d0 .L0 
     /tmp/ccoXhpV5.s:188    .text:00000000000000d4 .L0 
     /tmp/ccoXhpV5.s:191    .text:00000000000000dc .L0 
     /tmp/ccoXhpV5.s:192    .text:00000000000000dc .L0 
     /tmp/ccoXhpV5.s:194    .text:00000000000000e0 .L0 
     /tmp/ccoXhpV5.s:196    .text:00000000000000e0 .L0 
     /tmp/ccoXhpV5.s:203    .text:0000000000000104 .L0 
     /tmp/ccoXhpV5.s:204    .text:0000000000000104 .L0 
     /tmp/ccoXhpV5.s:205    .text:0000000000000104 .L0 
     /tmp/ccoXhpV5.s:207    .text:0000000000000110 .L0 
     /tmp/ccoXhpV5.s:209    .text:0000000000000114 .L0 
     /tmp/ccoXhpV5.s:210    .text:0000000000000114 .L0 
     /tmp/ccoXhpV5.s:212    .text:0000000000000118 .L0 
     /tmp/ccoXhpV5.s:214    .text:000000000000011c .L0 
     /tmp/ccoXhpV5.s:220    .text:000000000000011c _ZN5Timer4tickEv
     /tmp/ccoXhpV5.s:223    .text:000000000000011c .L0 
     /tmp/ccoXhpV5.s:225    .text:000000000000011c .L0 
     /tmp/ccoXhpV5.s:226    .text:0000000000000120 .L0 
     /tmp/ccoXhpV5.s:232    .text:0000000000000134 .L0 
     /tmp/ccoXhpV5.s:233    .text:0000000000000134 .L0 
     /tmp/ccoXhpV5.s:234    .text:0000000000000134 .L0 
     /tmp/ccoXhpV5.s:235    .text:0000000000000134 .L0 
     /tmp/ccoXhpV5.s:236    .text:0000000000000134 .L0 
     /tmp/ccoXhpV5.s:238    .text:0000000000000138 .L0 
     /tmp/ccoXhpV5.s:241    .text:000000000000013c .L0 
     /tmp/ccoXhpV5.s:242    .text:000000000000013c .L0 
     /tmp/ccoXhpV5.s:244    .text:0000000000000140 .L0 
     /tmp/ccoXhpV5.s:247    .text:0000000000000148 .L0 
     /tmp/ccoXhpV5.s:251    .text:000000000000014c .L0 
     /tmp/ccoXhpV5.s:252    .text:000000000000014c .L0 
     /tmp/ccoXhpV5.s:256    .text:0000000000000158 .L0 
     /tmp/ccoXhpV5.s:257    .text:0000000000000158 .L0 
     /tmp/ccoXhpV5.s:263    .text:0000000000000160 .L0 
     /tmp/ccoXhpV5.s:264    .text:0000000000000160 .L0 
     /tmp/ccoXhpV5.s:274    .text:0000000000000170 .L0 
     /tmp/ccoXhpV5.s:275    .text:0000000000000170 .L0 
     /tmp/ccoXhpV5.s:278    .text:0000000000000174 .L0 
     /tmp/ccoXhpV5.s:279    .text:0000000000000174 .L0 
     /tmp/ccoXhpV5.s:283    .text:0000000000000180 .L0 
     /tmp/ccoXhpV5.s:284    .text:0000000000000180 .L0 
     /tmp/ccoXhpV5.s:290    .text:0000000000000184 .L0 
     /tmp/ccoXhpV5.s:291    .text:0000000000000184 .L0 
     /tmp/ccoXhpV5.s:294    .text:0000000000000188 .L0 
     /tmp/ccoXhpV5.s:295    .text:0000000000000188 .L0 
     /tmp/ccoXhpV5.s:297    .text:000000000000018c .L0 
     /tmp/ccoXhpV5.s:299    .text:0000000000000190 .L0 
     /tmp/ccoXhpV5.s:302    .text:0000000000000194 .L0 
     /tmp/ccoXhpV5.s:303    .text:0000000000000194 .L0 
GAS LISTING /tmp/ccoXhpV5.s 			page 16


     /tmp/ccoXhpV5.s:307    .text:00000000000001a0 .L0 
     /tmp/ccoXhpV5.s:308    .text:00000000000001a0 .L0 
     /tmp/ccoXhpV5.s:313    .text:00000000000001b0 .L0 
     /tmp/ccoXhpV5.s:314    .text:00000000000001b0 .L0 
     /tmp/ccoXhpV5.s:318    .text:00000000000001bc .L0 
     /tmp/ccoXhpV5.s:319    .text:00000000000001bc .L0 
     /tmp/ccoXhpV5.s:322    .text:00000000000001c0 .L0 
     /tmp/ccoXhpV5.s:323    .text:00000000000001c0 .L0 
     /tmp/ccoXhpV5.s:325    .text:00000000000001c4 .L0 
     /tmp/ccoXhpV5.s:332    .text:00000000000001cc .L0 
     /tmp/ccoXhpV5.s:333    .text:00000000000001d0 .L0 
     /tmp/ccoXhpV5.s:335    .text:00000000000001d4 .L0 
     /tmp/ccoXhpV5.s:336    .text:00000000000001d4 .L0 
     /tmp/ccoXhpV5.s:338    .text:00000000000001d8 .L0 
     /tmp/ccoXhpV5.s:341    .text:00000000000001dc .L0 
     /tmp/ccoXhpV5.s:344    .text:00000000000001e0 .L0 
     /tmp/ccoXhpV5.s:346    .text:00000000000001e4 .L0 
     /tmp/ccoXhpV5.s:348    .text:00000000000001e8 .L0 
     /tmp/ccoXhpV5.s:354    .text:00000000000001e8 _ZN5Timer5sleepEm
     /tmp/ccoXhpV5.s:357    .text:00000000000001e8 .L0 
     /tmp/ccoXhpV5.s:359    .text:00000000000001e8 .L0 
     /tmp/ccoXhpV5.s:360    .text:00000000000001ec .L0 
     /tmp/ccoXhpV5.s:368    .text:0000000000000208 .L0 
     /tmp/ccoXhpV5.s:369    .text:0000000000000208 .L0 
     /tmp/ccoXhpV5.s:370    .text:0000000000000208 .L0 
     /tmp/ccoXhpV5.s:371    .text:0000000000000208 .L0 
     /tmp/ccoXhpV5.s:372    .text:0000000000000208 .L0 
     /tmp/ccoXhpV5.s:373    .text:0000000000000208 .L0 
     /tmp/ccoXhpV5.s:374    .text:0000000000000208 .L0 
     /tmp/ccoXhpV5.s:376    .text:000000000000020c .L0 
     /tmp/ccoXhpV5.s:380    .text:0000000000000214 .L0 
     /tmp/ccoXhpV5.s:381    .text:0000000000000214 .L0 
     /tmp/ccoXhpV5.s:385    .text:0000000000000220 .L0 
     /tmp/ccoXhpV5.s:386    .text:0000000000000220 .L0 
     /tmp/ccoXhpV5.s:393    .text:0000000000000230 .L0 
     /tmp/ccoXhpV5.s:394    .text:0000000000000230 .L0 
     /tmp/ccoXhpV5.s:396    .text:0000000000000234 .L0 
     /tmp/ccoXhpV5.s:397    .text:0000000000000234 .L0 
     /tmp/ccoXhpV5.s:399    .text:0000000000000238 .L0 
     /tmp/ccoXhpV5.s:401    .text:000000000000023c .L0 
     /tmp/ccoXhpV5.s:403    .text:0000000000000240 .L0 
     /tmp/ccoXhpV5.s:404    .text:0000000000000240 .L0 
     /tmp/ccoXhpV5.s:407    .text:0000000000000244 .L0 
     /tmp/ccoXhpV5.s:408    .text:0000000000000244 .L0 
     /tmp/ccoXhpV5.s:409    .text:0000000000000244 .L0 
     /tmp/ccoXhpV5.s:415    .text:0000000000000250 .L0 
     /tmp/ccoXhpV5.s:416    .text:0000000000000250 .L0 
     /tmp/ccoXhpV5.s:418    .text:0000000000000254 .L0 
     /tmp/ccoXhpV5.s:419    .text:0000000000000254 .L0 
     /tmp/ccoXhpV5.s:422    .text:000000000000025c .L0 
     /tmp/ccoXhpV5.s:426    .text:0000000000000268 .L0 
     /tmp/ccoXhpV5.s:427    .text:0000000000000268 .L0 
     /tmp/ccoXhpV5.s:430    .text:000000000000026c .L0 
     /tmp/ccoXhpV5.s:433    .text:0000000000000270 .L0 
     /tmp/ccoXhpV5.s:434    .text:0000000000000270 .L0 
     /tmp/ccoXhpV5.s:439    .text:000000000000027c .L0 
     /tmp/ccoXhpV5.s:440    .text:000000000000027c .L0 
GAS LISTING /tmp/ccoXhpV5.s 			page 17


     /tmp/ccoXhpV5.s:442    .text:0000000000000280 .L0 
     /tmp/ccoXhpV5.s:447    .text:0000000000000284 .L0 
     /tmp/ccoXhpV5.s:448    .text:0000000000000284 .L0 
     /tmp/ccoXhpV5.s:450    .text:0000000000000288 .L0 
     /tmp/ccoXhpV5.s:453    .text:000000000000028c .L0 
     /tmp/ccoXhpV5.s:455    .text:0000000000000290 .L0 
     /tmp/ccoXhpV5.s:457    .text:0000000000000294 .L0 
     /tmp/ccoXhpV5.s:459    .text:0000000000000298 .L0 
     /tmp/ccoXhpV5.s:462    .text:000000000000029c .L0 
     /tmp/ccoXhpV5.s:463    .text:000000000000029c .L0 
     /tmp/ccoXhpV5.s:465    .text:00000000000002a0 .L0 
     /tmp/ccoXhpV5.s:466    .text:00000000000002a0 .L0 
     /tmp/ccoXhpV5.s:472    .text:00000000000002a4 .L0 
     /tmp/ccoXhpV5.s:473    .text:00000000000002a4 .L0 
     /tmp/ccoXhpV5.s:478    .text:00000000000002b4 .L0 
     /tmp/ccoXhpV5.s:479    .text:00000000000002b4 .L0 
     /tmp/ccoXhpV5.s:483    .text:00000000000002c0 .L0 
     /tmp/ccoXhpV5.s:484    .text:00000000000002c0 .L0 
     /tmp/ccoXhpV5.s:487    .text:00000000000002c8 .L0 
     /tmp/ccoXhpV5.s:488    .text:00000000000002c8 .L0 
     /tmp/ccoXhpV5.s:490    .text:00000000000002d0 .L0 
     /tmp/ccoXhpV5.s:491    .text:00000000000002d0 .L0 
     /tmp/ccoXhpV5.s:493    .text:00000000000002d4 .L0 
     /tmp/ccoXhpV5.s:494    .text:00000000000002d4 .L0 
     /tmp/ccoXhpV5.s:496    .text:00000000000002d8 .L0 
     /tmp/ccoXhpV5.s:499    .text:00000000000002dc .L0 
     /tmp/ccoXhpV5.s:501    .text:00000000000002e0 .L0 
     /tmp/ccoXhpV5.s:504    .text:00000000000002e4 .L0 
     /tmp/ccoXhpV5.s:507    .text:00000000000002e8 .L0 
     /tmp/ccoXhpV5.s:510    .text:00000000000002ec .L0 
     /tmp/ccoXhpV5.s:514    .text:00000000000002f0 .L0 
     /tmp/ccoXhpV5.s:517    .text:00000000000002f0 .L0 
     /tmp/ccoXhpV5.s:518    .text:00000000000002f0 .L0 
     /tmp/ccoXhpV5.s:521    .text:00000000000002f8 .L0 
     /tmp/ccoXhpV5.s:527    .text:00000000000002f8 _ZN5Timer17noSleepingThreadsEv
     /tmp/ccoXhpV5.s:530    .text:00000000000002f8 .L0 
     /tmp/ccoXhpV5.s:532    .text:00000000000002f8 .L0 
     /tmp/ccoXhpV5.s:533    .text:00000000000002fc .L0 
     /tmp/ccoXhpV5.s:535    .text:0000000000000300 .L0 
     /tmp/ccoXhpV5.s:537    .text:0000000000000304 .L0 
     /tmp/ccoXhpV5.s:539    .text:0000000000000304 .L0 
     /tmp/ccoXhpV5.s:540    .text:0000000000000304 .L0 
     /tmp/ccoXhpV5.s:543    .text:0000000000000308 .L0 
     /tmp/ccoXhpV5.s:545    .text:0000000000000310 .L0 
     /tmp/ccoXhpV5.s:546    .text:0000000000000310 .L0 
     /tmp/ccoXhpV5.s:548    .text:0000000000000314 .L0 
     /tmp/ccoXhpV5.s:550    .text:0000000000000318 .L0 
     /tmp/ccoXhpV5.s:559    .bss:0000000000000000 _ZN5Timer8instanceE
     /tmp/ccoXhpV5.s:556    .bss:0000000000000000 .LANCHOR0
     /tmp/ccoXhpV5.s:569    .text:0000000000000318 .L0 
     /tmp/ccoXhpV5.s:39     .text:0000000000000018 .L0 
     /tmp/ccoXhpV5.s:46     .text:0000000000000024 .L0 
     /tmp/ccoXhpV5.s:8      .rodata.str1.8:0000000000000000 .LC0
     /tmp/ccoXhpV5.s:72     .text:0000000000000048 .L0 
     /tmp/ccoXhpV5.s:11     .rodata.str1.8:0000000000000010 .LC1
     /tmp/ccoXhpV5.s:74     .text:0000000000000054 .L0 
     /tmp/ccoXhpV5.s:14     .rodata.str1.8:0000000000000020 .LC2
GAS LISTING /tmp/ccoXhpV5.s 			page 18


     /tmp/ccoXhpV5.s:75     .text:000000000000005c .L0 
     /tmp/ccoXhpV5.s:178    .text:00000000000000b8 .L0 
     /tmp/ccoXhpV5.s:183    .text:00000000000000c4 .L0 
     /tmp/ccoXhpV5.s:164    .rodata.str1.8:0000000000000030 .LC3
     /tmp/ccoXhpV5.s:196    .text:00000000000000e0 .L0 
     /tmp/ccoXhpV5.s:198    .text:00000000000000ec .L0 
     /tmp/ccoXhpV5.s:167    .rodata.str1.8:0000000000000058 .LC4
     /tmp/ccoXhpV5.s:199    .text:00000000000000f4 .L0 
     /tmp/ccoXhpV5.s:205    .text:0000000000000104 .L0 
     /tmp/ccoXhpV5.s:381    .text:0000000000000214 .L0 
     /tmp/ccoXhpV5.s:68     .text:0000000000000048 .L4
     /tmp/ccoXhpV5.s:42     .text:0000000000000024 .L2
     /tmp/ccoXhpV5.s:147    .text:00000000000000b4 .L13
     /tmp/ccoXhpV5.s:115    .text:000000000000008c .L11
     /tmp/ccoXhpV5.s:185    .text:00000000000000d0 .L20
     /tmp/ccoXhpV5.s:261    .text:0000000000000160 .L27
     /tmp/ccoXhpV5.s:286    .text:0000000000000184 .L25
     /tmp/ccoXhpV5.s:249    .text:000000000000014c .L22
     /tmp/ccoXhpV5.s:328    .text:00000000000001cc .L21
     /tmp/ccoXhpV5.s:276    .text:0000000000000174 .L24
     /tmp/ccoXhpV5.s:270    .text:0000000000000170 .L28
     /tmp/ccoXhpV5.s:431    .text:0000000000000270 .L30
     /tmp/ccoXhpV5.s:413    .text:0000000000000250 .L31
     /tmp/ccoXhpV5.s:513    .text:00000000000002f0 .L36
     /tmp/ccoXhpV5.s:460    .text:000000000000029c .L34
     /tmp/ccoXhpV5.s:443    .text:0000000000000284 .L32
     /tmp/ccoXhpV5.s:468    .text:00000000000002a4 .L33
     /tmp/ccoXhpV5.s:1860   .debug_abbrev:0000000000000000 .Ldebug_abbrev0
     /tmp/ccoXhpV5.s:3256   .debug_str:0000000000000525 .LASF100
     /tmp/ccoXhpV5.s:3070   .debug_str:000000000000001b .LASF101
     /tmp/ccoXhpV5.s:3206   .debug_str:00000000000003a2 .LASF102
     /tmp/ccoXhpV5.s:5      .text:0000000000000000 .Ltext0
     /tmp/ccoXhpV5.s:562    .text:0000000000000318 .Letext0
     /tmp/ccoXhpV5.s:3062   .debug_line:0000000000000000 .Ldebug_line0
     /tmp/ccoXhpV5.s:3192   .debug_str:000000000000035d .LASF0
     /tmp/ccoXhpV5.s:3210   .debug_str:00000000000003f2 .LASF1
     /tmp/ccoXhpV5.s:3178   .debug_str:0000000000000305 .LASF2
     /tmp/ccoXhpV5.s:3240   .debug_str:00000000000004c3 .LASF3
     /tmp/ccoXhpV5.s:3152   .debug_str:000000000000026a .LASF4
     /tmp/ccoXhpV5.s:3242   .debug_str:00000000000004ca .LASF5
     /tmp/ccoXhpV5.s:3094   .debug_str:00000000000000e4 .LASF6
     /tmp/ccoXhpV5.s:3122   .debug_str:00000000000001a3 .LASF7
     /tmp/ccoXhpV5.s:3212   .debug_str:0000000000000405 .LASF8
     /tmp/ccoXhpV5.s:3190   .debug_str:000000000000034a .LASF9
     /tmp/ccoXhpV5.s:3264   .debug_str:0000000000000620 .LASF10
     /tmp/ccoXhpV5.s:3140   .debug_str:0000000000000221 .LASF11
     /tmp/ccoXhpV5.s:3222   .debug_str:0000000000000445 .LASF12
     /tmp/ccoXhpV5.s:3260   .debug_str:00000000000005f5 .LASF13
     /tmp/ccoXhpV5.s:3096   .debug_str:00000000000000eb .LASF14
     /tmp/ccoXhpV5.s:3072   .debug_str:0000000000000029 .LASF15
     /tmp/ccoXhpV5.s:3108   .debug_str:0000000000000148 .LASF16
     /tmp/ccoXhpV5.s:3238   .debug_str:00000000000004ad .LASF17
     /tmp/ccoXhpV5.s:3118   .debug_str:0000000000000188 .LASF18
     /tmp/ccoXhpV5.s:3150   .debug_str:0000000000000262 .LASF35
     /tmp/ccoXhpV5.s:3182   .debug_str:0000000000000318 .LASF20
     /tmp/ccoXhpV5.s:3234   .debug_str:000000000000049a .LASF19
     /tmp/ccoXhpV5.s:3184   .debug_str:0000000000000327 .LASF21
GAS LISTING /tmp/ccoXhpV5.s 			page 19


     /tmp/ccoXhpV5.s:3214   .debug_str:0000000000000418 .LASF22
     /tmp/ccoXhpV5.s:3288   .debug_str:00000000000006c5 .LASF23
     /tmp/ccoXhpV5.s:3168   .debug_str:00000000000002de .LASF25
     /tmp/ccoXhpV5.s:3074   .debug_str:0000000000000039 .LASF27
     /tmp/ccoXhpV5.s:3138   .debug_str:000000000000021c .LASF24
     /tmp/ccoXhpV5.s:3170   .debug_str:00000000000002e5 .LASF56
     /tmp/ccoXhpV5.s:3272   .debug_str:0000000000000668 .LASF58
     /tmp/ccoXhpV5.s:3194   .debug_str:000000000000036a .LASF103
     /tmp/ccoXhpV5.s:3252   .debug_str:0000000000000500 .LASF104
     /tmp/ccoXhpV5.s:3246   .debug_str:00000000000004e1 .LASF26
     /tmp/ccoXhpV5.s:3162   .debug_str:00000000000002a3 .LASF28
     /tmp/ccoXhpV5.s:3124   .debug_str:00000000000001aa .LASF105
     /tmp/ccoXhpV5.s:3076   .debug_str:000000000000005e .LASF29
     /tmp/ccoXhpV5.s:3290   .debug_str:00000000000006ca .LASF30
     /tmp/ccoXhpV5.s:3100   .debug_str:000000000000010f .LASF31
     /tmp/ccoXhpV5.s:3086   .debug_str:000000000000009c .LASF32
     /tmp/ccoXhpV5.s:3130   .debug_str:00000000000001d9 .LASF33
     /tmp/ccoXhpV5.s:3270   .debug_str:000000000000064d .LASF34
     /tmp/ccoXhpV5.s:3266   .debug_str:0000000000000630 .LASF37
     /tmp/ccoXhpV5.s:3250   .debug_str:00000000000004f8 .LASF106
     /tmp/ccoXhpV5.s:3230   .debug_str:000000000000047b .LASF107
     /tmp/ccoXhpV5.s:3160   .debug_str:000000000000029c .LASF36
     /tmp/ccoXhpV5.s:3156   .debug_str:000000000000027a .LASF38
     /tmp/ccoXhpV5.s:3198   .debug_str:000000000000037e .LASF39
     /tmp/ccoXhpV5.s:3286   .debug_str:00000000000006bc .LASF40
     /tmp/ccoXhpV5.s:3228   .debug_str:0000000000000472 .LASF41
     /tmp/ccoXhpV5.s:3154   .debug_str:0000000000000271 .LASF42
     /tmp/ccoXhpV5.s:3172   .debug_str:00000000000002ea .LASF43
     /tmp/ccoXhpV5.s:3176   .debug_str:00000000000002fe .LASF44
     /tmp/ccoXhpV5.s:3066   .debug_str:0000000000000009 .LASF45
     /tmp/ccoXhpV5.s:3224   .debug_str:0000000000000454 .LASF46
     /tmp/ccoXhpV5.s:3232   .debug_str:0000000000000491 .LASF47
     /tmp/ccoXhpV5.s:3284   .debug_str:00000000000006b3 .LASF48
     /tmp/ccoXhpV5.s:3216   .debug_str:000000000000041f .LASF49
     /tmp/ccoXhpV5.s:3166   .debug_str:00000000000002d7 .LASF50
     /tmp/ccoXhpV5.s:3274   .debug_str:000000000000067b .LASF108
     /tmp/ccoXhpV5.s:3208   .debug_str:00000000000003be .LASF109
     /tmp/ccoXhpV5.s:3080   .debug_str:000000000000007b .LASF51
     /tmp/ccoXhpV5.s:3064   .debug_str:0000000000000000 .LASF52
     /tmp/ccoXhpV5.s:3218   .debug_str:0000000000000428 .LASF53
     /tmp/ccoXhpV5.s:3236   .debug_str:00000000000004a2 .LASF54
     /tmp/ccoXhpV5.s:3186   .debug_str:0000000000000336 .LASF55
     /tmp/ccoXhpV5.s:3258   .debug_str:00000000000005e9 .LASF57
     /tmp/ccoXhpV5.s:3278   .debug_str:0000000000000690 .LASF59
     /tmp/ccoXhpV5.s:3204   .debug_str:000000000000039c .LASF62
     /tmp/ccoXhpV5.s:3082   .debug_str:0000000000000080 .LASF64
     /tmp/ccoXhpV5.s:3280   .debug_str:00000000000006a9 .LASF60
     /tmp/ccoXhpV5.s:3104   .debug_str:000000000000012d .LASF61
     /tmp/ccoXhpV5.s:3248   .debug_str:00000000000004e6 .LASF63
     /tmp/ccoXhpV5.s:3164   .debug_str:00000000000002b8 .LASF65
     /tmp/ccoXhpV5.s:3090   .debug_str:00000000000000cd .LASF66
     /tmp/ccoXhpV5.s:3276   .debug_str:0000000000000689 .LASF67
     /tmp/ccoXhpV5.s:3142   .debug_str:000000000000022f .LASF68
     /tmp/ccoXhpV5.s:3174   .debug_str:00000000000002f5 .LASF69
     /tmp/ccoXhpV5.s:3158   .debug_str:000000000000028f .LASF70
     /tmp/ccoXhpV5.s:3268   .debug_str:0000000000000648 .LASF71
     /tmp/ccoXhpV5.s:3220   .debug_str:000000000000043b .LASF72
GAS LISTING /tmp/ccoXhpV5.s 			page 20


     /tmp/ccoXhpV5.s:3196   .debug_str:0000000000000373 .LASF73
     /tmp/ccoXhpV5.s:3078   .debug_str:0000000000000069 .LASF74
     /tmp/ccoXhpV5.s:3262   .debug_str:0000000000000604 .LASF110
     /tmp/ccoXhpV5.s:3146   .debug_str:0000000000000242 .LASF111
     /tmp/ccoXhpV5.s:3114   .debug_str:0000000000000172 .LASF75
     /tmp/ccoXhpV5.s:3126   .debug_str:00000000000001b8 .LASF76
     /tmp/ccoXhpV5.s:3092   .debug_str:00000000000000db .LASF77
     /tmp/ccoXhpV5.s:3088   .debug_str:00000000000000b4 .LASF78
     /tmp/ccoXhpV5.s:3120   .debug_str:000000000000019e .LASF79
     /tmp/ccoXhpV5.s:3180   .debug_str:0000000000000313 .LASF80
     /tmp/ccoXhpV5.s:3106   .debug_str:000000000000013e .LASF81
     /tmp/ccoXhpV5.s:3098   .debug_str:00000000000000fb .LASF112
     /tmp/ccoXhpV5.s:528    .text:00000000000002f8 .LFB9
     /tmp/ccoXhpV5.s:551    .text:0000000000000318 .LFE9
     /tmp/ccoXhpV5.s:3282   .debug_str:00000000000006ae .LASF82
     /tmp/ccoXhpV5.s:2809   .debug_loc:0000000000000000 .LLST13
     /tmp/ccoXhpV5.s:355    .text:00000000000001e8 .LFB8
     /tmp/ccoXhpV5.s:522    .text:00000000000002f8 .LFE8
     /tmp/ccoXhpV5.s:2823   .debug_loc:0000000000000039 .LLST7
     /tmp/ccoXhpV5.s:3148   .debug_str:0000000000000256 .LASF113
     /tmp/ccoXhpV5.s:2845   .debug_loc:0000000000000098 .LLST8
     /tmp/ccoXhpV5.s:2863   .debug_loc:00000000000000e4 .LLST9
     /tmp/ccoXhpV5.s:3136   .debug_str:000000000000020a .LASF83
     /tmp/ccoXhpV5.s:2874   .debug_loc:000000000000011a .LLST10
     /tmp/ccoXhpV5.s:2889   .debug_loc:0000000000000163 .LLST11
     /tmp/ccoXhpV5.s:445    .text:0000000000000284 .LBB12
     /tmp/ccoXhpV5.s:469    .text:00000000000002a4 .LBE12
     /tmp/ccoXhpV5.s:3202   .debug_str:0000000000000394 .LASF84
     /tmp/ccoXhpV5.s:2900   .debug_loc:0000000000000199 .LLST12
     /tmp/ccoXhpV5.s:389    .text:000000000000022c .LVL31
     /tmp/ccoXhpV5.s:412    .text:0000000000000250 .LVL35
     /tmp/ccoXhpV5.s:424    .text:0000000000000268 .LVL36
     /tmp/ccoXhpV5.s:436    .text:000000000000027c .LVL38
     /tmp/ccoXhpV5.s:476    .text:00000000000002b4 .LVL42
     /tmp/ccoXhpV5.s:481    .text:00000000000002c0 .LVL43
     /tmp/ccoXhpV5.s:485    .text:00000000000002c8 .LVL44
     /tmp/ccoXhpV5.s:221    .text:000000000000011c .LFB7
     /tmp/ccoXhpV5.s:349    .text:00000000000001e8 .LFE7
     /tmp/ccoXhpV5.s:2911   .debug_loc:00000000000001cf .LLST4
     /tmp/ccoXhpV5.s:2937   .debug_loc:0000000000000241 .LLST5
     /tmp/ccoXhpV5.s:3042   .debug_ranges:0000000000000000 .Ldebug_ranges0
     /tmp/ccoXhpV5.s:2956   .debug_loc:000000000000029d .LLST6
     /tmp/ccoXhpV5.s:281    .text:0000000000000180 .LVL19
     /tmp/ccoXhpV5.s:305    .text:00000000000001a0 .LVL21
     /tmp/ccoXhpV5.s:311    .text:00000000000001b0 .LVL22
     /tmp/ccoXhpV5.s:316    .text:00000000000001bc .LVL23
     /tmp/ccoXhpV5.s:267    .text:000000000000016c .LVL17
     /tmp/ccoXhpV5.s:174    .text:00000000000000b8 .LFB6
     /tmp/ccoXhpV5.s:215    .text:000000000000011c .LFE6
     /tmp/ccoXhpV5.s:3102   .debug_str:0000000000000119 .LASF87
     /tmp/ccoXhpV5.s:201    .text:0000000000000104 .LVL11
     /tmp/ccoXhpV5.s:3144   .debug_str:000000000000023d .LASF85
     /tmp/ccoXhpV5.s:3084   .debug_str:0000000000000092 .LASF86
     /tmp/ccoXhpV5.s:3200   .debug_str:0000000000000386 .LASF88
     /tmp/ccoXhpV5.s:89     .text:0000000000000070 .LFB4
     /tmp/ccoXhpV5.s:150    .text:00000000000000b8 .LFE4
     /tmp/ccoXhpV5.s:2967   .debug_loc:00000000000002d3 .LLST1
GAS LISTING /tmp/ccoXhpV5.s 			page 21


     /tmp/ccoXhpV5.s:125    .text:0000000000000098 .LVL8
     /tmp/ccoXhpV5.s:2981   .debug_loc:000000000000030c .LLST2
     /tmp/ccoXhpV5.s:117    .text:000000000000008c .LBB5
     /tmp/ccoXhpV5.s:129    .text:000000000000009c .LBE5
     /tmp/ccoXhpV5.s:2996   .debug_loc:0000000000000355 .LLST3
     /tmp/ccoXhpV5.s:3188   .debug_str:000000000000033c .LASF89
     /tmp/ccoXhpV5.s:21     .text:0000000000000000 .LFB1
     /tmp/ccoXhpV5.s:81     .text:0000000000000070 .LFE1
     /tmp/ccoXhpV5.s:3007   .debug_loc:000000000000038b .LLST0
     /tmp/ccoXhpV5.s:77     .text:000000000000006c .LVL4
     /tmp/ccoXhpV5.s:3116   .debug_str:000000000000017a .LASF90
     /tmp/ccoXhpV5.s:3068   .debug_str:0000000000000011 .LASF92
     /tmp/ccoXhpV5.s:3134   .debug_str:0000000000000201 .LASF91
     /tmp/ccoXhpV5.s:3244   .debug_str:00000000000004dc .LASF93
     /tmp/ccoXhpV5.s:3226   .debug_str:000000000000045d .LASF94
     /tmp/ccoXhpV5.s:3110   .debug_str:0000000000000154 .LASF95
     /tmp/ccoXhpV5.s:3112   .debug_str:0000000000000164 .LASF96
     /tmp/ccoXhpV5.s:3128   .debug_str:00000000000001d0 .LASF97
     /tmp/ccoXhpV5.s:3132   .debug_str:00000000000001e5 .LASF98
     /tmp/ccoXhpV5.s:3254   .debug_str:0000000000000517 .LASF99
     /tmp/ccoXhpV5.s:531    .text:00000000000002f8 .LVL50
     /tmp/ccoXhpV5.s:541    .text:0000000000000308 .LVL51
     /tmp/ccoXhpV5.s:358    .text:00000000000001e8 .LVL28
     /tmp/ccoXhpV5.s:387    .text:0000000000000224 .LVL30
     /tmp/ccoXhpV5.s:505    .text:00000000000002e4 .LVL47
     /tmp/ccoXhpV5.s:512    .text:00000000000002f0 .LVL49
     /tmp/ccoXhpV5.s:383    .text:0000000000000220 .LVL29
     /tmp/ccoXhpV5.s:508    .text:00000000000002e8 .LVL48
     /tmp/ccoXhpV5.s:391    .text:0000000000000230 .LVL32
     /tmp/ccoXhpV5.s:410    .text:0000000000000248 .LVL34
     /tmp/ccoXhpV5.s:502    .text:00000000000002e0 .LVL46
     /tmp/ccoXhpV5.s:406    .text:0000000000000244 .LVL33
     /tmp/ccoXhpV5.s:497    .text:00000000000002d8 .LVL45
     /tmp/ccoXhpV5.s:444    .text:0000000000000284 .LVL39
     /tmp/ccoXhpV5.s:451    .text:000000000000028c .LVL40
     /tmp/ccoXhpV5.s:467    .text:00000000000002a4 .LVL41
     /tmp/ccoXhpV5.s:224    .text:000000000000011c .LVL12
     /tmp/ccoXhpV5.s:248    .text:000000000000014c .LVL13
     /tmp/ccoXhpV5.s:260    .text:0000000000000160 .LVL15
     /tmp/ccoXhpV5.s:265    .text:0000000000000164 .LVL16
     /tmp/ccoXhpV5.s:342    .text:00000000000001dc .LVL27
     /tmp/ccoXhpV5.s:258    .text:000000000000015c .LVL14
     /tmp/ccoXhpV5.s:269    .text:0000000000000170 .LVL18
     /tmp/ccoXhpV5.s:285    .text:0000000000000184 .LVL20
     /tmp/ccoXhpV5.s:339    .text:00000000000001d8 .LVL26
     /tmp/ccoXhpV5.s:320    .text:00000000000001c0 .LVL24
     /tmp/ccoXhpV5.s:327    .text:00000000000001cc .LVL25
     /tmp/ccoXhpV5.s:94     .text:0000000000000070 .LVL5
     /tmp/ccoXhpV5.s:99     .text:0000000000000074 .LVL6
     /tmp/ccoXhpV5.s:142    .text:00000000000000ac .LVL9
     /tmp/ccoXhpV5.s:121    .text:0000000000000090 .LVL7
     /tmp/ccoXhpV5.s:146    .text:00000000000000b4 .LVL10
     /tmp/ccoXhpV5.s:25     .text:0000000000000000 .LVL0
     /tmp/ccoXhpV5.s:41     .text:0000000000000024 .LVL1
     /tmp/ccoXhpV5.s:63     .text:0000000000000040 .LVL2
     /tmp/ccoXhpV5.s:67     .text:0000000000000048 .LVL3
     /tmp/ccoXhpV5.s:570    .debug_info:0000000000000000 .Ldebug_info0
GAS LISTING /tmp/ccoXhpV5.s 			page 22


     /tmp/ccoXhpV5.s:37     .text:0000000000000018 .LBB2
     /tmp/ccoXhpV5.s:53     .text:0000000000000034 .LBE2
     /tmp/ccoXhpV5.s:70     .text:0000000000000048 .LBB3
     /tmp/ccoXhpV5.s:79     .text:0000000000000070 .LBE3
     /tmp/ccoXhpV5.s:95     .text:0000000000000070 .LBB4
     /tmp/ccoXhpV5.s:103    .text:0000000000000078 .LBE4
     /tmp/ccoXhpV5.s:116    .text:000000000000008c .LBB6
     /tmp/ccoXhpV5.s:133    .text:00000000000000a0 .LBE6
     /tmp/ccoXhpV5.s:272    .text:0000000000000170 .LBB8
     /tmp/ccoXhpV5.s:287    .text:0000000000000184 .LBE8
     /tmp/ccoXhpV5.s:300    .text:0000000000000194 .LBB9
     /tmp/ccoXhpV5.s:329    .text:00000000000001cc .LBE9
     /tmp/ccoXhpV5.s:153    .gcc_except_table:0000000000000000 .LLSDA4

UNDEFINED SYMBOLS
_Z13assert_failedPKcS0_jS0_
_Z8mem_freePv
__gxx_personality_v0
_Z4putcc
_ZN7_thread11setSleepingEb
_ZN9Scheduler3putEP7_thread
_ZN7_thread13currentThreadE
_Z9mem_allocm
_Z15thread_dispatchv
