GAS LISTING /tmp/ccQMFHou.s 			page 1


   1              		.file	"timer.cpp"
   2              		.option pic
   3              		.option norelax
   4              		.text
   5              	.Ltext0:
   6              		.section	.rodata.str1.8,"aMS",@progbits,1
   7              		.align	3
   8              	.LC0:
   9 0000 54696D65 		.string	"Timer::Timer()"
   9      723A3A54 
   9      696D6572 
   9      282900
  10 000f 00       		.align	3
  11              	.LC1:
  12 0010 7372632F 		.string	"src/timer.cpp"
  12      74696D65 
  12      722E6370 
  12      7000
  13 001e 0000     		.align	3
  14              	.LC2:
  15 0020 696E7374 		.string	"instance == 0"
  15      616E6365 
  15      203D3D20 
  15      3000
  16              		.text
  17              		.align	2
  18              		.globl	_ZN5TimerC2Ev
  20              	_ZN5TimerC2Ev:
  21              	.LFB1:
  22              		.file 1 "src/timer.cpp"
   1:src/timer.cpp **** /**
   2:src/timer.cpp ****  * @file timer.cpp
   3:src/timer.cpp ****  * @author stcksmsh (vukicevickosta@gmail.com)
   4:src/timer.cpp ****  * @brief implementation of the timer class
   5:src/timer.cpp ****  * @version 0.1
   6:src/timer.cpp ****  * @date 2024-01-02
   7:src/timer.cpp ****  * 
   8:src/timer.cpp ****  * @copyright Copyright (c) 2024
   9:src/timer.cpp ****  * 
  10:src/timer.cpp ****  */
  11:src/timer.cpp **** 
  12:src/timer.cpp **** #include "timer.h"
  13:src/timer.cpp **** #include "syscalls_c.h"
  14:src/timer.cpp **** #include "sched.h"
  15:src/timer.cpp **** #include "assert.h"
  16:src/timer.cpp **** #include "console.h"
  17:src/timer.cpp **** 
  18:src/timer.cpp **** Timer* Timer::instance = 0;
  19:src/timer.cpp **** 
  20:src/timer.cpp **** Timer::Timer(){
  23              		.loc 1 20 1
  24              		.cfi_startproc
  25              	.LVL0:
  26 0000 130101FE 		addi	sp,sp,-32
  27              		.cfi_def_cfa_offset 32
  28 0004 233C1100 		sd	ra,24(sp)
  29 0008 23388100 		sd	s0,16(sp)
GAS LISTING /tmp/ccQMFHou.s 			page 2


  30 000c 23349100 		sd	s1,8(sp)
  31              		.cfi_offset 1, -8
  32              		.cfi_offset 8, -16
  33              		.cfi_offset 9, -24
  34 0010 13040102 		addi	s0,sp,32
  35              		.cfi_def_cfa 8, 0
  36 0014 93040500 		mv	s1,a0
  37              	.LBB2:
  21:src/timer.cpp ****     assert(instance == 0);
  38              		.loc 1 21 5
  39 0018 97070000 		ld	a5,.LANCHOR0
  39      83B70700 
  40 0020 63940702 		bnez	a5,.L4
  41              	.LVL1:
  42              	.L2:
  43              		.loc 1 21 26 discriminator 3
  22:src/timer.cpp ****     instance = this;
  44              		.loc 1 22 5 discriminator 3
  45              		.loc 1 22 14 is_stmt 0 discriminator 3
  46 0024 97070000 		sd	s1,.LANCHOR0,a5
  46      23B09700 
  23:src/timer.cpp ****     sleepingHead = 0;
  47              		.loc 1 23 5 is_stmt 1 discriminator 3
  48              		.loc 1 23 18 is_stmt 0 discriminator 3
  49 002c 23B00400 		sd	zero,0(s1)
  24:src/timer.cpp ****     time = 0;
  50              		.loc 1 24 5 is_stmt 1 discriminator 3
  51              		.loc 1 24 10 is_stmt 0 discriminator 3
  52 0030 23B40400 		sd	zero,8(s1)
  53              	.LBE2:
  25:src/timer.cpp **** }
  54              		.loc 1 25 1 discriminator 3
  55 0034 83308101 		ld	ra,24(sp)
  56              		.cfi_remember_state
  57              		.cfi_restore 1
  58 0038 03340101 		ld	s0,16(sp)
  59              		.cfi_restore 8
  60              		.cfi_def_cfa 2, 32
  61 003c 83348100 		ld	s1,8(sp)
  62              		.cfi_restore 9
  63              	.LVL2:
  64 0040 13010102 		addi	sp,sp,32
  65              		.cfi_def_cfa_offset 0
  66 0044 67800000 		jr	ra
  67              	.LVL3:
  68              	.L4:
  69              		.cfi_restore_state
  70              	.LBB3:
  21:src/timer.cpp ****     instance = this;
  71              		.loc 1 21 5 is_stmt 1 discriminator 1
  72 0048 97060000 		lla	a3,.LC0
  72      93860600 
  73 0050 13065001 		li	a2,21
  74 0054 97050000 		lla	a1,.LC1
  74      93850500 
  75 005c 17050000 		lla	a0,.LC2
  75      13050500 
GAS LISTING /tmp/ccQMFHou.s 			page 3


  76 0064 97000000 		call	_Z13assert_failedPKcS0_jS0_@plt
  76      E7800000 
  77              	.LVL4:
  78 006c 6FF09FFB 		j	.L2
  79              	.LBE3:
  80              		.cfi_endproc
  81              	.LFE1:
  83              		.globl	_ZN5TimerC1Ev
  84              		.set	_ZN5TimerC1Ev,_ZN5TimerC2Ev
  85              		.align	2
  86              		.globl	_ZN5TimerD2Ev
  88              	_ZN5TimerD2Ev:
  89              	.LFB4:
  26:src/timer.cpp **** 
  27:src/timer.cpp **** Timer::~Timer(){
  90              		.loc 1 27 1
  91              		.cfi_startproc
  92              		.cfi_personality 0x9b,DW.ref.__gxx_personality_v0
  93              		.cfi_lsda 0x1b,.LLSDA4
  94              	.LVL5:
  95              	.LBB4:
  28:src/timer.cpp ****     threadSleepWrapper* current = sleepingHead;
  96              		.loc 1 28 5
  97              		.loc 1 28 25 is_stmt 0
  98 0070 03350500 		ld	a0,0(a0)
  99              	.LVL6:
  29:src/timer.cpp ****     while(current != 0){
 100              		.loc 1 29 5 is_stmt 1
 101              		.loc 1 29 19
 102 0074 63000504 		beqz	a0,.L13
 103              	.LBE4:
  27:src/timer.cpp ****     threadSleepWrapper* current = sleepingHead;
 104              		.loc 1 27 1 is_stmt 0
 105 0078 130101FE 		addi	sp,sp,-32
 106              		.cfi_def_cfa_offset 32
 107 007c 233C1100 		sd	ra,24(sp)
 108 0080 23388100 		sd	s0,16(sp)
 109 0084 23349100 		sd	s1,8(sp)
 110              		.cfi_offset 1, -8
 111              		.cfi_offset 8, -16
 112              		.cfi_offset 9, -24
 113 0088 13040102 		addi	s0,sp,32
 114              		.cfi_def_cfa 8, 0
 115              	.L11:
 116              	.LBB6:
 117              	.LBB5:
  30:src/timer.cpp ****         threadSleepWrapper* next = current->next;
 118              		.loc 1 30 9 is_stmt 1
 119              		.loc 1 30 29 is_stmt 0
 120 008c 83340501 		ld	s1,16(a0)
 121              	.LVL7:
  31:src/timer.cpp ****         mem_free(current);
 122              		.loc 1 31 9 is_stmt 1
 123              		.loc 1 31 17 is_stmt 0
 124 0090 97000000 		call	_Z8mem_freePv@plt
 124      E7800000 
 125              	.LVL8:
GAS LISTING /tmp/ccQMFHou.s 			page 4


  32:src/timer.cpp ****         current = next;
 126              		.loc 1 32 9 is_stmt 1
 127              		.loc 1 32 17 is_stmt 0
 128 0098 13850400 		mv	a0,s1
 129              	.LBE5:
  29:src/timer.cpp ****         threadSleepWrapper* next = current->next;
 130              		.loc 1 29 5 is_stmt 1
  29:src/timer.cpp ****         threadSleepWrapper* next = current->next;
 131              		.loc 1 29 19
 132 009c E39804FE 		bnez	s1,.L11
 133              	.LBE6:
  33:src/timer.cpp ****     }
  34:src/timer.cpp **** }
 134              		.loc 1 34 1 is_stmt 0
 135 00a0 83308101 		ld	ra,24(sp)
 136              		.cfi_restore 1
 137 00a4 03340101 		ld	s0,16(sp)
 138              		.cfi_restore 8
 139              		.cfi_def_cfa 2, 32
 140 00a8 83348100 		ld	s1,8(sp)
 141              		.cfi_restore 9
 142              	.LVL9:
 143 00ac 13010102 		addi	sp,sp,32
 144              		.cfi_def_cfa_offset 0
 145 00b0 67800000 		jr	ra
 146              	.LVL10:
 147              	.L13:
 148 00b4 67800000 		ret
 149              		.cfi_endproc
 150              	.LFE4:
 151              		.globl	__gxx_personality_v0
 152              		.section	.gcc_except_table,"a",@progbits
 153              	.LLSDA4:
 154 0000 FF       		.byte	0xff
 155 0001 FF       		.byte	0xff
 156 0002 03       		.byte	0x3
 157 0003 00       		.byte	0
 158              		.text
 160              		.globl	_ZN5TimerD1Ev
 161              		.set	_ZN5TimerD1Ev,_ZN5TimerD2Ev
 162              		.section	.rodata.str1.8
 163 002e 0000     		.align	3
 164              	.LC3:
 165 0030 73746174 		.string	"static Timer& Timer::getInstance()"
 165      69632054 
 165      696D6572 
 165      26205469 
 165      6D65723A 
 166 0053 00000000 		.align	3
 166      00
 167              	.LC4:
 168 0058 696E7374 		.string	"instance != 0"
 168      616E6365 
 168      20213D20 
 168      3000
 169              		.text
 170              		.align	2
GAS LISTING /tmp/ccQMFHou.s 			page 5


 171              		.globl	_ZN5Timer11getInstanceEv
 173              	_ZN5Timer11getInstanceEv:
 174              	.LFB6:
  35:src/timer.cpp **** 
  36:src/timer.cpp **** Timer& Timer::getInstance(){
 175              		.loc 1 36 28 is_stmt 1
 176              		.cfi_startproc
  37:src/timer.cpp ****     assert(instance != 0);
 177              		.loc 1 37 5
 178 00b8 97070000 		ld	a5,.LANCHOR0
 178      83B70700 
 179 00c0 63880700 		beqz	a5,.L20
 180              		.loc 1 37 26
  38:src/timer.cpp ****     return *instance;
 181              		.loc 1 38 5
  39:src/timer.cpp **** }
 182              		.loc 1 39 1 is_stmt 0
 183 00c4 17050000 		ld	a0,.LANCHOR0
 183      03350500 
 184 00cc 67800000 		ret
 185              	.L20:
  36:src/timer.cpp ****     assert(instance != 0);
 186              		.loc 1 36 28 discriminator 1
 187 00d0 130101FF 		addi	sp,sp,-16
 188              		.cfi_def_cfa_offset 16
 189 00d4 23341100 		sd	ra,8(sp)
 190 00d8 23308100 		sd	s0,0(sp)
 191              		.cfi_offset 1, -8
 192              		.cfi_offset 8, -16
 193 00dc 13040101 		addi	s0,sp,16
 194              		.cfi_def_cfa 8, 0
  37:src/timer.cpp ****     return *instance;
 195              		.loc 1 37 5 is_stmt 1 discriminator 1
 196 00e0 97060000 		lla	a3,.LC3
 196      93860600 
 197 00e8 13065002 		li	a2,37
 198 00ec 97050000 		lla	a1,.LC1
 198      93850500 
 199 00f4 17050000 		lla	a0,.LC4
 199      13050500 
 200 00fc 97000000 		call	_Z13assert_failedPKcS0_jS0_@plt
 200      E7800000 
 201              	.LVL11:
  37:src/timer.cpp ****     return *instance;
 202              		.loc 1 37 26 discriminator 1
  38:src/timer.cpp **** }
 203              		.loc 1 38 5 discriminator 1
 204              		.loc 1 39 1 is_stmt 0 discriminator 1
 205 0104 17050000 		ld	a0,.LANCHOR0
 205      03350500 
 206 010c 83308100 		ld	ra,8(sp)
 207              		.cfi_restore 1
 208 0110 03340100 		ld	s0,0(sp)
 209              		.cfi_restore 8
 210              		.cfi_def_cfa 2, 16
 211 0114 13010101 		addi	sp,sp,16
 212              		.cfi_def_cfa_offset 0
GAS LISTING /tmp/ccQMFHou.s 			page 6


 213 0118 67800000 		jr	ra
 214              		.cfi_endproc
 215              	.LFE6:
 217              		.align	2
 218              		.globl	_ZN5Timer4tickEv
 220              	_ZN5Timer4tickEv:
 221              	.LFB7:
  40:src/timer.cpp **** 
  41:src/timer.cpp **** void Timer::tick(){
 222              		.loc 1 41 19 is_stmt 1
 223              		.cfi_startproc
 224              	.LVL12:
 225 011c 130101FE 		addi	sp,sp,-32
 226              		.cfi_def_cfa_offset 32
 227 0120 233C1100 		sd	ra,24(sp)
 228 0124 23388100 		sd	s0,16(sp)
 229 0128 23349100 		sd	s1,8(sp)
 230 012c 23302101 		sd	s2,0(sp)
 231              		.cfi_offset 1, -8
 232              		.cfi_offset 8, -16
 233              		.cfi_offset 9, -24
 234              		.cfi_offset 18, -32
 235 0130 13040102 		addi	s0,sp,32
 236              		.cfi_def_cfa 8, 0
 237 0134 13090500 		mv	s2,a0
  42:src/timer.cpp ****     time += 1;
 238              		.loc 1 42 5
 239              		.loc 1 42 10 is_stmt 0
 240 0138 83378500 		ld	a5,8(a0)
 241 013c 93871700 		addi	a5,a5,1
 242 0140 2334F500 		sd	a5,8(a0)
  43:src/timer.cpp ****     if(time % 10 == 0){
 243              		.loc 1 43 5 is_stmt 1
 244              		.loc 1 43 13 is_stmt 0
 245 0144 1307A000 		li	a4,10
 246 0148 B3F7E702 		remu	a5,a5,a4
 247              		.loc 1 43 5
 248 014c 63860700 		beqz	a5,.L27
 249              	.LVL13:
 250              	.L22:
  44:src/timer.cpp ****         __putc('\n');
  45:src/timer.cpp ****         __putc('t');
  46:src/timer.cpp ****         __putc('i');
  47:src/timer.cpp ****         __putc('c');
  48:src/timer.cpp ****         __putc('k');
  49:src/timer.cpp ****         __putc('\n');
  50:src/timer.cpp ****     }
  51:src/timer.cpp ****     threadSleepWrapper* current = sleepingHead;
 251              		.loc 1 51 5 is_stmt 1
 252              		.loc 1 51 25 is_stmt 0
 253 0150 83340900 		ld	s1,0(s2)
 254              	.LVL14:
 255 0154 6F008005 		j	.L23
 256              	.LVL15:
 257              	.L27:
  44:src/timer.cpp ****         __putc('\n');
 258              		.loc 1 44 9 is_stmt 1
GAS LISTING /tmp/ccQMFHou.s 			page 7


  44:src/timer.cpp ****         __putc('\n');
 259              		.loc 1 44 15 is_stmt 0
 260 0158 1305A000 		li	a0,10
 261              	.LVL16:
 262 015c 97000000 		call	__putc@plt
 262      E7800000 
 263              	.LVL17:
  45:src/timer.cpp ****         __putc('i');
 264              		.loc 1 45 9 is_stmt 1
  45:src/timer.cpp ****         __putc('i');
 265              		.loc 1 45 15 is_stmt 0
 266 0164 13054007 		li	a0,116
 267 0168 97000000 		call	__putc@plt
 267      E7800000 
 268              	.LVL18:
  46:src/timer.cpp ****         __putc('c');
 269              		.loc 1 46 9 is_stmt 1
  46:src/timer.cpp ****         __putc('c');
 270              		.loc 1 46 15 is_stmt 0
 271 0170 13059006 		li	a0,105
 272 0174 97000000 		call	__putc@plt
 272      E7800000 
 273              	.LVL19:
  47:src/timer.cpp ****         __putc('k');
 274              		.loc 1 47 9 is_stmt 1
  47:src/timer.cpp ****         __putc('k');
 275              		.loc 1 47 15 is_stmt 0
 276 017c 13053006 		li	a0,99
 277 0180 97000000 		call	__putc@plt
 277      E7800000 
 278              	.LVL20:
  48:src/timer.cpp ****         __putc('\n');
 279              		.loc 1 48 9 is_stmt 1
  48:src/timer.cpp ****         __putc('\n');
 280              		.loc 1 48 15 is_stmt 0
 281 0188 1305B006 		li	a0,107
 282 018c 97000000 		call	__putc@plt
 282      E7800000 
 283              	.LVL21:
  49:src/timer.cpp ****     }
 284              		.loc 1 49 9 is_stmt 1
  49:src/timer.cpp ****     }
 285              		.loc 1 49 15 is_stmt 0
 286 0194 1305A000 		li	a0,10
 287 0198 97000000 		call	__putc@plt
 287      E7800000 
 288              	.LVL22:
 289 01a0 6FF01FFB 		j	.L22
 290              	.LVL23:
 291              	.L28:
 292              	.LBB7:
 293              	.LBB8:
  52:src/timer.cpp ****     while(current != 0){
  53:src/timer.cpp ****         if(current->wakeUpTime <= time){
  54:src/timer.cpp ****             __putc('\n');
  55:src/timer.cpp ****             __putc('t');
  56:src/timer.cpp ****             __putc('0' + current->thread->ID);
GAS LISTING /tmp/ccQMFHou.s 			page 8


  57:src/timer.cpp ****             __putc('\n');
  58:src/timer.cpp ****             current->thread->setSleeping(false);
  59:src/timer.cpp ****             Scheduler::put(current->thread);
  60:src/timer.cpp ****             threadSleepWrapper* next = current->next;
  61:src/timer.cpp ****             if(current == sleepingHead){
  62:src/timer.cpp ****                 sleepingHead = next;
 294              		.loc 1 62 17 is_stmt 1
 295              		.loc 1 62 30 is_stmt 0
 296 01a4 2330F900 		sd	a5,0(s2)
 297              	.L25:
 298              	.LBE8:
 299              	.LBE7:
  41:src/timer.cpp ****     time += 1;
 300              		.loc 1 41 19
 301 01a8 93840700 		mv	s1,a5
 302              	.LVL24:
 303              	.L23:
  52:src/timer.cpp ****     while(current != 0){
 304              		.loc 1 52 5 is_stmt 1
  52:src/timer.cpp ****     while(current != 0){
 305              		.loc 1 52 19
 306 01ac 638C0406 		beqz	s1,.L21
  53:src/timer.cpp ****             __putc('\n');
 307              		.loc 1 53 9
 308              	.LBB10:
  53:src/timer.cpp ****             __putc('\n');
 309              		.loc 1 53 21 is_stmt 0
 310 01b0 03B78400 		ld	a4,8(s1)
  53:src/timer.cpp ****             __putc('\n');
 311              		.loc 1 53 35
 312 01b4 83378900 		ld	a5,8(s2)
  53:src/timer.cpp ****             __putc('\n');
 313              		.loc 1 53 9
 314 01b8 63E6E706 		bgtu	a4,a5,.L21
 315              	.LBB9:
  54:src/timer.cpp ****             __putc('t');
 316              		.loc 1 54 13 is_stmt 1
  54:src/timer.cpp ****             __putc('t');
 317              		.loc 1 54 19 is_stmt 0
 318 01bc 1305A000 		li	a0,10
 319 01c0 97000000 		call	__putc@plt
 319      E7800000 
 320              	.LVL25:
  55:src/timer.cpp ****             __putc('0' + current->thread->ID);
 321              		.loc 1 55 13 is_stmt 1
  55:src/timer.cpp ****             __putc('0' + current->thread->ID);
 322              		.loc 1 55 19 is_stmt 0
 323 01c8 13054007 		li	a0,116
 324 01cc 97000000 		call	__putc@plt
 324      E7800000 
 325              	.LVL26:
  56:src/timer.cpp ****             __putc('\n');
 326              		.loc 1 56 13 is_stmt 1
  56:src/timer.cpp ****             __putc('\n');
 327              		.loc 1 56 35 is_stmt 0
 328 01d4 83B70400 		ld	a5,0(s1)
  56:src/timer.cpp ****             __putc('\n');
GAS LISTING /tmp/ccQMFHou.s 			page 9


 329              		.loc 1 56 43
 330 01d8 03A50700 		lw	a0,0(a5)
  56:src/timer.cpp ****             __putc('\n');
 331              		.loc 1 56 19
 332 01dc 1B050503 		addiw	a0,a0,48
 333 01e0 1375F50F 		andi	a0,a0,0xff
 334 01e4 97000000 		call	__putc@plt
 334      E7800000 
 335              	.LVL27:
  57:src/timer.cpp ****             current->thread->setSleeping(false);
 336              		.loc 1 57 13 is_stmt 1
  57:src/timer.cpp ****             current->thread->setSleeping(false);
 337              		.loc 1 57 19 is_stmt 0
 338 01ec 1305A000 		li	a0,10
 339 01f0 97000000 		call	__putc@plt
 339      E7800000 
 340              	.LVL28:
  58:src/timer.cpp ****             Scheduler::put(current->thread);
 341              		.loc 1 58 13 is_stmt 1
  58:src/timer.cpp ****             Scheduler::put(current->thread);
 342              		.loc 1 58 41 is_stmt 0
 343 01f8 93050000 		li	a1,0
 344 01fc 03B50400 		ld	a0,0(s1)
 345 0200 97000000 		call	_ZN7_thread11setSleepingEb@plt
 345      E7800000 
 346              	.LVL29:
  59:src/timer.cpp ****             threadSleepWrapper* next = current->next;
 347              		.loc 1 59 13 is_stmt 1
  59:src/timer.cpp ****             threadSleepWrapper* next = current->next;
 348              		.loc 1 59 27 is_stmt 0
 349 0208 03B50400 		ld	a0,0(s1)
 350 020c 97000000 		call	_ZN9Scheduler3putEP7_thread@plt
 350      E7800000 
 351              	.LVL30:
  60:src/timer.cpp ****             if(current == sleepingHead){
 352              		.loc 1 60 13 is_stmt 1
  60:src/timer.cpp ****             if(current == sleepingHead){
 353              		.loc 1 60 33 is_stmt 0
 354 0214 83B70401 		ld	a5,16(s1)
 355              	.LVL31:
  61:src/timer.cpp ****                 sleepingHead = next;
 356              		.loc 1 61 13 is_stmt 1
  61:src/timer.cpp ****                 sleepingHead = next;
 357              		.loc 1 61 27 is_stmt 0
 358 0218 03370900 		ld	a4,0(s2)
  61:src/timer.cpp ****                 sleepingHead = next;
 359              		.loc 1 61 13
 360 021c E31697F8 		bne	a4,s1,.L25
 361 0220 6FF05FF8 		j	.L28
 362              	.LVL32:
 363              	.L21:
 364              	.LBE9:
 365              	.LBE10:
  63:src/timer.cpp ****             }
  64:src/timer.cpp ****             // mem_free(current);
  65:src/timer.cpp ****             current = next;
  66:src/timer.cpp ****         }else{
GAS LISTING /tmp/ccQMFHou.s 			page 10


  67:src/timer.cpp ****             break;
  68:src/timer.cpp ****         }
  69:src/timer.cpp ****     }
  70:src/timer.cpp **** }
 366              		.loc 1 70 1
 367 0224 83308101 		ld	ra,24(sp)
 368              		.cfi_restore 1
 369 0228 03340101 		ld	s0,16(sp)
 370              		.cfi_restore 8
 371              		.cfi_def_cfa 2, 32
 372 022c 83348100 		ld	s1,8(sp)
 373              		.cfi_restore 9
 374              	.LVL33:
 375 0230 03390100 		ld	s2,0(sp)
 376              		.cfi_restore 18
 377              	.LVL34:
 378 0234 13010102 		addi	sp,sp,32
 379              		.cfi_def_cfa_offset 0
 380 0238 67800000 		jr	ra
 381              		.cfi_endproc
 382              	.LFE7:
 384              		.align	2
 385              		.globl	_ZN5Timer5sleepEm
 387              	_ZN5Timer5sleepEm:
 388              	.LFB8:
  71:src/timer.cpp **** 
  72:src/timer.cpp **** int Timer::sleep(time_t timeToSleep){
 389              		.loc 1 72 37 is_stmt 1
 390              		.cfi_startproc
 391              	.LVL35:
 392 023c 130101FD 		addi	sp,sp,-48
 393              		.cfi_def_cfa_offset 48
 394 0240 23341102 		sd	ra,40(sp)
 395 0244 23308102 		sd	s0,32(sp)
 396 0248 233C9100 		sd	s1,24(sp)
 397 024c 23382101 		sd	s2,16(sp)
 398 0250 23343101 		sd	s3,8(sp)
 399              		.cfi_offset 1, -8
 400              		.cfi_offset 8, -16
 401              		.cfi_offset 9, -24
 402              		.cfi_offset 18, -32
 403              		.cfi_offset 19, -40
 404 0254 13040103 		addi	s0,sp,48
 405              		.cfi_def_cfa 8, 0
 406 0258 93040500 		mv	s1,a0
 407 025c 13890500 		mv	s2,a1
  73:src/timer.cpp ****     thread_t thread = _thread::currentThread;
 408              		.loc 1 73 5
 409              		.loc 1 73 14 is_stmt 0
 410 0260 97070000 		la	a5,_ZN7_thread13currentThreadE
 410      83B70700 
 411 0268 83B90700 		ld	s3,0(a5)
 412              	.LVL36:
  74:src/timer.cpp ****     threadSleepWrapper* newSleepingThread = (threadSleepWrapper*)mem_alloc(sizeof(threadSleepWrappe
 413              		.loc 1 74 5 is_stmt 1
 414              		.loc 1 74 75 is_stmt 0
 415 026c 13058001 		li	a0,24
GAS LISTING /tmp/ccQMFHou.s 			page 11


 416              	.LVL37:
 417 0270 97000000 		call	_Z9mem_allocm@plt
 417      E7800000 
 418              	.LVL38:
  75:src/timer.cpp ****     newSleepingThread->thread = thread;
 419              		.loc 1 75 5 is_stmt 1
 420              		.loc 1 75 31 is_stmt 0
 421 0278 23303501 		sd	s3,0(a0)
  76:src/timer.cpp ****     newSleepingThread->wakeUpTime = time + timeToSleep;
 422              		.loc 1 76 5 is_stmt 1
 423              		.loc 1 76 37 is_stmt 0
 424 027c 83B78400 		ld	a5,8(s1)
 425              		.loc 1 76 42
 426 0280 B3852701 		add	a1,a5,s2
 427              		.loc 1 76 35
 428 0284 2334B500 		sd	a1,8(a0)
  77:src/timer.cpp ****     newSleepingThread->next = 0;
 429              		.loc 1 77 5 is_stmt 1
 430              		.loc 1 77 29 is_stmt 0
 431 0288 23380500 		sd	zero,16(a0)
  78:src/timer.cpp **** 
  79:src/timer.cpp ****     if(sleepingHead == 0){
 432              		.loc 1 79 5 is_stmt 1
 433              	.LBB11:
 434              		.loc 1 79 8 is_stmt 0
 435 028c 83B70400 		ld	a5,0(s1)
 436              		.loc 1 79 5
 437 0290 638C0704 		beqz	a5,.L34
 438              	.L30:
 439              	.LVL39:
 440              	.LBB12:
  80:src/timer.cpp ****         sleepingHead = newSleepingThread;
  81:src/timer.cpp ****     }else{
  82:src/timer.cpp ****         threadSleepWrapper* current = sleepingHead;
  83:src/timer.cpp ****         while(current->next != 0 && current->next->wakeUpTime < newSleepingThread->wakeUpTime){
 441              		.loc 1 83 9 is_stmt 1
 442              		.loc 1 83 34
 443 0294 93860700 		mv	a3,a5
 444              		.loc 1 83 24 is_stmt 0
 445 0298 83B70701 		ld	a5,16(a5)
 446              	.LVL40:
 447              		.loc 1 83 34
 448 029c 63860700 		beqz	a5,.L32
 449              		.loc 1 83 52 discriminator 1
 450 02a0 03B78700 		ld	a4,8(a5)
 451              		.loc 1 83 34 discriminator 1
 452 02a4 E368B7FE 		bgtu	a1,a4,.L30
 453              	.L32:
  84:src/timer.cpp ****             current = current->next;
  85:src/timer.cpp ****         }
  86:src/timer.cpp ****         newSleepingThread->next = current->next;
 454              		.loc 1 86 9 is_stmt 1
 455              		.loc 1 86 33 is_stmt 0
 456 02a8 2338F500 		sd	a5,16(a0)
  87:src/timer.cpp ****         current->next = newSleepingThread;
 457              		.loc 1 87 9 is_stmt 1
 458              		.loc 1 87 23 is_stmt 0
GAS LISTING /tmp/ccQMFHou.s 			page 12


 459 02ac 23B8A600 		sd	a0,16(a3)
 460              	.LVL41:
 461              	.L31:
 462              	.LBE12:
 463              	.LBE11:
  88:src/timer.cpp ****     }
  89:src/timer.cpp ****     thread->setSleeping(true);
 464              		.loc 1 89 5 is_stmt 1
 465              		.loc 1 89 24 is_stmt 0
 466 02b0 93051000 		li	a1,1
 467 02b4 13850900 		mv	a0,s3
 468              	.LVL42:
 469 02b8 97000000 		call	_ZN7_thread11setSleepingEb@plt
 469      E7800000 
 470              	.LVL43:
  90:src/timer.cpp ****     thread_dispatch();
 471              		.loc 1 90 5 is_stmt 1
 472              		.loc 1 90 20 is_stmt 0
 473 02c0 97000000 		call	_Z15thread_dispatchv@plt
 473      E7800000 
 474              	.LVL44:
  91:src/timer.cpp ****     return 0;
 475              		.loc 1 91 5 is_stmt 1
  92:src/timer.cpp **** }
 476              		.loc 1 92 1 is_stmt 0
 477 02c8 13050000 		li	a0,0
 478 02cc 83308102 		ld	ra,40(sp)
 479              		.cfi_remember_state
 480              		.cfi_restore 1
 481 02d0 03340102 		ld	s0,32(sp)
 482              		.cfi_restore 8
 483              		.cfi_def_cfa 2, 48
 484 02d4 83348101 		ld	s1,24(sp)
 485              		.cfi_restore 9
 486              	.LVL45:
 487 02d8 03390101 		ld	s2,16(sp)
 488              		.cfi_restore 18
 489              	.LVL46:
 490 02dc 83398100 		ld	s3,8(sp)
 491              		.cfi_restore 19
 492              	.LVL47:
 493 02e0 13010103 		addi	sp,sp,48
 494              		.cfi_def_cfa_offset 0
 495 02e4 67800000 		jr	ra
 496              	.LVL48:
 497              	.L34:
 498              		.cfi_restore_state
 499              	.LBB13:
  80:src/timer.cpp ****     }else{
 500              		.loc 1 80 9 is_stmt 1
  80:src/timer.cpp ****     }else{
 501              		.loc 1 80 22 is_stmt 0
 502 02e8 23B0A400 		sd	a0,0(s1)
 503 02ec 6FF05FFC 		j	.L31
 504              	.LBE13:
 505              		.cfi_endproc
 506              	.LFE8:
GAS LISTING /tmp/ccQMFHou.s 			page 13


 508              		.align	2
 509              		.globl	_ZN5Timer17noSleepingThreadsEv
 511              	_ZN5Timer17noSleepingThreadsEv:
 512              	.LFB9:
  93:src/timer.cpp **** 
  94:src/timer.cpp **** bool Timer::noSleepingThreads(){
 513              		.loc 1 94 32 is_stmt 1
 514              		.cfi_startproc
 515              	.LVL49:
 516 02f0 130101FF 		addi	sp,sp,-16
 517              		.cfi_def_cfa_offset 16
 518 02f4 23348100 		sd	s0,8(sp)
 519              		.cfi_offset 8, -8
 520 02f8 13040101 		addi	s0,sp,16
 521              		.cfi_def_cfa 8, 0
  95:src/timer.cpp ****     return sleepingHead == 0;
 522              		.loc 1 95 5
 523              		.loc 1 95 12 is_stmt 0
 524 02fc 03350500 		ld	a0,0(a0)
 525              	.LVL50:
  96:src/timer.cpp **** }...
 526              		.loc 1 96 1
 527 0300 13351500 		seqz	a0,a0
 528 0304 03348100 		ld	s0,8(sp)
 529              		.cfi_restore 8
 530              		.cfi_def_cfa 2, 16
 531 0308 13010101 		addi	sp,sp,16
 532              		.cfi_def_cfa_offset 0
 533 030c 67800000 		jr	ra
 534              		.cfi_endproc
 535              	.LFE9:
 537              		.globl	_ZN5Timer8instanceE
 538              		.bss
 539              		.align	3
 540              		.set	.LANCHOR0,. + 0
 543              	_ZN5Timer8instanceE:
 544 0000 00000000 		.zero	8
 544      00000000 
 545              		.text
 546              	.Letext0:
 547              		.file 2 "./lib/hw.h"
 548              		.file 3 "./h/thread.h"
 549              		.file 4 "./h/timer.h"
 550              		.file 5 "./h/sched.h"
 551              		.file 6 "./h/syscalls_c.h"
 552              		.file 7 "./lib/console.h"
 553              		.file 8 "./h/assert.h"
 3264              		.align	3
 3267              	DW.ref.__gxx_personality_v0:
 3268 0000 00000000 		.dword	__gxx_personality_v0
 3268      00000000 
 3269              		.ident	"GCC: (Ubuntu 9.4.0-1ubuntu1~20.04) 9.4.0"
 3270              		.section	.note.GNU-stack,"",@progbits
GAS LISTING /tmp/ccQMFHou.s 			page 14


DEFINED SYMBOLS
                            *ABS*:0000000000000000 timer.cpp
     /tmp/ccQMFHou.s:20     .text:0000000000000000 _ZN5TimerC2Ev
     /tmp/ccQMFHou.s:24     .text:0000000000000000 .L0 
     /tmp/ccQMFHou.s:26     .text:0000000000000000 .L0 
     /tmp/ccQMFHou.s:27     .text:0000000000000004 .L0 
     /tmp/ccQMFHou.s:31     .text:0000000000000010 .L0 
     /tmp/ccQMFHou.s:32     .text:0000000000000010 .L0 
     /tmp/ccQMFHou.s:33     .text:0000000000000010 .L0 
     /tmp/ccQMFHou.s:35     .text:0000000000000014 .L0 
     /tmp/ccQMFHou.s:39     .text:0000000000000018 .L0 
     /tmp/ccQMFHou.s:44     .text:0000000000000024 .L0 
     /tmp/ccQMFHou.s:45     .text:0000000000000024 .L0 
     /tmp/ccQMFHou.s:46     .text:0000000000000024 .L0 
     /tmp/ccQMFHou.s:48     .text:000000000000002c .L0 
     /tmp/ccQMFHou.s:49     .text:000000000000002c .L0 
     /tmp/ccQMFHou.s:51     .text:0000000000000030 .L0 
     /tmp/ccQMFHou.s:52     .text:0000000000000030 .L0 
     /tmp/ccQMFHou.s:55     .text:0000000000000034 .L0 
     /tmp/ccQMFHou.s:56     .text:0000000000000038 .L0 
     /tmp/ccQMFHou.s:57     .text:0000000000000038 .L0 
     /tmp/ccQMFHou.s:59     .text:000000000000003c .L0 
     /tmp/ccQMFHou.s:60     .text:000000000000003c .L0 
     /tmp/ccQMFHou.s:62     .text:0000000000000040 .L0 
     /tmp/ccQMFHou.s:65     .text:0000000000000044 .L0 
     /tmp/ccQMFHou.s:69     .text:0000000000000048 .L0 
     /tmp/ccQMFHou.s:72     .text:0000000000000048 .L0 
     /tmp/ccQMFHou.s:80     .text:0000000000000070 .L0 
     /tmp/ccQMFHou.s:20     .text:0000000000000000 _ZN5TimerC1Ev
     /tmp/ccQMFHou.s:88     .text:0000000000000070 _ZN5TimerD2Ev
     /tmp/ccQMFHou.s:91     .text:0000000000000070 .L0 
     /tmp/ccQMFHou.s:3267   .data.rel.local.DW.ref.__gxx_personality_v0:0000000000000000 DW.ref.__gxx_personality_v0
     /tmp/ccQMFHou.s:96     .text:0000000000000070 .L0 
     /tmp/ccQMFHou.s:97     .text:0000000000000070 .L0 
     /tmp/ccQMFHou.s:98     .text:0000000000000070 .L0 
     /tmp/ccQMFHou.s:101    .text:0000000000000074 .L0 
     /tmp/ccQMFHou.s:102    .text:0000000000000074 .L0 
     /tmp/ccQMFHou.s:105    .text:0000000000000078 .L0 
     /tmp/ccQMFHou.s:106    .text:000000000000007c .L0 
     /tmp/ccQMFHou.s:110    .text:0000000000000088 .L0 
     /tmp/ccQMFHou.s:111    .text:0000000000000088 .L0 
     /tmp/ccQMFHou.s:112    .text:0000000000000088 .L0 
     /tmp/ccQMFHou.s:114    .text:000000000000008c .L0 
     /tmp/ccQMFHou.s:119    .text:000000000000008c .L0 
     /tmp/ccQMFHou.s:120    .text:000000000000008c .L0 
     /tmp/ccQMFHou.s:123    .text:0000000000000090 .L0 
     /tmp/ccQMFHou.s:124    .text:0000000000000090 .L0 
     /tmp/ccQMFHou.s:127    .text:0000000000000098 .L0 
     /tmp/ccQMFHou.s:128    .text:0000000000000098 .L0 
     /tmp/ccQMFHou.s:131    .text:000000000000009c .L0 
     /tmp/ccQMFHou.s:132    .text:000000000000009c .L0 
     /tmp/ccQMFHou.s:135    .text:00000000000000a0 .L0 
     /tmp/ccQMFHou.s:136    .text:00000000000000a4 .L0 
     /tmp/ccQMFHou.s:138    .text:00000000000000a8 .L0 
     /tmp/ccQMFHou.s:139    .text:00000000000000a8 .L0 
     /tmp/ccQMFHou.s:141    .text:00000000000000ac .L0 
     /tmp/ccQMFHou.s:144    .text:00000000000000b0 .L0 
GAS LISTING /tmp/ccQMFHou.s 			page 15


     /tmp/ccQMFHou.s:149    .text:00000000000000b8 .L0 
     /tmp/ccQMFHou.s:88     .text:0000000000000070 _ZN5TimerD1Ev
     /tmp/ccQMFHou.s:173    .text:00000000000000b8 _ZN5Timer11getInstanceEv
     /tmp/ccQMFHou.s:176    .text:00000000000000b8 .L0 
     /tmp/ccQMFHou.s:177    .text:00000000000000b8 .L0 
     /tmp/ccQMFHou.s:178    .text:00000000000000b8 .L0 
     /tmp/ccQMFHou.s:181    .text:00000000000000c4 .L0 
     /tmp/ccQMFHou.s:182    .text:00000000000000c4 .L0 
     /tmp/ccQMFHou.s:183    .text:00000000000000c4 .L0 
     /tmp/ccQMFHou.s:187    .text:00000000000000d0 .L0 
     /tmp/ccQMFHou.s:188    .text:00000000000000d4 .L0 
     /tmp/ccQMFHou.s:191    .text:00000000000000dc .L0 
     /tmp/ccQMFHou.s:192    .text:00000000000000dc .L0 
     /tmp/ccQMFHou.s:194    .text:00000000000000e0 .L0 
     /tmp/ccQMFHou.s:196    .text:00000000000000e0 .L0 
     /tmp/ccQMFHou.s:203    .text:0000000000000104 .L0 
     /tmp/ccQMFHou.s:204    .text:0000000000000104 .L0 
     /tmp/ccQMFHou.s:205    .text:0000000000000104 .L0 
     /tmp/ccQMFHou.s:207    .text:0000000000000110 .L0 
     /tmp/ccQMFHou.s:209    .text:0000000000000114 .L0 
     /tmp/ccQMFHou.s:210    .text:0000000000000114 .L0 
     /tmp/ccQMFHou.s:212    .text:0000000000000118 .L0 
     /tmp/ccQMFHou.s:214    .text:000000000000011c .L0 
     /tmp/ccQMFHou.s:220    .text:000000000000011c _ZN5Timer4tickEv
     /tmp/ccQMFHou.s:223    .text:000000000000011c .L0 
     /tmp/ccQMFHou.s:225    .text:000000000000011c .L0 
     /tmp/ccQMFHou.s:226    .text:0000000000000120 .L0 
     /tmp/ccQMFHou.s:231    .text:0000000000000130 .L0 
     /tmp/ccQMFHou.s:232    .text:0000000000000130 .L0 
     /tmp/ccQMFHou.s:233    .text:0000000000000130 .L0 
     /tmp/ccQMFHou.s:234    .text:0000000000000130 .L0 
     /tmp/ccQMFHou.s:236    .text:0000000000000134 .L0 
     /tmp/ccQMFHou.s:239    .text:0000000000000138 .L0 
     /tmp/ccQMFHou.s:240    .text:0000000000000138 .L0 
     /tmp/ccQMFHou.s:244    .text:0000000000000144 .L0 
     /tmp/ccQMFHou.s:245    .text:0000000000000144 .L0 
     /tmp/ccQMFHou.s:248    .text:000000000000014c .L0 
     /tmp/ccQMFHou.s:252    .text:0000000000000150 .L0 
     /tmp/ccQMFHou.s:253    .text:0000000000000150 .L0 
     /tmp/ccQMFHou.s:259    .text:0000000000000158 .L0 
     /tmp/ccQMFHou.s:260    .text:0000000000000158 .L0 
     /tmp/ccQMFHou.s:265    .text:0000000000000164 .L0 
     /tmp/ccQMFHou.s:266    .text:0000000000000164 .L0 
     /tmp/ccQMFHou.s:270    .text:0000000000000170 .L0 
     /tmp/ccQMFHou.s:271    .text:0000000000000170 .L0 
     /tmp/ccQMFHou.s:275    .text:000000000000017c .L0 
     /tmp/ccQMFHou.s:276    .text:000000000000017c .L0 
     /tmp/ccQMFHou.s:280    .text:0000000000000188 .L0 
     /tmp/ccQMFHou.s:281    .text:0000000000000188 .L0 
     /tmp/ccQMFHou.s:285    .text:0000000000000194 .L0 
     /tmp/ccQMFHou.s:286    .text:0000000000000194 .L0 
     /tmp/ccQMFHou.s:295    .text:00000000000001a4 .L0 
     /tmp/ccQMFHou.s:296    .text:00000000000001a4 .L0 
     /tmp/ccQMFHou.s:301    .text:00000000000001a8 .L0 
     /tmp/ccQMFHou.s:305    .text:00000000000001ac .L0 
     /tmp/ccQMFHou.s:306    .text:00000000000001ac .L0 
     /tmp/ccQMFHou.s:309    .text:00000000000001b0 .L0 
GAS LISTING /tmp/ccQMFHou.s 			page 16


     /tmp/ccQMFHou.s:310    .text:00000000000001b0 .L0 
     /tmp/ccQMFHou.s:312    .text:00000000000001b4 .L0 
     /tmp/ccQMFHou.s:314    .text:00000000000001b8 .L0 
     /tmp/ccQMFHou.s:317    .text:00000000000001bc .L0 
     /tmp/ccQMFHou.s:318    .text:00000000000001bc .L0 
     /tmp/ccQMFHou.s:322    .text:00000000000001c8 .L0 
     /tmp/ccQMFHou.s:323    .text:00000000000001c8 .L0 
     /tmp/ccQMFHou.s:327    .text:00000000000001d4 .L0 
     /tmp/ccQMFHou.s:328    .text:00000000000001d4 .L0 
     /tmp/ccQMFHou.s:330    .text:00000000000001d8 .L0 
     /tmp/ccQMFHou.s:332    .text:00000000000001dc .L0 
     /tmp/ccQMFHou.s:337    .text:00000000000001ec .L0 
     /tmp/ccQMFHou.s:338    .text:00000000000001ec .L0 
     /tmp/ccQMFHou.s:342    .text:00000000000001f8 .L0 
     /tmp/ccQMFHou.s:343    .text:00000000000001f8 .L0 
     /tmp/ccQMFHou.s:348    .text:0000000000000208 .L0 
     /tmp/ccQMFHou.s:349    .text:0000000000000208 .L0 
     /tmp/ccQMFHou.s:353    .text:0000000000000214 .L0 
     /tmp/ccQMFHou.s:354    .text:0000000000000214 .L0 
     /tmp/ccQMFHou.s:357    .text:0000000000000218 .L0 
     /tmp/ccQMFHou.s:358    .text:0000000000000218 .L0 
     /tmp/ccQMFHou.s:360    .text:000000000000021c .L0 
     /tmp/ccQMFHou.s:367    .text:0000000000000224 .L0 
     /tmp/ccQMFHou.s:368    .text:0000000000000228 .L0 
     /tmp/ccQMFHou.s:370    .text:000000000000022c .L0 
     /tmp/ccQMFHou.s:371    .text:000000000000022c .L0 
     /tmp/ccQMFHou.s:373    .text:0000000000000230 .L0 
     /tmp/ccQMFHou.s:376    .text:0000000000000234 .L0 
     /tmp/ccQMFHou.s:379    .text:0000000000000238 .L0 
     /tmp/ccQMFHou.s:381    .text:000000000000023c .L0 
     /tmp/ccQMFHou.s:387    .text:000000000000023c _ZN5Timer5sleepEm
     /tmp/ccQMFHou.s:390    .text:000000000000023c .L0 
     /tmp/ccQMFHou.s:392    .text:000000000000023c .L0 
     /tmp/ccQMFHou.s:393    .text:0000000000000240 .L0 
     /tmp/ccQMFHou.s:399    .text:0000000000000254 .L0 
     /tmp/ccQMFHou.s:400    .text:0000000000000254 .L0 
     /tmp/ccQMFHou.s:401    .text:0000000000000254 .L0 
     /tmp/ccQMFHou.s:402    .text:0000000000000254 .L0 
     /tmp/ccQMFHou.s:403    .text:0000000000000254 .L0 
     /tmp/ccQMFHou.s:405    .text:0000000000000258 .L0 
     /tmp/ccQMFHou.s:409    .text:0000000000000260 .L0 
     /tmp/ccQMFHou.s:410    .text:0000000000000260 .L0 
     /tmp/ccQMFHou.s:414    .text:000000000000026c .L0 
     /tmp/ccQMFHou.s:415    .text:000000000000026c .L0 
     /tmp/ccQMFHou.s:420    .text:0000000000000278 .L0 
     /tmp/ccQMFHou.s:421    .text:0000000000000278 .L0 
     /tmp/ccQMFHou.s:423    .text:000000000000027c .L0 
     /tmp/ccQMFHou.s:424    .text:000000000000027c .L0 
     /tmp/ccQMFHou.s:426    .text:0000000000000280 .L0 
     /tmp/ccQMFHou.s:428    .text:0000000000000284 .L0 
     /tmp/ccQMFHou.s:430    .text:0000000000000288 .L0 
     /tmp/ccQMFHou.s:431    .text:0000000000000288 .L0 
     /tmp/ccQMFHou.s:434    .text:000000000000028c .L0 
     /tmp/ccQMFHou.s:435    .text:000000000000028c .L0 
     /tmp/ccQMFHou.s:437    .text:0000000000000290 .L0 
     /tmp/ccQMFHou.s:442    .text:0000000000000294 .L0 
     /tmp/ccQMFHou.s:443    .text:0000000000000294 .L0 
GAS LISTING /tmp/ccQMFHou.s 			page 17


     /tmp/ccQMFHou.s:445    .text:0000000000000298 .L0 
     /tmp/ccQMFHou.s:448    .text:000000000000029c .L0 
     /tmp/ccQMFHou.s:450    .text:00000000000002a0 .L0 
     /tmp/ccQMFHou.s:452    .text:00000000000002a4 .L0 
     /tmp/ccQMFHou.s:455    .text:00000000000002a8 .L0 
     /tmp/ccQMFHou.s:456    .text:00000000000002a8 .L0 
     /tmp/ccQMFHou.s:458    .text:00000000000002ac .L0 
     /tmp/ccQMFHou.s:459    .text:00000000000002ac .L0 
     /tmp/ccQMFHou.s:465    .text:00000000000002b0 .L0 
     /tmp/ccQMFHou.s:466    .text:00000000000002b0 .L0 
     /tmp/ccQMFHou.s:472    .text:00000000000002c0 .L0 
     /tmp/ccQMFHou.s:473    .text:00000000000002c0 .L0 
     /tmp/ccQMFHou.s:476    .text:00000000000002c8 .L0 
     /tmp/ccQMFHou.s:477    .text:00000000000002c8 .L0 
     /tmp/ccQMFHou.s:479    .text:00000000000002d0 .L0 
     /tmp/ccQMFHou.s:480    .text:00000000000002d0 .L0 
     /tmp/ccQMFHou.s:482    .text:00000000000002d4 .L0 
     /tmp/ccQMFHou.s:483    .text:00000000000002d4 .L0 
     /tmp/ccQMFHou.s:485    .text:00000000000002d8 .L0 
     /tmp/ccQMFHou.s:488    .text:00000000000002dc .L0 
     /tmp/ccQMFHou.s:491    .text:00000000000002e0 .L0 
     /tmp/ccQMFHou.s:494    .text:00000000000002e4 .L0 
     /tmp/ccQMFHou.s:498    .text:00000000000002e8 .L0 
     /tmp/ccQMFHou.s:501    .text:00000000000002e8 .L0 
     /tmp/ccQMFHou.s:502    .text:00000000000002e8 .L0 
     /tmp/ccQMFHou.s:505    .text:00000000000002f0 .L0 
     /tmp/ccQMFHou.s:511    .text:00000000000002f0 _ZN5Timer17noSleepingThreadsEv
     /tmp/ccQMFHou.s:514    .text:00000000000002f0 .L0 
     /tmp/ccQMFHou.s:516    .text:00000000000002f0 .L0 
     /tmp/ccQMFHou.s:517    .text:00000000000002f4 .L0 
     /tmp/ccQMFHou.s:519    .text:00000000000002f8 .L0 
     /tmp/ccQMFHou.s:521    .text:00000000000002fc .L0 
     /tmp/ccQMFHou.s:523    .text:00000000000002fc .L0 
     /tmp/ccQMFHou.s:524    .text:00000000000002fc .L0 
     /tmp/ccQMFHou.s:527    .text:0000000000000300 .L0 
     /tmp/ccQMFHou.s:529    .text:0000000000000308 .L0 
     /tmp/ccQMFHou.s:530    .text:0000000000000308 .L0 
     /tmp/ccQMFHou.s:532    .text:000000000000030c .L0 
     /tmp/ccQMFHou.s:534    .text:0000000000000310 .L0 
     /tmp/ccQMFHou.s:543    .bss:0000000000000000 _ZN5Timer8instanceE
     /tmp/ccQMFHou.s:540    .bss:0000000000000000 .LANCHOR0
     /tmp/ccQMFHou.s:554    .text:0000000000000310 .L0 
     /tmp/ccQMFHou.s:39     .text:0000000000000018 .L0 
     /tmp/ccQMFHou.s:46     .text:0000000000000024 .L0 
     /tmp/ccQMFHou.s:8      .rodata.str1.8:0000000000000000 .LC0
     /tmp/ccQMFHou.s:72     .text:0000000000000048 .L0 
     /tmp/ccQMFHou.s:11     .rodata.str1.8:0000000000000010 .LC1
     /tmp/ccQMFHou.s:74     .text:0000000000000054 .L0 
     /tmp/ccQMFHou.s:14     .rodata.str1.8:0000000000000020 .LC2
     /tmp/ccQMFHou.s:75     .text:000000000000005c .L0 
     /tmp/ccQMFHou.s:178    .text:00000000000000b8 .L0 
     /tmp/ccQMFHou.s:183    .text:00000000000000c4 .L0 
     /tmp/ccQMFHou.s:164    .rodata.str1.8:0000000000000030 .LC3
     /tmp/ccQMFHou.s:196    .text:00000000000000e0 .L0 
     /tmp/ccQMFHou.s:198    .text:00000000000000ec .L0 
     /tmp/ccQMFHou.s:167    .rodata.str1.8:0000000000000058 .LC4
     /tmp/ccQMFHou.s:199    .text:00000000000000f4 .L0 
GAS LISTING /tmp/ccQMFHou.s 			page 18


     /tmp/ccQMFHou.s:205    .text:0000000000000104 .L0 
     /tmp/ccQMFHou.s:410    .text:0000000000000260 .L0 
     /tmp/ccQMFHou.s:68     .text:0000000000000048 .L4
     /tmp/ccQMFHou.s:42     .text:0000000000000024 .L2
     /tmp/ccQMFHou.s:147    .text:00000000000000b4 .L13
     /tmp/ccQMFHou.s:115    .text:000000000000008c .L11
     /tmp/ccQMFHou.s:185    .text:00000000000000d0 .L20
     /tmp/ccQMFHou.s:257    .text:0000000000000158 .L27
     /tmp/ccQMFHou.s:303    .text:00000000000001ac .L23
     /tmp/ccQMFHou.s:250    .text:0000000000000150 .L22
     /tmp/ccQMFHou.s:363    .text:0000000000000224 .L21
     /tmp/ccQMFHou.s:297    .text:00000000000001a8 .L25
     /tmp/ccQMFHou.s:291    .text:00000000000001a4 .L28
     /tmp/ccQMFHou.s:497    .text:00000000000002e8 .L34
     /tmp/ccQMFHou.s:453    .text:00000000000002a8 .L32
     /tmp/ccQMFHou.s:438    .text:0000000000000294 .L30
     /tmp/ccQMFHou.s:461    .text:00000000000002b0 .L31
     /tmp/ccQMFHou.s:1865   .debug_abbrev:0000000000000000 .Ldebug_abbrev0
     /tmp/ccQMFHou.s:3225   .debug_str:0000000000000525 .LASF100
     /tmp/ccQMFHou.s:3039   .debug_str:000000000000001b .LASF101
     /tmp/ccQMFHou.s:3175   .debug_str:00000000000003a0 .LASF102
     /tmp/ccQMFHou.s:5      .text:0000000000000000 .Ltext0
     /tmp/ccQMFHou.s:546    .text:0000000000000310 .Letext0
     /tmp/ccQMFHou.s:3031   .debug_line:0000000000000000 .Ldebug_line0
     /tmp/ccQMFHou.s:3161   .debug_str:000000000000035b .LASF0
     /tmp/ccQMFHou.s:3179   .debug_str:00000000000003f0 .LASF1
     /tmp/ccQMFHou.s:3147   .debug_str:0000000000000303 .LASF2
     /tmp/ccQMFHou.s:3209   .debug_str:00000000000004c1 .LASF3
     /tmp/ccQMFHou.s:3121   .debug_str:0000000000000268 .LASF4
     /tmp/ccQMFHou.s:3211   .debug_str:00000000000004c8 .LASF5
     /tmp/ccQMFHou.s:3063   .debug_str:00000000000000e4 .LASF6
     /tmp/ccQMFHou.s:3093   .debug_str:00000000000001aa .LASF7
     /tmp/ccQMFHou.s:3181   .debug_str:0000000000000403 .LASF8
     /tmp/ccQMFHou.s:3159   .debug_str:0000000000000348 .LASF9
     /tmp/ccQMFHou.s:3233   .debug_str:0000000000000620 .LASF10
     /tmp/ccQMFHou.s:3109   .debug_str:000000000000021f .LASF11
     /tmp/ccQMFHou.s:3191   .debug_str:0000000000000443 .LASF12
     /tmp/ccQMFHou.s:3229   .debug_str:00000000000005f5 .LASF13
     /tmp/ccQMFHou.s:3065   .debug_str:00000000000000eb .LASF14
     /tmp/ccQMFHou.s:3041   .debug_str:0000000000000029 .LASF15
     /tmp/ccQMFHou.s:3077   .debug_str:0000000000000148 .LASF16
     /tmp/ccQMFHou.s:3207   .debug_str:00000000000004ab .LASF17
     /tmp/ccQMFHou.s:3087   .debug_str:0000000000000188 .LASF18
     /tmp/ccQMFHou.s:3119   .debug_str:0000000000000260 .LASF35
     /tmp/ccQMFHou.s:3151   .debug_str:0000000000000316 .LASF20
     /tmp/ccQMFHou.s:3203   .debug_str:0000000000000498 .LASF19
     /tmp/ccQMFHou.s:3153   .debug_str:0000000000000325 .LASF21
     /tmp/ccQMFHou.s:3183   .debug_str:0000000000000416 .LASF22
     /tmp/ccQMFHou.s:3257   .debug_str:00000000000006c5 .LASF23
     /tmp/ccQMFHou.s:3137   .debug_str:00000000000002dc .LASF25
     /tmp/ccQMFHou.s:3043   .debug_str:0000000000000039 .LASF27
     /tmp/ccQMFHou.s:3107   .debug_str:000000000000021a .LASF24
     /tmp/ccQMFHou.s:3139   .debug_str:00000000000002e3 .LASF57
     /tmp/ccQMFHou.s:3241   .debug_str:0000000000000668 .LASF59
     /tmp/ccQMFHou.s:3163   .debug_str:0000000000000368 .LASF103
     /tmp/ccQMFHou.s:3221   .debug_str:0000000000000500 .LASF104
     /tmp/ccQMFHou.s:3213   .debug_str:00000000000004da .LASF26
GAS LISTING /tmp/ccQMFHou.s 			page 19


     /tmp/ccQMFHou.s:3131   .debug_str:00000000000002a1 .LASF28
     /tmp/ccQMFHou.s:3095   .debug_str:00000000000001b1 .LASF105
     /tmp/ccQMFHou.s:3045   .debug_str:000000000000005e .LASF29
     /tmp/ccQMFHou.s:3259   .debug_str:00000000000006ca .LASF30
     /tmp/ccQMFHou.s:3069   .debug_str:000000000000010f .LASF31
     /tmp/ccQMFHou.s:3055   .debug_str:000000000000009c .LASF32
     /tmp/ccQMFHou.s:3101   .debug_str:00000000000001e0 .LASF33
     /tmp/ccQMFHou.s:3239   .debug_str:000000000000064d .LASF34
     /tmp/ccQMFHou.s:3235   .debug_str:0000000000000630 .LASF37
     /tmp/ccQMFHou.s:3217   .debug_str:00000000000004f1 .LASF106
     /tmp/ccQMFHou.s:3199   .debug_str:0000000000000479 .LASF107
     /tmp/ccQMFHou.s:3129   .debug_str:000000000000029a .LASF36
     /tmp/ccQMFHou.s:3125   .debug_str:0000000000000278 .LASF38
     /tmp/ccQMFHou.s:3167   .debug_str:000000000000037c .LASF39
     /tmp/ccQMFHou.s:3255   .debug_str:00000000000006bc .LASF40
     /tmp/ccQMFHou.s:3197   .debug_str:0000000000000470 .LASF41
     /tmp/ccQMFHou.s:3123   .debug_str:000000000000026f .LASF42
     /tmp/ccQMFHou.s:3141   .debug_str:00000000000002e8 .LASF43
     /tmp/ccQMFHou.s:3145   .debug_str:00000000000002fc .LASF44
     /tmp/ccQMFHou.s:3035   .debug_str:0000000000000009 .LASF45
     /tmp/ccQMFHou.s:3193   .debug_str:0000000000000452 .LASF46
     /tmp/ccQMFHou.s:3201   .debug_str:000000000000048f .LASF47
     /tmp/ccQMFHou.s:3091   .debug_str:00000000000001a3 .LASF48
     /tmp/ccQMFHou.s:3253   .debug_str:00000000000006b3 .LASF49
     /tmp/ccQMFHou.s:3185   .debug_str:000000000000041d .LASF50
     /tmp/ccQMFHou.s:3135   .debug_str:00000000000002d5 .LASF51
     /tmp/ccQMFHou.s:3243   .debug_str:000000000000067b .LASF108
     /tmp/ccQMFHou.s:3177   .debug_str:00000000000003bc .LASF109
     /tmp/ccQMFHou.s:3049   .debug_str:000000000000007b .LASF52
     /tmp/ccQMFHou.s:3033   .debug_str:0000000000000000 .LASF53
     /tmp/ccQMFHou.s:3187   .debug_str:0000000000000426 .LASF54
     /tmp/ccQMFHou.s:3205   .debug_str:00000000000004a0 .LASF55
     /tmp/ccQMFHou.s:3155   .debug_str:0000000000000334 .LASF56
     /tmp/ccQMFHou.s:3227   .debug_str:00000000000005e9 .LASF58
     /tmp/ccQMFHou.s:3247   .debug_str:0000000000000690 .LASF60
     /tmp/ccQMFHou.s:3173   .debug_str:000000000000039a .LASF63
     /tmp/ccQMFHou.s:3051   .debug_str:0000000000000080 .LASF65
     /tmp/ccQMFHou.s:3249   .debug_str:00000000000006a9 .LASF61
     /tmp/ccQMFHou.s:3073   .debug_str:000000000000012d .LASF62
     /tmp/ccQMFHou.s:3215   .debug_str:00000000000004df .LASF64
     /tmp/ccQMFHou.s:3133   .debug_str:00000000000002b6 .LASF66
     /tmp/ccQMFHou.s:3059   .debug_str:00000000000000cd .LASF67
     /tmp/ccQMFHou.s:3245   .debug_str:0000000000000689 .LASF68
     /tmp/ccQMFHou.s:3111   .debug_str:000000000000022d .LASF69
     /tmp/ccQMFHou.s:3143   .debug_str:00000000000002f3 .LASF70
     /tmp/ccQMFHou.s:3127   .debug_str:000000000000028d .LASF71
     /tmp/ccQMFHou.s:3237   .debug_str:0000000000000648 .LASF72
     /tmp/ccQMFHou.s:3189   .debug_str:0000000000000439 .LASF73
     /tmp/ccQMFHou.s:3165   .debug_str:0000000000000371 .LASF74
     /tmp/ccQMFHou.s:3047   .debug_str:0000000000000069 .LASF75
     /tmp/ccQMFHou.s:3231   .debug_str:0000000000000604 .LASF110
     /tmp/ccQMFHou.s:3115   .debug_str:0000000000000240 .LASF111
     /tmp/ccQMFHou.s:3083   .debug_str:0000000000000172 .LASF76
     /tmp/ccQMFHou.s:3097   .debug_str:00000000000001bf .LASF77
     /tmp/ccQMFHou.s:3061   .debug_str:00000000000000db .LASF78
     /tmp/ccQMFHou.s:3057   .debug_str:00000000000000b4 .LASF79
     /tmp/ccQMFHou.s:3089   .debug_str:000000000000019e .LASF80
GAS LISTING /tmp/ccQMFHou.s 			page 20


     /tmp/ccQMFHou.s:3149   .debug_str:0000000000000311 .LASF81
     /tmp/ccQMFHou.s:3075   .debug_str:000000000000013e .LASF82
     /tmp/ccQMFHou.s:3067   .debug_str:00000000000000fb .LASF112
     /tmp/ccQMFHou.s:512    .text:00000000000002f0 .LFB9
     /tmp/ccQMFHou.s:535    .text:0000000000000310 .LFE9
     /tmp/ccQMFHou.s:3251   .debug_str:00000000000006ae .LASF83
     /tmp/ccQMFHou.s:2797   .debug_loc:0000000000000000 .LLST12
     /tmp/ccQMFHou.s:388    .text:000000000000023c .LFB8
     /tmp/ccQMFHou.s:506    .text:00000000000002f0 .LFE8
     /tmp/ccQMFHou.s:2811   .debug_loc:0000000000000039 .LLST7
     /tmp/ccQMFHou.s:3117   .debug_str:0000000000000254 .LASF113
     /tmp/ccQMFHou.s:2833   .debug_loc:0000000000000098 .LLST8
     /tmp/ccQMFHou.s:2855   .debug_loc:00000000000000f7 .LLST9
     /tmp/ccQMFHou.s:3105   .debug_str:0000000000000208 .LASF84
     /tmp/ccQMFHou.s:2866   .debug_loc:000000000000012d .LLST10
     /tmp/ccQMFHou.s:440    .text:0000000000000294 .LBB12
     /tmp/ccQMFHou.s:462    .text:00000000000002b0 .LBE12
     /tmp/ccQMFHou.s:3171   .debug_str:0000000000000392 .LASF85
     /tmp/ccQMFHou.s:2877   .debug_loc:0000000000000163 .LLST11
     /tmp/ccQMFHou.s:418    .text:0000000000000278 .LVL38
     /tmp/ccQMFHou.s:470    .text:00000000000002c0 .LVL43
     /tmp/ccQMFHou.s:474    .text:00000000000002c8 .LVL44
     /tmp/ccQMFHou.s:221    .text:000000000000011c .LFB7
     /tmp/ccQMFHou.s:382    .text:000000000000023c .LFE7
     /tmp/ccQMFHou.s:2888   .debug_loc:0000000000000199 .LLST4
     /tmp/ccQMFHou.s:2914   .debug_loc:000000000000020b .LLST5
     /tmp/ccQMFHou.s:3011   .debug_ranges:0000000000000000 .Ldebug_ranges0
     /tmp/ccQMFHou.s:2925   .debug_loc:0000000000000241 .LLST6
     /tmp/ccQMFHou.s:320    .text:00000000000001c8 .LVL25
     /tmp/ccQMFHou.s:325    .text:00000000000001d4 .LVL26
     /tmp/ccQMFHou.s:335    .text:00000000000001ec .LVL27
     /tmp/ccQMFHou.s:340    .text:00000000000001f8 .LVL28
     /tmp/ccQMFHou.s:346    .text:0000000000000208 .LVL29
     /tmp/ccQMFHou.s:351    .text:0000000000000214 .LVL30
     /tmp/ccQMFHou.s:263    .text:0000000000000164 .LVL17
     /tmp/ccQMFHou.s:268    .text:0000000000000170 .LVL18
     /tmp/ccQMFHou.s:273    .text:000000000000017c .LVL19
     /tmp/ccQMFHou.s:278    .text:0000000000000188 .LVL20
     /tmp/ccQMFHou.s:283    .text:0000000000000194 .LVL21
     /tmp/ccQMFHou.s:288    .text:00000000000001a0 .LVL22
     /tmp/ccQMFHou.s:174    .text:00000000000000b8 .LFB6
     /tmp/ccQMFHou.s:215    .text:000000000000011c .LFE6
     /tmp/ccQMFHou.s:3071   .debug_str:0000000000000119 .LASF88
     /tmp/ccQMFHou.s:201    .text:0000000000000104 .LVL11
     /tmp/ccQMFHou.s:3113   .debug_str:000000000000023b .LASF86
     /tmp/ccQMFHou.s:3053   .debug_str:0000000000000092 .LASF87
     /tmp/ccQMFHou.s:3169   .debug_str:0000000000000384 .LASF89
     /tmp/ccQMFHou.s:89     .text:0000000000000070 .LFB4
     /tmp/ccQMFHou.s:150    .text:00000000000000b8 .LFE4
     /tmp/ccQMFHou.s:2936   .debug_loc:0000000000000277 .LLST1
     /tmp/ccQMFHou.s:125    .text:0000000000000098 .LVL8
     /tmp/ccQMFHou.s:2950   .debug_loc:00000000000002b0 .LLST2
     /tmp/ccQMFHou.s:117    .text:000000000000008c .LBB5
     /tmp/ccQMFHou.s:129    .text:000000000000009c .LBE5
     /tmp/ccQMFHou.s:2965   .debug_loc:00000000000002f9 .LLST3
     /tmp/ccQMFHou.s:3157   .debug_str:000000000000033a .LASF90
     /tmp/ccQMFHou.s:21     .text:0000000000000000 .LFB1
GAS LISTING /tmp/ccQMFHou.s 			page 21


     /tmp/ccQMFHou.s:81     .text:0000000000000070 .LFE1
     /tmp/ccQMFHou.s:2976   .debug_loc:000000000000032f .LLST0
     /tmp/ccQMFHou.s:77     .text:000000000000006c .LVL4
     /tmp/ccQMFHou.s:3085   .debug_str:000000000000017a .LASF91
     /tmp/ccQMFHou.s:3037   .debug_str:0000000000000011 .LASF93
     /tmp/ccQMFHou.s:3195   .debug_str:000000000000045b .LASF92
     /tmp/ccQMFHou.s:3079   .debug_str:0000000000000154 .LASF94
     /tmp/ccQMFHou.s:3219   .debug_str:00000000000004f9 .LASF95
     /tmp/ccQMFHou.s:3103   .debug_str:00000000000001ec .LASF96
     /tmp/ccQMFHou.s:3223   .debug_str:0000000000000517 .LASF97
     /tmp/ccQMFHou.s:3081   .debug_str:0000000000000164 .LASF98
     /tmp/ccQMFHou.s:3099   .debug_str:00000000000001d7 .LASF99
     /tmp/ccQMFHou.s:515    .text:00000000000002f0 .LVL49
     /tmp/ccQMFHou.s:525    .text:0000000000000300 .LVL50
     /tmp/ccQMFHou.s:391    .text:000000000000023c .LVL35
     /tmp/ccQMFHou.s:416    .text:0000000000000270 .LVL37
     /tmp/ccQMFHou.s:486    .text:00000000000002d8 .LVL45
     /tmp/ccQMFHou.s:496    .text:00000000000002e8 .LVL48
     /tmp/ccQMFHou.s:489    .text:00000000000002dc .LVL46
     /tmp/ccQMFHou.s:412    .text:000000000000026c .LVL36
     /tmp/ccQMFHou.s:492    .text:00000000000002e0 .LVL47
     /tmp/ccQMFHou.s:468    .text:00000000000002b8 .LVL42
     /tmp/ccQMFHou.s:439    .text:0000000000000294 .LVL39
     /tmp/ccQMFHou.s:446    .text:000000000000029c .LVL40
     /tmp/ccQMFHou.s:460    .text:00000000000002b0 .LVL41
     /tmp/ccQMFHou.s:224    .text:000000000000011c .LVL12
     /tmp/ccQMFHou.s:249    .text:0000000000000150 .LVL13
     /tmp/ccQMFHou.s:256    .text:0000000000000158 .LVL15
     /tmp/ccQMFHou.s:261    .text:000000000000015c .LVL16
     /tmp/ccQMFHou.s:377    .text:0000000000000234 .LVL34
     /tmp/ccQMFHou.s:254    .text:0000000000000154 .LVL14
     /tmp/ccQMFHou.s:290    .text:00000000000001a4 .LVL23
     /tmp/ccQMFHou.s:374    .text:0000000000000230 .LVL33
     /tmp/ccQMFHou.s:302    .text:00000000000001ac .LVL24
     /tmp/ccQMFHou.s:355    .text:0000000000000218 .LVL31
     /tmp/ccQMFHou.s:362    .text:0000000000000224 .LVL32
     /tmp/ccQMFHou.s:94     .text:0000000000000070 .LVL5
     /tmp/ccQMFHou.s:99     .text:0000000000000074 .LVL6
     /tmp/ccQMFHou.s:142    .text:00000000000000ac .LVL9
     /tmp/ccQMFHou.s:121    .text:0000000000000090 .LVL7
     /tmp/ccQMFHou.s:146    .text:00000000000000b4 .LVL10
     /tmp/ccQMFHou.s:25     .text:0000000000000000 .LVL0
     /tmp/ccQMFHou.s:41     .text:0000000000000024 .LVL1
     /tmp/ccQMFHou.s:63     .text:0000000000000040 .LVL2
     /tmp/ccQMFHou.s:67     .text:0000000000000048 .LVL3
     /tmp/ccQMFHou.s:555    .debug_info:0000000000000000 .Ldebug_info0
     /tmp/ccQMFHou.s:37     .text:0000000000000018 .LBB2
     /tmp/ccQMFHou.s:53     .text:0000000000000034 .LBE2
     /tmp/ccQMFHou.s:70     .text:0000000000000048 .LBB3
     /tmp/ccQMFHou.s:79     .text:0000000000000070 .LBE3
     /tmp/ccQMFHou.s:95     .text:0000000000000070 .LBB4
     /tmp/ccQMFHou.s:103    .text:0000000000000078 .LBE4
     /tmp/ccQMFHou.s:116    .text:000000000000008c .LBB6
     /tmp/ccQMFHou.s:133    .text:00000000000000a0 .LBE6
     /tmp/ccQMFHou.s:293    .text:00000000000001a4 .LBB8
     /tmp/ccQMFHou.s:298    .text:00000000000001a8 .LBE8
     /tmp/ccQMFHou.s:315    .text:00000000000001bc .LBB9
GAS LISTING /tmp/ccQMFHou.s 			page 22


     /tmp/ccQMFHou.s:364    .text:0000000000000224 .LBE9
     /tmp/ccQMFHou.s:153    .gcc_except_table:0000000000000000 .LLSDA4

UNDEFINED SYMBOLS
_Z13assert_failedPKcS0_jS0_
_Z8mem_freePv
__gxx_personality_v0
__putc
_ZN7_thread11setSleepingEb
_ZN9Scheduler3putEP7_thread
_ZN7_thread13currentThreadE
_Z9mem_allocm
_Z15thread_dispatchv
