GAS LISTING /tmp/ccWflpKm.s 			page 1


   1              		.file	"timer.cpp"
   2              		.option pic
   3              		.option norelax
   4              		.text
   5              	.Ltext0:
   6              		.section	.rodata.str1.8,"aMS",@progbits,1
   7              		.align	3
   8              	.LC0:
   9 0000 54696D65 		.string	"Timer::Timer()"
   9      723A3A54 
   9      696D6572 
   9      282900
  10 000f 00       		.align	3
  11              	.LC1:
  12 0010 7372632F 		.string	"src/timer.cpp"
  12      74696D65 
  12      722E6370 
  12      7000
  13 001e 0000     		.align	3
  14              	.LC2:
  15 0020 696E7374 		.string	"instance == 0"
  15      616E6365 
  15      203D3D20 
  15      3000
  16              		.text
  17              		.align	2
  18              		.globl	_ZN5TimerC2Ev
  20              	_ZN5TimerC2Ev:
  21              	.LFB1:
  22              		.file 1 "src/timer.cpp"
   1:src/timer.cpp **** /**
   2:src/timer.cpp ****  * @file timer.cpp
   3:src/timer.cpp ****  * @author stcksmsh (vukicevickosta@gmail.com)
   4:src/timer.cpp ****  * @brief implementation of the timer class
   5:src/timer.cpp ****  * @version 0.1
   6:src/timer.cpp ****  * @date 2024-01-02
   7:src/timer.cpp ****  * 
   8:src/timer.cpp ****  * @copyright Copyright (c) 2024
   9:src/timer.cpp ****  * 
  10:src/timer.cpp ****  */
  11:src/timer.cpp **** 
  12:src/timer.cpp **** #include "timer.h"
  13:src/timer.cpp **** #include "syscalls_c.h"
  14:src/timer.cpp **** #include "sched.h"
  15:src/timer.cpp **** #include "assert.h"
  16:src/timer.cpp **** #include "console.h"
  17:src/timer.cpp **** 
  18:src/timer.cpp **** Timer* Timer::instance = 0;
  19:src/timer.cpp **** 
  20:src/timer.cpp **** Timer::Timer(){
  23              		.loc 1 20 1
  24              		.cfi_startproc
  25              	.LVL0:
  26 0000 130101FE 		addi	sp,sp,-32
  27              		.cfi_def_cfa_offset 32
  28 0004 233C1100 		sd	ra,24(sp)
  29 0008 23388100 		sd	s0,16(sp)
GAS LISTING /tmp/ccWflpKm.s 			page 2


  30 000c 23349100 		sd	s1,8(sp)
  31              		.cfi_offset 1, -8
  32              		.cfi_offset 8, -16
  33              		.cfi_offset 9, -24
  34 0010 13040102 		addi	s0,sp,32
  35              		.cfi_def_cfa 8, 0
  36 0014 93040500 		mv	s1,a0
  37              	.LBB2:
  21:src/timer.cpp ****     assert(instance == 0);
  38              		.loc 1 21 5
  39 0018 97070000 		ld	a5,.LANCHOR0
  39      83B70700 
  40 0020 63940702 		bnez	a5,.L4
  41              	.LVL1:
  42              	.L2:
  43              		.loc 1 21 26 discriminator 3
  22:src/timer.cpp ****     instance = this;
  44              		.loc 1 22 5 discriminator 3
  45              		.loc 1 22 14 is_stmt 0 discriminator 3
  46 0024 97070000 		sd	s1,.LANCHOR0,a5
  46      23B09700 
  23:src/timer.cpp ****     sleepingHead = 0;
  47              		.loc 1 23 5 is_stmt 1 discriminator 3
  48              		.loc 1 23 18 is_stmt 0 discriminator 3
  49 002c 23B00400 		sd	zero,0(s1)
  24:src/timer.cpp ****     time = 0;
  50              		.loc 1 24 5 is_stmt 1 discriminator 3
  51              		.loc 1 24 10 is_stmt 0 discriminator 3
  52 0030 23B40400 		sd	zero,8(s1)
  53              	.LBE2:
  25:src/timer.cpp **** }
  54              		.loc 1 25 1 discriminator 3
  55 0034 83308101 		ld	ra,24(sp)
  56              		.cfi_remember_state
  57              		.cfi_restore 1
  58 0038 03340101 		ld	s0,16(sp)
  59              		.cfi_restore 8
  60              		.cfi_def_cfa 2, 32
  61 003c 83348100 		ld	s1,8(sp)
  62              		.cfi_restore 9
  63              	.LVL2:
  64 0040 13010102 		addi	sp,sp,32
  65              		.cfi_def_cfa_offset 0
  66 0044 67800000 		jr	ra
  67              	.LVL3:
  68              	.L4:
  69              		.cfi_restore_state
  70              	.LBB3:
  21:src/timer.cpp ****     instance = this;
  71              		.loc 1 21 5 is_stmt 1 discriminator 1
  72 0048 97060000 		lla	a3,.LC0
  72      93860600 
  73 0050 13065001 		li	a2,21
  74 0054 97050000 		lla	a1,.LC1
  74      93850500 
  75 005c 17050000 		lla	a0,.LC2
  75      13050500 
GAS LISTING /tmp/ccWflpKm.s 			page 3


  76 0064 97000000 		call	_Z13assert_failedPKcS0_jS0_@plt
  76      E7800000 
  77              	.LVL4:
  78 006c 6FF09FFB 		j	.L2
  79              	.LBE3:
  80              		.cfi_endproc
  81              	.LFE1:
  83              		.globl	_ZN5TimerC1Ev
  84              		.set	_ZN5TimerC1Ev,_ZN5TimerC2Ev
  85              		.align	2
  86              		.globl	_ZN5TimerD2Ev
  88              	_ZN5TimerD2Ev:
  89              	.LFB4:
  26:src/timer.cpp **** 
  27:src/timer.cpp **** Timer::~Timer(){
  90              		.loc 1 27 1
  91              		.cfi_startproc
  92              		.cfi_personality 0x9b,DW.ref.__gxx_personality_v0
  93              		.cfi_lsda 0x1b,.LLSDA4
  94              	.LVL5:
  95              	.LBB4:
  28:src/timer.cpp ****     threadSleepWrapper* current = sleepingHead;
  96              		.loc 1 28 5
  97              		.loc 1 28 25 is_stmt 0
  98 0070 03350500 		ld	a0,0(a0)
  99              	.LVL6:
  29:src/timer.cpp ****     while(current != 0){
 100              		.loc 1 29 5 is_stmt 1
 101              		.loc 1 29 19
 102 0074 63000504 		beqz	a0,.L13
 103              	.LBE4:
  27:src/timer.cpp ****     threadSleepWrapper* current = sleepingHead;
 104              		.loc 1 27 1 is_stmt 0
 105 0078 130101FE 		addi	sp,sp,-32
 106              		.cfi_def_cfa_offset 32
 107 007c 233C1100 		sd	ra,24(sp)
 108 0080 23388100 		sd	s0,16(sp)
 109 0084 23349100 		sd	s1,8(sp)
 110              		.cfi_offset 1, -8
 111              		.cfi_offset 8, -16
 112              		.cfi_offset 9, -24
 113 0088 13040102 		addi	s0,sp,32
 114              		.cfi_def_cfa 8, 0
 115              	.L11:
 116              	.LBB6:
 117              	.LBB5:
  30:src/timer.cpp ****         threadSleepWrapper* next = current->next;
 118              		.loc 1 30 9 is_stmt 1
 119              		.loc 1 30 29 is_stmt 0
 120 008c 83340501 		ld	s1,16(a0)
 121              	.LVL7:
  31:src/timer.cpp ****         mem_free(current);
 122              		.loc 1 31 9 is_stmt 1
 123              		.loc 1 31 17 is_stmt 0
 124 0090 97000000 		call	_Z8mem_freePv@plt
 124      E7800000 
 125              	.LVL8:
GAS LISTING /tmp/ccWflpKm.s 			page 4


  32:src/timer.cpp ****         current = next;
 126              		.loc 1 32 9 is_stmt 1
 127              		.loc 1 32 17 is_stmt 0
 128 0098 13850400 		mv	a0,s1
 129              	.LBE5:
  29:src/timer.cpp ****         threadSleepWrapper* next = current->next;
 130              		.loc 1 29 5 is_stmt 1
  29:src/timer.cpp ****         threadSleepWrapper* next = current->next;
 131              		.loc 1 29 19
 132 009c E39804FE 		bnez	s1,.L11
 133              	.LBE6:
  33:src/timer.cpp ****     }
  34:src/timer.cpp **** }
 134              		.loc 1 34 1 is_stmt 0
 135 00a0 83308101 		ld	ra,24(sp)
 136              		.cfi_restore 1
 137 00a4 03340101 		ld	s0,16(sp)
 138              		.cfi_restore 8
 139              		.cfi_def_cfa 2, 32
 140 00a8 83348100 		ld	s1,8(sp)
 141              		.cfi_restore 9
 142              	.LVL9:
 143 00ac 13010102 		addi	sp,sp,32
 144              		.cfi_def_cfa_offset 0
 145 00b0 67800000 		jr	ra
 146              	.LVL10:
 147              	.L13:
 148 00b4 67800000 		ret
 149              		.cfi_endproc
 150              	.LFE4:
 151              		.globl	__gxx_personality_v0
 152              		.section	.gcc_except_table,"a",@progbits
 153              	.LLSDA4:
 154 0000 FF       		.byte	0xff
 155 0001 FF       		.byte	0xff
 156 0002 03       		.byte	0x3
 157 0003 00       		.byte	0
 158              		.text
 160              		.globl	_ZN5TimerD1Ev
 161              		.set	_ZN5TimerD1Ev,_ZN5TimerD2Ev
 162              		.section	.rodata.str1.8
 163 002e 0000     		.align	3
 164              	.LC3:
 165 0030 73746174 		.string	"static Timer& Timer::getInstance()"
 165      69632054 
 165      696D6572 
 165      26205469 
 165      6D65723A 
 166 0053 00000000 		.align	3
 166      00
 167              	.LC4:
 168 0058 696E7374 		.string	"instance != 0"
 168      616E6365 
 168      20213D20 
 168      3000
 169              		.text
 170              		.align	2
GAS LISTING /tmp/ccWflpKm.s 			page 5


 171              		.globl	_ZN5Timer11getInstanceEv
 173              	_ZN5Timer11getInstanceEv:
 174              	.LFB6:
  35:src/timer.cpp **** 
  36:src/timer.cpp **** Timer& Timer::getInstance(){
 175              		.loc 1 36 28 is_stmt 1
 176              		.cfi_startproc
  37:src/timer.cpp ****     assert(instance != 0);
 177              		.loc 1 37 5
 178 00b8 97070000 		ld	a5,.LANCHOR0
 178      83B70700 
 179 00c0 63880700 		beqz	a5,.L20
 180              		.loc 1 37 26
  38:src/timer.cpp ****     return *instance;
 181              		.loc 1 38 5
  39:src/timer.cpp **** }
 182              		.loc 1 39 1 is_stmt 0
 183 00c4 17050000 		ld	a0,.LANCHOR0
 183      03350500 
 184 00cc 67800000 		ret
 185              	.L20:
  36:src/timer.cpp ****     assert(instance != 0);
 186              		.loc 1 36 28 discriminator 1
 187 00d0 130101FF 		addi	sp,sp,-16
 188              		.cfi_def_cfa_offset 16
 189 00d4 23341100 		sd	ra,8(sp)
 190 00d8 23308100 		sd	s0,0(sp)
 191              		.cfi_offset 1, -8
 192              		.cfi_offset 8, -16
 193 00dc 13040101 		addi	s0,sp,16
 194              		.cfi_def_cfa 8, 0
  37:src/timer.cpp ****     return *instance;
 195              		.loc 1 37 5 is_stmt 1 discriminator 1
 196 00e0 97060000 		lla	a3,.LC3
 196      93860600 
 197 00e8 13065002 		li	a2,37
 198 00ec 97050000 		lla	a1,.LC1
 198      93850500 
 199 00f4 17050000 		lla	a0,.LC4
 199      13050500 
 200 00fc 97000000 		call	_Z13assert_failedPKcS0_jS0_@plt
 200      E7800000 
 201              	.LVL11:
  37:src/timer.cpp ****     return *instance;
 202              		.loc 1 37 26 discriminator 1
  38:src/timer.cpp **** }
 203              		.loc 1 38 5 discriminator 1
 204              		.loc 1 39 1 is_stmt 0 discriminator 1
 205 0104 17050000 		ld	a0,.LANCHOR0
 205      03350500 
 206 010c 83308100 		ld	ra,8(sp)
 207              		.cfi_restore 1
 208 0110 03340100 		ld	s0,0(sp)
 209              		.cfi_restore 8
 210              		.cfi_def_cfa 2, 16
 211 0114 13010101 		addi	sp,sp,16
 212              		.cfi_def_cfa_offset 0
GAS LISTING /tmp/ccWflpKm.s 			page 6


 213 0118 67800000 		jr	ra
 214              		.cfi_endproc
 215              	.LFE6:
 217              		.align	2
 218              		.globl	_ZN5Timer4tickEv
 220              	_ZN5Timer4tickEv:
 221              	.LFB7:
  40:src/timer.cpp **** 
  41:src/timer.cpp **** void Timer::tick(){
 222              		.loc 1 41 19 is_stmt 1
 223              		.cfi_startproc
 224              	.LVL12:
 225 011c 130101FD 		addi	sp,sp,-48
 226              		.cfi_def_cfa_offset 48
 227 0120 23341102 		sd	ra,40(sp)
 228 0124 23308102 		sd	s0,32(sp)
 229 0128 233C9100 		sd	s1,24(sp)
 230 012c 23382101 		sd	s2,16(sp)
 231 0130 23343101 		sd	s3,8(sp)
 232              		.cfi_offset 1, -8
 233              		.cfi_offset 8, -16
 234              		.cfi_offset 9, -24
 235              		.cfi_offset 18, -32
 236              		.cfi_offset 19, -40
 237 0134 13040103 		addi	s0,sp,48
 238              		.cfi_def_cfa 8, 0
 239 0138 13090500 		mv	s2,a0
  42:src/timer.cpp ****     time += 1;
 240              		.loc 1 42 5
 241              		.loc 1 42 10 is_stmt 0
 242 013c 83378500 		ld	a5,8(a0)
 243 0140 93871700 		addi	a5,a5,1
 244 0144 2334F500 		sd	a5,8(a0)
  43:src/timer.cpp ****     if(time % 10 == 0){
 245              		.loc 1 43 5 is_stmt 1
 246              		.loc 1 43 13 is_stmt 0
 247 0148 1307A000 		li	a4,10
 248 014c B3F7E702 		remu	a5,a5,a4
 249              		.loc 1 43 5
 250 0150 63860700 		beqz	a5,.L27
 251              	.LVL13:
 252              	.L22:
  44:src/timer.cpp ****         __putc('\n');
  45:src/timer.cpp ****         __putc('t');
  46:src/timer.cpp ****         __putc('i');
  47:src/timer.cpp ****         __putc('c');
  48:src/timer.cpp ****         __putc('k');
  49:src/timer.cpp ****         __putc('\n');
  50:src/timer.cpp ****     }
  51:src/timer.cpp ****     threadSleepWrapper* current = sleepingHead;
 253              		.loc 1 51 5 is_stmt 1
 254              		.loc 1 51 25 is_stmt 0
 255 0154 83340900 		ld	s1,0(s2)
 256              	.LVL14:
 257 0158 6F004006 		j	.L25
 258              	.LVL15:
 259              	.L27:
GAS LISTING /tmp/ccWflpKm.s 			page 7


  44:src/timer.cpp ****         __putc('\n');
 260              		.loc 1 44 9 is_stmt 1
  44:src/timer.cpp ****         __putc('\n');
 261              		.loc 1 44 15 is_stmt 0
 262 015c 1305A000 		li	a0,10
 263              	.LVL16:
 264 0160 97000000 		call	__putc@plt
 264      E7800000 
 265              	.LVL17:
  45:src/timer.cpp ****         __putc('i');
 266              		.loc 1 45 9 is_stmt 1
  45:src/timer.cpp ****         __putc('i');
 267              		.loc 1 45 15 is_stmt 0
 268 0168 13054007 		li	a0,116
 269 016c 97000000 		call	__putc@plt
 269      E7800000 
 270              	.LVL18:
  46:src/timer.cpp ****         __putc('c');
 271              		.loc 1 46 9 is_stmt 1
  46:src/timer.cpp ****         __putc('c');
 272              		.loc 1 46 15 is_stmt 0
 273 0174 13059006 		li	a0,105
 274 0178 97000000 		call	__putc@plt
 274      E7800000 
 275              	.LVL19:
  47:src/timer.cpp ****         __putc('k');
 276              		.loc 1 47 9 is_stmt 1
  47:src/timer.cpp ****         __putc('k');
 277              		.loc 1 47 15 is_stmt 0
 278 0180 13053006 		li	a0,99
 279 0184 97000000 		call	__putc@plt
 279      E7800000 
 280              	.LVL20:
  48:src/timer.cpp ****         __putc('\n');
 281              		.loc 1 48 9 is_stmt 1
  48:src/timer.cpp ****         __putc('\n');
 282              		.loc 1 48 15 is_stmt 0
 283 018c 1305B006 		li	a0,107
 284 0190 97000000 		call	__putc@plt
 284      E7800000 
 285              	.LVL21:
  49:src/timer.cpp ****     }
 286              		.loc 1 49 9 is_stmt 1
  49:src/timer.cpp ****     }
 287              		.loc 1 49 15 is_stmt 0
 288 0198 1305A000 		li	a0,10
 289 019c 97000000 		call	__putc@plt
 289      E7800000 
 290              	.LVL22:
 291 01a4 6FF01FFB 		j	.L22
 292              	.LVL23:
 293              	.L28:
 294              	.LBB7:
 295              	.LBB8:
  52:src/timer.cpp ****     while(current != 0){
  53:src/timer.cpp ****         if(current->wakeUpTime <= time){
  54:src/timer.cpp ****             __putc('\n');
GAS LISTING /tmp/ccWflpKm.s 			page 8


  55:src/timer.cpp ****             __putc('t');
  56:src/timer.cpp ****             __putc('0' + current->thread->ID);
  57:src/timer.cpp ****             __putc('\n');
  58:src/timer.cpp ****             current->thread->setSleeping(false);
  59:src/timer.cpp ****             Scheduler::put(current->thread);
  60:src/timer.cpp ****             threadSleepWrapper* next = current->next;
  61:src/timer.cpp ****             if(current == sleepingHead){
  62:src/timer.cpp ****                 sleepingHead = next;
 296              		.loc 1 62 17 is_stmt 1
 297              		.loc 1 62 30 is_stmt 0
 298 01a8 23303901 		sd	s3,0(s2)
 299              	.L24:
  63:src/timer.cpp ****             }
  64:src/timer.cpp ****             mem_free(current);
 300              		.loc 1 64 13 is_stmt 1
 301              		.loc 1 64 21 is_stmt 0
 302 01ac 13850400 		mv	a0,s1
 303 01b0 97000000 		call	_Z8mem_freePv@plt
 303      E7800000 
 304              	.LVL24:
  65:src/timer.cpp ****             current = next;
 305              		.loc 1 65 13 is_stmt 1
 306              		.loc 1 65 21 is_stmt 0
 307 01b8 93840900 		mv	s1,s3
 308              	.LVL25:
 309              	.L25:
 310              	.LBE8:
 311              	.LBE7:
  52:src/timer.cpp ****     while(current != 0){
 312              		.loc 1 52 5 is_stmt 1
  52:src/timer.cpp ****     while(current != 0){
 313              		.loc 1 52 19
 314 01bc 638C0406 		beqz	s1,.L21
  53:src/timer.cpp ****             __putc('\n');
 315              		.loc 1 53 9
 316              	.LBB10:
  53:src/timer.cpp ****             __putc('\n');
 317              		.loc 1 53 21 is_stmt 0
 318 01c0 03B78400 		ld	a4,8(s1)
  53:src/timer.cpp ****             __putc('\n');
 319              		.loc 1 53 35
 320 01c4 83378900 		ld	a5,8(s2)
  53:src/timer.cpp ****             __putc('\n');
 321              		.loc 1 53 9
 322 01c8 63E6E706 		bgtu	a4,a5,.L21
 323              	.LBB9:
  54:src/timer.cpp ****             __putc('t');
 324              		.loc 1 54 13 is_stmt 1
  54:src/timer.cpp ****             __putc('t');
 325              		.loc 1 54 19 is_stmt 0
 326 01cc 1305A000 		li	a0,10
 327 01d0 97000000 		call	__putc@plt
 327      E7800000 
 328              	.LVL26:
  55:src/timer.cpp ****             __putc('0' + current->thread->ID);
 329              		.loc 1 55 13 is_stmt 1
  55:src/timer.cpp ****             __putc('0' + current->thread->ID);
GAS LISTING /tmp/ccWflpKm.s 			page 9


 330              		.loc 1 55 19 is_stmt 0
 331 01d8 13054007 		li	a0,116
 332 01dc 97000000 		call	__putc@plt
 332      E7800000 
 333              	.LVL27:
  56:src/timer.cpp ****             __putc('\n');
 334              		.loc 1 56 13 is_stmt 1
  56:src/timer.cpp ****             __putc('\n');
 335              		.loc 1 56 35 is_stmt 0
 336 01e4 83B70400 		ld	a5,0(s1)
  56:src/timer.cpp ****             __putc('\n');
 337              		.loc 1 56 43
 338 01e8 03A50700 		lw	a0,0(a5)
  56:src/timer.cpp ****             __putc('\n');
 339              		.loc 1 56 19
 340 01ec 1B050503 		addiw	a0,a0,48
 341 01f0 1375F50F 		andi	a0,a0,0xff
 342 01f4 97000000 		call	__putc@plt
 342      E7800000 
 343              	.LVL28:
  57:src/timer.cpp ****             current->thread->setSleeping(false);
 344              		.loc 1 57 13 is_stmt 1
  57:src/timer.cpp ****             current->thread->setSleeping(false);
 345              		.loc 1 57 19 is_stmt 0
 346 01fc 1305A000 		li	a0,10
 347 0200 97000000 		call	__putc@plt
 347      E7800000 
 348              	.LVL29:
  58:src/timer.cpp ****             Scheduler::put(current->thread);
 349              		.loc 1 58 13 is_stmt 1
  58:src/timer.cpp ****             Scheduler::put(current->thread);
 350              		.loc 1 58 41 is_stmt 0
 351 0208 93050000 		li	a1,0
 352 020c 03B50400 		ld	a0,0(s1)
 353 0210 97000000 		call	_ZN7_thread11setSleepingEb@plt
 353      E7800000 
 354              	.LVL30:
  59:src/timer.cpp ****             threadSleepWrapper* next = current->next;
 355              		.loc 1 59 13 is_stmt 1
  59:src/timer.cpp ****             threadSleepWrapper* next = current->next;
 356              		.loc 1 59 27 is_stmt 0
 357 0218 03B50400 		ld	a0,0(s1)
 358 021c 97000000 		call	_ZN9Scheduler3putEP7_thread@plt
 358      E7800000 
 359              	.LVL31:
  60:src/timer.cpp ****             if(current == sleepingHead){
 360              		.loc 1 60 13 is_stmt 1
  60:src/timer.cpp ****             if(current == sleepingHead){
 361              		.loc 1 60 33 is_stmt 0
 362 0224 83B90401 		ld	s3,16(s1)
 363              	.LVL32:
  61:src/timer.cpp ****                 sleepingHead = next;
 364              		.loc 1 61 13 is_stmt 1
  61:src/timer.cpp ****                 sleepingHead = next;
 365              		.loc 1 61 27 is_stmt 0
 366 0228 83370900 		ld	a5,0(s2)
  61:src/timer.cpp ****                 sleepingHead = next;
GAS LISTING /tmp/ccWflpKm.s 			page 10


 367              		.loc 1 61 13
 368 022c E39097F8 		bne	a5,s1,.L24
 369 0230 6FF09FF7 		j	.L28
 370              	.LVL33:
 371              	.L21:
 372              	.LBE9:
 373              	.LBE10:
  66:src/timer.cpp ****         }else{
  67:src/timer.cpp ****             break;
  68:src/timer.cpp ****         }
  69:src/timer.cpp ****     }
  70:src/timer.cpp **** }
 374              		.loc 1 70 1
 375 0234 83308102 		ld	ra,40(sp)
 376              		.cfi_restore 1
 377 0238 03340102 		ld	s0,32(sp)
 378              		.cfi_restore 8
 379              		.cfi_def_cfa 2, 48
 380 023c 83348101 		ld	s1,24(sp)
 381              		.cfi_restore 9
 382              	.LVL34:
 383 0240 03390101 		ld	s2,16(sp)
 384              		.cfi_restore 18
 385              	.LVL35:
 386 0244 83398100 		ld	s3,8(sp)
 387              		.cfi_restore 19
 388 0248 13010103 		addi	sp,sp,48
 389              		.cfi_def_cfa_offset 0
 390 024c 67800000 		jr	ra
 391              		.cfi_endproc
 392              	.LFE7:
 394              		.align	2
 395              		.globl	_ZN5Timer5sleepEm
 397              	_ZN5Timer5sleepEm:
 398              	.LFB8:
  71:src/timer.cpp **** 
  72:src/timer.cpp **** int Timer::sleep(time_t timeToSleep){
 399              		.loc 1 72 37 is_stmt 1
 400              		.cfi_startproc
 401              	.LVL36:
 402 0250 130101FD 		addi	sp,sp,-48
 403              		.cfi_def_cfa_offset 48
 404 0254 23341102 		sd	ra,40(sp)
 405 0258 23308102 		sd	s0,32(sp)
 406 025c 233C9100 		sd	s1,24(sp)
 407 0260 23382101 		sd	s2,16(sp)
 408 0264 23343101 		sd	s3,8(sp)
 409              		.cfi_offset 1, -8
 410              		.cfi_offset 8, -16
 411              		.cfi_offset 9, -24
 412              		.cfi_offset 18, -32
 413              		.cfi_offset 19, -40
 414 0268 13040103 		addi	s0,sp,48
 415              		.cfi_def_cfa 8, 0
 416 026c 93040500 		mv	s1,a0
 417 0270 13890500 		mv	s2,a1
  73:src/timer.cpp ****     thread_t thread = _thread::currentThread;
GAS LISTING /tmp/ccWflpKm.s 			page 11


 418              		.loc 1 73 5
 419              		.loc 1 73 14 is_stmt 0
 420 0274 97070000 		la	a5,_ZN7_thread13currentThreadE
 420      83B70700 
 421 027c 83B90700 		ld	s3,0(a5)
 422              	.LVL37:
  74:src/timer.cpp ****     threadSleepWrapper* newSleepingThread = (threadSleepWrapper*)mem_alloc(sizeof(threadSleepWrappe
 423              		.loc 1 74 5 is_stmt 1
 424              		.loc 1 74 75 is_stmt 0
 425 0280 13058001 		li	a0,24
 426              	.LVL38:
 427 0284 97000000 		call	_Z9mem_allocm@plt
 427      E7800000 
 428              	.LVL39:
  75:src/timer.cpp ****     newSleepingThread->thread = thread;
 429              		.loc 1 75 5 is_stmt 1
 430              		.loc 1 75 31 is_stmt 0
 431 028c 23303501 		sd	s3,0(a0)
  76:src/timer.cpp ****     newSleepingThread->wakeUpTime = time + timeToSleep;
 432              		.loc 1 76 5 is_stmt 1
 433              		.loc 1 76 37 is_stmt 0
 434 0290 83B78400 		ld	a5,8(s1)
 435              		.loc 1 76 42
 436 0294 B3852701 		add	a1,a5,s2
 437              		.loc 1 76 35
 438 0298 2334B500 		sd	a1,8(a0)
  77:src/timer.cpp ****     newSleepingThread->next = 0;
 439              		.loc 1 77 5 is_stmt 1
 440              		.loc 1 77 29 is_stmt 0
 441 029c 23380500 		sd	zero,16(a0)
  78:src/timer.cpp **** 
  79:src/timer.cpp ****     if(sleepingHead == 0){
 442              		.loc 1 79 5 is_stmt 1
 443              	.LBB11:
 444              		.loc 1 79 8 is_stmt 0
 445 02a0 83B70400 		ld	a5,0(s1)
 446              		.loc 1 79 5
 447 02a4 638C0704 		beqz	a5,.L34
 448              	.L30:
 449              	.LVL40:
 450              	.LBB12:
  80:src/timer.cpp ****         sleepingHead = newSleepingThread;
  81:src/timer.cpp ****     }else{
  82:src/timer.cpp ****         threadSleepWrapper* current = sleepingHead;
  83:src/timer.cpp ****         while(current->next != 0 && current->next->wakeUpTime < newSleepingThread->wakeUpTime){
 451              		.loc 1 83 9 is_stmt 1
 452              		.loc 1 83 34
 453 02a8 93860700 		mv	a3,a5
 454              		.loc 1 83 24 is_stmt 0
 455 02ac 83B70701 		ld	a5,16(a5)
 456              	.LVL41:
 457              		.loc 1 83 34
 458 02b0 63860700 		beqz	a5,.L32
 459              		.loc 1 83 52 discriminator 1
 460 02b4 03B78700 		ld	a4,8(a5)
 461              		.loc 1 83 34 discriminator 1
 462 02b8 E368B7FE 		bgtu	a1,a4,.L30
GAS LISTING /tmp/ccWflpKm.s 			page 12


 463              	.L32:
  84:src/timer.cpp ****             current = current->next;
  85:src/timer.cpp ****         }
  86:src/timer.cpp ****         newSleepingThread->next = current->next;
 464              		.loc 1 86 9 is_stmt 1
 465              		.loc 1 86 33 is_stmt 0
 466 02bc 2338F500 		sd	a5,16(a0)
  87:src/timer.cpp ****         current->next = newSleepingThread;
 467              		.loc 1 87 9 is_stmt 1
 468              		.loc 1 87 23 is_stmt 0
 469 02c0 23B8A600 		sd	a0,16(a3)
 470              	.LVL42:
 471              	.L31:
 472              	.LBE12:
 473              	.LBE11:
  88:src/timer.cpp ****     }
  89:src/timer.cpp ****     thread->setSleeping(true);
 474              		.loc 1 89 5 is_stmt 1
 475              		.loc 1 89 24 is_stmt 0
 476 02c4 93051000 		li	a1,1
 477 02c8 13850900 		mv	a0,s3
 478              	.LVL43:
 479 02cc 97000000 		call	_ZN7_thread11setSleepingEb@plt
 479      E7800000 
 480              	.LVL44:
  90:src/timer.cpp ****     thread_dispatch();
 481              		.loc 1 90 5 is_stmt 1
 482              		.loc 1 90 20 is_stmt 0
 483 02d4 97000000 		call	_Z15thread_dispatchv@plt
 483      E7800000 
 484              	.LVL45:
  91:src/timer.cpp ****     return 0;
 485              		.loc 1 91 5 is_stmt 1
  92:src/timer.cpp **** }
 486              		.loc 1 92 1 is_stmt 0
 487 02dc 13050000 		li	a0,0
 488 02e0 83308102 		ld	ra,40(sp)
 489              		.cfi_remember_state
 490              		.cfi_restore 1
 491 02e4 03340102 		ld	s0,32(sp)
 492              		.cfi_restore 8
 493              		.cfi_def_cfa 2, 48
 494 02e8 83348101 		ld	s1,24(sp)
 495              		.cfi_restore 9
 496              	.LVL46:
 497 02ec 03390101 		ld	s2,16(sp)
 498              		.cfi_restore 18
 499              	.LVL47:
 500 02f0 83398100 		ld	s3,8(sp)
 501              		.cfi_restore 19
 502              	.LVL48:
 503 02f4 13010103 		addi	sp,sp,48
 504              		.cfi_def_cfa_offset 0
 505 02f8 67800000 		jr	ra
 506              	.LVL49:
 507              	.L34:
 508              		.cfi_restore_state
GAS LISTING /tmp/ccWflpKm.s 			page 13


 509              	.LBB13:
  80:src/timer.cpp ****     }else{
 510              		.loc 1 80 9 is_stmt 1
  80:src/timer.cpp ****     }else{
 511              		.loc 1 80 22 is_stmt 0
 512 02fc 23B0A400 		sd	a0,0(s1)
 513 0300 6FF05FFC 		j	.L31
 514              	.LBE13:
 515              		.cfi_endproc
 516              	.LFE8:
 518              		.align	2
 519              		.globl	_ZN5Timer17noSleepingThreadsEv
 521              	_ZN5Timer17noSleepingThreadsEv:
 522              	.LFB9:
  93:src/timer.cpp **** 
  94:src/timer.cpp **** bool Timer::noSleepingThreads(){
 523              		.loc 1 94 32 is_stmt 1
 524              		.cfi_startproc
 525              	.LVL50:
 526 0304 130101FF 		addi	sp,sp,-16
 527              		.cfi_def_cfa_offset 16
 528 0308 23348100 		sd	s0,8(sp)
 529              		.cfi_offset 8, -8
 530 030c 13040101 		addi	s0,sp,16
 531              		.cfi_def_cfa 8, 0
  95:src/timer.cpp ****     return sleepingHead == 0;
 532              		.loc 1 95 5
 533              		.loc 1 95 12 is_stmt 0
 534 0310 03350500 		ld	a0,0(a0)
 535              	.LVL51:
  96:src/timer.cpp **** }...
 536              		.loc 1 96 1
 537 0314 13351500 		seqz	a0,a0
 538 0318 03348100 		ld	s0,8(sp)
 539              		.cfi_restore 8
 540              		.cfi_def_cfa 2, 16
 541 031c 13010101 		addi	sp,sp,16
 542              		.cfi_def_cfa_offset 0
 543 0320 67800000 		jr	ra
 544              		.cfi_endproc
 545              	.LFE9:
 547              		.globl	_ZN5Timer8instanceE
 548              		.bss
 549              		.align	3
 550              		.set	.LANCHOR0,. + 0
 553              	_ZN5Timer8instanceE:
 554 0000 00000000 		.zero	8
 554      00000000 
 555              		.text
 556              	.Letext0:
 557              		.file 2 "./lib/hw.h"
 558              		.file 3 "./h/thread.h"
 559              		.file 4 "./h/timer.h"
 560              		.file 5 "./h/sched.h"
 561              		.file 6 "./h/syscalls_c.h"
 562              		.file 7 "./lib/console.h"
 563              		.file 8 "./h/assert.h"
GAS LISTING /tmp/ccWflpKm.s 			page 14


 3293              		.align	3
 3296              	DW.ref.__gxx_personality_v0:
 3297 0000 00000000 		.dword	__gxx_personality_v0
 3297      00000000 
 3298              		.ident	"GCC: (Ubuntu 9.4.0-1ubuntu1~20.04) 9.4.0"
 3299              		.section	.note.GNU-stack,"",@progbits
GAS LISTING /tmp/ccWflpKm.s 			page 15


DEFINED SYMBOLS
                            *ABS*:0000000000000000 timer.cpp
     /tmp/ccWflpKm.s:20     .text:0000000000000000 _ZN5TimerC2Ev
     /tmp/ccWflpKm.s:24     .text:0000000000000000 .L0 
     /tmp/ccWflpKm.s:26     .text:0000000000000000 .L0 
     /tmp/ccWflpKm.s:27     .text:0000000000000004 .L0 
     /tmp/ccWflpKm.s:31     .text:0000000000000010 .L0 
     /tmp/ccWflpKm.s:32     .text:0000000000000010 .L0 
     /tmp/ccWflpKm.s:33     .text:0000000000000010 .L0 
     /tmp/ccWflpKm.s:35     .text:0000000000000014 .L0 
     /tmp/ccWflpKm.s:39     .text:0000000000000018 .L0 
     /tmp/ccWflpKm.s:44     .text:0000000000000024 .L0 
     /tmp/ccWflpKm.s:45     .text:0000000000000024 .L0 
     /tmp/ccWflpKm.s:46     .text:0000000000000024 .L0 
     /tmp/ccWflpKm.s:48     .text:000000000000002c .L0 
     /tmp/ccWflpKm.s:49     .text:000000000000002c .L0 
     /tmp/ccWflpKm.s:51     .text:0000000000000030 .L0 
     /tmp/ccWflpKm.s:52     .text:0000000000000030 .L0 
     /tmp/ccWflpKm.s:55     .text:0000000000000034 .L0 
     /tmp/ccWflpKm.s:56     .text:0000000000000038 .L0 
     /tmp/ccWflpKm.s:57     .text:0000000000000038 .L0 
     /tmp/ccWflpKm.s:59     .text:000000000000003c .L0 
     /tmp/ccWflpKm.s:60     .text:000000000000003c .L0 
     /tmp/ccWflpKm.s:62     .text:0000000000000040 .L0 
     /tmp/ccWflpKm.s:65     .text:0000000000000044 .L0 
     /tmp/ccWflpKm.s:69     .text:0000000000000048 .L0 
     /tmp/ccWflpKm.s:72     .text:0000000000000048 .L0 
     /tmp/ccWflpKm.s:80     .text:0000000000000070 .L0 
     /tmp/ccWflpKm.s:20     .text:0000000000000000 _ZN5TimerC1Ev
     /tmp/ccWflpKm.s:88     .text:0000000000000070 _ZN5TimerD2Ev
     /tmp/ccWflpKm.s:91     .text:0000000000000070 .L0 
     /tmp/ccWflpKm.s:3296   .data.rel.local.DW.ref.__gxx_personality_v0:0000000000000000 DW.ref.__gxx_personality_v0
     /tmp/ccWflpKm.s:96     .text:0000000000000070 .L0 
     /tmp/ccWflpKm.s:97     .text:0000000000000070 .L0 
     /tmp/ccWflpKm.s:98     .text:0000000000000070 .L0 
     /tmp/ccWflpKm.s:101    .text:0000000000000074 .L0 
     /tmp/ccWflpKm.s:102    .text:0000000000000074 .L0 
     /tmp/ccWflpKm.s:105    .text:0000000000000078 .L0 
     /tmp/ccWflpKm.s:106    .text:000000000000007c .L0 
     /tmp/ccWflpKm.s:110    .text:0000000000000088 .L0 
     /tmp/ccWflpKm.s:111    .text:0000000000000088 .L0 
     /tmp/ccWflpKm.s:112    .text:0000000000000088 .L0 
     /tmp/ccWflpKm.s:114    .text:000000000000008c .L0 
     /tmp/ccWflpKm.s:119    .text:000000000000008c .L0 
     /tmp/ccWflpKm.s:120    .text:000000000000008c .L0 
     /tmp/ccWflpKm.s:123    .text:0000000000000090 .L0 
     /tmp/ccWflpKm.s:124    .text:0000000000000090 .L0 
     /tmp/ccWflpKm.s:127    .text:0000000000000098 .L0 
     /tmp/ccWflpKm.s:128    .text:0000000000000098 .L0 
     /tmp/ccWflpKm.s:131    .text:000000000000009c .L0 
     /tmp/ccWflpKm.s:132    .text:000000000000009c .L0 
     /tmp/ccWflpKm.s:135    .text:00000000000000a0 .L0 
     /tmp/ccWflpKm.s:136    .text:00000000000000a4 .L0 
     /tmp/ccWflpKm.s:138    .text:00000000000000a8 .L0 
     /tmp/ccWflpKm.s:139    .text:00000000000000a8 .L0 
     /tmp/ccWflpKm.s:141    .text:00000000000000ac .L0 
     /tmp/ccWflpKm.s:144    .text:00000000000000b0 .L0 
GAS LISTING /tmp/ccWflpKm.s 			page 16


     /tmp/ccWflpKm.s:149    .text:00000000000000b8 .L0 
     /tmp/ccWflpKm.s:88     .text:0000000000000070 _ZN5TimerD1Ev
     /tmp/ccWflpKm.s:173    .text:00000000000000b8 _ZN5Timer11getInstanceEv
     /tmp/ccWflpKm.s:176    .text:00000000000000b8 .L0 
     /tmp/ccWflpKm.s:177    .text:00000000000000b8 .L0 
     /tmp/ccWflpKm.s:178    .text:00000000000000b8 .L0 
     /tmp/ccWflpKm.s:181    .text:00000000000000c4 .L0 
     /tmp/ccWflpKm.s:182    .text:00000000000000c4 .L0 
     /tmp/ccWflpKm.s:183    .text:00000000000000c4 .L0 
     /tmp/ccWflpKm.s:187    .text:00000000000000d0 .L0 
     /tmp/ccWflpKm.s:188    .text:00000000000000d4 .L0 
     /tmp/ccWflpKm.s:191    .text:00000000000000dc .L0 
     /tmp/ccWflpKm.s:192    .text:00000000000000dc .L0 
     /tmp/ccWflpKm.s:194    .text:00000000000000e0 .L0 
     /tmp/ccWflpKm.s:196    .text:00000000000000e0 .L0 
     /tmp/ccWflpKm.s:203    .text:0000000000000104 .L0 
     /tmp/ccWflpKm.s:204    .text:0000000000000104 .L0 
     /tmp/ccWflpKm.s:205    .text:0000000000000104 .L0 
     /tmp/ccWflpKm.s:207    .text:0000000000000110 .L0 
     /tmp/ccWflpKm.s:209    .text:0000000000000114 .L0 
     /tmp/ccWflpKm.s:210    .text:0000000000000114 .L0 
     /tmp/ccWflpKm.s:212    .text:0000000000000118 .L0 
     /tmp/ccWflpKm.s:214    .text:000000000000011c .L0 
     /tmp/ccWflpKm.s:220    .text:000000000000011c _ZN5Timer4tickEv
     /tmp/ccWflpKm.s:223    .text:000000000000011c .L0 
     /tmp/ccWflpKm.s:225    .text:000000000000011c .L0 
     /tmp/ccWflpKm.s:226    .text:0000000000000120 .L0 
     /tmp/ccWflpKm.s:232    .text:0000000000000134 .L0 
     /tmp/ccWflpKm.s:233    .text:0000000000000134 .L0 
     /tmp/ccWflpKm.s:234    .text:0000000000000134 .L0 
     /tmp/ccWflpKm.s:235    .text:0000000000000134 .L0 
     /tmp/ccWflpKm.s:236    .text:0000000000000134 .L0 
     /tmp/ccWflpKm.s:238    .text:0000000000000138 .L0 
     /tmp/ccWflpKm.s:241    .text:000000000000013c .L0 
     /tmp/ccWflpKm.s:242    .text:000000000000013c .L0 
     /tmp/ccWflpKm.s:246    .text:0000000000000148 .L0 
     /tmp/ccWflpKm.s:247    .text:0000000000000148 .L0 
     /tmp/ccWflpKm.s:250    .text:0000000000000150 .L0 
     /tmp/ccWflpKm.s:254    .text:0000000000000154 .L0 
     /tmp/ccWflpKm.s:255    .text:0000000000000154 .L0 
     /tmp/ccWflpKm.s:261    .text:000000000000015c .L0 
     /tmp/ccWflpKm.s:262    .text:000000000000015c .L0 
     /tmp/ccWflpKm.s:267    .text:0000000000000168 .L0 
     /tmp/ccWflpKm.s:268    .text:0000000000000168 .L0 
     /tmp/ccWflpKm.s:272    .text:0000000000000174 .L0 
     /tmp/ccWflpKm.s:273    .text:0000000000000174 .L0 
     /tmp/ccWflpKm.s:277    .text:0000000000000180 .L0 
     /tmp/ccWflpKm.s:278    .text:0000000000000180 .L0 
     /tmp/ccWflpKm.s:282    .text:000000000000018c .L0 
     /tmp/ccWflpKm.s:283    .text:000000000000018c .L0 
     /tmp/ccWflpKm.s:287    .text:0000000000000198 .L0 
     /tmp/ccWflpKm.s:288    .text:0000000000000198 .L0 
     /tmp/ccWflpKm.s:297    .text:00000000000001a8 .L0 
     /tmp/ccWflpKm.s:298    .text:00000000000001a8 .L0 
     /tmp/ccWflpKm.s:301    .text:00000000000001ac .L0 
     /tmp/ccWflpKm.s:302    .text:00000000000001ac .L0 
     /tmp/ccWflpKm.s:306    .text:00000000000001b8 .L0 
GAS LISTING /tmp/ccWflpKm.s 			page 17


     /tmp/ccWflpKm.s:307    .text:00000000000001b8 .L0 
     /tmp/ccWflpKm.s:313    .text:00000000000001bc .L0 
     /tmp/ccWflpKm.s:314    .text:00000000000001bc .L0 
     /tmp/ccWflpKm.s:317    .text:00000000000001c0 .L0 
     /tmp/ccWflpKm.s:318    .text:00000000000001c0 .L0 
     /tmp/ccWflpKm.s:320    .text:00000000000001c4 .L0 
     /tmp/ccWflpKm.s:322    .text:00000000000001c8 .L0 
     /tmp/ccWflpKm.s:325    .text:00000000000001cc .L0 
     /tmp/ccWflpKm.s:326    .text:00000000000001cc .L0 
     /tmp/ccWflpKm.s:330    .text:00000000000001d8 .L0 
     /tmp/ccWflpKm.s:331    .text:00000000000001d8 .L0 
     /tmp/ccWflpKm.s:335    .text:00000000000001e4 .L0 
     /tmp/ccWflpKm.s:336    .text:00000000000001e4 .L0 
     /tmp/ccWflpKm.s:338    .text:00000000000001e8 .L0 
     /tmp/ccWflpKm.s:340    .text:00000000000001ec .L0 
     /tmp/ccWflpKm.s:345    .text:00000000000001fc .L0 
     /tmp/ccWflpKm.s:346    .text:00000000000001fc .L0 
     /tmp/ccWflpKm.s:350    .text:0000000000000208 .L0 
     /tmp/ccWflpKm.s:351    .text:0000000000000208 .L0 
     /tmp/ccWflpKm.s:356    .text:0000000000000218 .L0 
     /tmp/ccWflpKm.s:357    .text:0000000000000218 .L0 
     /tmp/ccWflpKm.s:361    .text:0000000000000224 .L0 
     /tmp/ccWflpKm.s:362    .text:0000000000000224 .L0 
     /tmp/ccWflpKm.s:365    .text:0000000000000228 .L0 
     /tmp/ccWflpKm.s:366    .text:0000000000000228 .L0 
     /tmp/ccWflpKm.s:368    .text:000000000000022c .L0 
     /tmp/ccWflpKm.s:375    .text:0000000000000234 .L0 
     /tmp/ccWflpKm.s:376    .text:0000000000000238 .L0 
     /tmp/ccWflpKm.s:378    .text:000000000000023c .L0 
     /tmp/ccWflpKm.s:379    .text:000000000000023c .L0 
     /tmp/ccWflpKm.s:381    .text:0000000000000240 .L0 
     /tmp/ccWflpKm.s:384    .text:0000000000000244 .L0 
     /tmp/ccWflpKm.s:387    .text:0000000000000248 .L0 
     /tmp/ccWflpKm.s:389    .text:000000000000024c .L0 
     /tmp/ccWflpKm.s:391    .text:0000000000000250 .L0 
     /tmp/ccWflpKm.s:397    .text:0000000000000250 _ZN5Timer5sleepEm
     /tmp/ccWflpKm.s:400    .text:0000000000000250 .L0 
     /tmp/ccWflpKm.s:402    .text:0000000000000250 .L0 
     /tmp/ccWflpKm.s:403    .text:0000000000000254 .L0 
     /tmp/ccWflpKm.s:409    .text:0000000000000268 .L0 
     /tmp/ccWflpKm.s:410    .text:0000000000000268 .L0 
     /tmp/ccWflpKm.s:411    .text:0000000000000268 .L0 
     /tmp/ccWflpKm.s:412    .text:0000000000000268 .L0 
     /tmp/ccWflpKm.s:413    .text:0000000000000268 .L0 
     /tmp/ccWflpKm.s:415    .text:000000000000026c .L0 
     /tmp/ccWflpKm.s:419    .text:0000000000000274 .L0 
     /tmp/ccWflpKm.s:420    .text:0000000000000274 .L0 
     /tmp/ccWflpKm.s:424    .text:0000000000000280 .L0 
     /tmp/ccWflpKm.s:425    .text:0000000000000280 .L0 
     /tmp/ccWflpKm.s:430    .text:000000000000028c .L0 
     /tmp/ccWflpKm.s:431    .text:000000000000028c .L0 
     /tmp/ccWflpKm.s:433    .text:0000000000000290 .L0 
     /tmp/ccWflpKm.s:434    .text:0000000000000290 .L0 
     /tmp/ccWflpKm.s:436    .text:0000000000000294 .L0 
     /tmp/ccWflpKm.s:438    .text:0000000000000298 .L0 
     /tmp/ccWflpKm.s:440    .text:000000000000029c .L0 
     /tmp/ccWflpKm.s:441    .text:000000000000029c .L0 
GAS LISTING /tmp/ccWflpKm.s 			page 18


     /tmp/ccWflpKm.s:444    .text:00000000000002a0 .L0 
     /tmp/ccWflpKm.s:445    .text:00000000000002a0 .L0 
     /tmp/ccWflpKm.s:447    .text:00000000000002a4 .L0 
     /tmp/ccWflpKm.s:452    .text:00000000000002a8 .L0 
     /tmp/ccWflpKm.s:453    .text:00000000000002a8 .L0 
     /tmp/ccWflpKm.s:455    .text:00000000000002ac .L0 
     /tmp/ccWflpKm.s:458    .text:00000000000002b0 .L0 
     /tmp/ccWflpKm.s:460    .text:00000000000002b4 .L0 
     /tmp/ccWflpKm.s:462    .text:00000000000002b8 .L0 
     /tmp/ccWflpKm.s:465    .text:00000000000002bc .L0 
     /tmp/ccWflpKm.s:466    .text:00000000000002bc .L0 
     /tmp/ccWflpKm.s:468    .text:00000000000002c0 .L0 
     /tmp/ccWflpKm.s:469    .text:00000000000002c0 .L0 
     /tmp/ccWflpKm.s:475    .text:00000000000002c4 .L0 
     /tmp/ccWflpKm.s:476    .text:00000000000002c4 .L0 
     /tmp/ccWflpKm.s:482    .text:00000000000002d4 .L0 
     /tmp/ccWflpKm.s:483    .text:00000000000002d4 .L0 
     /tmp/ccWflpKm.s:486    .text:00000000000002dc .L0 
     /tmp/ccWflpKm.s:487    .text:00000000000002dc .L0 
     /tmp/ccWflpKm.s:489    .text:00000000000002e4 .L0 
     /tmp/ccWflpKm.s:490    .text:00000000000002e4 .L0 
     /tmp/ccWflpKm.s:492    .text:00000000000002e8 .L0 
     /tmp/ccWflpKm.s:493    .text:00000000000002e8 .L0 
     /tmp/ccWflpKm.s:495    .text:00000000000002ec .L0 
     /tmp/ccWflpKm.s:498    .text:00000000000002f0 .L0 
     /tmp/ccWflpKm.s:501    .text:00000000000002f4 .L0 
     /tmp/ccWflpKm.s:504    .text:00000000000002f8 .L0 
     /tmp/ccWflpKm.s:508    .text:00000000000002fc .L0 
     /tmp/ccWflpKm.s:511    .text:00000000000002fc .L0 
     /tmp/ccWflpKm.s:512    .text:00000000000002fc .L0 
     /tmp/ccWflpKm.s:515    .text:0000000000000304 .L0 
     /tmp/ccWflpKm.s:521    .text:0000000000000304 _ZN5Timer17noSleepingThreadsEv
     /tmp/ccWflpKm.s:524    .text:0000000000000304 .L0 
     /tmp/ccWflpKm.s:526    .text:0000000000000304 .L0 
     /tmp/ccWflpKm.s:527    .text:0000000000000308 .L0 
     /tmp/ccWflpKm.s:529    .text:000000000000030c .L0 
     /tmp/ccWflpKm.s:531    .text:0000000000000310 .L0 
     /tmp/ccWflpKm.s:533    .text:0000000000000310 .L0 
     /tmp/ccWflpKm.s:534    .text:0000000000000310 .L0 
     /tmp/ccWflpKm.s:537    .text:0000000000000314 .L0 
     /tmp/ccWflpKm.s:539    .text:000000000000031c .L0 
     /tmp/ccWflpKm.s:540    .text:000000000000031c .L0 
     /tmp/ccWflpKm.s:542    .text:0000000000000320 .L0 
     /tmp/ccWflpKm.s:544    .text:0000000000000324 .L0 
     /tmp/ccWflpKm.s:553    .bss:0000000000000000 _ZN5Timer8instanceE
     /tmp/ccWflpKm.s:550    .bss:0000000000000000 .LANCHOR0
     /tmp/ccWflpKm.s:564    .text:0000000000000324 .L0 
     /tmp/ccWflpKm.s:39     .text:0000000000000018 .L0 
     /tmp/ccWflpKm.s:46     .text:0000000000000024 .L0 
     /tmp/ccWflpKm.s:8      .rodata.str1.8:0000000000000000 .LC0
     /tmp/ccWflpKm.s:72     .text:0000000000000048 .L0 
     /tmp/ccWflpKm.s:11     .rodata.str1.8:0000000000000010 .LC1
     /tmp/ccWflpKm.s:74     .text:0000000000000054 .L0 
     /tmp/ccWflpKm.s:14     .rodata.str1.8:0000000000000020 .LC2
     /tmp/ccWflpKm.s:75     .text:000000000000005c .L0 
     /tmp/ccWflpKm.s:178    .text:00000000000000b8 .L0 
     /tmp/ccWflpKm.s:183    .text:00000000000000c4 .L0 
GAS LISTING /tmp/ccWflpKm.s 			page 19


     /tmp/ccWflpKm.s:164    .rodata.str1.8:0000000000000030 .LC3
     /tmp/ccWflpKm.s:196    .text:00000000000000e0 .L0 
     /tmp/ccWflpKm.s:198    .text:00000000000000ec .L0 
     /tmp/ccWflpKm.s:167    .rodata.str1.8:0000000000000058 .LC4
     /tmp/ccWflpKm.s:199    .text:00000000000000f4 .L0 
     /tmp/ccWflpKm.s:205    .text:0000000000000104 .L0 
     /tmp/ccWflpKm.s:420    .text:0000000000000274 .L0 
     /tmp/ccWflpKm.s:68     .text:0000000000000048 .L4
     /tmp/ccWflpKm.s:42     .text:0000000000000024 .L2
     /tmp/ccWflpKm.s:147    .text:00000000000000b4 .L13
     /tmp/ccWflpKm.s:115    .text:000000000000008c .L11
     /tmp/ccWflpKm.s:185    .text:00000000000000d0 .L20
     /tmp/ccWflpKm.s:259    .text:000000000000015c .L27
     /tmp/ccWflpKm.s:309    .text:00000000000001bc .L25
     /tmp/ccWflpKm.s:252    .text:0000000000000154 .L22
     /tmp/ccWflpKm.s:371    .text:0000000000000234 .L21
     /tmp/ccWflpKm.s:299    .text:00000000000001ac .L24
     /tmp/ccWflpKm.s:293    .text:00000000000001a8 .L28
     /tmp/ccWflpKm.s:507    .text:00000000000002fc .L34
     /tmp/ccWflpKm.s:463    .text:00000000000002bc .L32
     /tmp/ccWflpKm.s:448    .text:00000000000002a8 .L30
     /tmp/ccWflpKm.s:471    .text:00000000000002c4 .L31
     /tmp/ccWflpKm.s:1886   .debug_abbrev:0000000000000000 .Ldebug_abbrev0
     /tmp/ccWflpKm.s:3254   .debug_str:0000000000000525 .LASF100
     /tmp/ccWflpKm.s:3068   .debug_str:000000000000001b .LASF101
     /tmp/ccWflpKm.s:3204   .debug_str:00000000000003a0 .LASF102
     /tmp/ccWflpKm.s:5      .text:0000000000000000 .Ltext0
     /tmp/ccWflpKm.s:556    .text:0000000000000324 .Letext0
     /tmp/ccWflpKm.s:3060   .debug_line:0000000000000000 .Ldebug_line0
     /tmp/ccWflpKm.s:3190   .debug_str:000000000000035b .LASF0
     /tmp/ccWflpKm.s:3208   .debug_str:00000000000003f0 .LASF1
     /tmp/ccWflpKm.s:3176   .debug_str:0000000000000303 .LASF2
     /tmp/ccWflpKm.s:3238   .debug_str:00000000000004c1 .LASF3
     /tmp/ccWflpKm.s:3150   .debug_str:0000000000000268 .LASF4
     /tmp/ccWflpKm.s:3240   .debug_str:00000000000004c8 .LASF5
     /tmp/ccWflpKm.s:3092   .debug_str:00000000000000e4 .LASF6
     /tmp/ccWflpKm.s:3122   .debug_str:00000000000001aa .LASF7
     /tmp/ccWflpKm.s:3210   .debug_str:0000000000000403 .LASF8
     /tmp/ccWflpKm.s:3188   .debug_str:0000000000000348 .LASF9
     /tmp/ccWflpKm.s:3262   .debug_str:0000000000000620 .LASF10
     /tmp/ccWflpKm.s:3138   .debug_str:000000000000021f .LASF11
     /tmp/ccWflpKm.s:3220   .debug_str:0000000000000443 .LASF12
     /tmp/ccWflpKm.s:3258   .debug_str:00000000000005f5 .LASF13
     /tmp/ccWflpKm.s:3094   .debug_str:00000000000000eb .LASF14
     /tmp/ccWflpKm.s:3070   .debug_str:0000000000000029 .LASF15
     /tmp/ccWflpKm.s:3106   .debug_str:0000000000000148 .LASF16
     /tmp/ccWflpKm.s:3236   .debug_str:00000000000004ab .LASF17
     /tmp/ccWflpKm.s:3116   .debug_str:0000000000000188 .LASF18
     /tmp/ccWflpKm.s:3148   .debug_str:0000000000000260 .LASF35
     /tmp/ccWflpKm.s:3180   .debug_str:0000000000000316 .LASF20
     /tmp/ccWflpKm.s:3232   .debug_str:0000000000000498 .LASF19
     /tmp/ccWflpKm.s:3182   .debug_str:0000000000000325 .LASF21
     /tmp/ccWflpKm.s:3212   .debug_str:0000000000000416 .LASF22
     /tmp/ccWflpKm.s:3286   .debug_str:00000000000006c5 .LASF23
     /tmp/ccWflpKm.s:3166   .debug_str:00000000000002dc .LASF25
     /tmp/ccWflpKm.s:3072   .debug_str:0000000000000039 .LASF27
     /tmp/ccWflpKm.s:3136   .debug_str:000000000000021a .LASF24
GAS LISTING /tmp/ccWflpKm.s 			page 20


     /tmp/ccWflpKm.s:3168   .debug_str:00000000000002e3 .LASF57
     /tmp/ccWflpKm.s:3270   .debug_str:0000000000000668 .LASF59
     /tmp/ccWflpKm.s:3192   .debug_str:0000000000000368 .LASF103
     /tmp/ccWflpKm.s:3250   .debug_str:0000000000000500 .LASF104
     /tmp/ccWflpKm.s:3242   .debug_str:00000000000004da .LASF26
     /tmp/ccWflpKm.s:3160   .debug_str:00000000000002a1 .LASF28
     /tmp/ccWflpKm.s:3124   .debug_str:00000000000001b1 .LASF105
     /tmp/ccWflpKm.s:3074   .debug_str:000000000000005e .LASF29
     /tmp/ccWflpKm.s:3288   .debug_str:00000000000006ca .LASF30
     /tmp/ccWflpKm.s:3098   .debug_str:000000000000010f .LASF31
     /tmp/ccWflpKm.s:3084   .debug_str:000000000000009c .LASF32
     /tmp/ccWflpKm.s:3130   .debug_str:00000000000001e0 .LASF33
     /tmp/ccWflpKm.s:3268   .debug_str:000000000000064d .LASF34
     /tmp/ccWflpKm.s:3264   .debug_str:0000000000000630 .LASF37
     /tmp/ccWflpKm.s:3246   .debug_str:00000000000004f1 .LASF106
     /tmp/ccWflpKm.s:3228   .debug_str:0000000000000479 .LASF107
     /tmp/ccWflpKm.s:3158   .debug_str:000000000000029a .LASF36
     /tmp/ccWflpKm.s:3154   .debug_str:0000000000000278 .LASF38
     /tmp/ccWflpKm.s:3196   .debug_str:000000000000037c .LASF39
     /tmp/ccWflpKm.s:3284   .debug_str:00000000000006bc .LASF40
     /tmp/ccWflpKm.s:3226   .debug_str:0000000000000470 .LASF41
     /tmp/ccWflpKm.s:3152   .debug_str:000000000000026f .LASF42
     /tmp/ccWflpKm.s:3170   .debug_str:00000000000002e8 .LASF43
     /tmp/ccWflpKm.s:3174   .debug_str:00000000000002fc .LASF44
     /tmp/ccWflpKm.s:3064   .debug_str:0000000000000009 .LASF45
     /tmp/ccWflpKm.s:3222   .debug_str:0000000000000452 .LASF46
     /tmp/ccWflpKm.s:3230   .debug_str:000000000000048f .LASF47
     /tmp/ccWflpKm.s:3120   .debug_str:00000000000001a3 .LASF48
     /tmp/ccWflpKm.s:3282   .debug_str:00000000000006b3 .LASF49
     /tmp/ccWflpKm.s:3214   .debug_str:000000000000041d .LASF50
     /tmp/ccWflpKm.s:3164   .debug_str:00000000000002d5 .LASF51
     /tmp/ccWflpKm.s:3272   .debug_str:000000000000067b .LASF108
     /tmp/ccWflpKm.s:3206   .debug_str:00000000000003bc .LASF109
     /tmp/ccWflpKm.s:3078   .debug_str:000000000000007b .LASF52
     /tmp/ccWflpKm.s:3062   .debug_str:0000000000000000 .LASF53
     /tmp/ccWflpKm.s:3216   .debug_str:0000000000000426 .LASF54
     /tmp/ccWflpKm.s:3234   .debug_str:00000000000004a0 .LASF55
     /tmp/ccWflpKm.s:3184   .debug_str:0000000000000334 .LASF56
     /tmp/ccWflpKm.s:3256   .debug_str:00000000000005e9 .LASF58
     /tmp/ccWflpKm.s:3276   .debug_str:0000000000000690 .LASF60
     /tmp/ccWflpKm.s:3202   .debug_str:000000000000039a .LASF63
     /tmp/ccWflpKm.s:3080   .debug_str:0000000000000080 .LASF65
     /tmp/ccWflpKm.s:3278   .debug_str:00000000000006a9 .LASF61
     /tmp/ccWflpKm.s:3102   .debug_str:000000000000012d .LASF62
     /tmp/ccWflpKm.s:3244   .debug_str:00000000000004df .LASF64
     /tmp/ccWflpKm.s:3162   .debug_str:00000000000002b6 .LASF66
     /tmp/ccWflpKm.s:3088   .debug_str:00000000000000cd .LASF67
     /tmp/ccWflpKm.s:3274   .debug_str:0000000000000689 .LASF68
     /tmp/ccWflpKm.s:3140   .debug_str:000000000000022d .LASF69
     /tmp/ccWflpKm.s:3172   .debug_str:00000000000002f3 .LASF70
     /tmp/ccWflpKm.s:3156   .debug_str:000000000000028d .LASF71
     /tmp/ccWflpKm.s:3266   .debug_str:0000000000000648 .LASF72
     /tmp/ccWflpKm.s:3218   .debug_str:0000000000000439 .LASF73
     /tmp/ccWflpKm.s:3194   .debug_str:0000000000000371 .LASF74
     /tmp/ccWflpKm.s:3076   .debug_str:0000000000000069 .LASF75
     /tmp/ccWflpKm.s:3260   .debug_str:0000000000000604 .LASF110
     /tmp/ccWflpKm.s:3144   .debug_str:0000000000000240 .LASF111
GAS LISTING /tmp/ccWflpKm.s 			page 21


     /tmp/ccWflpKm.s:3112   .debug_str:0000000000000172 .LASF76
     /tmp/ccWflpKm.s:3126   .debug_str:00000000000001bf .LASF77
     /tmp/ccWflpKm.s:3090   .debug_str:00000000000000db .LASF78
     /tmp/ccWflpKm.s:3086   .debug_str:00000000000000b4 .LASF79
     /tmp/ccWflpKm.s:3118   .debug_str:000000000000019e .LASF80
     /tmp/ccWflpKm.s:3178   .debug_str:0000000000000311 .LASF81
     /tmp/ccWflpKm.s:3104   .debug_str:000000000000013e .LASF82
     /tmp/ccWflpKm.s:3096   .debug_str:00000000000000fb .LASF112
     /tmp/ccWflpKm.s:522    .text:0000000000000304 .LFB9
     /tmp/ccWflpKm.s:545    .text:0000000000000324 .LFE9
     /tmp/ccWflpKm.s:3280   .debug_str:00000000000006ae .LASF83
     /tmp/ccWflpKm.s:2818   .debug_loc:0000000000000000 .LLST12
     /tmp/ccWflpKm.s:398    .text:0000000000000250 .LFB8
     /tmp/ccWflpKm.s:516    .text:0000000000000304 .LFE8
     /tmp/ccWflpKm.s:2832   .debug_loc:0000000000000039 .LLST7
     /tmp/ccWflpKm.s:3146   .debug_str:0000000000000254 .LASF113
     /tmp/ccWflpKm.s:2854   .debug_loc:0000000000000098 .LLST8
     /tmp/ccWflpKm.s:2876   .debug_loc:00000000000000f7 .LLST9
     /tmp/ccWflpKm.s:3134   .debug_str:0000000000000208 .LASF84
     /tmp/ccWflpKm.s:2887   .debug_loc:000000000000012d .LLST10
     /tmp/ccWflpKm.s:450    .text:00000000000002a8 .LBB12
     /tmp/ccWflpKm.s:472    .text:00000000000002c4 .LBE12
     /tmp/ccWflpKm.s:3200   .debug_str:0000000000000392 .LASF85
     /tmp/ccWflpKm.s:2898   .debug_loc:0000000000000163 .LLST11
     /tmp/ccWflpKm.s:428    .text:000000000000028c .LVL39
     /tmp/ccWflpKm.s:480    .text:00000000000002d4 .LVL44
     /tmp/ccWflpKm.s:484    .text:00000000000002dc .LVL45
     /tmp/ccWflpKm.s:221    .text:000000000000011c .LFB7
     /tmp/ccWflpKm.s:392    .text:0000000000000250 .LFE7
     /tmp/ccWflpKm.s:2909   .debug_loc:0000000000000199 .LLST4
     /tmp/ccWflpKm.s:2935   .debug_loc:000000000000020b .LLST5
     /tmp/ccWflpKm.s:3040   .debug_ranges:0000000000000000 .Ldebug_ranges0
     /tmp/ccWflpKm.s:2954   .debug_loc:0000000000000267 .LLST6
     /tmp/ccWflpKm.s:304    .text:00000000000001b8 .LVL24
     /tmp/ccWflpKm.s:328    .text:00000000000001d8 .LVL26
     /tmp/ccWflpKm.s:333    .text:00000000000001e4 .LVL27
     /tmp/ccWflpKm.s:343    .text:00000000000001fc .LVL28
     /tmp/ccWflpKm.s:348    .text:0000000000000208 .LVL29
     /tmp/ccWflpKm.s:354    .text:0000000000000218 .LVL30
     /tmp/ccWflpKm.s:359    .text:0000000000000224 .LVL31
     /tmp/ccWflpKm.s:265    .text:0000000000000168 .LVL17
     /tmp/ccWflpKm.s:270    .text:0000000000000174 .LVL18
     /tmp/ccWflpKm.s:275    .text:0000000000000180 .LVL19
     /tmp/ccWflpKm.s:280    .text:000000000000018c .LVL20
     /tmp/ccWflpKm.s:285    .text:0000000000000198 .LVL21
     /tmp/ccWflpKm.s:290    .text:00000000000001a4 .LVL22
     /tmp/ccWflpKm.s:174    .text:00000000000000b8 .LFB6
     /tmp/ccWflpKm.s:215    .text:000000000000011c .LFE6
     /tmp/ccWflpKm.s:3100   .debug_str:0000000000000119 .LASF88
     /tmp/ccWflpKm.s:201    .text:0000000000000104 .LVL11
     /tmp/ccWflpKm.s:3142   .debug_str:000000000000023b .LASF86
     /tmp/ccWflpKm.s:3082   .debug_str:0000000000000092 .LASF87
     /tmp/ccWflpKm.s:3198   .debug_str:0000000000000384 .LASF89
     /tmp/ccWflpKm.s:89     .text:0000000000000070 .LFB4
     /tmp/ccWflpKm.s:150    .text:00000000000000b8 .LFE4
     /tmp/ccWflpKm.s:2965   .debug_loc:000000000000029d .LLST1
     /tmp/ccWflpKm.s:125    .text:0000000000000098 .LVL8
GAS LISTING /tmp/ccWflpKm.s 			page 22


     /tmp/ccWflpKm.s:2979   .debug_loc:00000000000002d6 .LLST2
     /tmp/ccWflpKm.s:117    .text:000000000000008c .LBB5
     /tmp/ccWflpKm.s:129    .text:000000000000009c .LBE5
     /tmp/ccWflpKm.s:2994   .debug_loc:000000000000031f .LLST3
     /tmp/ccWflpKm.s:3186   .debug_str:000000000000033a .LASF90
     /tmp/ccWflpKm.s:21     .text:0000000000000000 .LFB1
     /tmp/ccWflpKm.s:81     .text:0000000000000070 .LFE1
     /tmp/ccWflpKm.s:3005   .debug_loc:0000000000000355 .LLST0
     /tmp/ccWflpKm.s:77     .text:000000000000006c .LVL4
     /tmp/ccWflpKm.s:3114   .debug_str:000000000000017a .LASF91
     /tmp/ccWflpKm.s:3066   .debug_str:0000000000000011 .LASF93
     /tmp/ccWflpKm.s:3224   .debug_str:000000000000045b .LASF92
     /tmp/ccWflpKm.s:3108   .debug_str:0000000000000154 .LASF94
     /tmp/ccWflpKm.s:3110   .debug_str:0000000000000164 .LASF95
     /tmp/ccWflpKm.s:3128   .debug_str:00000000000001d7 .LASF96
     /tmp/ccWflpKm.s:3248   .debug_str:00000000000004f9 .LASF97
     /tmp/ccWflpKm.s:3132   .debug_str:00000000000001ec .LASF98
     /tmp/ccWflpKm.s:3252   .debug_str:0000000000000517 .LASF99
     /tmp/ccWflpKm.s:525    .text:0000000000000304 .LVL50
     /tmp/ccWflpKm.s:535    .text:0000000000000314 .LVL51
     /tmp/ccWflpKm.s:401    .text:0000000000000250 .LVL36
     /tmp/ccWflpKm.s:426    .text:0000000000000284 .LVL38
     /tmp/ccWflpKm.s:496    .text:00000000000002ec .LVL46
     /tmp/ccWflpKm.s:506    .text:00000000000002fc .LVL49
     /tmp/ccWflpKm.s:499    .text:00000000000002f0 .LVL47
     /tmp/ccWflpKm.s:422    .text:0000000000000280 .LVL37
     /tmp/ccWflpKm.s:502    .text:00000000000002f4 .LVL48
     /tmp/ccWflpKm.s:478    .text:00000000000002cc .LVL43
     /tmp/ccWflpKm.s:449    .text:00000000000002a8 .LVL40
     /tmp/ccWflpKm.s:456    .text:00000000000002b0 .LVL41
     /tmp/ccWflpKm.s:470    .text:00000000000002c4 .LVL42
     /tmp/ccWflpKm.s:224    .text:000000000000011c .LVL12
     /tmp/ccWflpKm.s:251    .text:0000000000000154 .LVL13
     /tmp/ccWflpKm.s:258    .text:000000000000015c .LVL15
     /tmp/ccWflpKm.s:263    .text:0000000000000160 .LVL16
     /tmp/ccWflpKm.s:385    .text:0000000000000244 .LVL35
     /tmp/ccWflpKm.s:256    .text:0000000000000158 .LVL14
     /tmp/ccWflpKm.s:292    .text:00000000000001a8 .LVL23
     /tmp/ccWflpKm.s:308    .text:00000000000001bc .LVL25
     /tmp/ccWflpKm.s:382    .text:0000000000000240 .LVL34
     /tmp/ccWflpKm.s:363    .text:0000000000000228 .LVL32
     /tmp/ccWflpKm.s:370    .text:0000000000000234 .LVL33
     /tmp/ccWflpKm.s:94     .text:0000000000000070 .LVL5
     /tmp/ccWflpKm.s:99     .text:0000000000000074 .LVL6
     /tmp/ccWflpKm.s:142    .text:00000000000000ac .LVL9
     /tmp/ccWflpKm.s:121    .text:0000000000000090 .LVL7
     /tmp/ccWflpKm.s:146    .text:00000000000000b4 .LVL10
     /tmp/ccWflpKm.s:25     .text:0000000000000000 .LVL0
     /tmp/ccWflpKm.s:41     .text:0000000000000024 .LVL1
     /tmp/ccWflpKm.s:63     .text:0000000000000040 .LVL2
     /tmp/ccWflpKm.s:67     .text:0000000000000048 .LVL3
     /tmp/ccWflpKm.s:565    .debug_info:0000000000000000 .Ldebug_info0
     /tmp/ccWflpKm.s:37     .text:0000000000000018 .LBB2
     /tmp/ccWflpKm.s:53     .text:0000000000000034 .LBE2
     /tmp/ccWflpKm.s:70     .text:0000000000000048 .LBB3
     /tmp/ccWflpKm.s:79     .text:0000000000000070 .LBE3
     /tmp/ccWflpKm.s:95     .text:0000000000000070 .LBB4
GAS LISTING /tmp/ccWflpKm.s 			page 23


     /tmp/ccWflpKm.s:103    .text:0000000000000078 .LBE4
     /tmp/ccWflpKm.s:116    .text:000000000000008c .LBB6
     /tmp/ccWflpKm.s:133    .text:00000000000000a0 .LBE6
     /tmp/ccWflpKm.s:295    .text:00000000000001a8 .LBB8
     /tmp/ccWflpKm.s:310    .text:00000000000001bc .LBE8
     /tmp/ccWflpKm.s:323    .text:00000000000001cc .LBB9
     /tmp/ccWflpKm.s:372    .text:0000000000000234 .LBE9
     /tmp/ccWflpKm.s:153    .gcc_except_table:0000000000000000 .LLSDA4

UNDEFINED SYMBOLS
_Z13assert_failedPKcS0_jS0_
_Z8mem_freePv
__gxx_personality_v0
__putc
_ZN7_thread11setSleepingEb
_ZN9Scheduler3putEP7_thread
_ZN7_thread13currentThreadE
_Z9mem_allocm
_Z15thread_dispatchv
