GAS LISTING /tmp/cccMeMcU.s 			page 1


   1              		.file	"timer.cpp"
   2              		.option pic
   3              		.option norelax
   4              		.text
   5              	.Ltext0:
   6              		.section	.rodata.str1.8,"aMS",@progbits,1
   7              		.align	3
   8              	.LC0:
   9 0000 54696D65 		.string	"Timer::Timer()"
   9      723A3A54 
   9      696D6572 
   9      282900
  10 000f 00       		.align	3
  11              	.LC1:
  12 0010 7372632F 		.string	"src/timer.cpp"
  12      74696D65 
  12      722E6370 
  12      7000
  13 001e 0000     		.align	3
  14              	.LC2:
  15 0020 696E7374 		.string	"instance == 0"
  15      616E6365 
  15      203D3D20 
  15      3000
  16              		.text
  17              		.align	2
  18              		.globl	_ZN5TimerC2Ev
  20              	_ZN5TimerC2Ev:
  21              	.LFB1:
  22              		.file 1 "src/timer.cpp"
   1:src/timer.cpp **** /**
   2:src/timer.cpp ****  * @file timer.cpp
   3:src/timer.cpp ****  * @author stcksmsh (vukicevickosta@gmail.com)
   4:src/timer.cpp ****  * @brief implementation of the timer class
   5:src/timer.cpp ****  * @version 0.1
   6:src/timer.cpp ****  * @date 2024-01-02
   7:src/timer.cpp ****  * 
   8:src/timer.cpp ****  * @copyright Copyright (c) 2024
   9:src/timer.cpp ****  * 
  10:src/timer.cpp ****  */
  11:src/timer.cpp **** 
  12:src/timer.cpp **** #include "timer.h"
  13:src/timer.cpp **** #include "syscalls_c.h"
  14:src/timer.cpp **** #include "sched.h"
  15:src/timer.cpp **** #include "assert.h"
  16:src/timer.cpp **** #include "console.h"
  17:src/timer.cpp **** 
  18:src/timer.cpp **** Timer* Timer::instance = 0;
  19:src/timer.cpp **** 
  20:src/timer.cpp **** Timer::Timer(){
  23              		.loc 1 20 1
  24              		.cfi_startproc
  25              	.LVL0:
  26 0000 130101FE 		addi	sp,sp,-32
  27              		.cfi_def_cfa_offset 32
  28 0004 233C1100 		sd	ra,24(sp)
  29 0008 23388100 		sd	s0,16(sp)
GAS LISTING /tmp/cccMeMcU.s 			page 2


  30 000c 23349100 		sd	s1,8(sp)
  31              		.cfi_offset 1, -8
  32              		.cfi_offset 8, -16
  33              		.cfi_offset 9, -24
  34 0010 13040102 		addi	s0,sp,32
  35              		.cfi_def_cfa 8, 0
  36 0014 93040500 		mv	s1,a0
  37              	.LBB2:
  21:src/timer.cpp ****     assert(instance == 0);
  38              		.loc 1 21 5
  39 0018 97070000 		ld	a5,.LANCHOR0
  39      83B70700 
  40 0020 63940702 		bnez	a5,.L4
  41              	.LVL1:
  42              	.L2:
  43              		.loc 1 21 26 discriminator 3
  22:src/timer.cpp ****     instance = this;
  44              		.loc 1 22 5 discriminator 3
  45              		.loc 1 22 14 is_stmt 0 discriminator 3
  46 0024 97070000 		sd	s1,.LANCHOR0,a5
  46      23B09700 
  23:src/timer.cpp ****     sleepingHead = 0;
  47              		.loc 1 23 5 is_stmt 1 discriminator 3
  48              		.loc 1 23 18 is_stmt 0 discriminator 3
  49 002c 23B00400 		sd	zero,0(s1)
  24:src/timer.cpp ****     time = 0;
  50              		.loc 1 24 5 is_stmt 1 discriminator 3
  51              		.loc 1 24 10 is_stmt 0 discriminator 3
  52 0030 23B40400 		sd	zero,8(s1)
  53              	.LBE2:
  25:src/timer.cpp **** }
  54              		.loc 1 25 1 discriminator 3
  55 0034 83308101 		ld	ra,24(sp)
  56              		.cfi_remember_state
  57              		.cfi_restore 1
  58 0038 03340101 		ld	s0,16(sp)
  59              		.cfi_restore 8
  60              		.cfi_def_cfa 2, 32
  61 003c 83348100 		ld	s1,8(sp)
  62              		.cfi_restore 9
  63              	.LVL2:
  64 0040 13010102 		addi	sp,sp,32
  65              		.cfi_def_cfa_offset 0
  66 0044 67800000 		jr	ra
  67              	.LVL3:
  68              	.L4:
  69              		.cfi_restore_state
  70              	.LBB3:
  21:src/timer.cpp ****     instance = this;
  71              		.loc 1 21 5 is_stmt 1 discriminator 1
  72 0048 97060000 		lla	a3,.LC0
  72      93860600 
  73 0050 13065001 		li	a2,21
  74 0054 97050000 		lla	a1,.LC1
  74      93850500 
  75 005c 17050000 		lla	a0,.LC2
  75      13050500 
GAS LISTING /tmp/cccMeMcU.s 			page 3


  76 0064 97000000 		call	_Z13assert_failedPKcS0_jS0_@plt
  76      E7800000 
  77              	.LVL4:
  78 006c 6FF09FFB 		j	.L2
  79              	.LBE3:
  80              		.cfi_endproc
  81              	.LFE1:
  83              		.globl	_ZN5TimerC1Ev
  84              		.set	_ZN5TimerC1Ev,_ZN5TimerC2Ev
  85              		.align	2
  86              		.globl	_ZN5TimerD2Ev
  88              	_ZN5TimerD2Ev:
  89              	.LFB4:
  26:src/timer.cpp **** 
  27:src/timer.cpp **** Timer::~Timer(){
  90              		.loc 1 27 1
  91              		.cfi_startproc
  92              		.cfi_personality 0x9b,DW.ref.__gxx_personality_v0
  93              		.cfi_lsda 0x1b,.LLSDA4
  94              	.LVL5:
  95              	.LBB4:
  28:src/timer.cpp ****     threadSleepWrapper* current = sleepingHead;
  96              		.loc 1 28 5
  97              		.loc 1 28 25 is_stmt 0
  98 0070 03350500 		ld	a0,0(a0)
  99              	.LVL6:
  29:src/timer.cpp ****     while(current != 0){
 100              		.loc 1 29 5 is_stmt 1
 101              		.loc 1 29 19
 102 0074 63000504 		beqz	a0,.L13
 103              	.LBE4:
  27:src/timer.cpp ****     threadSleepWrapper* current = sleepingHead;
 104              		.loc 1 27 1 is_stmt 0
 105 0078 130101FE 		addi	sp,sp,-32
 106              		.cfi_def_cfa_offset 32
 107 007c 233C1100 		sd	ra,24(sp)
 108 0080 23388100 		sd	s0,16(sp)
 109 0084 23349100 		sd	s1,8(sp)
 110              		.cfi_offset 1, -8
 111              		.cfi_offset 8, -16
 112              		.cfi_offset 9, -24
 113 0088 13040102 		addi	s0,sp,32
 114              		.cfi_def_cfa 8, 0
 115              	.L11:
 116              	.LBB6:
 117              	.LBB5:
  30:src/timer.cpp ****         threadSleepWrapper* next = current->next;
 118              		.loc 1 30 9 is_stmt 1
 119              		.loc 1 30 29 is_stmt 0
 120 008c 83340501 		ld	s1,16(a0)
 121              	.LVL7:
  31:src/timer.cpp ****         mem_free(current);
 122              		.loc 1 31 9 is_stmt 1
 123              		.loc 1 31 17 is_stmt 0
 124 0090 97000000 		call	_Z8mem_freePv@plt
 124      E7800000 
 125              	.LVL8:
GAS LISTING /tmp/cccMeMcU.s 			page 4


  32:src/timer.cpp ****         current = next;
 126              		.loc 1 32 9 is_stmt 1
 127              		.loc 1 32 17 is_stmt 0
 128 0098 13850400 		mv	a0,s1
 129              	.LBE5:
  29:src/timer.cpp ****         threadSleepWrapper* next = current->next;
 130              		.loc 1 29 5 is_stmt 1
  29:src/timer.cpp ****         threadSleepWrapper* next = current->next;
 131              		.loc 1 29 19
 132 009c E39804FE 		bnez	s1,.L11
 133              	.LBE6:
  33:src/timer.cpp ****     }
  34:src/timer.cpp **** }
 134              		.loc 1 34 1 is_stmt 0
 135 00a0 83308101 		ld	ra,24(sp)
 136              		.cfi_restore 1
 137 00a4 03340101 		ld	s0,16(sp)
 138              		.cfi_restore 8
 139              		.cfi_def_cfa 2, 32
 140 00a8 83348100 		ld	s1,8(sp)
 141              		.cfi_restore 9
 142              	.LVL9:
 143 00ac 13010102 		addi	sp,sp,32
 144              		.cfi_def_cfa_offset 0
 145 00b0 67800000 		jr	ra
 146              	.LVL10:
 147              	.L13:
 148 00b4 67800000 		ret
 149              		.cfi_endproc
 150              	.LFE4:
 151              		.globl	__gxx_personality_v0
 152              		.section	.gcc_except_table,"a",@progbits
 153              	.LLSDA4:
 154 0000 FF       		.byte	0xff
 155 0001 FF       		.byte	0xff
 156 0002 03       		.byte	0x3
 157 0003 00       		.byte	0
 158              		.text
 160              		.globl	_ZN5TimerD1Ev
 161              		.set	_ZN5TimerD1Ev,_ZN5TimerD2Ev
 162              		.section	.rodata.str1.8
 163 002e 0000     		.align	3
 164              	.LC3:
 165 0030 73746174 		.string	"static Timer& Timer::getInstance()"
 165      69632054 
 165      696D6572 
 165      26205469 
 165      6D65723A 
 166 0053 00000000 		.align	3
 166      00
 167              	.LC4:
 168 0058 696E7374 		.string	"instance != 0"
 168      616E6365 
 168      20213D20 
 168      3000
 169              		.text
 170              		.align	2
GAS LISTING /tmp/cccMeMcU.s 			page 5


 171              		.globl	_ZN5Timer11getInstanceEv
 173              	_ZN5Timer11getInstanceEv:
 174              	.LFB6:
  35:src/timer.cpp **** 
  36:src/timer.cpp **** Timer& Timer::getInstance(){
 175              		.loc 1 36 28 is_stmt 1
 176              		.cfi_startproc
  37:src/timer.cpp ****     assert(instance != 0);
 177              		.loc 1 37 5
 178 00b8 97070000 		ld	a5,.LANCHOR0
 178      83B70700 
 179 00c0 63880700 		beqz	a5,.L20
 180              		.loc 1 37 26
  38:src/timer.cpp ****     return *instance;
 181              		.loc 1 38 5
  39:src/timer.cpp **** }
 182              		.loc 1 39 1 is_stmt 0
 183 00c4 17050000 		ld	a0,.LANCHOR0
 183      03350500 
 184 00cc 67800000 		ret
 185              	.L20:
  36:src/timer.cpp ****     assert(instance != 0);
 186              		.loc 1 36 28 discriminator 1
 187 00d0 130101FF 		addi	sp,sp,-16
 188              		.cfi_def_cfa_offset 16
 189 00d4 23341100 		sd	ra,8(sp)
 190 00d8 23308100 		sd	s0,0(sp)
 191              		.cfi_offset 1, -8
 192              		.cfi_offset 8, -16
 193 00dc 13040101 		addi	s0,sp,16
 194              		.cfi_def_cfa 8, 0
  37:src/timer.cpp ****     return *instance;
 195              		.loc 1 37 5 is_stmt 1 discriminator 1
 196 00e0 97060000 		lla	a3,.LC3
 196      93860600 
 197 00e8 13065002 		li	a2,37
 198 00ec 97050000 		lla	a1,.LC1
 198      93850500 
 199 00f4 17050000 		lla	a0,.LC4
 199      13050500 
 200 00fc 97000000 		call	_Z13assert_failedPKcS0_jS0_@plt
 200      E7800000 
 201              	.LVL11:
  37:src/timer.cpp ****     return *instance;
 202              		.loc 1 37 26 discriminator 1
  38:src/timer.cpp **** }
 203              		.loc 1 38 5 discriminator 1
 204              		.loc 1 39 1 is_stmt 0 discriminator 1
 205 0104 17050000 		ld	a0,.LANCHOR0
 205      03350500 
 206 010c 83308100 		ld	ra,8(sp)
 207              		.cfi_restore 1
 208 0110 03340100 		ld	s0,0(sp)
 209              		.cfi_restore 8
 210              		.cfi_def_cfa 2, 16
 211 0114 13010101 		addi	sp,sp,16
 212              		.cfi_def_cfa_offset 0
GAS LISTING /tmp/cccMeMcU.s 			page 6


 213 0118 67800000 		jr	ra
 214              		.cfi_endproc
 215              	.LFE6:
 217              		.align	2
 218              		.globl	_ZN5Timer4tickEv
 220              	_ZN5Timer4tickEv:
 221              	.LFB7:
  40:src/timer.cpp **** 
  41:src/timer.cpp **** void Timer::tick(){
 222              		.loc 1 41 19 is_stmt 1
 223              		.cfi_startproc
 224              	.LVL12:
 225 011c 130101FD 		addi	sp,sp,-48
 226              		.cfi_def_cfa_offset 48
 227 0120 23341102 		sd	ra,40(sp)
 228 0124 23308102 		sd	s0,32(sp)
 229 0128 233C9100 		sd	s1,24(sp)
 230 012c 23382101 		sd	s2,16(sp)
 231 0130 23343101 		sd	s3,8(sp)
 232              		.cfi_offset 1, -8
 233              		.cfi_offset 8, -16
 234              		.cfi_offset 9, -24
 235              		.cfi_offset 18, -32
 236              		.cfi_offset 19, -40
 237 0134 13040103 		addi	s0,sp,48
 238              		.cfi_def_cfa 8, 0
 239 0138 13090500 		mv	s2,a0
  42:src/timer.cpp ****     time += 1;
 240              		.loc 1 42 5
 241              		.loc 1 42 10 is_stmt 0
 242 013c 83378500 		ld	a5,8(a0)
 243 0140 93871700 		addi	a5,a5,1
 244 0144 2334F500 		sd	a5,8(a0)
  43:src/timer.cpp ****     // if(time % 10 == 0){
  44:src/timer.cpp ****     //     __putc('\n');
  45:src/timer.cpp ****     //     __putc('t');
  46:src/timer.cpp ****     //     __putc('i');
  47:src/timer.cpp ****     //     __putc('c');
  48:src/timer.cpp ****     //     __putc('k');
  49:src/timer.cpp ****     //     __putc('\n');
  50:src/timer.cpp ****     // }
  51:src/timer.cpp ****     threadSleepWrapper* current = sleepingHead;
 245              		.loc 1 51 5 is_stmt 1
 246              		.loc 1 51 25 is_stmt 0
 247 0148 83340500 		ld	s1,0(a0)
 248              	.LVL13:
 249 014c 6F008001 		j	.L24
 250              	.LVL14:
 251              	.L26:
 252              	.LBB7:
 253              	.LBB8:
  52:src/timer.cpp ****     while(current != 0){
  53:src/timer.cpp ****         if(current->wakeUpTime <= time){
  54:src/timer.cpp ****             current->thread->setSleeping(false);
  55:src/timer.cpp ****             Scheduler::put(current->thread);
  56:src/timer.cpp ****             threadSleepWrapper* next = current->next;
  57:src/timer.cpp ****             if(current == sleepingHead){
GAS LISTING /tmp/cccMeMcU.s 			page 7


  58:src/timer.cpp ****                 sleepingHead = next;
 254              		.loc 1 58 17 is_stmt 1
 255              		.loc 1 58 30 is_stmt 0
 256 0150 23303901 		sd	s3,0(s2)
 257              	.L23:
  59:src/timer.cpp ****             }
  60:src/timer.cpp ****             mem_free(current);
 258              		.loc 1 60 13 is_stmt 1
 259              		.loc 1 60 21 is_stmt 0
 260 0154 13850400 		mv	a0,s1
 261 0158 97000000 		call	_Z8mem_freePv@plt
 261      E7800000 
 262              	.LVL15:
  61:src/timer.cpp ****             current = next;
 263              		.loc 1 61 13 is_stmt 1
 264              		.loc 1 61 21 is_stmt 0
 265 0160 93840900 		mv	s1,s3
 266              	.LVL16:
 267              	.L24:
 268              	.LBE8:
 269              	.LBE7:
  52:src/timer.cpp ****     while(current != 0){
 270              		.loc 1 52 5 is_stmt 1
  52:src/timer.cpp ****     while(current != 0){
 271              		.loc 1 52 19
 272 0164 638E0402 		beqz	s1,.L21
  53:src/timer.cpp ****             current->thread->setSleeping(false);
 273              		.loc 1 53 9
 274              	.LBB10:
  53:src/timer.cpp ****             current->thread->setSleeping(false);
 275              		.loc 1 53 21 is_stmt 0
 276 0168 03B78400 		ld	a4,8(s1)
  53:src/timer.cpp ****             current->thread->setSleeping(false);
 277              		.loc 1 53 35
 278 016c 83378900 		ld	a5,8(s2)
  53:src/timer.cpp ****             current->thread->setSleeping(false);
 279              		.loc 1 53 9
 280 0170 63E8E702 		bgtu	a4,a5,.L21
 281              	.LBB9:
  54:src/timer.cpp ****             Scheduler::put(current->thread);
 282              		.loc 1 54 13 is_stmt 1
  54:src/timer.cpp ****             Scheduler::put(current->thread);
 283              		.loc 1 54 41 is_stmt 0
 284 0174 93050000 		li	a1,0
 285 0178 03B50400 		ld	a0,0(s1)
 286 017c 97000000 		call	_ZN7_thread11setSleepingEb@plt
 286      E7800000 
 287              	.LVL17:
  55:src/timer.cpp ****             threadSleepWrapper* next = current->next;
 288              		.loc 1 55 13 is_stmt 1
  55:src/timer.cpp ****             threadSleepWrapper* next = current->next;
 289              		.loc 1 55 27 is_stmt 0
 290 0184 03B50400 		ld	a0,0(s1)
 291 0188 97000000 		call	_ZN9Scheduler3putEP7_thread@plt
 291      E7800000 
 292              	.LVL18:
  56:src/timer.cpp ****             if(current == sleepingHead){
GAS LISTING /tmp/cccMeMcU.s 			page 8


 293              		.loc 1 56 13 is_stmt 1
  56:src/timer.cpp ****             if(current == sleepingHead){
 294              		.loc 1 56 33 is_stmt 0
 295 0190 83B90401 		ld	s3,16(s1)
 296              	.LVL19:
  57:src/timer.cpp ****                 sleepingHead = next;
 297              		.loc 1 57 13 is_stmt 1
  57:src/timer.cpp ****                 sleepingHead = next;
 298              		.loc 1 57 27 is_stmt 0
 299 0194 83370900 		ld	a5,0(s2)
  57:src/timer.cpp ****                 sleepingHead = next;
 300              		.loc 1 57 13
 301 0198 E39E97FA 		bne	a5,s1,.L23
 302 019c 6FF05FFB 		j	.L26
 303              	.LVL20:
 304              	.L21:
 305              	.LBE9:
 306              	.LBE10:
  62:src/timer.cpp ****         }else{
  63:src/timer.cpp ****             break;
  64:src/timer.cpp ****         }
  65:src/timer.cpp ****     }
  66:src/timer.cpp **** }
 307              		.loc 1 66 1
 308 01a0 83308102 		ld	ra,40(sp)
 309              		.cfi_restore 1
 310 01a4 03340102 		ld	s0,32(sp)
 311              		.cfi_restore 8
 312              		.cfi_def_cfa 2, 48
 313 01a8 83348101 		ld	s1,24(sp)
 314              		.cfi_restore 9
 315              	.LVL21:
 316 01ac 03390101 		ld	s2,16(sp)
 317              		.cfi_restore 18
 318              	.LVL22:
 319 01b0 83398100 		ld	s3,8(sp)
 320              		.cfi_restore 19
 321 01b4 13010103 		addi	sp,sp,48
 322              		.cfi_def_cfa_offset 0
 323 01b8 67800000 		jr	ra
 324              		.cfi_endproc
 325              	.LFE7:
 327              		.align	2
 328              		.globl	_ZN5Timer5sleepEm
 330              	_ZN5Timer5sleepEm:
 331              	.LFB8:
  67:src/timer.cpp **** 
  68:src/timer.cpp **** int Timer::sleep(time_t timeToSleep){
 332              		.loc 1 68 37 is_stmt 1
 333              		.cfi_startproc
 334              	.LVL23:
 335 01bc 130101FD 		addi	sp,sp,-48
 336              		.cfi_def_cfa_offset 48
 337 01c0 23341102 		sd	ra,40(sp)
 338 01c4 23308102 		sd	s0,32(sp)
 339 01c8 233C9100 		sd	s1,24(sp)
 340 01cc 23382101 		sd	s2,16(sp)
GAS LISTING /tmp/cccMeMcU.s 			page 9


 341 01d0 23343101 		sd	s3,8(sp)
 342              		.cfi_offset 1, -8
 343              		.cfi_offset 8, -16
 344              		.cfi_offset 9, -24
 345              		.cfi_offset 18, -32
 346              		.cfi_offset 19, -40
 347 01d4 13040103 		addi	s0,sp,48
 348              		.cfi_def_cfa 8, 0
 349 01d8 93040500 		mv	s1,a0
 350 01dc 13890500 		mv	s2,a1
  69:src/timer.cpp ****     thread_t thread = _thread::currentThread;
 351              		.loc 1 69 5
 352              		.loc 1 69 14 is_stmt 0
 353 01e0 97070000 		la	a5,_ZN7_thread13currentThreadE
 353      83B70700 
 354 01e8 83B90700 		ld	s3,0(a5)
 355              	.LVL24:
  70:src/timer.cpp ****     threadSleepWrapper* newSleepingThread = (threadSleepWrapper*)mem_alloc(sizeof(threadSleepWrappe
 356              		.loc 1 70 5 is_stmt 1
 357              		.loc 1 70 75 is_stmt 0
 358 01ec 13058001 		li	a0,24
 359              	.LVL25:
 360 01f0 97000000 		call	_Z9mem_allocm@plt
 360      E7800000 
 361              	.LVL26:
  71:src/timer.cpp ****     newSleepingThread->thread = thread;
 362              		.loc 1 71 5 is_stmt 1
 363              		.loc 1 71 31 is_stmt 0
 364 01f8 23303501 		sd	s3,0(a0)
  72:src/timer.cpp ****     newSleepingThread->wakeUpTime = time + timeToSleep;
 365              		.loc 1 72 5 is_stmt 1
 366              		.loc 1 72 37 is_stmt 0
 367 01fc 83B78400 		ld	a5,8(s1)
 368              		.loc 1 72 42
 369 0200 B3852701 		add	a1,a5,s2
 370              		.loc 1 72 35
 371 0204 2334B500 		sd	a1,8(a0)
  73:src/timer.cpp ****     newSleepingThread->next = 0;
 372              		.loc 1 73 5 is_stmt 1
 373              		.loc 1 73 29 is_stmt 0
 374 0208 23380500 		sd	zero,16(a0)
  74:src/timer.cpp **** 
  75:src/timer.cpp ****     if(sleepingHead == 0){
 375              		.loc 1 75 5 is_stmt 1
 376              	.LBB11:
 377              		.loc 1 75 8 is_stmt 0
 378 020c 83B70400 		ld	a5,0(s1)
 379              		.loc 1 75 5
 380 0210 638C0704 		beqz	a5,.L32
 381              	.L28:
 382              	.LVL27:
 383              	.LBB12:
  76:src/timer.cpp ****         sleepingHead = newSleepingThread;
  77:src/timer.cpp ****     }else{
  78:src/timer.cpp ****         threadSleepWrapper* current = sleepingHead;
  79:src/timer.cpp ****         while(current->next != 0 && current->next->wakeUpTime < newSleepingThread->wakeUpTime){
 384              		.loc 1 79 9 is_stmt 1
GAS LISTING /tmp/cccMeMcU.s 			page 10


 385              		.loc 1 79 34
 386 0214 93860700 		mv	a3,a5
 387              		.loc 1 79 24 is_stmt 0
 388 0218 83B70701 		ld	a5,16(a5)
 389              	.LVL28:
 390              		.loc 1 79 34
 391 021c 63860700 		beqz	a5,.L30
 392              		.loc 1 79 52 discriminator 1
 393 0220 03B78700 		ld	a4,8(a5)
 394              		.loc 1 79 34 discriminator 1
 395 0224 E368B7FE 		bgtu	a1,a4,.L28
 396              	.L30:
  80:src/timer.cpp ****             current = current->next;
  81:src/timer.cpp ****         }
  82:src/timer.cpp ****         newSleepingThread->next = current->next;
 397              		.loc 1 82 9 is_stmt 1
 398              		.loc 1 82 33 is_stmt 0
 399 0228 2338F500 		sd	a5,16(a0)
  83:src/timer.cpp ****         current->next = newSleepingThread;
 400              		.loc 1 83 9 is_stmt 1
 401              		.loc 1 83 23 is_stmt 0
 402 022c 23B8A600 		sd	a0,16(a3)
 403              	.LVL29:
 404              	.L29:
 405              	.LBE12:
 406              	.LBE11:
  84:src/timer.cpp ****     }
  85:src/timer.cpp ****     thread->setSleeping(true);
 407              		.loc 1 85 5 is_stmt 1
 408              		.loc 1 85 24 is_stmt 0
 409 0230 93051000 		li	a1,1
 410 0234 13850900 		mv	a0,s3
 411              	.LVL30:
 412 0238 97000000 		call	_ZN7_thread11setSleepingEb@plt
 412      E7800000 
 413              	.LVL31:
  86:src/timer.cpp ****     thread_dispatch();
 414              		.loc 1 86 5 is_stmt 1
 415              		.loc 1 86 20 is_stmt 0
 416 0240 97000000 		call	_Z15thread_dispatchv@plt
 416      E7800000 
 417              	.LVL32:
  87:src/timer.cpp ****     return 0;
 418              		.loc 1 87 5 is_stmt 1
  88:src/timer.cpp **** }
 419              		.loc 1 88 1 is_stmt 0
 420 0248 13050000 		li	a0,0
 421 024c 83308102 		ld	ra,40(sp)
 422              		.cfi_remember_state
 423              		.cfi_restore 1
 424 0250 03340102 		ld	s0,32(sp)
 425              		.cfi_restore 8
 426              		.cfi_def_cfa 2, 48
 427 0254 83348101 		ld	s1,24(sp)
 428              		.cfi_restore 9
 429              	.LVL33:
 430 0258 03390101 		ld	s2,16(sp)
GAS LISTING /tmp/cccMeMcU.s 			page 11


 431              		.cfi_restore 18
 432              	.LVL34:
 433 025c 83398100 		ld	s3,8(sp)
 434              		.cfi_restore 19
 435              	.LVL35:
 436 0260 13010103 		addi	sp,sp,48
 437              		.cfi_def_cfa_offset 0
 438 0264 67800000 		jr	ra
 439              	.LVL36:
 440              	.L32:
 441              		.cfi_restore_state
 442              	.LBB13:
  76:src/timer.cpp ****     }else{
 443              		.loc 1 76 9 is_stmt 1
  76:src/timer.cpp ****     }else{
 444              		.loc 1 76 22 is_stmt 0
 445 0268 23B0A400 		sd	a0,0(s1)
 446 026c 6FF05FFC 		j	.L29
 447              	.LBE13:
 448              		.cfi_endproc
 449              	.LFE8:
 451              		.align	2
 452              		.globl	_ZN5Timer17noSleepingThreadsEv
 454              	_ZN5Timer17noSleepingThreadsEv:
 455              	.LFB9:
  89:src/timer.cpp **** 
  90:src/timer.cpp **** bool Timer::noSleepingThreads(){
 456              		.loc 1 90 32 is_stmt 1
 457              		.cfi_startproc
 458              	.LVL37:
 459 0270 130101FF 		addi	sp,sp,-16
 460              		.cfi_def_cfa_offset 16
 461 0274 23348100 		sd	s0,8(sp)
 462              		.cfi_offset 8, -8
 463 0278 13040101 		addi	s0,sp,16
 464              		.cfi_def_cfa 8, 0
  91:src/timer.cpp ****     return sleepingHead == 0;
 465              		.loc 1 91 5
 466              		.loc 1 91 12 is_stmt 0
 467 027c 03350500 		ld	a0,0(a0)
 468              	.LVL38:
  92:src/timer.cpp **** }...
 469              		.loc 1 92 1
 470 0280 13351500 		seqz	a0,a0
 471 0284 03348100 		ld	s0,8(sp)
 472              		.cfi_restore 8
 473              		.cfi_def_cfa 2, 16
 474 0288 13010101 		addi	sp,sp,16
 475              		.cfi_def_cfa_offset 0
 476 028c 67800000 		jr	ra
 477              		.cfi_endproc
 478              	.LFE9:
 480              		.globl	_ZN5Timer8instanceE
 481              		.bss
 482              		.align	3
 483              		.set	.LANCHOR0,. + 0
 486              	_ZN5Timer8instanceE:
GAS LISTING /tmp/cccMeMcU.s 			page 12


 487 0000 00000000 		.zero	8
 487      00000000 
 488              		.text
 489              	.Letext0:
 490              		.file 2 "./lib/hw.h"
 491              		.file 3 "./h/thread.h"
 492              		.file 4 "./h/timer.h"
 493              		.file 5 "./h/sched.h"
 494              		.file 6 "./h/syscalls_c.h"
 495              		.file 7 "./h/assert.h"
 3100              		.align	3
 3103              	DW.ref.__gxx_personality_v0:
 3104 0000 00000000 		.dword	__gxx_personality_v0
 3104      00000000 
 3105              		.ident	"GCC: (Ubuntu 9.4.0-1ubuntu1~20.04) 9.4.0"
 3106              		.section	.note.GNU-stack,"",@progbits
GAS LISTING /tmp/cccMeMcU.s 			page 13

