GAS LISTING /tmp/cccMeMcU.s 			page 1


   1              		.file	"timer.cpp"
   2              		.option pic
   3              		.option norelax
   4              		.text
   5              	.Ltext0:
   6              		.section	.rodata.str1.8,"aMS",@progbits,1
   7              		.align	3
   8              	.LC0:
   9 0000 54696D65 		.string	"Timer::Timer()"
   9      723A3A54 
   9      696D6572 
   9      282900
  10 000f 00       		.align	3
  11              	.LC1:
  12 0010 7372632F 		.string	"src/timer.cpp"
  12      74696D65 
  12      722E6370 
  12      7000
  13 001e 0000     		.align	3
  14              	.LC2:
  15 0020 696E7374 		.string	"instance == 0"
  15      616E6365 
  15      203D3D20 
  15      3000
  16              		.text
  17              		.align	2
  18              		.globl	_ZN5TimerC2Ev
  20              	_ZN5TimerC2Ev:
  21              	.LFB1:
  22              		.file 1 "src/timer.cpp"
   1:src/timer.cpp **** /**
   2:src/timer.cpp ****  * @file timer.cpp
   3:src/timer.cpp ****  * @author stcksmsh (vukicevickosta@gmail.com)
   4:src/timer.cpp ****  * @brief implementation of the timer class
   5:src/timer.cpp ****  * @version 0.1
   6:src/timer.cpp ****  * @date 2024-01-02
   7:src/timer.cpp ****  * 
   8:src/timer.cpp ****  * @copyright Copyright (c) 2024
   9:src/timer.cpp ****  * 
  10:src/timer.cpp ****  */
  11:src/timer.cpp **** 
  12:src/timer.cpp **** #include "timer.h"
  13:src/timer.cpp **** #include "syscalls_c.h"
  14:src/timer.cpp **** #include "sched.h"
  15:src/timer.cpp **** #include "assert.h"
  16:src/timer.cpp **** #include "console.h"
  17:src/timer.cpp **** 
  18:src/timer.cpp **** Timer* Timer::instance = 0;
  19:src/timer.cpp **** 
  20:src/timer.cpp **** Timer::Timer(){
  23              		.loc 1 20 1
  24              		.cfi_startproc
  25              	.LVL0:
  26 0000 130101FE 		addi	sp,sp,-32
  27              		.cfi_def_cfa_offset 32
  28 0004 233C1100 		sd	ra,24(sp)
  29 0008 23388100 		sd	s0,16(sp)
GAS LISTING /tmp/cccMeMcU.s 			page 2


  30 000c 23349100 		sd	s1,8(sp)
  31              		.cfi_offset 1, -8
  32              		.cfi_offset 8, -16
  33              		.cfi_offset 9, -24
  34 0010 13040102 		addi	s0,sp,32
  35              		.cfi_def_cfa 8, 0
  36 0014 93040500 		mv	s1,a0
  37              	.LBB2:
  21:src/timer.cpp ****     assert(instance == 0);
  38              		.loc 1 21 5
  39 0018 97070000 		ld	a5,.LANCHOR0
  39      83B70700 
  40 0020 63940702 		bnez	a5,.L4
  41              	.LVL1:
  42              	.L2:
  43              		.loc 1 21 26 discriminator 3
  22:src/timer.cpp ****     instance = this;
  44              		.loc 1 22 5 discriminator 3
  45              		.loc 1 22 14 is_stmt 0 discriminator 3
  46 0024 97070000 		sd	s1,.LANCHOR0,a5
  46      23B09700 
  23:src/timer.cpp ****     sleepingHead = 0;
  47              		.loc 1 23 5 is_stmt 1 discriminator 3
  48              		.loc 1 23 18 is_stmt 0 discriminator 3
  49 002c 23B00400 		sd	zero,0(s1)
  24:src/timer.cpp ****     time = 0;
  50              		.loc 1 24 5 is_stmt 1 discriminator 3
  51              		.loc 1 24 10 is_stmt 0 discriminator 3
  52 0030 23B40400 		sd	zero,8(s1)
  53              	.LBE2:
  25:src/timer.cpp **** }
  54              		.loc 1 25 1 discriminator 3
  55 0034 83308101 		ld	ra,24(sp)
  56              		.cfi_remember_state
  57              		.cfi_restore 1
  58 0038 03340101 		ld	s0,16(sp)
  59              		.cfi_restore 8
  60              		.cfi_def_cfa 2, 32
  61 003c 83348100 		ld	s1,8(sp)
  62              		.cfi_restore 9
  63              	.LVL2:
  64 0040 13010102 		addi	sp,sp,32
  65              		.cfi_def_cfa_offset 0
  66 0044 67800000 		jr	ra
  67              	.LVL3:
  68              	.L4:
  69              		.cfi_restore_state
  70              	.LBB3:
  21:src/timer.cpp ****     instance = this;
  71              		.loc 1 21 5 is_stmt 1 discriminator 1
  72 0048 97060000 		lla	a3,.LC0
  72      93860600 
  73 0050 13065001 		li	a2,21
  74 0054 97050000 		lla	a1,.LC1
  74      93850500 
  75 005c 17050000 		lla	a0,.LC2
  75      13050500 
GAS LISTING /tmp/cccMeMcU.s 			page 3


  76 0064 97000000 		call	_Z13assert_failedPKcS0_jS0_@plt
  76      E7800000 
  77              	.LVL4:
  78 006c 6FF09FFB 		j	.L2
  79              	.LBE3:
  80              		.cfi_endproc
  81              	.LFE1:
  83              		.globl	_ZN5TimerC1Ev
  84              		.set	_ZN5TimerC1Ev,_ZN5TimerC2Ev
  85              		.align	2
  86              		.globl	_ZN5TimerD2Ev
  88              	_ZN5TimerD2Ev:
  89              	.LFB4:
  26:src/timer.cpp **** 
  27:src/timer.cpp **** Timer::~Timer(){
  90              		.loc 1 27 1
  91              		.cfi_startproc
  92              		.cfi_personality 0x9b,DW.ref.__gxx_personality_v0
  93              		.cfi_lsda 0x1b,.LLSDA4
  94              	.LVL5:
  95              	.LBB4:
  28:src/timer.cpp ****     threadSleepWrapper* current = sleepingHead;
  96              		.loc 1 28 5
  97              		.loc 1 28 25 is_stmt 0
  98 0070 03350500 		ld	a0,0(a0)
  99              	.LVL6:
  29:src/timer.cpp ****     while(current != 0){
 100              		.loc 1 29 5 is_stmt 1
 101              		.loc 1 29 19
 102 0074 63000504 		beqz	a0,.L13
 103              	.LBE4:
  27:src/timer.cpp ****     threadSleepWrapper* current = sleepingHead;
 104              		.loc 1 27 1 is_stmt 0
 105 0078 130101FE 		addi	sp,sp,-32
 106              		.cfi_def_cfa_offset 32
 107 007c 233C1100 		sd	ra,24(sp)
 108 0080 23388100 		sd	s0,16(sp)
 109 0084 23349100 		sd	s1,8(sp)
 110              		.cfi_offset 1, -8
 111              		.cfi_offset 8, -16
 112              		.cfi_offset 9, -24
 113 0088 13040102 		addi	s0,sp,32
 114              		.cfi_def_cfa 8, 0
 115              	.L11:
 116              	.LBB6:
 117              	.LBB5:
  30:src/timer.cpp ****         threadSleepWrapper* next = current->next;
 118              		.loc 1 30 9 is_stmt 1
 119              		.loc 1 30 29 is_stmt 0
 120 008c 83340501 		ld	s1,16(a0)
 121              	.LVL7:
  31:src/timer.cpp ****         mem_free(current);
 122              		.loc 1 31 9 is_stmt 1
 123              		.loc 1 31 17 is_stmt 0
 124 0090 97000000 		call	_Z8mem_freePv@plt
 124      E7800000 
 125              	.LVL8:
GAS LISTING /tmp/cccMeMcU.s 			page 4


  32:src/timer.cpp ****         current = next;
 126              		.loc 1 32 9 is_stmt 1
 127              		.loc 1 32 17 is_stmt 0
 128 0098 13850400 		mv	a0,s1
 129              	.LBE5:
  29:src/timer.cpp ****         threadSleepWrapper* next = current->next;
 130              		.loc 1 29 5 is_stmt 1
  29:src/timer.cpp ****         threadSleepWrapper* next = current->next;
 131              		.loc 1 29 19
 132 009c E39804FE 		bnez	s1,.L11
 133              	.LBE6:
  33:src/timer.cpp ****     }
  34:src/timer.cpp **** }
 134              		.loc 1 34 1 is_stmt 0
 135 00a0 83308101 		ld	ra,24(sp)
 136              		.cfi_restore 1
 137 00a4 03340101 		ld	s0,16(sp)
 138              		.cfi_restore 8
 139              		.cfi_def_cfa 2, 32
 140 00a8 83348100 		ld	s1,8(sp)
 141              		.cfi_restore 9
 142              	.LVL9:
 143 00ac 13010102 		addi	sp,sp,32
 144              		.cfi_def_cfa_offset 0
 145 00b0 67800000 		jr	ra
 146              	.LVL10:
 147              	.L13:
 148 00b4 67800000 		ret
 149              		.cfi_endproc
 150              	.LFE4:
 151              		.globl	__gxx_personality_v0
 152              		.section	.gcc_except_table,"a",@progbits
 153              	.LLSDA4:
 154 0000 FF       		.byte	0xff
 155 0001 FF       		.byte	0xff
 156 0002 03       		.byte	0x3
 157 0003 00       		.byte	0
 158              		.text
 160              		.globl	_ZN5TimerD1Ev
 161              		.set	_ZN5TimerD1Ev,_ZN5TimerD2Ev
 162              		.section	.rodata.str1.8
 163 002e 0000     		.align	3
 164              	.LC3:
 165 0030 73746174 		.string	"static Timer& Timer::getInstance()"
 165      69632054 
 165      696D6572 
 165      26205469 
 165      6D65723A 
 166 0053 00000000 		.align	3
 166      00
 167              	.LC4:
 168 0058 696E7374 		.string	"instance != 0"
 168      616E6365 
 168      20213D20 
 168      3000
 169              		.text
 170              		.align	2
GAS LISTING /tmp/cccMeMcU.s 			page 5


 171              		.globl	_ZN5Timer11getInstanceEv
 173              	_ZN5Timer11getInstanceEv:
 174              	.LFB6:
  35:src/timer.cpp **** 
  36:src/timer.cpp **** Timer& Timer::getInstance(){
 175              		.loc 1 36 28 is_stmt 1
 176              		.cfi_startproc
  37:src/timer.cpp ****     assert(instance != 0);
 177              		.loc 1 37 5
 178 00b8 97070000 		ld	a5,.LANCHOR0
 178      83B70700 
 179 00c0 63880700 		beqz	a5,.L20
 180              		.loc 1 37 26
  38:src/timer.cpp ****     return *instance;
 181              		.loc 1 38 5
  39:src/timer.cpp **** }
 182              		.loc 1 39 1 is_stmt 0
 183 00c4 17050000 		ld	a0,.LANCHOR0
 183      03350500 
 184 00cc 67800000 		ret
 185              	.L20:
  36:src/timer.cpp ****     assert(instance != 0);
 186              		.loc 1 36 28 discriminator 1
 187 00d0 130101FF 		addi	sp,sp,-16
 188              		.cfi_def_cfa_offset 16
 189 00d4 23341100 		sd	ra,8(sp)
 190 00d8 23308100 		sd	s0,0(sp)
 191              		.cfi_offset 1, -8
 192              		.cfi_offset 8, -16
 193 00dc 13040101 		addi	s0,sp,16
 194              		.cfi_def_cfa 8, 0
  37:src/timer.cpp ****     return *instance;
 195              		.loc 1 37 5 is_stmt 1 discriminator 1
 196 00e0 97060000 		lla	a3,.LC3
 196      93860600 
 197 00e8 13065002 		li	a2,37
 198 00ec 97050000 		lla	a1,.LC1
 198      93850500 
 199 00f4 17050000 		lla	a0,.LC4
 199      13050500 
 200 00fc 97000000 		call	_Z13assert_failedPKcS0_jS0_@plt
 200      E7800000 
 201              	.LVL11:
  37:src/timer.cpp ****     return *instance;
 202              		.loc 1 37 26 discriminator 1
  38:src/timer.cpp **** }
 203              		.loc 1 38 5 discriminator 1
 204              		.loc 1 39 1 is_stmt 0 discriminator 1
 205 0104 17050000 		ld	a0,.LANCHOR0
 205      03350500 
 206 010c 83308100 		ld	ra,8(sp)
 207              		.cfi_restore 1
 208 0110 03340100 		ld	s0,0(sp)
 209              		.cfi_restore 8
 210              		.cfi_def_cfa 2, 16
 211 0114 13010101 		addi	sp,sp,16
 212              		.cfi_def_cfa_offset 0
GAS LISTING /tmp/cccMeMcU.s 			page 6


 213 0118 67800000 		jr	ra
 214              		.cfi_endproc
 215              	.LFE6:
 217              		.align	2
 218              		.globl	_ZN5Timer4tickEv
 220              	_ZN5Timer4tickEv:
 221              	.LFB7:
  40:src/timer.cpp **** 
  41:src/timer.cpp **** void Timer::tick(){
 222              		.loc 1 41 19 is_stmt 1
 223              		.cfi_startproc
 224              	.LVL12:
 225 011c 130101FD 		addi	sp,sp,-48
 226              		.cfi_def_cfa_offset 48
 227 0120 23341102 		sd	ra,40(sp)
 228 0124 23308102 		sd	s0,32(sp)
 229 0128 233C9100 		sd	s1,24(sp)
 230 012c 23382101 		sd	s2,16(sp)
 231 0130 23343101 		sd	s3,8(sp)
 232              		.cfi_offset 1, -8
 233              		.cfi_offset 8, -16
 234              		.cfi_offset 9, -24
 235              		.cfi_offset 18, -32
 236              		.cfi_offset 19, -40
 237 0134 13040103 		addi	s0,sp,48
 238              		.cfi_def_cfa 8, 0
 239 0138 13090500 		mv	s2,a0
  42:src/timer.cpp ****     time += 1;
 240              		.loc 1 42 5
 241              		.loc 1 42 10 is_stmt 0
 242 013c 83378500 		ld	a5,8(a0)
 243 0140 93871700 		addi	a5,a5,1
 244 0144 2334F500 		sd	a5,8(a0)
  43:src/timer.cpp ****     // if(time % 10 == 0){
  44:src/timer.cpp ****     //     __putc('\n');
  45:src/timer.cpp ****     //     __putc('t');
  46:src/timer.cpp ****     //     __putc('i');
  47:src/timer.cpp ****     //     __putc('c');
  48:src/timer.cpp ****     //     __putc('k');
  49:src/timer.cpp ****     //     __putc('\n');
  50:src/timer.cpp ****     // }
  51:src/timer.cpp ****     threadSleepWrapper* current = sleepingHead;
 245              		.loc 1 51 5 is_stmt 1
 246              		.loc 1 51 25 is_stmt 0
 247 0148 83340500 		ld	s1,0(a0)
 248              	.LVL13:
 249 014c 6F008001 		j	.L24
 250              	.LVL14:
 251              	.L26:
 252              	.LBB7:
 253              	.LBB8:
  52:src/timer.cpp ****     while(current != 0){
  53:src/timer.cpp ****         if(current->wakeUpTime <= time){
  54:src/timer.cpp ****             current->thread->setSleeping(false);
  55:src/timer.cpp ****             Scheduler::put(current->thread);
  56:src/timer.cpp ****             threadSleepWrapper* next = current->next;
  57:src/timer.cpp ****             if(current == sleepingHead){
GAS LISTING /tmp/cccMeMcU.s 			page 7


  58:src/timer.cpp ****                 sleepingHead = next;
 254              		.loc 1 58 17 is_stmt 1
 255              		.loc 1 58 30 is_stmt 0
 256 0150 23303901 		sd	s3,0(s2)
 257              	.L23:
  59:src/timer.cpp ****             }
  60:src/timer.cpp ****             mem_free(current);
 258              		.loc 1 60 13 is_stmt 1
 259              		.loc 1 60 21 is_stmt 0
 260 0154 13850400 		mv	a0,s1
 261 0158 97000000 		call	_Z8mem_freePv@plt
 261      E7800000 
 262              	.LVL15:
  61:src/timer.cpp ****             current = next;
 263              		.loc 1 61 13 is_stmt 1
 264              		.loc 1 61 21 is_stmt 0
 265 0160 93840900 		mv	s1,s3
 266              	.LVL16:
 267              	.L24:
 268              	.LBE8:
 269              	.LBE7:
  52:src/timer.cpp ****     while(current != 0){
 270              		.loc 1 52 5 is_stmt 1
  52:src/timer.cpp ****     while(current != 0){
 271              		.loc 1 52 19
 272 0164 638E0402 		beqz	s1,.L21
  53:src/timer.cpp ****             current->thread->setSleeping(false);
 273              		.loc 1 53 9
 274              	.LBB10:
  53:src/timer.cpp ****             current->thread->setSleeping(false);
 275              		.loc 1 53 21 is_stmt 0
 276 0168 03B78400 		ld	a4,8(s1)
  53:src/timer.cpp ****             current->thread->setSleeping(false);
 277              		.loc 1 53 35
 278 016c 83378900 		ld	a5,8(s2)
  53:src/timer.cpp ****             current->thread->setSleeping(false);
 279              		.loc 1 53 9
 280 0170 63E8E702 		bgtu	a4,a5,.L21
 281              	.LBB9:
  54:src/timer.cpp ****             Scheduler::put(current->thread);
 282              		.loc 1 54 13 is_stmt 1
  54:src/timer.cpp ****             Scheduler::put(current->thread);
 283              		.loc 1 54 41 is_stmt 0
 284 0174 93050000 		li	a1,0
 285 0178 03B50400 		ld	a0,0(s1)
 286 017c 97000000 		call	_ZN7_thread11setSleepingEb@plt
 286      E7800000 
 287              	.LVL17:
  55:src/timer.cpp ****             threadSleepWrapper* next = current->next;
 288              		.loc 1 55 13 is_stmt 1
  55:src/timer.cpp ****             threadSleepWrapper* next = current->next;
 289              		.loc 1 55 27 is_stmt 0
 290 0184 03B50400 		ld	a0,0(s1)
 291 0188 97000000 		call	_ZN9Scheduler3putEP7_thread@plt
 291      E7800000 
 292              	.LVL18:
  56:src/timer.cpp ****             if(current == sleepingHead){
GAS LISTING /tmp/cccMeMcU.s 			page 8


 293              		.loc 1 56 13 is_stmt 1
  56:src/timer.cpp ****             if(current == sleepingHead){
 294              		.loc 1 56 33 is_stmt 0
 295 0190 83B90401 		ld	s3,16(s1)
 296              	.LVL19:
  57:src/timer.cpp ****                 sleepingHead = next;
 297              		.loc 1 57 13 is_stmt 1
  57:src/timer.cpp ****                 sleepingHead = next;
 298              		.loc 1 57 27 is_stmt 0
 299 0194 83370900 		ld	a5,0(s2)
  57:src/timer.cpp ****                 sleepingHead = next;
 300              		.loc 1 57 13
 301 0198 E39E97FA 		bne	a5,s1,.L23
 302 019c 6FF05FFB 		j	.L26
 303              	.LVL20:
 304              	.L21:
 305              	.LBE9:
 306              	.LBE10:
  62:src/timer.cpp ****         }else{
  63:src/timer.cpp ****             break;
  64:src/timer.cpp ****         }
  65:src/timer.cpp ****     }
  66:src/timer.cpp **** }
 307              		.loc 1 66 1
 308 01a0 83308102 		ld	ra,40(sp)
 309              		.cfi_restore 1
 310 01a4 03340102 		ld	s0,32(sp)
 311              		.cfi_restore 8
 312              		.cfi_def_cfa 2, 48
 313 01a8 83348101 		ld	s1,24(sp)
 314              		.cfi_restore 9
 315              	.LVL21:
 316 01ac 03390101 		ld	s2,16(sp)
 317              		.cfi_restore 18
 318              	.LVL22:
 319 01b0 83398100 		ld	s3,8(sp)
 320              		.cfi_restore 19
 321 01b4 13010103 		addi	sp,sp,48
 322              		.cfi_def_cfa_offset 0
 323 01b8 67800000 		jr	ra
 324              		.cfi_endproc
 325              	.LFE7:
 327              		.align	2
 328              		.globl	_ZN5Timer5sleepEm
 330              	_ZN5Timer5sleepEm:
 331              	.LFB8:
  67:src/timer.cpp **** 
  68:src/timer.cpp **** int Timer::sleep(time_t timeToSleep){
 332              		.loc 1 68 37 is_stmt 1
 333              		.cfi_startproc
 334              	.LVL23:
 335 01bc 130101FD 		addi	sp,sp,-48
 336              		.cfi_def_cfa_offset 48
 337 01c0 23341102 		sd	ra,40(sp)
 338 01c4 23308102 		sd	s0,32(sp)
 339 01c8 233C9100 		sd	s1,24(sp)
 340 01cc 23382101 		sd	s2,16(sp)
GAS LISTING /tmp/cccMeMcU.s 			page 9


 341 01d0 23343101 		sd	s3,8(sp)
 342              		.cfi_offset 1, -8
 343              		.cfi_offset 8, -16
 344              		.cfi_offset 9, -24
 345              		.cfi_offset 18, -32
 346              		.cfi_offset 19, -40
 347 01d4 13040103 		addi	s0,sp,48
 348              		.cfi_def_cfa 8, 0
 349 01d8 93040500 		mv	s1,a0
 350 01dc 13890500 		mv	s2,a1
  69:src/timer.cpp ****     thread_t thread = _thread::currentThread;
 351              		.loc 1 69 5
 352              		.loc 1 69 14 is_stmt 0
 353 01e0 97070000 		la	a5,_ZN7_thread13currentThreadE
 353      83B70700 
 354 01e8 83B90700 		ld	s3,0(a5)
 355              	.LVL24:
  70:src/timer.cpp ****     threadSleepWrapper* newSleepingThread = (threadSleepWrapper*)mem_alloc(sizeof(threadSleepWrappe
 356              		.loc 1 70 5 is_stmt 1
 357              		.loc 1 70 75 is_stmt 0
 358 01ec 13058001 		li	a0,24
 359              	.LVL25:
 360 01f0 97000000 		call	_Z9mem_allocm@plt
 360      E7800000 
 361              	.LVL26:
  71:src/timer.cpp ****     newSleepingThread->thread = thread;
 362              		.loc 1 71 5 is_stmt 1
 363              		.loc 1 71 31 is_stmt 0
 364 01f8 23303501 		sd	s3,0(a0)
  72:src/timer.cpp ****     newSleepingThread->wakeUpTime = time + timeToSleep;
 365              		.loc 1 72 5 is_stmt 1
 366              		.loc 1 72 37 is_stmt 0
 367 01fc 83B78400 		ld	a5,8(s1)
 368              		.loc 1 72 42
 369 0200 B3852701 		add	a1,a5,s2
 370              		.loc 1 72 35
 371 0204 2334B500 		sd	a1,8(a0)
  73:src/timer.cpp ****     newSleepingThread->next = 0;
 372              		.loc 1 73 5 is_stmt 1
 373              		.loc 1 73 29 is_stmt 0
 374 0208 23380500 		sd	zero,16(a0)
  74:src/timer.cpp **** 
  75:src/timer.cpp ****     if(sleepingHead == 0){
 375              		.loc 1 75 5 is_stmt 1
 376              	.LBB11:
 377              		.loc 1 75 8 is_stmt 0
 378 020c 83B70400 		ld	a5,0(s1)
 379              		.loc 1 75 5
 380 0210 638C0704 		beqz	a5,.L32
 381              	.L28:
 382              	.LVL27:
 383              	.LBB12:
  76:src/timer.cpp ****         sleepingHead = newSleepingThread;
  77:src/timer.cpp ****     }else{
  78:src/timer.cpp ****         threadSleepWrapper* current = sleepingHead;
  79:src/timer.cpp ****         while(current->next != 0 && current->next->wakeUpTime < newSleepingThread->wakeUpTime){
 384              		.loc 1 79 9 is_stmt 1
GAS LISTING /tmp/cccMeMcU.s 			page 10


 385              		.loc 1 79 34
 386 0214 93860700 		mv	a3,a5
 387              		.loc 1 79 24 is_stmt 0
 388 0218 83B70701 		ld	a5,16(a5)
 389              	.LVL28:
 390              		.loc 1 79 34
 391 021c 63860700 		beqz	a5,.L30
 392              		.loc 1 79 52 discriminator 1
 393 0220 03B78700 		ld	a4,8(a5)
 394              		.loc 1 79 34 discriminator 1
 395 0224 E368B7FE 		bgtu	a1,a4,.L28
 396              	.L30:
  80:src/timer.cpp ****             current = current->next;
  81:src/timer.cpp ****         }
  82:src/timer.cpp ****         newSleepingThread->next = current->next;
 397              		.loc 1 82 9 is_stmt 1
 398              		.loc 1 82 33 is_stmt 0
 399 0228 2338F500 		sd	a5,16(a0)
  83:src/timer.cpp ****         current->next = newSleepingThread;
 400              		.loc 1 83 9 is_stmt 1
 401              		.loc 1 83 23 is_stmt 0
 402 022c 23B8A600 		sd	a0,16(a3)
 403              	.LVL29:
 404              	.L29:
 405              	.LBE12:
 406              	.LBE11:
  84:src/timer.cpp ****     }
  85:src/timer.cpp ****     thread->setSleeping(true);
 407              		.loc 1 85 5 is_stmt 1
 408              		.loc 1 85 24 is_stmt 0
 409 0230 93051000 		li	a1,1
 410 0234 13850900 		mv	a0,s3
 411              	.LVL30:
 412 0238 97000000 		call	_ZN7_thread11setSleepingEb@plt
 412      E7800000 
 413              	.LVL31:
  86:src/timer.cpp ****     thread_dispatch();
 414              		.loc 1 86 5 is_stmt 1
 415              		.loc 1 86 20 is_stmt 0
 416 0240 97000000 		call	_Z15thread_dispatchv@plt
 416      E7800000 
 417              	.LVL32:
  87:src/timer.cpp ****     return 0;
 418              		.loc 1 87 5 is_stmt 1
  88:src/timer.cpp **** }
 419              		.loc 1 88 1 is_stmt 0
 420 0248 13050000 		li	a0,0
 421 024c 83308102 		ld	ra,40(sp)
 422              		.cfi_remember_state
 423              		.cfi_restore 1
 424 0250 03340102 		ld	s0,32(sp)
 425              		.cfi_restore 8
 426              		.cfi_def_cfa 2, 48
 427 0254 83348101 		ld	s1,24(sp)
 428              		.cfi_restore 9
 429              	.LVL33:
 430 0258 03390101 		ld	s2,16(sp)
GAS LISTING /tmp/cccMeMcU.s 			page 11


 431              		.cfi_restore 18
 432              	.LVL34:
 433 025c 83398100 		ld	s3,8(sp)
 434              		.cfi_restore 19
 435              	.LVL35:
 436 0260 13010103 		addi	sp,sp,48
 437              		.cfi_def_cfa_offset 0
 438 0264 67800000 		jr	ra
 439              	.LVL36:
 440              	.L32:
 441              		.cfi_restore_state
 442              	.LBB13:
  76:src/timer.cpp ****     }else{
 443              		.loc 1 76 9 is_stmt 1
  76:src/timer.cpp ****     }else{
 444              		.loc 1 76 22 is_stmt 0
 445 0268 23B0A400 		sd	a0,0(s1)
 446 026c 6FF05FFC 		j	.L29
 447              	.LBE13:
 448              		.cfi_endproc
 449              	.LFE8:
 451              		.align	2
 452              		.globl	_ZN5Timer17noSleepingThreadsEv
 454              	_ZN5Timer17noSleepingThreadsEv:
 455              	.LFB9:
  89:src/timer.cpp **** 
  90:src/timer.cpp **** bool Timer::noSleepingThreads(){
 456              		.loc 1 90 32 is_stmt 1
 457              		.cfi_startproc
 458              	.LVL37:
 459 0270 130101FF 		addi	sp,sp,-16
 460              		.cfi_def_cfa_offset 16
 461 0274 23348100 		sd	s0,8(sp)
 462              		.cfi_offset 8, -8
 463 0278 13040101 		addi	s0,sp,16
 464              		.cfi_def_cfa 8, 0
  91:src/timer.cpp ****     return sleepingHead == 0;
 465              		.loc 1 91 5
 466              		.loc 1 91 12 is_stmt 0
 467 027c 03350500 		ld	a0,0(a0)
 468              	.LVL38:
  92:src/timer.cpp **** }...
 469              		.loc 1 92 1
 470 0280 13351500 		seqz	a0,a0
 471 0284 03348100 		ld	s0,8(sp)
 472              		.cfi_restore 8
 473              		.cfi_def_cfa 2, 16
 474 0288 13010101 		addi	sp,sp,16
 475              		.cfi_def_cfa_offset 0
 476 028c 67800000 		jr	ra
 477              		.cfi_endproc
 478              	.LFE9:
 480              		.globl	_ZN5Timer8instanceE
 481              		.bss
 482              		.align	3
 483              		.set	.LANCHOR0,. + 0
 486              	_ZN5Timer8instanceE:
GAS LISTING /tmp/cccMeMcU.s 			page 12


 487 0000 00000000 		.zero	8
 487      00000000 
 488              		.text
 489              	.Letext0:
 490              		.file 2 "./lib/hw.h"
 491              		.file 3 "./h/thread.h"
 492              		.file 4 "./h/timer.h"
 493              		.file 5 "./h/sched.h"
 494              		.file 6 "./h/syscalls_c.h"
 495              		.file 7 "./h/assert.h"
 3100              		.align	3
 3103              	DW.ref.__gxx_personality_v0:
 3104 0000 00000000 		.dword	__gxx_personality_v0
 3104      00000000 
 3105              		.ident	"GCC: (Ubuntu 9.4.0-1ubuntu1~20.04) 9.4.0"
 3106              		.section	.note.GNU-stack,"",@progbits
GAS LISTING /tmp/cccMeMcU.s 			page 13


DEFINED SYMBOLS
                            *ABS*:0000000000000000 timer.cpp
     /tmp/cccMeMcU.s:20     .text:0000000000000000 _ZN5TimerC2Ev
     /tmp/cccMeMcU.s:24     .text:0000000000000000 .L0 
     /tmp/cccMeMcU.s:26     .text:0000000000000000 .L0 
     /tmp/cccMeMcU.s:27     .text:0000000000000004 .L0 
     /tmp/cccMeMcU.s:31     .text:0000000000000010 .L0 
     /tmp/cccMeMcU.s:32     .text:0000000000000010 .L0 
     /tmp/cccMeMcU.s:33     .text:0000000000000010 .L0 
     /tmp/cccMeMcU.s:35     .text:0000000000000014 .L0 
     /tmp/cccMeMcU.s:39     .text:0000000000000018 .L0 
     /tmp/cccMeMcU.s:44     .text:0000000000000024 .L0 
     /tmp/cccMeMcU.s:45     .text:0000000000000024 .L0 
     /tmp/cccMeMcU.s:46     .text:0000000000000024 .L0 
     /tmp/cccMeMcU.s:48     .text:000000000000002c .L0 
     /tmp/cccMeMcU.s:49     .text:000000000000002c .L0 
     /tmp/cccMeMcU.s:51     .text:0000000000000030 .L0 
     /tmp/cccMeMcU.s:52     .text:0000000000000030 .L0 
     /tmp/cccMeMcU.s:55     .text:0000000000000034 .L0 
     /tmp/cccMeMcU.s:56     .text:0000000000000038 .L0 
     /tmp/cccMeMcU.s:57     .text:0000000000000038 .L0 
     /tmp/cccMeMcU.s:59     .text:000000000000003c .L0 
     /tmp/cccMeMcU.s:60     .text:000000000000003c .L0 
     /tmp/cccMeMcU.s:62     .text:0000000000000040 .L0 
     /tmp/cccMeMcU.s:65     .text:0000000000000044 .L0 
     /tmp/cccMeMcU.s:69     .text:0000000000000048 .L0 
     /tmp/cccMeMcU.s:72     .text:0000000000000048 .L0 
     /tmp/cccMeMcU.s:80     .text:0000000000000070 .L0 
     /tmp/cccMeMcU.s:20     .text:0000000000000000 _ZN5TimerC1Ev
     /tmp/cccMeMcU.s:88     .text:0000000000000070 _ZN5TimerD2Ev
     /tmp/cccMeMcU.s:91     .text:0000000000000070 .L0 
     /tmp/cccMeMcU.s:3103   .data.rel.local.DW.ref.__gxx_personality_v0:0000000000000000 DW.ref.__gxx_personality_v0
     /tmp/cccMeMcU.s:96     .text:0000000000000070 .L0 
     /tmp/cccMeMcU.s:97     .text:0000000000000070 .L0 
     /tmp/cccMeMcU.s:98     .text:0000000000000070 .L0 
     /tmp/cccMeMcU.s:101    .text:0000000000000074 .L0 
     /tmp/cccMeMcU.s:102    .text:0000000000000074 .L0 
     /tmp/cccMeMcU.s:105    .text:0000000000000078 .L0 
     /tmp/cccMeMcU.s:106    .text:000000000000007c .L0 
     /tmp/cccMeMcU.s:110    .text:0000000000000088 .L0 
     /tmp/cccMeMcU.s:111    .text:0000000000000088 .L0 
     /tmp/cccMeMcU.s:112    .text:0000000000000088 .L0 
     /tmp/cccMeMcU.s:114    .text:000000000000008c .L0 
     /tmp/cccMeMcU.s:119    .text:000000000000008c .L0 
     /tmp/cccMeMcU.s:120    .text:000000000000008c .L0 
     /tmp/cccMeMcU.s:123    .text:0000000000000090 .L0 
     /tmp/cccMeMcU.s:124    .text:0000000000000090 .L0 
     /tmp/cccMeMcU.s:127    .text:0000000000000098 .L0 
     /tmp/cccMeMcU.s:128    .text:0000000000000098 .L0 
     /tmp/cccMeMcU.s:131    .text:000000000000009c .L0 
     /tmp/cccMeMcU.s:132    .text:000000000000009c .L0 
     /tmp/cccMeMcU.s:135    .text:00000000000000a0 .L0 
     /tmp/cccMeMcU.s:136    .text:00000000000000a4 .L0 
     /tmp/cccMeMcU.s:138    .text:00000000000000a8 .L0 
     /tmp/cccMeMcU.s:139    .text:00000000000000a8 .L0 
     /tmp/cccMeMcU.s:141    .text:00000000000000ac .L0 
     /tmp/cccMeMcU.s:144    .text:00000000000000b0 .L0 
GAS LISTING /tmp/cccMeMcU.s 			page 14


     /tmp/cccMeMcU.s:149    .text:00000000000000b8 .L0 
     /tmp/cccMeMcU.s:88     .text:0000000000000070 _ZN5TimerD1Ev
     /tmp/cccMeMcU.s:173    .text:00000000000000b8 _ZN5Timer11getInstanceEv
     /tmp/cccMeMcU.s:176    .text:00000000000000b8 .L0 
     /tmp/cccMeMcU.s:177    .text:00000000000000b8 .L0 
     /tmp/cccMeMcU.s:178    .text:00000000000000b8 .L0 
     /tmp/cccMeMcU.s:181    .text:00000000000000c4 .L0 
     /tmp/cccMeMcU.s:182    .text:00000000000000c4 .L0 
     /tmp/cccMeMcU.s:183    .text:00000000000000c4 .L0 
     /tmp/cccMeMcU.s:187    .text:00000000000000d0 .L0 
     /tmp/cccMeMcU.s:188    .text:00000000000000d4 .L0 
     /tmp/cccMeMcU.s:191    .text:00000000000000dc .L0 
     /tmp/cccMeMcU.s:192    .text:00000000000000dc .L0 
     /tmp/cccMeMcU.s:194    .text:00000000000000e0 .L0 
     /tmp/cccMeMcU.s:196    .text:00000000000000e0 .L0 
     /tmp/cccMeMcU.s:203    .text:0000000000000104 .L0 
     /tmp/cccMeMcU.s:204    .text:0000000000000104 .L0 
     /tmp/cccMeMcU.s:205    .text:0000000000000104 .L0 
     /tmp/cccMeMcU.s:207    .text:0000000000000110 .L0 
     /tmp/cccMeMcU.s:209    .text:0000000000000114 .L0 
     /tmp/cccMeMcU.s:210    .text:0000000000000114 .L0 
     /tmp/cccMeMcU.s:212    .text:0000000000000118 .L0 
     /tmp/cccMeMcU.s:214    .text:000000000000011c .L0 
     /tmp/cccMeMcU.s:220    .text:000000000000011c _ZN5Timer4tickEv
     /tmp/cccMeMcU.s:223    .text:000000000000011c .L0 
     /tmp/cccMeMcU.s:225    .text:000000000000011c .L0 
     /tmp/cccMeMcU.s:226    .text:0000000000000120 .L0 
     /tmp/cccMeMcU.s:232    .text:0000000000000134 .L0 
     /tmp/cccMeMcU.s:233    .text:0000000000000134 .L0 
     /tmp/cccMeMcU.s:234    .text:0000000000000134 .L0 
     /tmp/cccMeMcU.s:235    .text:0000000000000134 .L0 
     /tmp/cccMeMcU.s:236    .text:0000000000000134 .L0 
     /tmp/cccMeMcU.s:238    .text:0000000000000138 .L0 
     /tmp/cccMeMcU.s:241    .text:000000000000013c .L0 
     /tmp/cccMeMcU.s:242    .text:000000000000013c .L0 
     /tmp/cccMeMcU.s:246    .text:0000000000000148 .L0 
     /tmp/cccMeMcU.s:247    .text:0000000000000148 .L0 
     /tmp/cccMeMcU.s:255    .text:0000000000000150 .L0 
     /tmp/cccMeMcU.s:256    .text:0000000000000150 .L0 
     /tmp/cccMeMcU.s:259    .text:0000000000000154 .L0 
     /tmp/cccMeMcU.s:260    .text:0000000000000154 .L0 
     /tmp/cccMeMcU.s:264    .text:0000000000000160 .L0 
     /tmp/cccMeMcU.s:265    .text:0000000000000160 .L0 
     /tmp/cccMeMcU.s:271    .text:0000000000000164 .L0 
     /tmp/cccMeMcU.s:272    .text:0000000000000164 .L0 
     /tmp/cccMeMcU.s:275    .text:0000000000000168 .L0 
     /tmp/cccMeMcU.s:276    .text:0000000000000168 .L0 
     /tmp/cccMeMcU.s:278    .text:000000000000016c .L0 
     /tmp/cccMeMcU.s:280    .text:0000000000000170 .L0 
     /tmp/cccMeMcU.s:283    .text:0000000000000174 .L0 
     /tmp/cccMeMcU.s:284    .text:0000000000000174 .L0 
     /tmp/cccMeMcU.s:289    .text:0000000000000184 .L0 
     /tmp/cccMeMcU.s:290    .text:0000000000000184 .L0 
     /tmp/cccMeMcU.s:294    .text:0000000000000190 .L0 
     /tmp/cccMeMcU.s:295    .text:0000000000000190 .L0 
     /tmp/cccMeMcU.s:298    .text:0000000000000194 .L0 
     /tmp/cccMeMcU.s:299    .text:0000000000000194 .L0 
GAS LISTING /tmp/cccMeMcU.s 			page 15


     /tmp/cccMeMcU.s:301    .text:0000000000000198 .L0 
     /tmp/cccMeMcU.s:308    .text:00000000000001a0 .L0 
     /tmp/cccMeMcU.s:309    .text:00000000000001a4 .L0 
     /tmp/cccMeMcU.s:311    .text:00000000000001a8 .L0 
     /tmp/cccMeMcU.s:312    .text:00000000000001a8 .L0 
     /tmp/cccMeMcU.s:314    .text:00000000000001ac .L0 
     /tmp/cccMeMcU.s:317    .text:00000000000001b0 .L0 
     /tmp/cccMeMcU.s:320    .text:00000000000001b4 .L0 
     /tmp/cccMeMcU.s:322    .text:00000000000001b8 .L0 
     /tmp/cccMeMcU.s:324    .text:00000000000001bc .L0 
     /tmp/cccMeMcU.s:330    .text:00000000000001bc _ZN5Timer5sleepEm
     /tmp/cccMeMcU.s:333    .text:00000000000001bc .L0 
     /tmp/cccMeMcU.s:335    .text:00000000000001bc .L0 
     /tmp/cccMeMcU.s:336    .text:00000000000001c0 .L0 
     /tmp/cccMeMcU.s:342    .text:00000000000001d4 .L0 
     /tmp/cccMeMcU.s:343    .text:00000000000001d4 .L0 
     /tmp/cccMeMcU.s:344    .text:00000000000001d4 .L0 
     /tmp/cccMeMcU.s:345    .text:00000000000001d4 .L0 
     /tmp/cccMeMcU.s:346    .text:00000000000001d4 .L0 
     /tmp/cccMeMcU.s:348    .text:00000000000001d8 .L0 
     /tmp/cccMeMcU.s:352    .text:00000000000001e0 .L0 
     /tmp/cccMeMcU.s:353    .text:00000000000001e0 .L0 
     /tmp/cccMeMcU.s:357    .text:00000000000001ec .L0 
     /tmp/cccMeMcU.s:358    .text:00000000000001ec .L0 
     /tmp/cccMeMcU.s:363    .text:00000000000001f8 .L0 
     /tmp/cccMeMcU.s:364    .text:00000000000001f8 .L0 
     /tmp/cccMeMcU.s:366    .text:00000000000001fc .L0 
     /tmp/cccMeMcU.s:367    .text:00000000000001fc .L0 
     /tmp/cccMeMcU.s:369    .text:0000000000000200 .L0 
     /tmp/cccMeMcU.s:371    .text:0000000000000204 .L0 
     /tmp/cccMeMcU.s:373    .text:0000000000000208 .L0 
     /tmp/cccMeMcU.s:374    .text:0000000000000208 .L0 
     /tmp/cccMeMcU.s:377    .text:000000000000020c .L0 
     /tmp/cccMeMcU.s:378    .text:000000000000020c .L0 
     /tmp/cccMeMcU.s:380    .text:0000000000000210 .L0 
     /tmp/cccMeMcU.s:385    .text:0000000000000214 .L0 
     /tmp/cccMeMcU.s:386    .text:0000000000000214 .L0 
     /tmp/cccMeMcU.s:388    .text:0000000000000218 .L0 
     /tmp/cccMeMcU.s:391    .text:000000000000021c .L0 
     /tmp/cccMeMcU.s:393    .text:0000000000000220 .L0 
     /tmp/cccMeMcU.s:395    .text:0000000000000224 .L0 
     /tmp/cccMeMcU.s:398    .text:0000000000000228 .L0 
     /tmp/cccMeMcU.s:399    .text:0000000000000228 .L0 
     /tmp/cccMeMcU.s:401    .text:000000000000022c .L0 
     /tmp/cccMeMcU.s:402    .text:000000000000022c .L0 
     /tmp/cccMeMcU.s:408    .text:0000000000000230 .L0 
     /tmp/cccMeMcU.s:409    .text:0000000000000230 .L0 
     /tmp/cccMeMcU.s:415    .text:0000000000000240 .L0 
     /tmp/cccMeMcU.s:416    .text:0000000000000240 .L0 
     /tmp/cccMeMcU.s:419    .text:0000000000000248 .L0 
     /tmp/cccMeMcU.s:420    .text:0000000000000248 .L0 
     /tmp/cccMeMcU.s:422    .text:0000000000000250 .L0 
     /tmp/cccMeMcU.s:423    .text:0000000000000250 .L0 
     /tmp/cccMeMcU.s:425    .text:0000000000000254 .L0 
     /tmp/cccMeMcU.s:426    .text:0000000000000254 .L0 
     /tmp/cccMeMcU.s:428    .text:0000000000000258 .L0 
     /tmp/cccMeMcU.s:431    .text:000000000000025c .L0 
GAS LISTING /tmp/cccMeMcU.s 			page 16


     /tmp/cccMeMcU.s:434    .text:0000000000000260 .L0 
     /tmp/cccMeMcU.s:437    .text:0000000000000264 .L0 
     /tmp/cccMeMcU.s:441    .text:0000000000000268 .L0 
     /tmp/cccMeMcU.s:444    .text:0000000000000268 .L0 
     /tmp/cccMeMcU.s:445    .text:0000000000000268 .L0 
     /tmp/cccMeMcU.s:448    .text:0000000000000270 .L0 
     /tmp/cccMeMcU.s:454    .text:0000000000000270 _ZN5Timer17noSleepingThreadsEv
     /tmp/cccMeMcU.s:457    .text:0000000000000270 .L0 
     /tmp/cccMeMcU.s:459    .text:0000000000000270 .L0 
     /tmp/cccMeMcU.s:460    .text:0000000000000274 .L0 
     /tmp/cccMeMcU.s:462    .text:0000000000000278 .L0 
     /tmp/cccMeMcU.s:464    .text:000000000000027c .L0 
     /tmp/cccMeMcU.s:466    .text:000000000000027c .L0 
     /tmp/cccMeMcU.s:467    .text:000000000000027c .L0 
     /tmp/cccMeMcU.s:470    .text:0000000000000280 .L0 
     /tmp/cccMeMcU.s:472    .text:0000000000000288 .L0 
     /tmp/cccMeMcU.s:473    .text:0000000000000288 .L0 
     /tmp/cccMeMcU.s:475    .text:000000000000028c .L0 
     /tmp/cccMeMcU.s:477    .text:0000000000000290 .L0 
     /tmp/cccMeMcU.s:486    .bss:0000000000000000 _ZN5Timer8instanceE
     /tmp/cccMeMcU.s:483    .bss:0000000000000000 .LANCHOR0
     /tmp/cccMeMcU.s:496    .text:0000000000000290 .L0 
     /tmp/cccMeMcU.s:39     .text:0000000000000018 .L0 
     /tmp/cccMeMcU.s:46     .text:0000000000000024 .L0 
     /tmp/cccMeMcU.s:8      .rodata.str1.8:0000000000000000 .LC0
     /tmp/cccMeMcU.s:72     .text:0000000000000048 .L0 
     /tmp/cccMeMcU.s:11     .rodata.str1.8:0000000000000010 .LC1
     /tmp/cccMeMcU.s:74     .text:0000000000000054 .L0 
     /tmp/cccMeMcU.s:14     .rodata.str1.8:0000000000000020 .LC2
     /tmp/cccMeMcU.s:75     .text:000000000000005c .L0 
     /tmp/cccMeMcU.s:178    .text:00000000000000b8 .L0 
     /tmp/cccMeMcU.s:183    .text:00000000000000c4 .L0 
     /tmp/cccMeMcU.s:164    .rodata.str1.8:0000000000000030 .LC3
     /tmp/cccMeMcU.s:196    .text:00000000000000e0 .L0 
     /tmp/cccMeMcU.s:198    .text:00000000000000ec .L0 
     /tmp/cccMeMcU.s:167    .rodata.str1.8:0000000000000058 .LC4
     /tmp/cccMeMcU.s:199    .text:00000000000000f4 .L0 
     /tmp/cccMeMcU.s:205    .text:0000000000000104 .L0 
     /tmp/cccMeMcU.s:353    .text:00000000000001e0 .L0 
     /tmp/cccMeMcU.s:68     .text:0000000000000048 .L4
     /tmp/cccMeMcU.s:42     .text:0000000000000024 .L2
     /tmp/cccMeMcU.s:147    .text:00000000000000b4 .L13
     /tmp/cccMeMcU.s:115    .text:000000000000008c .L11
     /tmp/cccMeMcU.s:185    .text:00000000000000d0 .L20
     /tmp/cccMeMcU.s:267    .text:0000000000000164 .L24
     /tmp/cccMeMcU.s:304    .text:00000000000001a0 .L21
     /tmp/cccMeMcU.s:257    .text:0000000000000154 .L23
     /tmp/cccMeMcU.s:251    .text:0000000000000150 .L26
     /tmp/cccMeMcU.s:440    .text:0000000000000268 .L32
     /tmp/cccMeMcU.s:396    .text:0000000000000228 .L30
     /tmp/cccMeMcU.s:381    .text:0000000000000214 .L28
     /tmp/cccMeMcU.s:404    .text:0000000000000230 .L29
     /tmp/cccMeMcU.s:1726   .debug_abbrev:0000000000000000 .Ldebug_abbrev0
     /tmp/cccMeMcU.s:3061   .debug_str:0000000000000531 .LASF100
     /tmp/cccMeMcU.s:2875   .debug_str:000000000000001b .LASF101
     /tmp/cccMeMcU.s:3013   .debug_str:00000000000003b3 .LASF102
     /tmp/cccMeMcU.s:5      .text:0000000000000000 .Ltext0
GAS LISTING /tmp/cccMeMcU.s 			page 17


     /tmp/cccMeMcU.s:489    .text:0000000000000290 .Letext0
     /tmp/cccMeMcU.s:2867   .debug_line:0000000000000000 .Ldebug_line0
     /tmp/cccMeMcU.s:2999   .debug_str:000000000000036e .LASF0
     /tmp/cccMeMcU.s:3017   .debug_str:0000000000000403 .LASF1
     /tmp/cccMeMcU.s:2985   .debug_str:0000000000000316 .LASF2
     /tmp/cccMeMcU.s:3047   .debug_str:00000000000004d4 .LASF3
     /tmp/cccMeMcU.s:2959   .debug_str:000000000000027b .LASF4
     /tmp/cccMeMcU.s:3049   .debug_str:00000000000004db .LASF5
     /tmp/cccMeMcU.s:2899   .debug_str:00000000000000e4 .LASF6
     /tmp/cccMeMcU.s:2931   .debug_str:00000000000001bd .LASF7
     /tmp/cccMeMcU.s:3019   .debug_str:0000000000000416 .LASF8
     /tmp/cccMeMcU.s:2997   .debug_str:000000000000035b .LASF9
     /tmp/cccMeMcU.s:3069   .debug_str:000000000000062c .LASF10
     /tmp/cccMeMcU.s:2947   .debug_str:0000000000000232 .LASF11
     /tmp/cccMeMcU.s:3029   .debug_str:0000000000000456 .LASF12
     /tmp/cccMeMcU.s:3065   .debug_str:0000000000000601 .LASF13
     /tmp/cccMeMcU.s:2903   .debug_str:00000000000000fe .LASF14
     /tmp/cccMeMcU.s:2877   .debug_str:0000000000000029 .LASF15
     /tmp/cccMeMcU.s:2915   .debug_str:000000000000015b .LASF16
     /tmp/cccMeMcU.s:3045   .debug_str:00000000000004be .LASF17
     /tmp/cccMeMcU.s:2925   .debug_str:000000000000019b .LASF18
     /tmp/cccMeMcU.s:2957   .debug_str:0000000000000273 .LASF35
     /tmp/cccMeMcU.s:2989   .debug_str:0000000000000329 .LASF20
     /tmp/cccMeMcU.s:3041   .debug_str:00000000000004ab .LASF19
     /tmp/cccMeMcU.s:2991   .debug_str:0000000000000338 .LASF21
     /tmp/cccMeMcU.s:3021   .debug_str:0000000000000429 .LASF22
     /tmp/cccMeMcU.s:3093   .debug_str:00000000000006d1 .LASF23
     /tmp/cccMeMcU.s:2975   .debug_str:00000000000002ef .LASF25
     /tmp/cccMeMcU.s:2879   .debug_str:0000000000000039 .LASF27
     /tmp/cccMeMcU.s:2945   .debug_str:000000000000022d .LASF24
     /tmp/cccMeMcU.s:2977   .debug_str:00000000000002f6 .LASF56
     /tmp/cccMeMcU.s:3077   .debug_str:0000000000000674 .LASF58
     /tmp/cccMeMcU.s:3001   .debug_str:000000000000037b .LASF103
     /tmp/cccMeMcU.s:3057   .debug_str:000000000000050c .LASF104
     /tmp/cccMeMcU.s:3051   .debug_str:00000000000004ed .LASF26
     /tmp/cccMeMcU.s:2969   .debug_str:00000000000002b4 .LASF28
     /tmp/cccMeMcU.s:2933   .debug_str:00000000000001c4 .LASF105
     /tmp/cccMeMcU.s:2881   .debug_str:000000000000005e .LASF29
     /tmp/cccMeMcU.s:3095   .debug_str:00000000000006d6 .LASF30
     /tmp/cccMeMcU.s:2907   .debug_str:0000000000000122 .LASF31
     /tmp/cccMeMcU.s:2891   .debug_str:000000000000009c .LASF32
     /tmp/cccMeMcU.s:2939   .debug_str:00000000000001f3 .LASF33
     /tmp/cccMeMcU.s:3075   .debug_str:0000000000000659 .LASF34
     /tmp/cccMeMcU.s:3085   .debug_str:00000000000006b5 .LASF60
     /tmp/cccMeMcU.s:2901   .debug_str:00000000000000eb .LASF62
     /tmp/cccMeMcU.s:3071   .debug_str:000000000000063c .LASF37
     /tmp/cccMeMcU.s:3055   .debug_str:0000000000000504 .LASF106
     /tmp/cccMeMcU.s:3037   .debug_str:000000000000048c .LASF107
     /tmp/cccMeMcU.s:2967   .debug_str:00000000000002ad .LASF36
     /tmp/cccMeMcU.s:2963   .debug_str:000000000000028b .LASF38
     /tmp/cccMeMcU.s:3005   .debug_str:000000000000038f .LASF39
     /tmp/cccMeMcU.s:3091   .debug_str:00000000000006c8 .LASF40
     /tmp/cccMeMcU.s:3035   .debug_str:0000000000000483 .LASF41
     /tmp/cccMeMcU.s:2961   .debug_str:0000000000000282 .LASF42
     /tmp/cccMeMcU.s:2979   .debug_str:00000000000002fb .LASF43
     /tmp/cccMeMcU.s:2983   .debug_str:000000000000030f .LASF44
     /tmp/cccMeMcU.s:2871   .debug_str:0000000000000009 .LASF45
GAS LISTING /tmp/cccMeMcU.s 			page 18


     /tmp/cccMeMcU.s:3031   .debug_str:0000000000000465 .LASF46
     /tmp/cccMeMcU.s:3039   .debug_str:00000000000004a2 .LASF47
     /tmp/cccMeMcU.s:2929   .debug_str:00000000000001b6 .LASF48
     /tmp/cccMeMcU.s:3089   .debug_str:00000000000006bf .LASF49
     /tmp/cccMeMcU.s:3023   .debug_str:0000000000000430 .LASF50
     /tmp/cccMeMcU.s:2973   .debug_str:00000000000002e8 .LASF70
     /tmp/cccMeMcU.s:3079   .debug_str:0000000000000687 .LASF108
     /tmp/cccMeMcU.s:3015   .debug_str:00000000000003cf .LASF109
     /tmp/cccMeMcU.s:2885   .debug_str:000000000000007b .LASF51
     /tmp/cccMeMcU.s:2869   .debug_str:0000000000000000 .LASF52
     /tmp/cccMeMcU.s:3025   .debug_str:0000000000000439 .LASF53
     /tmp/cccMeMcU.s:3043   .debug_str:00000000000004b3 .LASF54
     /tmp/cccMeMcU.s:2993   .debug_str:0000000000000347 .LASF55
     /tmp/cccMeMcU.s:3063   .debug_str:00000000000005f5 .LASF57
     /tmp/cccMeMcU.s:3083   .debug_str:000000000000069c .LASF59
     /tmp/cccMeMcU.s:3011   .debug_str:00000000000003ad .LASF61
     /tmp/cccMeMcU.s:2887   .debug_str:0000000000000080 .LASF63
     /tmp/cccMeMcU.s:2911   .debug_str:0000000000000140 .LASF64
     /tmp/cccMeMcU.s:3053   .debug_str:00000000000004f2 .LASF65
     /tmp/cccMeMcU.s:2971   .debug_str:00000000000002c9 .LASF66
     /tmp/cccMeMcU.s:2895   .debug_str:00000000000000cd .LASF67
     /tmp/cccMeMcU.s:3081   .debug_str:0000000000000695 .LASF68
     /tmp/cccMeMcU.s:2949   .debug_str:0000000000000240 .LASF69
     /tmp/cccMeMcU.s:2981   .debug_str:0000000000000306 .LASF71
     /tmp/cccMeMcU.s:2965   .debug_str:00000000000002a0 .LASF72
     /tmp/cccMeMcU.s:3073   .debug_str:0000000000000654 .LASF73
     /tmp/cccMeMcU.s:3027   .debug_str:000000000000044c .LASF74
     /tmp/cccMeMcU.s:3003   .debug_str:0000000000000384 .LASF75
     /tmp/cccMeMcU.s:2883   .debug_str:0000000000000069 .LASF76
     /tmp/cccMeMcU.s:3067   .debug_str:0000000000000610 .LASF110
     /tmp/cccMeMcU.s:2953   .debug_str:0000000000000253 .LASF111
     /tmp/cccMeMcU.s:2921   .debug_str:0000000000000185 .LASF77
     /tmp/cccMeMcU.s:2935   .debug_str:00000000000001d2 .LASF78
     /tmp/cccMeMcU.s:2897   .debug_str:00000000000000db .LASF79
     /tmp/cccMeMcU.s:2893   .debug_str:00000000000000b4 .LASF80
     /tmp/cccMeMcU.s:2927   .debug_str:00000000000001b1 .LASF81
     /tmp/cccMeMcU.s:2987   .debug_str:0000000000000324 .LASF82
     /tmp/cccMeMcU.s:2913   .debug_str:0000000000000151 .LASF83
     /tmp/cccMeMcU.s:2905   .debug_str:000000000000010e .LASF112
     /tmp/cccMeMcU.s:455    .text:0000000000000270 .LFB9
     /tmp/cccMeMcU.s:478    .text:0000000000000290 .LFE9
     /tmp/cccMeMcU.s:3087   .debug_str:00000000000006ba .LASF84
     /tmp/cccMeMcU.s:2637   .debug_loc:0000000000000000 .LLST12
     /tmp/cccMeMcU.s:331    .text:00000000000001bc .LFB8
     /tmp/cccMeMcU.s:449    .text:0000000000000270 .LFE8
     /tmp/cccMeMcU.s:2651   .debug_loc:0000000000000039 .LLST7
     /tmp/cccMeMcU.s:2955   .debug_str:0000000000000267 .LASF113
     /tmp/cccMeMcU.s:2673   .debug_loc:0000000000000098 .LLST8
     /tmp/cccMeMcU.s:2695   .debug_loc:00000000000000f7 .LLST9
     /tmp/cccMeMcU.s:2943   .debug_str:000000000000021b .LASF85
     /tmp/cccMeMcU.s:2706   .debug_loc:000000000000012d .LLST10
     /tmp/cccMeMcU.s:383    .text:0000000000000214 .LBB12
     /tmp/cccMeMcU.s:405    .text:0000000000000230 .LBE12
     /tmp/cccMeMcU.s:3009   .debug_str:00000000000003a5 .LASF86
     /tmp/cccMeMcU.s:2717   .debug_loc:0000000000000163 .LLST11
     /tmp/cccMeMcU.s:361    .text:00000000000001f8 .LVL26
     /tmp/cccMeMcU.s:413    .text:0000000000000240 .LVL31
GAS LISTING /tmp/cccMeMcU.s 			page 19


     /tmp/cccMeMcU.s:417    .text:0000000000000248 .LVL32
     /tmp/cccMeMcU.s:221    .text:000000000000011c .LFB7
     /tmp/cccMeMcU.s:325    .text:00000000000001bc .LFE7
     /tmp/cccMeMcU.s:2728   .debug_loc:0000000000000199 .LLST4
     /tmp/cccMeMcU.s:2746   .debug_loc:00000000000001e5 .LLST5
     /tmp/cccMeMcU.s:2847   .debug_ranges:0000000000000000 .Ldebug_ranges0
     /tmp/cccMeMcU.s:2761   .debug_loc:000000000000022e .LLST6
     /tmp/cccMeMcU.s:262    .text:0000000000000160 .LVL15
     /tmp/cccMeMcU.s:287    .text:0000000000000184 .LVL17
     /tmp/cccMeMcU.s:292    .text:0000000000000190 .LVL18
     /tmp/cccMeMcU.s:174    .text:00000000000000b8 .LFB6
     /tmp/cccMeMcU.s:215    .text:000000000000011c .LFE6
     /tmp/cccMeMcU.s:2909   .debug_str:000000000000012c .LASF89
     /tmp/cccMeMcU.s:201    .text:0000000000000104 .LVL11
     /tmp/cccMeMcU.s:2951   .debug_str:000000000000024e .LASF87
     /tmp/cccMeMcU.s:2889   .debug_str:0000000000000092 .LASF88
     /tmp/cccMeMcU.s:3007   .debug_str:0000000000000397 .LASF90
     /tmp/cccMeMcU.s:89     .text:0000000000000070 .LFB4
     /tmp/cccMeMcU.s:150    .text:00000000000000b8 .LFE4
     /tmp/cccMeMcU.s:2772   .debug_loc:0000000000000264 .LLST1
     /tmp/cccMeMcU.s:125    .text:0000000000000098 .LVL8
     /tmp/cccMeMcU.s:2786   .debug_loc:000000000000029d .LLST2
     /tmp/cccMeMcU.s:117    .text:000000000000008c .LBB5
     /tmp/cccMeMcU.s:129    .text:000000000000009c .LBE5
     /tmp/cccMeMcU.s:2801   .debug_loc:00000000000002e6 .LLST3
     /tmp/cccMeMcU.s:2995   .debug_str:000000000000034d .LASF91
     /tmp/cccMeMcU.s:21     .text:0000000000000000 .LFB1
     /tmp/cccMeMcU.s:81     .text:0000000000000070 .LFE1
     /tmp/cccMeMcU.s:2812   .debug_loc:000000000000031c .LLST0
     /tmp/cccMeMcU.s:77     .text:000000000000006c .LVL4
     /tmp/cccMeMcU.s:2923   .debug_str:000000000000018d .LASF92
     /tmp/cccMeMcU.s:2873   .debug_str:0000000000000011 .LASF94
     /tmp/cccMeMcU.s:3033   .debug_str:000000000000046e .LASF93
     /tmp/cccMeMcU.s:2917   .debug_str:0000000000000167 .LASF95
     /tmp/cccMeMcU.s:2919   .debug_str:0000000000000177 .LASF96
     /tmp/cccMeMcU.s:2937   .debug_str:00000000000001ea .LASF97
     /tmp/cccMeMcU.s:2941   .debug_str:00000000000001ff .LASF98
     /tmp/cccMeMcU.s:3059   .debug_str:0000000000000523 .LASF99
     /tmp/cccMeMcU.s:458    .text:0000000000000270 .LVL37
     /tmp/cccMeMcU.s:468    .text:0000000000000280 .LVL38
     /tmp/cccMeMcU.s:334    .text:00000000000001bc .LVL23
     /tmp/cccMeMcU.s:359    .text:00000000000001f0 .LVL25
     /tmp/cccMeMcU.s:429    .text:0000000000000258 .LVL33
     /tmp/cccMeMcU.s:439    .text:0000000000000268 .LVL36
     /tmp/cccMeMcU.s:432    .text:000000000000025c .LVL34
     /tmp/cccMeMcU.s:355    .text:00000000000001ec .LVL24
     /tmp/cccMeMcU.s:435    .text:0000000000000260 .LVL35
     /tmp/cccMeMcU.s:411    .text:0000000000000238 .LVL30
     /tmp/cccMeMcU.s:382    .text:0000000000000214 .LVL27
     /tmp/cccMeMcU.s:389    .text:000000000000021c .LVL28
     /tmp/cccMeMcU.s:403    .text:0000000000000230 .LVL29
     /tmp/cccMeMcU.s:224    .text:000000000000011c .LVL12
     /tmp/cccMeMcU.s:250    .text:0000000000000150 .LVL14
     /tmp/cccMeMcU.s:318    .text:00000000000001b0 .LVL22
     /tmp/cccMeMcU.s:248    .text:000000000000014c .LVL13
     /tmp/cccMeMcU.s:266    .text:0000000000000164 .LVL16
     /tmp/cccMeMcU.s:315    .text:00000000000001ac .LVL21
GAS LISTING /tmp/cccMeMcU.s 			page 20


     /tmp/cccMeMcU.s:296    .text:0000000000000194 .LVL19
     /tmp/cccMeMcU.s:303    .text:00000000000001a0 .LVL20
     /tmp/cccMeMcU.s:94     .text:0000000000000070 .LVL5
     /tmp/cccMeMcU.s:99     .text:0000000000000074 .LVL6
     /tmp/cccMeMcU.s:142    .text:00000000000000ac .LVL9
     /tmp/cccMeMcU.s:121    .text:0000000000000090 .LVL7
     /tmp/cccMeMcU.s:146    .text:00000000000000b4 .LVL10
     /tmp/cccMeMcU.s:25     .text:0000000000000000 .LVL0
     /tmp/cccMeMcU.s:41     .text:0000000000000024 .LVL1
     /tmp/cccMeMcU.s:63     .text:0000000000000040 .LVL2
     /tmp/cccMeMcU.s:67     .text:0000000000000048 .LVL3
     /tmp/cccMeMcU.s:497    .debug_info:0000000000000000 .Ldebug_info0
     /tmp/cccMeMcU.s:37     .text:0000000000000018 .LBB2
     /tmp/cccMeMcU.s:53     .text:0000000000000034 .LBE2
     /tmp/cccMeMcU.s:70     .text:0000000000000048 .LBB3
     /tmp/cccMeMcU.s:79     .text:0000000000000070 .LBE3
     /tmp/cccMeMcU.s:95     .text:0000000000000070 .LBB4
     /tmp/cccMeMcU.s:103    .text:0000000000000078 .LBE4
     /tmp/cccMeMcU.s:116    .text:000000000000008c .LBB6
     /tmp/cccMeMcU.s:133    .text:00000000000000a0 .LBE6
     /tmp/cccMeMcU.s:253    .text:0000000000000150 .LBB8
     /tmp/cccMeMcU.s:268    .text:0000000000000164 .LBE8
     /tmp/cccMeMcU.s:281    .text:0000000000000174 .LBB9
     /tmp/cccMeMcU.s:305    .text:00000000000001a0 .LBE9
     /tmp/cccMeMcU.s:153    .gcc_except_table:0000000000000000 .LLSDA4

UNDEFINED SYMBOLS
_Z13assert_failedPKcS0_jS0_
_Z8mem_freePv
__gxx_personality_v0
_ZN7_thread11setSleepingEb
_ZN9Scheduler3putEP7_thread
_ZN7_thread13currentThreadE
_Z9mem_allocm
_Z15thread_dispatchv
