GAS LISTING /tmp/ccl16KVl.s 			page 1


   1              		.file	"timer.cpp"
   2              		.option pic
   3              		.option norelax
   4              		.text
   5              	.Ltext0:
   6              		.section	.rodata.str1.8,"aMS",@progbits,1
   7              		.align	3
   8              	.LC0:
   9 0000 7372632F 		.string	"src/timer.cpp"
   9      74696D65 
   9      722E6370 
   9      7000
  10              		.text
  11              		.align	2
  12              		.globl	_ZN5TimerC2Ev
  14              	_ZN5TimerC2Ev:
  15              	.LFB1:
  16              		.file 1 "src/timer.cpp"
   1:src/timer.cpp **** /**
   2:src/timer.cpp ****  * @file timer.cpp
   3:src/timer.cpp ****  * @author stcksmsh (vukicevickosta@gmail.com)
   4:src/timer.cpp ****  * @brief implementation of the timer class
   5:src/timer.cpp ****  * @version 0.1
   6:src/timer.cpp ****  * @date 2024-01-02
   7:src/timer.cpp ****  * 
   8:src/timer.cpp ****  * @copyright Copyright (c) 2024
   9:src/timer.cpp ****  * 
  10:src/timer.cpp ****  */
  11:src/timer.cpp **** 
  12:src/timer.cpp **** #include "timer.h"
  13:src/timer.cpp **** #include "syscalls_c.h"
  14:src/timer.cpp **** #include "sched.h"
  15:src/timer.cpp **** #include "assert.h"
  16:src/timer.cpp **** 
  17:src/timer.cpp **** Timer* Timer::instance = nullptr;
  18:src/timer.cpp **** 
  19:src/timer.cpp **** Timer::Timer(){
  17              		.loc 1 19 1
  18              		.cfi_startproc
  19              	.LVL0:
  20 0000 130101FE 		addi	sp,sp,-32
  21              		.cfi_def_cfa_offset 32
  22 0004 233C1100 		sd	ra,24(sp)
  23 0008 23388100 		sd	s0,16(sp)
  24 000c 23349100 		sd	s1,8(sp)
  25              		.cfi_offset 1, -8
  26              		.cfi_offset 8, -16
  27              		.cfi_offset 9, -24
  28 0010 13040102 		addi	s0,sp,32
  29              		.cfi_def_cfa 8, 0
  30 0014 93040500 		mv	s1,a0
  31              	.LBB2:
  20:src/timer.cpp ****     assert(instance == nullptr);
  32              		.loc 1 20 5
  33 0018 97070000 		ld	a5,.LANCHOR0
  33      83B70700 
  34 0020 63940702 		bnez	a5,.L4
GAS LISTING /tmp/ccl16KVl.s 			page 2


  35              	.LVL1:
  36              	.L2:
  37              		.loc 1 20 32 discriminator 3
  21:src/timer.cpp ****     instance = this;
  38              		.loc 1 21 5 discriminator 3
  39              		.loc 1 21 14 is_stmt 0 discriminator 3
  40 0024 97070000 		sd	s1,.LANCHOR0,a5
  40      23B09700 
  22:src/timer.cpp ****     sleepingHead = nullptr;
  41              		.loc 1 22 5 is_stmt 1 discriminator 3
  42              		.loc 1 22 18 is_stmt 0 discriminator 3
  43 002c 23B00400 		sd	zero,0(s1)
  23:src/timer.cpp ****     time = 0;
  44              		.loc 1 23 5 is_stmt 1 discriminator 3
  45              		.loc 1 23 10 is_stmt 0 discriminator 3
  46 0030 23B40400 		sd	zero,8(s1)
  47              	.LBE2:
  24:src/timer.cpp **** }
  48              		.loc 1 24 1 discriminator 3
  49 0034 83308101 		ld	ra,24(sp)
  50              		.cfi_remember_state
  51              		.cfi_restore 1
  52 0038 03340101 		ld	s0,16(sp)
  53              		.cfi_restore 8
  54              		.cfi_def_cfa 2, 32
  55 003c 83348100 		ld	s1,8(sp)
  56              		.cfi_restore 9
  57              	.LVL2:
  58 0040 13010102 		addi	sp,sp,32
  59              		.cfi_def_cfa_offset 0
  60 0044 67800000 		jr	ra
  61              	.LVL3:
  62              	.L4:
  63              		.cfi_restore_state
  64              	.LBB3:
  20:src/timer.cpp ****     instance = this;
  65              		.loc 1 20 5 is_stmt 1 discriminator 1
  66 0048 93054001 		li	a1,20
  67 004c 17050000 		lla	a0,.LC0
  67      13050500 
  68 0054 97000000 		call	_Z13assert_failedPKci@plt
  68      E7800000 
  69              	.LVL4:
  70 005c 6FF09FFC 		j	.L2
  71              	.LBE3:
  72              		.cfi_endproc
  73              	.LFE1:
  75              		.globl	_ZN5TimerC1Ev
  76              		.set	_ZN5TimerC1Ev,_ZN5TimerC2Ev
  77              		.align	2
  78              		.globl	_ZN5TimerD2Ev
  80              	_ZN5TimerD2Ev:
  81              	.LFB4:
  25:src/timer.cpp **** 
  26:src/timer.cpp **** Timer::~Timer(){
  82              		.loc 1 26 1
  83              		.cfi_startproc
GAS LISTING /tmp/ccl16KVl.s 			page 3


  84              		.cfi_personality 0x9b,DW.ref.__gxx_personality_v0
  85              		.cfi_lsda 0x1b,.LLSDA4
  86              	.LVL5:
  87              	.LBB4:
  27:src/timer.cpp ****     threadSleepWrapper* current = sleepingHead;
  88              		.loc 1 27 5
  89              		.loc 1 27 25 is_stmt 0
  90 0060 03350500 		ld	a0,0(a0)
  91              	.LVL6:
  28:src/timer.cpp ****     while(current != nullptr){
  92              		.loc 1 28 5 is_stmt 1
  93              		.loc 1 28 19
  94 0064 63000504 		beqz	a0,.L13
  95              	.LBE4:
  26:src/timer.cpp ****     threadSleepWrapper* current = sleepingHead;
  96              		.loc 1 26 1 is_stmt 0
  97 0068 130101FE 		addi	sp,sp,-32
  98              		.cfi_def_cfa_offset 32
  99 006c 233C1100 		sd	ra,24(sp)
 100 0070 23388100 		sd	s0,16(sp)
 101 0074 23349100 		sd	s1,8(sp)
 102              		.cfi_offset 1, -8
 103              		.cfi_offset 8, -16
 104              		.cfi_offset 9, -24
 105 0078 13040102 		addi	s0,sp,32
 106              		.cfi_def_cfa 8, 0
 107              	.L11:
 108              	.LBB6:
 109              	.LBB5:
  29:src/timer.cpp ****         threadSleepWrapper* next = current->next;
 110              		.loc 1 29 9 is_stmt 1
 111              		.loc 1 29 29 is_stmt 0
 112 007c 83340501 		ld	s1,16(a0)
 113              	.LVL7:
  30:src/timer.cpp ****         mem_free(current);
 114              		.loc 1 30 9 is_stmt 1
 115              		.loc 1 30 17 is_stmt 0
 116 0080 97000000 		call	_Z8mem_freePv@plt
 116      E7800000 
 117              	.LVL8:
  31:src/timer.cpp ****         current = next;
 118              		.loc 1 31 9 is_stmt 1
 119              		.loc 1 31 17 is_stmt 0
 120 0088 13850400 		mv	a0,s1
 121              	.LBE5:
  28:src/timer.cpp ****         threadSleepWrapper* next = current->next;
 122              		.loc 1 28 5 is_stmt 1
  28:src/timer.cpp ****         threadSleepWrapper* next = current->next;
 123              		.loc 1 28 19
 124 008c E39804FE 		bnez	s1,.L11
 125              	.LBE6:
  32:src/timer.cpp ****     }
  33:src/timer.cpp **** }
 126              		.loc 1 33 1 is_stmt 0
 127 0090 83308101 		ld	ra,24(sp)
 128              		.cfi_restore 1
 129 0094 03340101 		ld	s0,16(sp)
GAS LISTING /tmp/ccl16KVl.s 			page 4


 130              		.cfi_restore 8
 131              		.cfi_def_cfa 2, 32
 132 0098 83348100 		ld	s1,8(sp)
 133              		.cfi_restore 9
 134              	.LVL9:
 135 009c 13010102 		addi	sp,sp,32
 136              		.cfi_def_cfa_offset 0
 137 00a0 67800000 		jr	ra
 138              	.LVL10:
 139              	.L13:
 140 00a4 67800000 		ret
 141              		.cfi_endproc
 142              	.LFE4:
 143              		.globl	__gxx_personality_v0
 144              		.section	.gcc_except_table,"a",@progbits
 145              	.LLSDA4:
 146 0000 FF       		.byte	0xff
 147 0001 FF       		.byte	0xff
 148 0002 03       		.byte	0x3
 149 0003 00       		.byte	0
 150              		.text
 152              		.globl	_ZN5TimerD1Ev
 153              		.set	_ZN5TimerD1Ev,_ZN5TimerD2Ev
 154              		.align	2
 155              		.globl	_ZN5Timer11getInstanceEv
 157              	_ZN5Timer11getInstanceEv:
 158              	.LFB6:
  34:src/timer.cpp **** 
  35:src/timer.cpp **** Timer& Timer::getInstance(){
 159              		.loc 1 35 28 is_stmt 1
 160              		.cfi_startproc
  36:src/timer.cpp ****     assert(instance != nullptr);
 161              		.loc 1 36 5
 162 00a8 97070000 		ld	a5,.LANCHOR0
 162      83B70700 
 163 00b0 63880700 		beqz	a5,.L20
 164              		.loc 1 36 32
  37:src/timer.cpp ****     return *instance;
 165              		.loc 1 37 5
  38:src/timer.cpp **** }
 166              		.loc 1 38 1 is_stmt 0
 167 00b4 17050000 		ld	a0,.LANCHOR0
 167      03350500 
 168 00bc 67800000 		ret
 169              	.L20:
  35:src/timer.cpp ****     assert(instance != nullptr);
 170              		.loc 1 35 28 discriminator 1
 171 00c0 130101FF 		addi	sp,sp,-16
 172              		.cfi_def_cfa_offset 16
 173 00c4 23341100 		sd	ra,8(sp)
 174 00c8 23308100 		sd	s0,0(sp)
 175              		.cfi_offset 1, -8
 176              		.cfi_offset 8, -16
 177 00cc 13040101 		addi	s0,sp,16
 178              		.cfi_def_cfa 8, 0
  36:src/timer.cpp ****     return *instance;
 179              		.loc 1 36 5 is_stmt 1 discriminator 1
GAS LISTING /tmp/ccl16KVl.s 			page 5


 180 00d0 93054002 		li	a1,36
 181 00d4 17050000 		lla	a0,.LC0
 181      13050500 
 182 00dc 97000000 		call	_Z13assert_failedPKci@plt
 182      E7800000 
 183              	.LVL11:
  36:src/timer.cpp ****     return *instance;
 184              		.loc 1 36 32 discriminator 1
  37:src/timer.cpp **** }
 185              		.loc 1 37 5 discriminator 1
 186              		.loc 1 38 1 is_stmt 0 discriminator 1
 187 00e4 17050000 		ld	a0,.LANCHOR0
 187      03350500 
 188 00ec 83308100 		ld	ra,8(sp)
 189              		.cfi_restore 1
 190 00f0 03340100 		ld	s0,0(sp)
 191              		.cfi_restore 8
 192              		.cfi_def_cfa 2, 16
 193 00f4 13010101 		addi	sp,sp,16
 194              		.cfi_def_cfa_offset 0
 195 00f8 67800000 		jr	ra
 196              		.cfi_endproc
 197              	.LFE6:
 199              		.align	2
 200              		.globl	_ZN5Timer4tickEv
 202              	_ZN5Timer4tickEv:
 203              	.LFB7:
  39:src/timer.cpp **** 
  40:src/timer.cpp **** void Timer::tick(){
 204              		.loc 1 40 19 is_stmt 1
 205              		.cfi_startproc
 206              	.LVL12:
 207 00fc 130101FD 		addi	sp,sp,-48
 208              		.cfi_def_cfa_offset 48
 209 0100 23341102 		sd	ra,40(sp)
 210 0104 23308102 		sd	s0,32(sp)
 211 0108 233C9100 		sd	s1,24(sp)
 212 010c 23382101 		sd	s2,16(sp)
 213 0110 23343101 		sd	s3,8(sp)
 214              		.cfi_offset 1, -8
 215              		.cfi_offset 8, -16
 216              		.cfi_offset 9, -24
 217              		.cfi_offset 18, -32
 218              		.cfi_offset 19, -40
 219 0114 13040103 		addi	s0,sp,48
 220              		.cfi_def_cfa 8, 0
 221 0118 93090500 		mv	s3,a0
  41:src/timer.cpp ****     putc('t');
 222              		.loc 1 41 5
 223              		.loc 1 41 9 is_stmt 0
 224 011c 13054007 		li	a0,116
 225              	.LVL13:
 226 0120 97000000 		call	_Z4putcc@plt
 226      E7800000 
 227              	.LVL14:
  42:src/timer.cpp ****     time += 1;
 228              		.loc 1 42 5 is_stmt 1
GAS LISTING /tmp/ccl16KVl.s 			page 6


 229              		.loc 1 42 10 is_stmt 0
 230 0128 83B78900 		ld	a5,8(s3)
 231 012c 93871700 		addi	a5,a5,1
 232 0130 23B4F900 		sd	a5,8(s3)
  43:src/timer.cpp ****     threadSleepWrapper* current = sleepingHead;
 233              		.loc 1 43 5 is_stmt 1
 234              		.loc 1 43 25 is_stmt 0
 235 0134 83B40900 		ld	s1,0(s3)
 236              	.LVL15:
 237              	.L23:
  44:src/timer.cpp ****     while(current != nullptr){
 238              		.loc 1 44 5 is_stmt 1
 239              		.loc 1 44 19
 240 0138 63820404 		beqz	s1,.L21
  45:src/timer.cpp ****         if(current->wakeUpTime <= time){
 241              		.loc 1 45 9
 242              	.LBB7:
 243              		.loc 1 45 21 is_stmt 0
 244 013c 03B78400 		ld	a4,8(s1)
 245              		.loc 1 45 35
 246 0140 83B78900 		ld	a5,8(s3)
 247              		.loc 1 45 9
 248 0144 63ECE702 		bgtu	a4,a5,.L21
 249              	.LBB8:
  46:src/timer.cpp ****             current->thread->setSleeping(false);
 250              		.loc 1 46 13 is_stmt 1
 251              		.loc 1 46 41 is_stmt 0
 252 0148 93050000 		li	a1,0
 253 014c 03B50400 		ld	a0,0(s1)
 254 0150 97000000 		call	_ZN7_thread11setSleepingEb@plt
 254      E7800000 
 255              	.LVL16:
  47:src/timer.cpp ****             Scheduler::put(current->thread);
 256              		.loc 1 47 13 is_stmt 1
 257              		.loc 1 47 27 is_stmt 0
 258 0158 03B50400 		ld	a0,0(s1)
 259 015c 97000000 		call	_ZN9Scheduler3putEP7_thread@plt
 259      E7800000 
 260              	.LVL17:
  48:src/timer.cpp ****             threadSleepWrapper* next = current->next;
 261              		.loc 1 48 13 is_stmt 1
 262              		.loc 1 48 33 is_stmt 0
 263 0164 03B90401 		ld	s2,16(s1)
 264              	.LVL18:
  49:src/timer.cpp ****             mem_free(current);
 265              		.loc 1 49 13 is_stmt 1
 266              		.loc 1 49 21 is_stmt 0
 267 0168 13850400 		mv	a0,s1
 268 016c 97000000 		call	_Z8mem_freePv@plt
 268      E7800000 
 269              	.LVL19:
  50:src/timer.cpp ****             current = next;
 270              		.loc 1 50 13 is_stmt 1
 271              		.loc 1 50 21 is_stmt 0
 272 0174 93040900 		mv	s1,s2
 273              	.LBE8:
 274              	.LBE7:
GAS LISTING /tmp/ccl16KVl.s 			page 7


  44:src/timer.cpp ****         if(current->wakeUpTime <= time){
 275              		.loc 1 44 5
 276 0178 6FF01FFC 		j	.L23
 277              	.LVL20:
 278              	.L21:
  51:src/timer.cpp ****         }else{
  52:src/timer.cpp ****             break;
  53:src/timer.cpp ****         }
  54:src/timer.cpp ****     }
  55:src/timer.cpp **** }
 279              		.loc 1 55 1
 280 017c 83308102 		ld	ra,40(sp)
 281              		.cfi_restore 1
 282 0180 03340102 		ld	s0,32(sp)
 283              		.cfi_restore 8
 284              		.cfi_def_cfa 2, 48
 285 0184 83348101 		ld	s1,24(sp)
 286              		.cfi_restore 9
 287              	.LVL21:
 288 0188 03390101 		ld	s2,16(sp)
 289              		.cfi_restore 18
 290 018c 83398100 		ld	s3,8(sp)
 291              		.cfi_restore 19
 292              	.LVL22:
 293 0190 13010103 		addi	sp,sp,48
 294              		.cfi_def_cfa_offset 0
 295 0194 67800000 		jr	ra
 296              		.cfi_endproc
 297              	.LFE7:
 299              		.align	2
 300              		.globl	_ZN5Timer5sleepEm
 302              	_ZN5Timer5sleepEm:
 303              	.LFB8:
  56:src/timer.cpp **** 
  57:src/timer.cpp **** int Timer::sleep(time_t timeToSleep){
 304              		.loc 1 57 37 is_stmt 1
 305              		.cfi_startproc
 306              	.LVL23:
 307 0198 130101FD 		addi	sp,sp,-48
 308              		.cfi_def_cfa_offset 48
 309 019c 23341102 		sd	ra,40(sp)
 310 01a0 23308102 		sd	s0,32(sp)
 311 01a4 233C9100 		sd	s1,24(sp)
 312 01a8 23382101 		sd	s2,16(sp)
 313 01ac 23343101 		sd	s3,8(sp)
 314              		.cfi_offset 1, -8
 315              		.cfi_offset 8, -16
 316              		.cfi_offset 9, -24
 317              		.cfi_offset 18, -32
 318              		.cfi_offset 19, -40
 319 01b0 13040103 		addi	s0,sp,48
 320              		.cfi_def_cfa 8, 0
 321 01b4 93040500 		mv	s1,a0
 322 01b8 13890500 		mv	s2,a1
  58:src/timer.cpp ****     thread_t thread = _thread::currentThread;
 323              		.loc 1 58 5
 324              		.loc 1 58 14 is_stmt 0
GAS LISTING /tmp/ccl16KVl.s 			page 8


 325 01bc 97070000 		la	a5,_ZN7_thread13currentThreadE
 325      83B70700 
 326 01c4 83B90700 		ld	s3,0(a5)
 327              	.LVL24:
  59:src/timer.cpp ****     threadSleepWrapper* newSleepingThread = (threadSleepWrapper*)mem_alloc(sizeof(threadSleepWrappe
 328              		.loc 1 59 5 is_stmt 1
 329              		.loc 1 59 75 is_stmt 0
 330 01c8 13058001 		li	a0,24
 331              	.LVL25:
 332 01cc 97000000 		call	_Z9mem_allocm@plt
 332      E7800000 
 333              	.LVL26:
  60:src/timer.cpp ****     newSleepingThread->thread = thread;
 334              		.loc 1 60 5 is_stmt 1
 335              		.loc 1 60 31 is_stmt 0
 336 01d4 23303501 		sd	s3,0(a0)
  61:src/timer.cpp ****     newSleepingThread->wakeUpTime = time + timeToSleep;
 337              		.loc 1 61 5 is_stmt 1
 338              		.loc 1 61 37 is_stmt 0
 339 01d8 83B78400 		ld	a5,8(s1)
 340              		.loc 1 61 42
 341 01dc B3852701 		add	a1,a5,s2
 342              		.loc 1 61 35
 343 01e0 2334B500 		sd	a1,8(a0)
  62:src/timer.cpp ****     newSleepingThread->next = nullptr;
 344              		.loc 1 62 5 is_stmt 1
 345              		.loc 1 62 29 is_stmt 0
 346 01e4 23380500 		sd	zero,16(a0)
  63:src/timer.cpp **** 
  64:src/timer.cpp ****     if(sleepingHead == nullptr){
 347              		.loc 1 64 5 is_stmt 1
 348              	.LBB9:
 349              		.loc 1 64 8 is_stmt 0
 350 01e8 83B70400 		ld	a5,0(s1)
 351              		.loc 1 64 5
 352 01ec 63820706 		beqz	a5,.L30
 353              	.L26:
 354              	.LVL27:
 355              	.LBB10:
  65:src/timer.cpp ****         sleepingHead = newSleepingThread;
  66:src/timer.cpp ****     }else{
  67:src/timer.cpp ****         threadSleepWrapper* current = sleepingHead;
  68:src/timer.cpp ****         while(current->next != nullptr && current->next->wakeUpTime < newSleepingThread->wakeUpTime
 356              		.loc 1 68 9 is_stmt 1
 357              		.loc 1 68 40
 358 01f0 93860700 		mv	a3,a5
 359              		.loc 1 68 24 is_stmt 0
 360 01f4 83B70701 		ld	a5,16(a5)
 361              	.LVL28:
 362              		.loc 1 68 40
 363 01f8 63860700 		beqz	a5,.L28
 364              		.loc 1 68 58 discriminator 1
 365 01fc 03B78700 		ld	a4,8(a5)
 366              		.loc 1 68 40 discriminator 1
 367 0200 E368B7FE 		bgtu	a1,a4,.L26
 368              	.L28:
  69:src/timer.cpp ****             current = current->next;
GAS LISTING /tmp/ccl16KVl.s 			page 9


  70:src/timer.cpp ****         }
  71:src/timer.cpp ****         newSleepingThread->next = current->next;
 369              		.loc 1 71 9 is_stmt 1
 370              		.loc 1 71 33 is_stmt 0
 371 0204 2338F500 		sd	a5,16(a0)
  72:src/timer.cpp ****         current->next = newSleepingThread;
 372              		.loc 1 72 9 is_stmt 1
 373              		.loc 1 72 23 is_stmt 0
 374 0208 23B8A600 		sd	a0,16(a3)
 375              	.LVL29:
 376              	.L27:
 377              	.LBE10:
 378              	.LBE9:
  73:src/timer.cpp ****     }
  74:src/timer.cpp ****     thread->setSleeping(true);
 379              		.loc 1 74 5 is_stmt 1
 380              		.loc 1 74 24 is_stmt 0
 381 020c 93051000 		li	a1,1
 382 0210 13850900 		mv	a0,s3
 383              	.LVL30:
 384 0214 97000000 		call	_ZN7_thread11setSleepingEb@plt
 384      E7800000 
 385              	.LVL31:
  75:src/timer.cpp ****     putc('s');
 386              		.loc 1 75 5 is_stmt 1
 387              		.loc 1 75 9 is_stmt 0
 388 021c 13053007 		li	a0,115
 389 0220 97000000 		call	_Z4putcc@plt
 389      E7800000 
 390              	.LVL32:
  76:src/timer.cpp ****     thread_dispatch();
 391              		.loc 1 76 5 is_stmt 1
 392              		.loc 1 76 20 is_stmt 0
 393 0228 97000000 		call	_Z15thread_dispatchv@plt
 393      E7800000 
 394              	.LVL33:
  77:src/timer.cpp ****     return 0;
 395              		.loc 1 77 5 is_stmt 1
  78:src/timer.cpp **** }
 396              		.loc 1 78 1 is_stmt 0
 397 0230 13050000 		li	a0,0
 398 0234 83308102 		ld	ra,40(sp)
 399              		.cfi_remember_state
 400              		.cfi_restore 1
 401 0238 03340102 		ld	s0,32(sp)
 402              		.cfi_restore 8
 403              		.cfi_def_cfa 2, 48
 404 023c 83348101 		ld	s1,24(sp)
 405              		.cfi_restore 9
 406              	.LVL34:
 407 0240 03390101 		ld	s2,16(sp)
 408              		.cfi_restore 18
 409              	.LVL35:
 410 0244 83398100 		ld	s3,8(sp)
 411              		.cfi_restore 19
 412              	.LVL36:
 413 0248 13010103 		addi	sp,sp,48
GAS LISTING /tmp/ccl16KVl.s 			page 10


 414              		.cfi_def_cfa_offset 0
 415 024c 67800000 		jr	ra
 416              	.LVL37:
 417              	.L30:
 418              		.cfi_restore_state
 419              	.LBB11:
  65:src/timer.cpp ****     }else{
 420              		.loc 1 65 9 is_stmt 1
  65:src/timer.cpp ****     }else{
 421              		.loc 1 65 22 is_stmt 0
 422 0250 23B0A400 		sd	a0,0(s1)
 423 0254 6FF09FFB 		j	.L27
 424              	.LBE11:
 425              		.cfi_endproc
 426              	.LFE8:
 428              		.align	2
 429              		.globl	_ZN5Timer17noSleepingThreadsEv
 431              	_ZN5Timer17noSleepingThreadsEv:
 432              	.LFB9:
  79:src/timer.cpp **** 
  80:src/timer.cpp **** bool Timer::noSleepingThreads(){
 433              		.loc 1 80 32 is_stmt 1
 434              		.cfi_startproc
 435              	.LVL38:
 436 0258 130101FF 		addi	sp,sp,-16
 437              		.cfi_def_cfa_offset 16
 438 025c 23348100 		sd	s0,8(sp)
 439              		.cfi_offset 8, -8
 440 0260 13040101 		addi	s0,sp,16
 441              		.cfi_def_cfa 8, 0
  81:src/timer.cpp ****     return sleepingHead == nullptr;
 442              		.loc 1 81 5
 443              		.loc 1 81 12 is_stmt 0
 444 0264 03350500 		ld	a0,0(a0)
 445              	.LVL39:
  82:src/timer.cpp **** }...
 446              		.loc 1 82 1
 447 0268 13351500 		seqz	a0,a0
 448 026c 03348100 		ld	s0,8(sp)
 449              		.cfi_restore 8
 450              		.cfi_def_cfa 2, 16
 451 0270 13010101 		addi	sp,sp,16
 452              		.cfi_def_cfa_offset 0
 453 0274 67800000 		jr	ra
 454              		.cfi_endproc
 455              	.LFE9:
 457              		.globl	_ZN5Timer8instanceE
 458              		.bss
 459              		.align	3
 460              		.set	.LANCHOR0,. + 0
 463              	_ZN5Timer8instanceE:
 464 0000 00000000 		.zero	8
 464      00000000 
 465              		.text
 466              	.Letext0:
 467              		.file 2 "./lib/hw.h"
 468              		.file 3 "./h/thread.h"
GAS LISTING /tmp/ccl16KVl.s 			page 11


 469              		.file 4 "./h/timer.h"
 470              		.file 5 "./h/sched.h"
 471              		.file 6 "./h/syscalls_c.h"
 472              		.file 7 "./h/assert.h"
 2922              		.align	3
 2925              	DW.ref.__gxx_personality_v0:
 2926 0000 00000000 		.dword	__gxx_personality_v0
 2926      00000000 
 2927              		.ident	"GCC: (Ubuntu 9.4.0-1ubuntu1~20.04) 9.4.0"
 2928              		.section	.note.GNU-stack,"",@progbits
GAS LISTING /tmp/ccl16KVl.s 			page 12


DEFINED SYMBOLS
                            *ABS*:0000000000000000 timer.cpp
     /tmp/ccl16KVl.s:14     .text:0000000000000000 _ZN5TimerC2Ev
     /tmp/ccl16KVl.s:18     .text:0000000000000000 .L0 
     /tmp/ccl16KVl.s:20     .text:0000000000000000 .L0 
     /tmp/ccl16KVl.s:21     .text:0000000000000004 .L0 
     /tmp/ccl16KVl.s:25     .text:0000000000000010 .L0 
     /tmp/ccl16KVl.s:26     .text:0000000000000010 .L0 
     /tmp/ccl16KVl.s:27     .text:0000000000000010 .L0 
     /tmp/ccl16KVl.s:29     .text:0000000000000014 .L0 
     /tmp/ccl16KVl.s:33     .text:0000000000000018 .L0 
     /tmp/ccl16KVl.s:38     .text:0000000000000024 .L0 
     /tmp/ccl16KVl.s:39     .text:0000000000000024 .L0 
     /tmp/ccl16KVl.s:40     .text:0000000000000024 .L0 
     /tmp/ccl16KVl.s:42     .text:000000000000002c .L0 
     /tmp/ccl16KVl.s:43     .text:000000000000002c .L0 
     /tmp/ccl16KVl.s:45     .text:0000000000000030 .L0 
     /tmp/ccl16KVl.s:46     .text:0000000000000030 .L0 
     /tmp/ccl16KVl.s:49     .text:0000000000000034 .L0 
     /tmp/ccl16KVl.s:50     .text:0000000000000038 .L0 
     /tmp/ccl16KVl.s:51     .text:0000000000000038 .L0 
     /tmp/ccl16KVl.s:53     .text:000000000000003c .L0 
     /tmp/ccl16KVl.s:54     .text:000000000000003c .L0 
     /tmp/ccl16KVl.s:56     .text:0000000000000040 .L0 
     /tmp/ccl16KVl.s:59     .text:0000000000000044 .L0 
     /tmp/ccl16KVl.s:63     .text:0000000000000048 .L0 
     /tmp/ccl16KVl.s:66     .text:0000000000000048 .L0 
     /tmp/ccl16KVl.s:72     .text:0000000000000060 .L0 
     /tmp/ccl16KVl.s:14     .text:0000000000000000 _ZN5TimerC1Ev
     /tmp/ccl16KVl.s:80     .text:0000000000000060 _ZN5TimerD2Ev
     /tmp/ccl16KVl.s:83     .text:0000000000000060 .L0 
     /tmp/ccl16KVl.s:2925   .data.rel.local.DW.ref.__gxx_personality_v0:0000000000000000 DW.ref.__gxx_personality_v0
     /tmp/ccl16KVl.s:88     .text:0000000000000060 .L0 
     /tmp/ccl16KVl.s:89     .text:0000000000000060 .L0 
     /tmp/ccl16KVl.s:90     .text:0000000000000060 .L0 
     /tmp/ccl16KVl.s:93     .text:0000000000000064 .L0 
     /tmp/ccl16KVl.s:94     .text:0000000000000064 .L0 
     /tmp/ccl16KVl.s:97     .text:0000000000000068 .L0 
     /tmp/ccl16KVl.s:98     .text:000000000000006c .L0 
     /tmp/ccl16KVl.s:102    .text:0000000000000078 .L0 
     /tmp/ccl16KVl.s:103    .text:0000000000000078 .L0 
     /tmp/ccl16KVl.s:104    .text:0000000000000078 .L0 
     /tmp/ccl16KVl.s:106    .text:000000000000007c .L0 
     /tmp/ccl16KVl.s:111    .text:000000000000007c .L0 
     /tmp/ccl16KVl.s:112    .text:000000000000007c .L0 
     /tmp/ccl16KVl.s:115    .text:0000000000000080 .L0 
     /tmp/ccl16KVl.s:116    .text:0000000000000080 .L0 
     /tmp/ccl16KVl.s:119    .text:0000000000000088 .L0 
     /tmp/ccl16KVl.s:120    .text:0000000000000088 .L0 
     /tmp/ccl16KVl.s:123    .text:000000000000008c .L0 
     /tmp/ccl16KVl.s:124    .text:000000000000008c .L0 
     /tmp/ccl16KVl.s:127    .text:0000000000000090 .L0 
     /tmp/ccl16KVl.s:128    .text:0000000000000094 .L0 
     /tmp/ccl16KVl.s:130    .text:0000000000000098 .L0 
     /tmp/ccl16KVl.s:131    .text:0000000000000098 .L0 
     /tmp/ccl16KVl.s:133    .text:000000000000009c .L0 
     /tmp/ccl16KVl.s:136    .text:00000000000000a0 .L0 
GAS LISTING /tmp/ccl16KVl.s 			page 13


     /tmp/ccl16KVl.s:141    .text:00000000000000a8 .L0 
     /tmp/ccl16KVl.s:80     .text:0000000000000060 _ZN5TimerD1Ev
     /tmp/ccl16KVl.s:157    .text:00000000000000a8 _ZN5Timer11getInstanceEv
     /tmp/ccl16KVl.s:160    .text:00000000000000a8 .L0 
     /tmp/ccl16KVl.s:161    .text:00000000000000a8 .L0 
     /tmp/ccl16KVl.s:162    .text:00000000000000a8 .L0 
     /tmp/ccl16KVl.s:165    .text:00000000000000b4 .L0 
     /tmp/ccl16KVl.s:166    .text:00000000000000b4 .L0 
     /tmp/ccl16KVl.s:167    .text:00000000000000b4 .L0 
     /tmp/ccl16KVl.s:171    .text:00000000000000c0 .L0 
     /tmp/ccl16KVl.s:172    .text:00000000000000c4 .L0 
     /tmp/ccl16KVl.s:175    .text:00000000000000cc .L0 
     /tmp/ccl16KVl.s:176    .text:00000000000000cc .L0 
     /tmp/ccl16KVl.s:178    .text:00000000000000d0 .L0 
     /tmp/ccl16KVl.s:180    .text:00000000000000d0 .L0 
     /tmp/ccl16KVl.s:185    .text:00000000000000e4 .L0 
     /tmp/ccl16KVl.s:186    .text:00000000000000e4 .L0 
     /tmp/ccl16KVl.s:187    .text:00000000000000e4 .L0 
     /tmp/ccl16KVl.s:189    .text:00000000000000f0 .L0 
     /tmp/ccl16KVl.s:191    .text:00000000000000f4 .L0 
     /tmp/ccl16KVl.s:192    .text:00000000000000f4 .L0 
     /tmp/ccl16KVl.s:194    .text:00000000000000f8 .L0 
     /tmp/ccl16KVl.s:196    .text:00000000000000fc .L0 
     /tmp/ccl16KVl.s:202    .text:00000000000000fc _ZN5Timer4tickEv
     /tmp/ccl16KVl.s:205    .text:00000000000000fc .L0 
     /tmp/ccl16KVl.s:207    .text:00000000000000fc .L0 
     /tmp/ccl16KVl.s:208    .text:0000000000000100 .L0 
     /tmp/ccl16KVl.s:214    .text:0000000000000114 .L0 
     /tmp/ccl16KVl.s:215    .text:0000000000000114 .L0 
     /tmp/ccl16KVl.s:216    .text:0000000000000114 .L0 
     /tmp/ccl16KVl.s:217    .text:0000000000000114 .L0 
     /tmp/ccl16KVl.s:218    .text:0000000000000114 .L0 
     /tmp/ccl16KVl.s:220    .text:0000000000000118 .L0 
     /tmp/ccl16KVl.s:223    .text:000000000000011c .L0 
     /tmp/ccl16KVl.s:224    .text:000000000000011c .L0 
     /tmp/ccl16KVl.s:229    .text:0000000000000128 .L0 
     /tmp/ccl16KVl.s:230    .text:0000000000000128 .L0 
     /tmp/ccl16KVl.s:234    .text:0000000000000134 .L0 
     /tmp/ccl16KVl.s:235    .text:0000000000000134 .L0 
     /tmp/ccl16KVl.s:239    .text:0000000000000138 .L0 
     /tmp/ccl16KVl.s:240    .text:0000000000000138 .L0 
     /tmp/ccl16KVl.s:243    .text:000000000000013c .L0 
     /tmp/ccl16KVl.s:244    .text:000000000000013c .L0 
     /tmp/ccl16KVl.s:246    .text:0000000000000140 .L0 
     /tmp/ccl16KVl.s:248    .text:0000000000000144 .L0 
     /tmp/ccl16KVl.s:251    .text:0000000000000148 .L0 
     /tmp/ccl16KVl.s:252    .text:0000000000000148 .L0 
     /tmp/ccl16KVl.s:257    .text:0000000000000158 .L0 
     /tmp/ccl16KVl.s:258    .text:0000000000000158 .L0 
     /tmp/ccl16KVl.s:262    .text:0000000000000164 .L0 
     /tmp/ccl16KVl.s:263    .text:0000000000000164 .L0 
     /tmp/ccl16KVl.s:266    .text:0000000000000168 .L0 
     /tmp/ccl16KVl.s:267    .text:0000000000000168 .L0 
     /tmp/ccl16KVl.s:271    .text:0000000000000174 .L0 
     /tmp/ccl16KVl.s:272    .text:0000000000000174 .L0 
     /tmp/ccl16KVl.s:276    .text:0000000000000178 .L0 
     /tmp/ccl16KVl.s:280    .text:000000000000017c .L0 
GAS LISTING /tmp/ccl16KVl.s 			page 14


     /tmp/ccl16KVl.s:281    .text:0000000000000180 .L0 
     /tmp/ccl16KVl.s:283    .text:0000000000000184 .L0 
     /tmp/ccl16KVl.s:284    .text:0000000000000184 .L0 
     /tmp/ccl16KVl.s:286    .text:0000000000000188 .L0 
     /tmp/ccl16KVl.s:289    .text:000000000000018c .L0 
     /tmp/ccl16KVl.s:291    .text:0000000000000190 .L0 
     /tmp/ccl16KVl.s:294    .text:0000000000000194 .L0 
     /tmp/ccl16KVl.s:296    .text:0000000000000198 .L0 
     /tmp/ccl16KVl.s:302    .text:0000000000000198 _ZN5Timer5sleepEm
     /tmp/ccl16KVl.s:305    .text:0000000000000198 .L0 
     /tmp/ccl16KVl.s:307    .text:0000000000000198 .L0 
     /tmp/ccl16KVl.s:308    .text:000000000000019c .L0 
     /tmp/ccl16KVl.s:314    .text:00000000000001b0 .L0 
     /tmp/ccl16KVl.s:315    .text:00000000000001b0 .L0 
     /tmp/ccl16KVl.s:316    .text:00000000000001b0 .L0 
     /tmp/ccl16KVl.s:317    .text:00000000000001b0 .L0 
     /tmp/ccl16KVl.s:318    .text:00000000000001b0 .L0 
     /tmp/ccl16KVl.s:320    .text:00000000000001b4 .L0 
     /tmp/ccl16KVl.s:324    .text:00000000000001bc .L0 
     /tmp/ccl16KVl.s:325    .text:00000000000001bc .L0 
     /tmp/ccl16KVl.s:329    .text:00000000000001c8 .L0 
     /tmp/ccl16KVl.s:330    .text:00000000000001c8 .L0 
     /tmp/ccl16KVl.s:335    .text:00000000000001d4 .L0 
     /tmp/ccl16KVl.s:336    .text:00000000000001d4 .L0 
     /tmp/ccl16KVl.s:338    .text:00000000000001d8 .L0 
     /tmp/ccl16KVl.s:339    .text:00000000000001d8 .L0 
     /tmp/ccl16KVl.s:341    .text:00000000000001dc .L0 
     /tmp/ccl16KVl.s:343    .text:00000000000001e0 .L0 
     /tmp/ccl16KVl.s:345    .text:00000000000001e4 .L0 
     /tmp/ccl16KVl.s:346    .text:00000000000001e4 .L0 
     /tmp/ccl16KVl.s:349    .text:00000000000001e8 .L0 
     /tmp/ccl16KVl.s:350    .text:00000000000001e8 .L0 
     /tmp/ccl16KVl.s:352    .text:00000000000001ec .L0 
     /tmp/ccl16KVl.s:357    .text:00000000000001f0 .L0 
     /tmp/ccl16KVl.s:358    .text:00000000000001f0 .L0 
     /tmp/ccl16KVl.s:360    .text:00000000000001f4 .L0 
     /tmp/ccl16KVl.s:363    .text:00000000000001f8 .L0 
     /tmp/ccl16KVl.s:365    .text:00000000000001fc .L0 
     /tmp/ccl16KVl.s:367    .text:0000000000000200 .L0 
     /tmp/ccl16KVl.s:370    .text:0000000000000204 .L0 
     /tmp/ccl16KVl.s:371    .text:0000000000000204 .L0 
     /tmp/ccl16KVl.s:373    .text:0000000000000208 .L0 
     /tmp/ccl16KVl.s:374    .text:0000000000000208 .L0 
     /tmp/ccl16KVl.s:380    .text:000000000000020c .L0 
     /tmp/ccl16KVl.s:381    .text:000000000000020c .L0 
     /tmp/ccl16KVl.s:387    .text:000000000000021c .L0 
     /tmp/ccl16KVl.s:388    .text:000000000000021c .L0 
     /tmp/ccl16KVl.s:392    .text:0000000000000228 .L0 
     /tmp/ccl16KVl.s:393    .text:0000000000000228 .L0 
     /tmp/ccl16KVl.s:396    .text:0000000000000230 .L0 
     /tmp/ccl16KVl.s:397    .text:0000000000000230 .L0 
     /tmp/ccl16KVl.s:399    .text:0000000000000238 .L0 
     /tmp/ccl16KVl.s:400    .text:0000000000000238 .L0 
     /tmp/ccl16KVl.s:402    .text:000000000000023c .L0 
     /tmp/ccl16KVl.s:403    .text:000000000000023c .L0 
     /tmp/ccl16KVl.s:405    .text:0000000000000240 .L0 
     /tmp/ccl16KVl.s:408    .text:0000000000000244 .L0 
GAS LISTING /tmp/ccl16KVl.s 			page 15


     /tmp/ccl16KVl.s:411    .text:0000000000000248 .L0 
     /tmp/ccl16KVl.s:414    .text:000000000000024c .L0 
     /tmp/ccl16KVl.s:418    .text:0000000000000250 .L0 
     /tmp/ccl16KVl.s:421    .text:0000000000000250 .L0 
     /tmp/ccl16KVl.s:422    .text:0000000000000250 .L0 
     /tmp/ccl16KVl.s:425    .text:0000000000000258 .L0 
     /tmp/ccl16KVl.s:431    .text:0000000000000258 _ZN5Timer17noSleepingThreadsEv
     /tmp/ccl16KVl.s:434    .text:0000000000000258 .L0 
     /tmp/ccl16KVl.s:436    .text:0000000000000258 .L0 
     /tmp/ccl16KVl.s:437    .text:000000000000025c .L0 
     /tmp/ccl16KVl.s:439    .text:0000000000000260 .L0 
     /tmp/ccl16KVl.s:441    .text:0000000000000264 .L0 
     /tmp/ccl16KVl.s:443    .text:0000000000000264 .L0 
     /tmp/ccl16KVl.s:444    .text:0000000000000264 .L0 
     /tmp/ccl16KVl.s:447    .text:0000000000000268 .L0 
     /tmp/ccl16KVl.s:449    .text:0000000000000270 .L0 
     /tmp/ccl16KVl.s:450    .text:0000000000000270 .L0 
     /tmp/ccl16KVl.s:452    .text:0000000000000274 .L0 
     /tmp/ccl16KVl.s:454    .text:0000000000000278 .L0 
     /tmp/ccl16KVl.s:463    .bss:0000000000000000 _ZN5Timer8instanceE
     /tmp/ccl16KVl.s:460    .bss:0000000000000000 .LANCHOR0
     /tmp/ccl16KVl.s:473    .text:0000000000000278 .L0 
     /tmp/ccl16KVl.s:33     .text:0000000000000018 .L0 
     /tmp/ccl16KVl.s:40     .text:0000000000000024 .L0 
     /tmp/ccl16KVl.s:8      .rodata.str1.8:0000000000000000 .LC0
     /tmp/ccl16KVl.s:67     .text:000000000000004c .L0 
     /tmp/ccl16KVl.s:162    .text:00000000000000a8 .L0 
     /tmp/ccl16KVl.s:167    .text:00000000000000b4 .L0 
     /tmp/ccl16KVl.s:181    .text:00000000000000d4 .L0 
     /tmp/ccl16KVl.s:187    .text:00000000000000e4 .L0 
     /tmp/ccl16KVl.s:325    .text:00000000000001bc .L0 
     /tmp/ccl16KVl.s:62     .text:0000000000000048 .L4
     /tmp/ccl16KVl.s:36     .text:0000000000000024 .L2
     /tmp/ccl16KVl.s:139    .text:00000000000000a4 .L13
     /tmp/ccl16KVl.s:107    .text:000000000000007c .L11
     /tmp/ccl16KVl.s:169    .text:00000000000000c0 .L20
     /tmp/ccl16KVl.s:278    .text:000000000000017c .L21
     /tmp/ccl16KVl.s:237    .text:0000000000000138 .L23
     /tmp/ccl16KVl.s:417    .text:0000000000000250 .L30
     /tmp/ccl16KVl.s:368    .text:0000000000000204 .L28
     /tmp/ccl16KVl.s:353    .text:00000000000001f0 .L26
     /tmp/ccl16KVl.s:376    .text:000000000000020c .L27
     /tmp/ccl16KVl.s:1626   .debug_abbrev:0000000000000000 .Ldebug_abbrev0
     /tmp/ccl16KVl.s:2885   .debug_str:00000000000004b5 .LASF92
     /tmp/ccl16KVl.s:2711   .debug_str:000000000000001b .LASF93
     /tmp/ccl16KVl.s:2717   .debug_str:000000000000005e .LASF94
     /tmp/ccl16KVl.s:5      .text:0000000000000000 .Ltext0
     /tmp/ccl16KVl.s:466    .text:0000000000000278 .Letext0
     /tmp/ccl16KVl.s:2703   .debug_line:0000000000000000 .Ldebug_line0
     /tmp/ccl16KVl.s:2821   .debug_str:00000000000002f2 .LASF0
     /tmp/ccl16KVl.s:2839   .debug_str:0000000000000379 .LASF1
     /tmp/ccl16KVl.s:2807   .debug_str:000000000000029a .LASF2
     /tmp/ccl16KVl.s:2869   .debug_str:0000000000000453 .LASF3
     /tmp/ccl16KVl.s:2783   .debug_str:0000000000000212 .LASF4
     /tmp/ccl16KVl.s:2871   .debug_str:000000000000045a .LASF5
     /tmp/ccl16KVl.s:2733   .debug_str:00000000000000cf .LASF6
     /tmp/ccl16KVl.s:2757   .debug_str:000000000000016c .LASF7
GAS LISTING /tmp/ccl16KVl.s 			page 16


     /tmp/ccl16KVl.s:2841   .debug_str:000000000000038c .LASF8
     /tmp/ccl16KVl.s:2819   .debug_str:00000000000002df .LASF9
     /tmp/ccl16KVl.s:2893   .debug_str:00000000000005b0 .LASF10
     /tmp/ccl16KVl.s:2773   .debug_str:00000000000001ce .LASF11
     /tmp/ccl16KVl.s:2853   .debug_str:00000000000003e2 .LASF12
     /tmp/ccl16KVl.s:2889   .debug_str:0000000000000585 .LASF13
     /tmp/ccl16KVl.s:2735   .debug_str:00000000000000d6 .LASF14
     /tmp/ccl16KVl.s:2713   .debug_str:0000000000000029 .LASF15
     /tmp/ccl16KVl.s:2745   .debug_str:000000000000011f .LASF16
     /tmp/ccl16KVl.s:2867   .debug_str:000000000000043d .LASF17
     /tmp/ccl16KVl.s:2753   .debug_str:0000000000000151 .LASF18
     /tmp/ccl16KVl.s:2781   .debug_str:000000000000020a .LASF50
     /tmp/ccl16KVl.s:2811   .debug_str:00000000000002ad .LASF20
     /tmp/ccl16KVl.s:2863   .debug_str:000000000000042a .LASF19
     /tmp/ccl16KVl.s:2813   .debug_str:00000000000002bc .LASF21
     /tmp/ccl16KVl.s:2843   .debug_str:000000000000039f .LASF22
     /tmp/ccl16KVl.s:2915   .debug_str:0000000000000650 .LASF23
     /tmp/ccl16KVl.s:2797   .debug_str:0000000000000273 .LASF25
     /tmp/ccl16KVl.s:2715   .debug_str:0000000000000039 .LASF27
     /tmp/ccl16KVl.s:2771   .debug_str:00000000000001c9 .LASF24
     /tmp/ccl16KVl.s:2799   .debug_str:000000000000027a .LASF52
     /tmp/ccl16KVl.s:2901   .debug_str:00000000000005f8 .LASF54
     /tmp/ccl16KVl.s:2823   .debug_str:00000000000002ff .LASF95
     /tmp/ccl16KVl.s:2881   .debug_str:0000000000000490 .LASF96
     /tmp/ccl16KVl.s:2875   .debug_str:0000000000000471 .LASF26
     /tmp/ccl16KVl.s:2791   .debug_str:0000000000000238 .LASF28
     /tmp/ccl16KVl.s:2759   .debug_str:0000000000000173 .LASF97
     /tmp/ccl16KVl.s:2719   .debug_str:000000000000006b .LASF29
     /tmp/ccl16KVl.s:2917   .debug_str:0000000000000655 .LASF30
     /tmp/ccl16KVl.s:2739   .debug_str:00000000000000fa .LASF31
     /tmp/ccl16KVl.s:2729   .debug_str:00000000000000a9 .LASF32
     /tmp/ccl16KVl.s:2765   .debug_str:00000000000001a2 .LASF33
     /tmp/ccl16KVl.s:2899   .debug_str:00000000000005dd .LASF34
     /tmp/ccl16KVl.s:2895   .debug_str:00000000000005c0 .LASF98
     /tmp/ccl16KVl.s:2879   .debug_str:0000000000000488 .LASF99
     /tmp/ccl16KVl.s:2861   .debug_str:0000000000000414 .LASF100
     /tmp/ccl16KVl.s:2827   .debug_str:0000000000000313 .LASF35
     /tmp/ccl16KVl.s:2913   .debug_str:0000000000000647 .LASF36
     /tmp/ccl16KVl.s:2785   .debug_str:0000000000000219 .LASF37
     /tmp/ccl16KVl.s:2801   .debug_str:000000000000027f .LASF38
     /tmp/ccl16KVl.s:2805   .debug_str:0000000000000293 .LASF39
     /tmp/ccl16KVl.s:2707   .debug_str:0000000000000009 .LASF40
     /tmp/ccl16KVl.s:2855   .debug_str:00000000000003f1 .LASF41
     /tmp/ccl16KVl.s:2787   .debug_str:0000000000000222 .LASF42
     /tmp/ccl16KVl.s:2911   .debug_str:000000000000063e .LASF43
     /tmp/ccl16KVl.s:2845   .debug_str:00000000000003a6 .LASF44
     /tmp/ccl16KVl.s:2795   .debug_str:000000000000026c .LASF45
     /tmp/ccl16KVl.s:2903   .debug_str:000000000000060b .LASF101
     /tmp/ccl16KVl.s:2837   .debug_str:0000000000000345 .LASF102
     /tmp/ccl16KVl.s:2723   .debug_str:0000000000000088 .LASF46
     /tmp/ccl16KVl.s:2705   .debug_str:0000000000000000 .LASF47
     /tmp/ccl16KVl.s:2847   .debug_str:00000000000003af .LASF48
     /tmp/ccl16KVl.s:2865   .debug_str:0000000000000432 .LASF49
     /tmp/ccl16KVl.s:2815   .debug_str:00000000000002cb .LASF51
     /tmp/ccl16KVl.s:2887   .debug_str:0000000000000579 .LASF69
     /tmp/ccl16KVl.s:2907   .debug_str:0000000000000620 .LASF71
     /tmp/ccl16KVl.s:2833   .debug_str:0000000000000331 .LASF53
GAS LISTING /tmp/ccl16KVl.s 			page 17


     /tmp/ccl16KVl.s:2725   .debug_str:000000000000008d .LASF55
     /tmp/ccl16KVl.s:2909   .debug_str:0000000000000639 .LASF56
     /tmp/ccl16KVl.s:2741   .debug_str:0000000000000104 .LASF57
     /tmp/ccl16KVl.s:2877   .debug_str:0000000000000476 .LASF58
     /tmp/ccl16KVl.s:2793   .debug_str:000000000000024d .LASF59
     /tmp/ccl16KVl.s:2731   .debug_str:00000000000000c1 .LASF60
     /tmp/ccl16KVl.s:2905   .debug_str:0000000000000619 .LASF61
     /tmp/ccl16KVl.s:2775   .debug_str:00000000000001dc .LASF62
     /tmp/ccl16KVl.s:2803   .debug_str:000000000000028a .LASF63
     /tmp/ccl16KVl.s:2789   .debug_str:000000000000022b .LASF64
     /tmp/ccl16KVl.s:2897   .debug_str:00000000000005d8 .LASF65
     /tmp/ccl16KVl.s:2849   .debug_str:00000000000003c2 .LASF66
     /tmp/ccl16KVl.s:2825   .debug_str:0000000000000308 .LASF67
     /tmp/ccl16KVl.s:2721   .debug_str:0000000000000076 .LASF68
     /tmp/ccl16KVl.s:2891   .debug_str:0000000000000594 .LASF103
     /tmp/ccl16KVl.s:2777   .debug_str:00000000000001ea .LASF104
     /tmp/ccl16KVl.s:2749   .debug_str:000000000000013b .LASF70
     /tmp/ccl16KVl.s:2761   .debug_str:0000000000000181 .LASF72
     /tmp/ccl16KVl.s:2755   .debug_str:0000000000000167 .LASF73
     /tmp/ccl16KVl.s:2809   .debug_str:00000000000002a8 .LASF74
     /tmp/ccl16KVl.s:2743   .debug_str:0000000000000115 .LASF75
     /tmp/ccl16KVl.s:2737   .debug_str:00000000000000e6 .LASF105
     /tmp/ccl16KVl.s:432    .text:0000000000000258 .LFB9
     /tmp/ccl16KVl.s:455    .text:0000000000000278 .LFE9
     /tmp/ccl16KVl.s:2859   .debug_str:000000000000040f .LASF76
     /tmp/ccl16KVl.s:2489   .debug_loc:0000000000000000 .LLST12
     /tmp/ccl16KVl.s:303    .text:0000000000000198 .LFB8
     /tmp/ccl16KVl.s:426    .text:0000000000000258 .LFE8
     /tmp/ccl16KVl.s:2503   .debug_loc:0000000000000039 .LLST7
     /tmp/ccl16KVl.s:2779   .debug_str:00000000000001fe .LASF106
     /tmp/ccl16KVl.s:2525   .debug_loc:0000000000000098 .LLST8
     /tmp/ccl16KVl.s:2547   .debug_loc:00000000000000f7 .LLST9
     /tmp/ccl16KVl.s:2769   .debug_str:00000000000001b7 .LASF77
     /tmp/ccl16KVl.s:2558   .debug_loc:000000000000012d .LLST10
     /tmp/ccl16KVl.s:355    .text:00000000000001f0 .LBB10
     /tmp/ccl16KVl.s:377    .text:000000000000020c .LBE10
     /tmp/ccl16KVl.s:2831   .debug_str:0000000000000329 .LASF78
     /tmp/ccl16KVl.s:2569   .debug_loc:0000000000000163 .LLST11
     /tmp/ccl16KVl.s:333    .text:00000000000001d4 .LVL26
     /tmp/ccl16KVl.s:385    .text:000000000000021c .LVL31
     /tmp/ccl16KVl.s:390    .text:0000000000000228 .LVL32
     /tmp/ccl16KVl.s:394    .text:0000000000000230 .LVL33
     /tmp/ccl16KVl.s:203    .text:00000000000000fc .LFB7
     /tmp/ccl16KVl.s:297    .text:0000000000000198 .LFE7
     /tmp/ccl16KVl.s:2580   .debug_loc:0000000000000199 .LLST4
     /tmp/ccl16KVl.s:2598   .debug_loc:00000000000001e5 .LLST5
     /tmp/ccl16KVl.s:249    .text:0000000000000148 .LBB8
     /tmp/ccl16KVl.s:273    .text:0000000000000178 .LBE8
     /tmp/ccl16KVl.s:2613   .debug_loc:000000000000022e .LLST6
     /tmp/ccl16KVl.s:255    .text:0000000000000158 .LVL16
     /tmp/ccl16KVl.s:260    .text:0000000000000164 .LVL17
     /tmp/ccl16KVl.s:269    .text:0000000000000174 .LVL19
     /tmp/ccl16KVl.s:227    .text:0000000000000128 .LVL14
     /tmp/ccl16KVl.s:158    .text:00000000000000a8 .LFB6
     /tmp/ccl16KVl.s:197    .text:00000000000000fc .LFE6
     /tmp/ccl16KVl.s:183    .text:00000000000000e4 .LVL11
     /tmp/ccl16KVl.s:2727   .debug_str:000000000000009f .LASF79
GAS LISTING /tmp/ccl16KVl.s 			page 18


     /tmp/ccl16KVl.s:2829   .debug_str:000000000000031b .LASF80
     /tmp/ccl16KVl.s:81     .text:0000000000000060 .LFB4
     /tmp/ccl16KVl.s:142    .text:00000000000000a8 .LFE4
     /tmp/ccl16KVl.s:2620   .debug_loc:0000000000000251 .LLST1
     /tmp/ccl16KVl.s:117    .text:0000000000000088 .LVL8
     /tmp/ccl16KVl.s:2695   .debug_ranges:0000000000000000 .Ldebug_ranges0
     /tmp/ccl16KVl.s:2634   .debug_loc:000000000000028a .LLST2
     /tmp/ccl16KVl.s:109    .text:000000000000007c .LBB5
     /tmp/ccl16KVl.s:121    .text:000000000000008c .LBE5
     /tmp/ccl16KVl.s:2649   .debug_loc:00000000000002d3 .LLST3
     /tmp/ccl16KVl.s:2817   .debug_str:00000000000002d1 .LASF81
     /tmp/ccl16KVl.s:15     .text:0000000000000000 .LFB1
     /tmp/ccl16KVl.s:73     .text:0000000000000060 .LFE1
     /tmp/ccl16KVl.s:2660   .debug_loc:0000000000000309 .LLST0
     /tmp/ccl16KVl.s:69     .text:000000000000005c .LVL4
     /tmp/ccl16KVl.s:2751   .debug_str:0000000000000143 .LASF82
     /tmp/ccl16KVl.s:2709   .debug_str:0000000000000011 .LASF84
     /tmp/ccl16KVl.s:2767   .debug_str:00000000000001ae .LASF83
     /tmp/ccl16KVl.s:2873   .debug_str:000000000000046c .LASF85
     /tmp/ccl16KVl.s:2857   .debug_str:00000000000003fa .LASF86
     /tmp/ccl16KVl.s:2747   .debug_str:000000000000012b .LASF87
     /tmp/ccl16KVl.s:2835   .debug_str:0000000000000337 .LASF88
     /tmp/ccl16KVl.s:2763   .debug_str:0000000000000199 .LASF89
     /tmp/ccl16KVl.s:2851   .debug_str:00000000000003cc .LASF90
     /tmp/ccl16KVl.s:2883   .debug_str:00000000000004a7 .LASF91
     /tmp/ccl16KVl.s:435    .text:0000000000000258 .LVL38
     /tmp/ccl16KVl.s:445    .text:0000000000000268 .LVL39
     /tmp/ccl16KVl.s:306    .text:0000000000000198 .LVL23
     /tmp/ccl16KVl.s:331    .text:00000000000001cc .LVL25
     /tmp/ccl16KVl.s:406    .text:0000000000000240 .LVL34
     /tmp/ccl16KVl.s:416    .text:0000000000000250 .LVL37
     /tmp/ccl16KVl.s:409    .text:0000000000000244 .LVL35
     /tmp/ccl16KVl.s:327    .text:00000000000001c8 .LVL24
     /tmp/ccl16KVl.s:412    .text:0000000000000248 .LVL36
     /tmp/ccl16KVl.s:383    .text:0000000000000214 .LVL30
     /tmp/ccl16KVl.s:354    .text:00000000000001f0 .LVL27
     /tmp/ccl16KVl.s:361    .text:00000000000001f8 .LVL28
     /tmp/ccl16KVl.s:375    .text:000000000000020c .LVL29
     /tmp/ccl16KVl.s:206    .text:00000000000000fc .LVL12
     /tmp/ccl16KVl.s:225    .text:0000000000000120 .LVL13
     /tmp/ccl16KVl.s:292    .text:0000000000000190 .LVL22
     /tmp/ccl16KVl.s:236    .text:0000000000000138 .LVL15
     /tmp/ccl16KVl.s:277    .text:000000000000017c .LVL20
     /tmp/ccl16KVl.s:287    .text:0000000000000188 .LVL21
     /tmp/ccl16KVl.s:264    .text:0000000000000168 .LVL18
     /tmp/ccl16KVl.s:86     .text:0000000000000060 .LVL5
     /tmp/ccl16KVl.s:91     .text:0000000000000064 .LVL6
     /tmp/ccl16KVl.s:134    .text:000000000000009c .LVL9
     /tmp/ccl16KVl.s:113    .text:0000000000000080 .LVL7
     /tmp/ccl16KVl.s:138    .text:00000000000000a4 .LVL10
     /tmp/ccl16KVl.s:19     .text:0000000000000000 .LVL0
     /tmp/ccl16KVl.s:35     .text:0000000000000024 .LVL1
     /tmp/ccl16KVl.s:57     .text:0000000000000040 .LVL2
     /tmp/ccl16KVl.s:61     .text:0000000000000048 .LVL3
     /tmp/ccl16KVl.s:474    .debug_info:0000000000000000 .Ldebug_info0
     /tmp/ccl16KVl.s:87     .text:0000000000000060 .LBB4
     /tmp/ccl16KVl.s:95     .text:0000000000000068 .LBE4
GAS LISTING /tmp/ccl16KVl.s 			page 19


     /tmp/ccl16KVl.s:108    .text:000000000000007c .LBB6
     /tmp/ccl16KVl.s:125    .text:0000000000000090 .LBE6
     /tmp/ccl16KVl.s:145    .gcc_except_table:0000000000000000 .LLSDA4

UNDEFINED SYMBOLS
_Z13assert_failedPKci
_Z8mem_freePv
__gxx_personality_v0
_Z4putcc
_ZN7_thread11setSleepingEb
_ZN9Scheduler3putEP7_thread
_ZN7_thread13currentThreadE
_Z9mem_allocm
_Z15thread_dispatchv
