GAS LISTING /tmp/ccf8Aq9j.s 			page 1


   1              		.file	"userMain.cpp"
   2              		.option nopic
   3              		.option norelax
   4              		.attribute arch, "rv64i2p0_m2p0_a2p0"
   5              		.attribute unaligned_access, 0
   6              		.attribute stack_align, 16
   7              		.text
   8              	.Ltext0:
   9              		.align	2
  10              		.globl	_Z8userMainv
  12              	_Z8userMainv:
  13              	.LFB0:
  14              		.file 1 "src/userMain.cpp"
   1:src/userMain.cpp **** #include "../h/userMain.hpp"
   2:src/userMain.cpp **** 
   3:src/userMain.cpp **** void _putc(char);
   4:src/userMain.cpp **** 
   5:src/userMain.cpp **** int userMain(){
  15              		.loc 1 5 15
  16              		.cfi_startproc
  17 0000 130101FF 		addi	sp,sp,-16
  18              		.cfi_def_cfa_offset 16
  19 0004 23341100 		sd	ra,8(sp)
  20 0008 23308100 		sd	s0,0(sp)
  21              		.cfi_offset 1, -8
  22              		.cfi_offset 8, -16
  23 000c 13040101 		addi	s0,sp,16
  24              		.cfi_def_cfa 8, 0
   6:src/userMain.cpp ****     _putc('H');
  25              		.loc 1 6 5
  26              		.loc 1 6 10 is_stmt 0
  27 0010 13058004 		li	a0,72
  28 0014 97000000 		call	_Z5_putcc
  28      E7800000 
  29              	.LVL0:
   7:src/userMain.cpp ****     _putc('e');
  30              		.loc 1 7 5 is_stmt 1
  31              		.loc 1 7 10 is_stmt 0
  32 001c 13055006 		li	a0,101
  33 0020 97000000 		call	_Z5_putcc
  33      E7800000 
  34              	.LVL1:
   8:src/userMain.cpp ****     _putc('l');
  35              		.loc 1 8 5 is_stmt 1
  36              		.loc 1 8 10 is_stmt 0
  37 0028 1305C006 		li	a0,108
  38 002c 97000000 		call	_Z5_putcc
  38      E7800000 
  39              	.LVL2:
   9:src/userMain.cpp ****     _putc('l');
  40              		.loc 1 9 5 is_stmt 1
  41              		.loc 1 9 10 is_stmt 0
  42 0034 1305C006 		li	a0,108
  43 0038 97000000 		call	_Z5_putcc
  43      E7800000 
  44              	.LVL3:
  10:src/userMain.cpp ****     _putc('o');
GAS LISTING /tmp/ccf8Aq9j.s 			page 2


  45              		.loc 1 10 5 is_stmt 1
  46              		.loc 1 10 10 is_stmt 0
  47 0040 1305F006 		li	a0,111
  48 0044 97000000 		call	_Z5_putcc
  48      E7800000 
  49              	.LVL4:
  11:src/userMain.cpp ****     _putc(' ');
  50              		.loc 1 11 5 is_stmt 1
  51              		.loc 1 11 10 is_stmt 0
  52 004c 13050002 		li	a0,32
  53 0050 97000000 		call	_Z5_putcc
  53      E7800000 
  54              	.LVL5:
  12:src/userMain.cpp ****     _putc('w');
  55              		.loc 1 12 5 is_stmt 1
  56              		.loc 1 12 10 is_stmt 0
  57 0058 13057007 		li	a0,119
  58 005c 97000000 		call	_Z5_putcc
  58      E7800000 
  59              	.LVL6:
  13:src/userMain.cpp ****     _putc('o');
  60              		.loc 1 13 5 is_stmt 1
  61              		.loc 1 13 10 is_stmt 0
  62 0064 1305F006 		li	a0,111
  63 0068 97000000 		call	_Z5_putcc
  63      E7800000 
  64              	.LVL7:
  14:src/userMain.cpp ****     _putc('r');
  65              		.loc 1 14 5 is_stmt 1
  66              		.loc 1 14 10 is_stmt 0
  67 0070 13052007 		li	a0,114
  68 0074 97000000 		call	_Z5_putcc
  68      E7800000 
  69              	.LVL8:
  15:src/userMain.cpp ****     _putc('l');
  70              		.loc 1 15 5 is_stmt 1
  71              		.loc 1 15 10 is_stmt 0
  72 007c 1305C006 		li	a0,108
  73 0080 97000000 		call	_Z5_putcc
  73      E7800000 
  74              	.LVL9:
  16:src/userMain.cpp ****     _putc('d');
  75              		.loc 1 16 5 is_stmt 1
  76              		.loc 1 16 10 is_stmt 0
  77 0088 13054006 		li	a0,100
  78 008c 97000000 		call	_Z5_putcc
  78      E7800000 
  79              	.LVL10:
  17:src/userMain.cpp ****     _putc('!');
  80              		.loc 1 17 5 is_stmt 1
  81              		.loc 1 17 10 is_stmt 0
  82 0094 13051002 		li	a0,33
  83 0098 97000000 		call	_Z5_putcc
  83      E7800000 
  84              	.LVL11:
  18:src/userMain.cpp ****     _putc('\n');
  85              		.loc 1 18 5 is_stmt 1
GAS LISTING /tmp/ccf8Aq9j.s 			page 3


  86              		.loc 1 18 10 is_stmt 0
  87 00a0 1305A000 		li	a0,10
  88 00a4 97000000 		call	_Z5_putcc
  88      E7800000 
  89              	.LVL12:
  19:src/userMain.cpp ****     return 0;
  90              		.loc 1 19 5 is_stmt 1
  20:src/userMain.cpp **** }...
  91              		.loc 1 20 1 is_stmt 0
  92 00ac 13050000 		li	a0,0
  93 00b0 83308100 		ld	ra,8(sp)
  94              		.cfi_restore 1
  95 00b4 03340100 		ld	s0,0(sp)
  96              		.cfi_restore 8
  97              		.cfi_def_cfa 2, 16
  98 00b8 13010101 		addi	sp,sp,16
  99              		.cfi_def_cfa_offset 0
 100 00bc 67800000 		jr	ra
 101              		.cfi_endproc
 102              	.LFE0:
 104              	.Letext0:
GAS LISTING /tmp/ccf8Aq9j.s 			page 4

