GAS LISTING /tmp/ccONiFzs.s 			page 1


   1              		.file	"usermain.cpp"
   2              		.option pic
   3              		.option norelax
   4              		.text
   5              	.Ltext0:
   6              		.align	2
   7              		.globl	_Z13thread_test_2Pv
   9              	_Z13thread_test_2Pv:
  10              	.LFB1:
  11              		.file 1 "src/usermain.cpp"
   1:src/usermain.cpp **** #include "syscalls_c.h"
   2:src/usermain.cpp **** #include "usermain.h"
   3:src/usermain.cpp **** #include "thread.h"
   4:src/usermain.cpp **** #include "sem.h"
   5:src/usermain.cpp **** #include "sched.h"
   6:src/usermain.cpp **** #include "assert.h"
   7:src/usermain.cpp **** 
   8:src/usermain.cpp **** sem_t sem1;
   9:src/usermain.cpp **** // sem_t sem2;
  10:src/usermain.cpp **** 
  11:src/usermain.cpp **** void thread_test_1(void* args){
  12:src/usermain.cpp ****     putc('1');
  13:src/usermain.cpp ****     putc('s');
  14:src/usermain.cpp ****     time_sleep(30);
  15:src/usermain.cpp ****     putc('1');
  16:src/usermain.cpp ****     sem_signal(sem1);
  17:src/usermain.cpp ****     putc('S');
  18:src/usermain.cpp ****     putc('\n');
  19:src/usermain.cpp ****     putc('c');
  20:src/usermain.cpp ****     putc('n');
  21:src/usermain.cpp ****     putc('t');
  22:src/usermain.cpp ****     putc(':');
  23:src/usermain.cpp ****     putc(' ');
  24:src/usermain.cpp **** 
  25:src/usermain.cpp ****     int cnt = Scheduler::getCount();
  26:src/usermain.cpp ****     putc('0' + cnt);
  27:src/usermain.cpp ****     putc('\n');
  28:src/usermain.cpp ****     thread_t t1 = Scheduler::get();
  29:src/usermain.cpp ****     int id = t1->ID;
  30:src/usermain.cpp ****     putc('i');
  31:src/usermain.cpp ****     putc('d');
  32:src/usermain.cpp ****     putc(':');
  33:src/usermain.cpp ****     putc(' ');
  34:src/usermain.cpp ****     putc('0' + id);
  35:src/usermain.cpp ****     putc('\n');
  36:src/usermain.cpp ****     thread_t t2 = Scheduler::get();
  37:src/usermain.cpp ****     id = t2->ID;
  38:src/usermain.cpp ****     putc('i');
  39:src/usermain.cpp ****     putc('d');
  40:src/usermain.cpp ****     putc(':');
  41:src/usermain.cpp ****     putc(' ');
  42:src/usermain.cpp ****     putc('0' + id);
  43:src/usermain.cpp ****     putc('\n');
  44:src/usermain.cpp ****     cnt = Scheduler::getCount();
  45:src/usermain.cpp ****     putc('c');
  46:src/usermain.cpp ****     putc('n');
  47:src/usermain.cpp ****     putc('t');
GAS LISTING /tmp/ccONiFzs.s 			page 2


  48:src/usermain.cpp ****     putc(':');
  49:src/usermain.cpp ****     putc(' ');
  50:src/usermain.cpp ****     putc('0' + cnt);
  51:src/usermain.cpp ****     putc('\n');
  52:src/usermain.cpp ****     Scheduler::put(t2);
  53:src/usermain.cpp ****     putc('x');
  54:src/usermain.cpp ****     Scheduler::put(t1);
  55:src/usermain.cpp ****     putc('x');
  56:src/usermain.cpp ****     cnt = Scheduler::getCount();
  57:src/usermain.cpp ****     putc('\n');
  58:src/usermain.cpp ****     putc('c');
  59:src/usermain.cpp ****     putc('n');
  60:src/usermain.cpp ****     putc('t');
  61:src/usermain.cpp ****     putc(':');
  62:src/usermain.cpp ****     putc(' ');
  63:src/usermain.cpp ****     putc('0' + cnt);
  64:src/usermain.cpp ****     putc('\n');
  65:src/usermain.cpp ****     // assert(false);
  66:src/usermain.cpp **** }
  67:src/usermain.cpp **** 
  68:src/usermain.cpp **** void thread_test_2(void* args){
  12              		.loc 1 68 31
  13              		.cfi_startproc
  14              	.LVL0:
  15 0000 130101FF 		addi	sp,sp,-16
  16              		.cfi_def_cfa_offset 16
  17 0004 23341100 		sd	ra,8(sp)
  18 0008 23308100 		sd	s0,0(sp)
  19              		.cfi_offset 1, -8
  20              		.cfi_offset 8, -16
  21 000c 13040101 		addi	s0,sp,16
  22              		.cfi_def_cfa 8, 0
  69:src/usermain.cpp ****     putc('2');
  23              		.loc 1 69 5
  24              		.loc 1 69 9 is_stmt 0
  25 0010 13052003 		li	a0,50
  26              	.LVL1:
  27 0014 97000000 		call	_Z4putcc@plt
  27      E7800000 
  28              	.LVL2:
  70:src/usermain.cpp ****     putc('s');
  29              		.loc 1 70 5 is_stmt 1
  30              		.loc 1 70 9 is_stmt 0
  31 001c 13053007 		li	a0,115
  32 0020 97000000 		call	_Z4putcc@plt
  32      E7800000 
  33              	.LVL3:
  71:src/usermain.cpp ****     // time_sleep(25);
  72:src/usermain.cpp ****     putc('2');
  34              		.loc 1 72 5 is_stmt 1
  35              		.loc 1 72 9 is_stmt 0
  36 0028 13052003 		li	a0,50
  37 002c 97000000 		call	_Z4putcc@plt
  37      E7800000 
  38              	.LVL4:
  73:src/usermain.cpp ****     putc('S');
  39              		.loc 1 73 5 is_stmt 1
GAS LISTING /tmp/ccONiFzs.s 			page 3


  40              		.loc 1 73 9 is_stmt 0
  41 0034 13053005 		li	a0,83
  42 0038 97000000 		call	_Z4putcc@plt
  42      E7800000 
  43              	.LVL5:
  74:src/usermain.cpp ****     // sem_signal(sem2);
  75:src/usermain.cpp **** }
  44              		.loc 1 75 1
  45 0040 83308100 		ld	ra,8(sp)
  46              		.cfi_restore 1
  47 0044 03340100 		ld	s0,0(sp)
  48              		.cfi_restore 8
  49              		.cfi_def_cfa 2, 16
  50 0048 13010101 		addi	sp,sp,16
  51              		.cfi_def_cfa_offset 0
  52 004c 67800000 		jr	ra
  53              		.cfi_endproc
  54              	.LFE1:
  56              		.align	2
  57              		.globl	_Z13thread_test_1Pv
  59              	_Z13thread_test_1Pv:
  60              	.LFB0:
  11:src/usermain.cpp ****     putc('1');
  61              		.loc 1 11 31 is_stmt 1
  62              		.cfi_startproc
  63              	.LVL6:
  64 0050 130101FD 		addi	sp,sp,-48
  65              		.cfi_def_cfa_offset 48
  66 0054 23341102 		sd	ra,40(sp)
  67 0058 23308102 		sd	s0,32(sp)
  68 005c 233C9100 		sd	s1,24(sp)
  69 0060 23382101 		sd	s2,16(sp)
  70 0064 23343101 		sd	s3,8(sp)
  71              		.cfi_offset 1, -8
  72              		.cfi_offset 8, -16
  73              		.cfi_offset 9, -24
  74              		.cfi_offset 18, -32
  75              		.cfi_offset 19, -40
  76 0068 13040103 		addi	s0,sp,48
  77              		.cfi_def_cfa 8, 0
  12:src/usermain.cpp ****     putc('s');
  78              		.loc 1 12 5
  12:src/usermain.cpp ****     putc('s');
  79              		.loc 1 12 9 is_stmt 0
  80 006c 13051003 		li	a0,49
  81              	.LVL7:
  82 0070 97000000 		call	_Z4putcc@plt
  82      E7800000 
  83              	.LVL8:
  13:src/usermain.cpp ****     time_sleep(30);
  84              		.loc 1 13 5 is_stmt 1
  13:src/usermain.cpp ****     time_sleep(30);
  85              		.loc 1 13 9 is_stmt 0
  86 0078 13053007 		li	a0,115
  87 007c 97000000 		call	_Z4putcc@plt
  87      E7800000 
  88              	.LVL9:
GAS LISTING /tmp/ccONiFzs.s 			page 4


  14:src/usermain.cpp ****     putc('1');
  89              		.loc 1 14 5 is_stmt 1
  14:src/usermain.cpp ****     putc('1');
  90              		.loc 1 14 15 is_stmt 0
  91 0084 1305E001 		li	a0,30
  92 0088 97000000 		call	_Z10time_sleepm@plt
  92      E7800000 
  93              	.LVL10:
  15:src/usermain.cpp ****     sem_signal(sem1);
  94              		.loc 1 15 5 is_stmt 1
  15:src/usermain.cpp ****     sem_signal(sem1);
  95              		.loc 1 15 9 is_stmt 0
  96 0090 13051003 		li	a0,49
  97 0094 97000000 		call	_Z4putcc@plt
  97      E7800000 
  98              	.LVL11:
  16:src/usermain.cpp ****     putc('S');
  99              		.loc 1 16 5 is_stmt 1
  16:src/usermain.cpp ****     putc('S');
 100              		.loc 1 16 15 is_stmt 0
 101 009c 17050000 		ld	a0,.LANCHOR0
 101      03350500 
 102 00a4 97000000 		call	_Z10sem_signalP4_sem@plt
 102      E7800000 
 103              	.LVL12:
  17:src/usermain.cpp ****     putc('\n');
 104              		.loc 1 17 5 is_stmt 1
  17:src/usermain.cpp ****     putc('\n');
 105              		.loc 1 17 9 is_stmt 0
 106 00ac 13053005 		li	a0,83
 107 00b0 97000000 		call	_Z4putcc@plt
 107      E7800000 
 108              	.LVL13:
  18:src/usermain.cpp ****     putc('c');
 109              		.loc 1 18 5 is_stmt 1
  18:src/usermain.cpp ****     putc('c');
 110              		.loc 1 18 9 is_stmt 0
 111 00b8 1305A000 		li	a0,10
 112 00bc 97000000 		call	_Z4putcc@plt
 112      E7800000 
 113              	.LVL14:
  19:src/usermain.cpp ****     putc('n');
 114              		.loc 1 19 5 is_stmt 1
  19:src/usermain.cpp ****     putc('n');
 115              		.loc 1 19 9 is_stmt 0
 116 00c4 13053006 		li	a0,99
 117 00c8 97000000 		call	_Z4putcc@plt
 117      E7800000 
 118              	.LVL15:
  20:src/usermain.cpp ****     putc('t');
 119              		.loc 1 20 5 is_stmt 1
  20:src/usermain.cpp ****     putc('t');
 120              		.loc 1 20 9 is_stmt 0
 121 00d0 1305E006 		li	a0,110
 122 00d4 97000000 		call	_Z4putcc@plt
 122      E7800000 
 123              	.LVL16:
GAS LISTING /tmp/ccONiFzs.s 			page 5


  21:src/usermain.cpp ****     putc(':');
 124              		.loc 1 21 5 is_stmt 1
  21:src/usermain.cpp ****     putc(':');
 125              		.loc 1 21 9 is_stmt 0
 126 00dc 13054007 		li	a0,116
 127 00e0 97000000 		call	_Z4putcc@plt
 127      E7800000 
 128              	.LVL17:
  22:src/usermain.cpp ****     putc(' ');
 129              		.loc 1 22 5 is_stmt 1
  22:src/usermain.cpp ****     putc(' ');
 130              		.loc 1 22 9 is_stmt 0
 131 00e8 1305A003 		li	a0,58
 132 00ec 97000000 		call	_Z4putcc@plt
 132      E7800000 
 133              	.LVL18:
  23:src/usermain.cpp **** 
 134              		.loc 1 23 5 is_stmt 1
  23:src/usermain.cpp **** 
 135              		.loc 1 23 9 is_stmt 0
 136 00f4 13050002 		li	a0,32
 137 00f8 97000000 		call	_Z4putcc@plt
 137      E7800000 
 138              	.LVL19:
  25:src/usermain.cpp ****     putc('0' + cnt);
 139              		.loc 1 25 5 is_stmt 1
  25:src/usermain.cpp ****     putc('0' + cnt);
 140              		.loc 1 25 34 is_stmt 0
 141 0100 97000000 		call	_ZN9Scheduler8getCountEv@plt
 141      E7800000 
 142              	.LVL20:
  26:src/usermain.cpp ****     putc('\n');
 143              		.loc 1 26 5 is_stmt 1
  26:src/usermain.cpp ****     putc('\n');
 144              		.loc 1 26 9 is_stmt 0
 145 0108 1B050503 		addiw	a0,a0,48
 146              	.LVL21:
 147 010c 1375F50F 		andi	a0,a0,0xff
 148              	.LVL22:
 149 0110 97000000 		call	_Z4putcc@plt
 149      E7800000 
 150              	.LVL23:
  27:src/usermain.cpp ****     thread_t t1 = Scheduler::get();
 151              		.loc 1 27 5 is_stmt 1
  27:src/usermain.cpp ****     thread_t t1 = Scheduler::get();
 152              		.loc 1 27 9 is_stmt 0
 153 0118 1305A000 		li	a0,10
 154 011c 97000000 		call	_Z4putcc@plt
 154      E7800000 
 155              	.LVL24:
  28:src/usermain.cpp ****     int id = t1->ID;
 156              		.loc 1 28 5 is_stmt 1
  28:src/usermain.cpp ****     int id = t1->ID;
 157              		.loc 1 28 33 is_stmt 0
 158 0124 97000000 		call	_ZN9Scheduler3getEv@plt
 158      E7800000 
 159              	.LVL25:
GAS LISTING /tmp/ccONiFzs.s 			page 6


 160 012c 13090500 		mv	s2,a0
 161              	.LVL26:
  29:src/usermain.cpp ****     putc('i');
 162              		.loc 1 29 5 is_stmt 1
  29:src/usermain.cpp ****     putc('i');
 163              		.loc 1 29 18 is_stmt 0
 164 0130 83240500 		lw	s1,0(a0)
 165              	.LVL27:
  30:src/usermain.cpp ****     putc('d');
 166              		.loc 1 30 5 is_stmt 1
  30:src/usermain.cpp ****     putc('d');
 167              		.loc 1 30 9 is_stmt 0
 168 0134 13059006 		li	a0,105
 169              	.LVL28:
 170 0138 97000000 		call	_Z4putcc@plt
 170      E7800000 
 171              	.LVL29:
  31:src/usermain.cpp ****     putc(':');
 172              		.loc 1 31 5 is_stmt 1
  31:src/usermain.cpp ****     putc(':');
 173              		.loc 1 31 9 is_stmt 0
 174 0140 13054006 		li	a0,100
 175 0144 97000000 		call	_Z4putcc@plt
 175      E7800000 
 176              	.LVL30:
  32:src/usermain.cpp ****     putc(' ');
 177              		.loc 1 32 5 is_stmt 1
  32:src/usermain.cpp ****     putc(' ');
 178              		.loc 1 32 9 is_stmt 0
 179 014c 1305A003 		li	a0,58
 180 0150 97000000 		call	_Z4putcc@plt
 180      E7800000 
 181              	.LVL31:
  33:src/usermain.cpp ****     putc('0' + id);
 182              		.loc 1 33 5 is_stmt 1
  33:src/usermain.cpp ****     putc('0' + id);
 183              		.loc 1 33 9 is_stmt 0
 184 0158 13050002 		li	a0,32
 185 015c 97000000 		call	_Z4putcc@plt
 185      E7800000 
 186              	.LVL32:
  34:src/usermain.cpp ****     putc('\n');
 187              		.loc 1 34 5 is_stmt 1
  34:src/usermain.cpp ****     putc('\n');
 188              		.loc 1 34 9 is_stmt 0
 189 0164 1B850403 		addiw	a0,s1,48
 190 0168 1375F50F 		andi	a0,a0,0xff
 191 016c 97000000 		call	_Z4putcc@plt
 191      E7800000 
 192              	.LVL33:
  35:src/usermain.cpp ****     thread_t t2 = Scheduler::get();
 193              		.loc 1 35 5 is_stmt 1
  35:src/usermain.cpp ****     thread_t t2 = Scheduler::get();
 194              		.loc 1 35 9 is_stmt 0
 195 0174 1305A000 		li	a0,10
 196 0178 97000000 		call	_Z4putcc@plt
 196      E7800000 
GAS LISTING /tmp/ccONiFzs.s 			page 7


 197              	.LVL34:
  36:src/usermain.cpp ****     id = t2->ID;
 198              		.loc 1 36 5 is_stmt 1
  36:src/usermain.cpp ****     id = t2->ID;
 199              		.loc 1 36 33 is_stmt 0
 200 0180 97000000 		call	_ZN9Scheduler3getEv@plt
 200      E7800000 
 201              	.LVL35:
 202 0188 93090500 		mv	s3,a0
 203              	.LVL36:
  37:src/usermain.cpp ****     putc('i');
 204              		.loc 1 37 5 is_stmt 1
  37:src/usermain.cpp ****     putc('i');
 205              		.loc 1 37 14 is_stmt 0
 206 018c 83240500 		lw	s1,0(a0)
 207              	.LVL37:
  38:src/usermain.cpp ****     putc('d');
 208              		.loc 1 38 5 is_stmt 1
  38:src/usermain.cpp ****     putc('d');
 209              		.loc 1 38 9 is_stmt 0
 210 0190 13059006 		li	a0,105
 211              	.LVL38:
 212 0194 97000000 		call	_Z4putcc@plt
 212      E7800000 
 213              	.LVL39:
  39:src/usermain.cpp ****     putc(':');
 214              		.loc 1 39 5 is_stmt 1
  39:src/usermain.cpp ****     putc(':');
 215              		.loc 1 39 9 is_stmt 0
 216 019c 13054006 		li	a0,100
 217 01a0 97000000 		call	_Z4putcc@plt
 217      E7800000 
 218              	.LVL40:
  40:src/usermain.cpp ****     putc(' ');
 219              		.loc 1 40 5 is_stmt 1
  40:src/usermain.cpp ****     putc(' ');
 220              		.loc 1 40 9 is_stmt 0
 221 01a8 1305A003 		li	a0,58
 222 01ac 97000000 		call	_Z4putcc@plt
 222      E7800000 
 223              	.LVL41:
  41:src/usermain.cpp ****     putc('0' + id);
 224              		.loc 1 41 5 is_stmt 1
  41:src/usermain.cpp ****     putc('0' + id);
 225              		.loc 1 41 9 is_stmt 0
 226 01b4 13050002 		li	a0,32
 227 01b8 97000000 		call	_Z4putcc@plt
 227      E7800000 
 228              	.LVL42:
  42:src/usermain.cpp ****     putc('\n');
 229              		.loc 1 42 5 is_stmt 1
  42:src/usermain.cpp ****     putc('\n');
 230              		.loc 1 42 9 is_stmt 0
 231 01c0 1B850403 		addiw	a0,s1,48
 232 01c4 1375F50F 		andi	a0,a0,0xff
 233 01c8 97000000 		call	_Z4putcc@plt
 233      E7800000 
GAS LISTING /tmp/ccONiFzs.s 			page 8


 234              	.LVL43:
  43:src/usermain.cpp ****     cnt = Scheduler::getCount();
 235              		.loc 1 43 5 is_stmt 1
  43:src/usermain.cpp ****     cnt = Scheduler::getCount();
 236              		.loc 1 43 9 is_stmt 0
 237 01d0 1305A000 		li	a0,10
 238 01d4 97000000 		call	_Z4putcc@plt
 238      E7800000 
 239              	.LVL44:
  44:src/usermain.cpp ****     putc('c');
 240              		.loc 1 44 5 is_stmt 1
  44:src/usermain.cpp ****     putc('c');
 241              		.loc 1 44 30 is_stmt 0
 242 01dc 97000000 		call	_ZN9Scheduler8getCountEv@plt
 242      E7800000 
 243              	.LVL45:
 244 01e4 93040500 		mv	s1,a0
 245              	.LVL46:
  45:src/usermain.cpp ****     putc('n');
 246              		.loc 1 45 5 is_stmt 1
  45:src/usermain.cpp ****     putc('n');
 247              		.loc 1 45 9 is_stmt 0
 248 01e8 13053006 		li	a0,99
 249 01ec 97000000 		call	_Z4putcc@plt
 249      E7800000 
 250              	.LVL47:
  46:src/usermain.cpp ****     putc('t');
 251              		.loc 1 46 5 is_stmt 1
  46:src/usermain.cpp ****     putc('t');
 252              		.loc 1 46 9 is_stmt 0
 253 01f4 1305E006 		li	a0,110
 254 01f8 97000000 		call	_Z4putcc@plt
 254      E7800000 
 255              	.LVL48:
  47:src/usermain.cpp ****     putc(':');
 256              		.loc 1 47 5 is_stmt 1
  47:src/usermain.cpp ****     putc(':');
 257              		.loc 1 47 9 is_stmt 0
 258 0200 13054007 		li	a0,116
 259 0204 97000000 		call	_Z4putcc@plt
 259      E7800000 
 260              	.LVL49:
  48:src/usermain.cpp ****     putc(' ');
 261              		.loc 1 48 5 is_stmt 1
  48:src/usermain.cpp ****     putc(' ');
 262              		.loc 1 48 9 is_stmt 0
 263 020c 1305A003 		li	a0,58
 264 0210 97000000 		call	_Z4putcc@plt
 264      E7800000 
 265              	.LVL50:
  49:src/usermain.cpp ****     putc('0' + cnt);
 266              		.loc 1 49 5 is_stmt 1
  49:src/usermain.cpp ****     putc('0' + cnt);
 267              		.loc 1 49 9 is_stmt 0
 268 0218 13050002 		li	a0,32
 269 021c 97000000 		call	_Z4putcc@plt
 269      E7800000 
GAS LISTING /tmp/ccONiFzs.s 			page 9


 270              	.LVL51:
  50:src/usermain.cpp ****     putc('\n');
 271              		.loc 1 50 5 is_stmt 1
  50:src/usermain.cpp ****     putc('\n');
 272              		.loc 1 50 9 is_stmt 0
 273 0224 9B840403 		addiw	s1,s1,48
 274              	.LVL52:
 275 0228 13F5F40F 		andi	a0,s1,0xff
 276 022c 97000000 		call	_Z4putcc@plt
 276      E7800000 
 277              	.LVL53:
  51:src/usermain.cpp ****     Scheduler::put(t2);
 278              		.loc 1 51 5 is_stmt 1
  51:src/usermain.cpp ****     Scheduler::put(t2);
 279              		.loc 1 51 9 is_stmt 0
 280 0234 1305A000 		li	a0,10
 281 0238 97000000 		call	_Z4putcc@plt
 281      E7800000 
 282              	.LVL54:
  52:src/usermain.cpp ****     putc('x');
 283              		.loc 1 52 5 is_stmt 1
  52:src/usermain.cpp ****     putc('x');
 284              		.loc 1 52 19 is_stmt 0
 285 0240 13850900 		mv	a0,s3
 286 0244 97000000 		call	_ZN9Scheduler3putEP7_thread@plt
 286      E7800000 
 287              	.LVL55:
  53:src/usermain.cpp ****     Scheduler::put(t1);
 288              		.loc 1 53 5 is_stmt 1
  53:src/usermain.cpp ****     Scheduler::put(t1);
 289              		.loc 1 53 9 is_stmt 0
 290 024c 13058007 		li	a0,120
 291 0250 97000000 		call	_Z4putcc@plt
 291      E7800000 
 292              	.LVL56:
  54:src/usermain.cpp ****     putc('x');
 293              		.loc 1 54 5 is_stmt 1
  54:src/usermain.cpp ****     putc('x');
 294              		.loc 1 54 19 is_stmt 0
 295 0258 13050900 		mv	a0,s2
 296 025c 97000000 		call	_ZN9Scheduler3putEP7_thread@plt
 296      E7800000 
 297              	.LVL57:
  55:src/usermain.cpp ****     cnt = Scheduler::getCount();
 298              		.loc 1 55 5 is_stmt 1
  55:src/usermain.cpp ****     cnt = Scheduler::getCount();
 299              		.loc 1 55 9 is_stmt 0
 300 0264 13058007 		li	a0,120
 301 0268 97000000 		call	_Z4putcc@plt
 301      E7800000 
 302              	.LVL58:
  56:src/usermain.cpp ****     putc('\n');
 303              		.loc 1 56 5 is_stmt 1
  56:src/usermain.cpp ****     putc('\n');
 304              		.loc 1 56 30 is_stmt 0
 305 0270 97000000 		call	_ZN9Scheduler8getCountEv@plt
 305      E7800000 
GAS LISTING /tmp/ccONiFzs.s 			page 10


 306              	.LVL59:
 307 0278 93040500 		mv	s1,a0
 308              	.LVL60:
  57:src/usermain.cpp ****     putc('c');
 309              		.loc 1 57 5 is_stmt 1
  57:src/usermain.cpp ****     putc('c');
 310              		.loc 1 57 9 is_stmt 0
 311 027c 1305A000 		li	a0,10
 312 0280 97000000 		call	_Z4putcc@plt
 312      E7800000 
 313              	.LVL61:
  58:src/usermain.cpp ****     putc('n');
 314              		.loc 1 58 5 is_stmt 1
  58:src/usermain.cpp ****     putc('n');
 315              		.loc 1 58 9 is_stmt 0
 316 0288 13053006 		li	a0,99
 317 028c 97000000 		call	_Z4putcc@plt
 317      E7800000 
 318              	.LVL62:
  59:src/usermain.cpp ****     putc('t');
 319              		.loc 1 59 5 is_stmt 1
  59:src/usermain.cpp ****     putc('t');
 320              		.loc 1 59 9 is_stmt 0
 321 0294 1305E006 		li	a0,110
 322 0298 97000000 		call	_Z4putcc@plt
 322      E7800000 
 323              	.LVL63:
  60:src/usermain.cpp ****     putc(':');
 324              		.loc 1 60 5 is_stmt 1
  60:src/usermain.cpp ****     putc(':');
 325              		.loc 1 60 9 is_stmt 0
 326 02a0 13054007 		li	a0,116
 327 02a4 97000000 		call	_Z4putcc@plt
 327      E7800000 
 328              	.LVL64:
  61:src/usermain.cpp ****     putc(' ');
 329              		.loc 1 61 5 is_stmt 1
  61:src/usermain.cpp ****     putc(' ');
 330              		.loc 1 61 9 is_stmt 0
 331 02ac 1305A003 		li	a0,58
 332 02b0 97000000 		call	_Z4putcc@plt
 332      E7800000 
 333              	.LVL65:
  62:src/usermain.cpp ****     putc('0' + cnt);
 334              		.loc 1 62 5 is_stmt 1
  62:src/usermain.cpp ****     putc('0' + cnt);
 335              		.loc 1 62 9 is_stmt 0
 336 02b8 13050002 		li	a0,32
 337 02bc 97000000 		call	_Z4putcc@plt
 337      E7800000 
 338              	.LVL66:
  63:src/usermain.cpp ****     putc('\n');
 339              		.loc 1 63 5 is_stmt 1
  63:src/usermain.cpp ****     putc('\n');
 340              		.loc 1 63 9 is_stmt 0
 341 02c4 1B850403 		addiw	a0,s1,48
 342 02c8 1375F50F 		andi	a0,a0,0xff
GAS LISTING /tmp/ccONiFzs.s 			page 11


 343 02cc 97000000 		call	_Z4putcc@plt
 343      E7800000 
 344              	.LVL67:
  64:src/usermain.cpp ****     // assert(false);
 345              		.loc 1 64 5 is_stmt 1
  64:src/usermain.cpp ****     // assert(false);
 346              		.loc 1 64 9 is_stmt 0
 347 02d4 1305A000 		li	a0,10
 348 02d8 97000000 		call	_Z4putcc@plt
 348      E7800000 
 349              	.LVL68:
  66:src/usermain.cpp **** 
 350              		.loc 1 66 1
 351 02e0 83308102 		ld	ra,40(sp)
 352              		.cfi_restore 1
 353 02e4 03340102 		ld	s0,32(sp)
 354              		.cfi_restore 8
 355              		.cfi_def_cfa 2, 48
 356 02e8 83348101 		ld	s1,24(sp)
 357              		.cfi_restore 9
 358              	.LVL69:
 359 02ec 03390101 		ld	s2,16(sp)
 360              		.cfi_restore 18
 361              	.LVL70:
 362 02f0 83398100 		ld	s3,8(sp)
 363              		.cfi_restore 19
 364              	.LVL71:
 365 02f4 13010103 		addi	sp,sp,48
 366              		.cfi_def_cfa_offset 0
 367 02f8 67800000 		jr	ra
 368              		.cfi_endproc
 369              	.LFE0:
 371              		.align	2
 372              		.globl	_Z8usermainPv
 374              	_Z8usermainPv:
 375              	.LFB2:
  76:src/usermain.cpp **** 
  77:src/usermain.cpp **** void usermain(void* arg){
 376              		.loc 1 77 25 is_stmt 1
 377              		.cfi_startproc
 378              	.LVL72:
 379 02fc 130101FD 		addi	sp,sp,-48
 380              		.cfi_def_cfa_offset 48
 381 0300 23341102 		sd	ra,40(sp)
 382 0304 23308102 		sd	s0,32(sp)
 383 0308 233C9100 		sd	s1,24(sp)
 384              		.cfi_offset 1, -8
 385              		.cfi_offset 8, -16
 386              		.cfi_offset 9, -24
 387 030c 13040103 		addi	s0,sp,48
 388              		.cfi_def_cfa 8, 0
  78:src/usermain.cpp ****     putc('0');
 389              		.loc 1 78 5
 390              		.loc 1 78 9 is_stmt 0
 391 0310 13050003 		li	a0,48
 392              	.LVL73:
 393 0314 97000000 		call	_Z4putcc@plt
GAS LISTING /tmp/ccONiFzs.s 			page 12


 393      E7800000 
 394              	.LVL74:
  79:src/usermain.cpp ****     thread_t t1, t2;
 395              		.loc 1 79 5 is_stmt 1
  80:src/usermain.cpp ****     sem_open(&sem1, 0);
 396              		.loc 1 80 5
 397              		.loc 1 80 13 is_stmt 0
 398 031c 97040000 		lla	s1,.LANCHOR0
 398      93840400 
 399 0324 93050000 		li	a1,0
 400 0328 13850400 		mv	a0,s1
 401 032c 97000000 		call	_Z8sem_openPP4_semj@plt
 401      E7800000 
 402              	.LVL75:
  81:src/usermain.cpp ****     // sem_open(&sem2, 0);
  82:src/usermain.cpp ****     thread_create(&t1, thread_test_1, 0);
 403              		.loc 1 82 5 is_stmt 1
 404              		.loc 1 82 18 is_stmt 0
 405 0334 13060000 		li	a2,0
 406 0338 97050000 		lla	a1,_Z13thread_test_1Pv
 406      93850500 
 407 0340 130584FD 		addi	a0,s0,-40
 408 0344 97000000 		call	_Z13thread_createPP7_threadPFvPvES2_@plt
 408      E7800000 
 409              	.LVL76:
  83:src/usermain.cpp ****     thread_create(&t2, thread_test_2, 0);
 410              		.loc 1 83 5 is_stmt 1
 411              		.loc 1 83 18 is_stmt 0
 412 034c 13060000 		li	a2,0
 413 0350 97050000 		lla	a1,_Z13thread_test_2Pv
 413      93850500 
 414 0358 130504FD 		addi	a0,s0,-48
 415 035c 97000000 		call	_Z13thread_createPP7_threadPFvPvES2_@plt
 415      E7800000 
 416              	.LVL77:
  84:src/usermain.cpp ****     sem_wait(sem1);
 417              		.loc 1 84 5 is_stmt 1
 418              		.loc 1 84 13 is_stmt 0
 419 0364 03B50400 		ld	a0,0(s1)
 420 0368 97000000 		call	_Z8sem_waitP4_sem@plt
 420      E7800000 
 421              	.LVL78:
  85:src/usermain.cpp ****     putc('3');
 422              		.loc 1 85 5 is_stmt 1
 423              		.loc 1 85 9 is_stmt 0
 424 0370 13053003 		li	a0,51
 425 0374 97000000 		call	_Z4putcc@plt
 425      E7800000 
 426              	.LVL79:
  86:src/usermain.cpp ****     thread_join(t2);
 427              		.loc 1 86 5 is_stmt 1
 428              		.loc 1 86 16 is_stmt 0
 429 037c 033504FD 		ld	a0,-48(s0)
 430 0380 97000000 		call	_Z11thread_joinP7_thread@plt
 430      E7800000 
 431              	.LVL80:
  87:src/usermain.cpp ****     // if(getc() == 'a')putc('x');
GAS LISTING /tmp/ccONiFzs.s 			page 13


  88:src/usermain.cpp ****     putc('4');
 432              		.loc 1 88 5 is_stmt 1
 433              		.loc 1 88 9 is_stmt 0
 434 0388 13054003 		li	a0,52
 435 038c 97000000 		call	_Z4putcc@plt
 435      E7800000 
 436              	.LVL81:
  89:src/usermain.cpp ****     // thread_join(t1);
  90:src/usermain.cpp ****     // thread_dispatch();
  91:src/usermain.cpp ****     // thread_dispatch();
  92:src/usermain.cpp ****     // sem_wait(sem2);
  93:src/usermain.cpp ****     putc('5');
 437              		.loc 1 93 5 is_stmt 1
 438              		.loc 1 93 9 is_stmt 0
 439 0394 13055003 		li	a0,53
 440 0398 97000000 		call	_Z4putcc@plt
 440      E7800000 
 441              	.LVL82:
  94:src/usermain.cpp **** }...
 442              		.loc 1 94 1
 443 03a0 83308102 		ld	ra,40(sp)
 444              		.cfi_restore 1
 445 03a4 03340102 		ld	s0,32(sp)
 446              		.cfi_restore 8
 447              		.cfi_def_cfa 2, 48
 448 03a8 83348101 		ld	s1,24(sp)
 449              		.cfi_restore 9
 450 03ac 13010103 		addi	sp,sp,48
 451              		.cfi_def_cfa_offset 0
 452 03b0 67800000 		jr	ra
 453              		.cfi_endproc
 454              	.LFE2:
 456              		.globl	sem1
 457              		.bss
 458              		.align	3
 459              		.set	.LANCHOR0,. + 0
 462              	sem1:
 463 0000 00000000 		.zero	8
 463      00000000 
 464              		.text
 465              	.Letext0:
 466              		.file 2 "./lib/hw.h"
 467              		.file 3 "./h/syscalls_c.h"
 468              		.file 4 "./h/thread.h"
 469              		.file 5 "./h/sem.h"
 470              		.file 6 "./h/sched.h"
GAS LISTING /tmp/ccONiFzs.s 			page 14

