GAS LISTING /tmp/ccqYytvY.s 			page 1


   1              		.file	"usermain.cpp"
   2              		.option pic
   3              		.option norelax
   4              		.text
   5              	.Ltext0:
   6              		.align	2
   7              		.globl	_Z13thread_test_1Pv
   9              	_Z13thread_test_1Pv:
  10              	.LFB0:
  11              		.file 1 "src/usermain.cpp"
   1:src/usermain.cpp **** #include "syscalls_c.h"
   2:src/usermain.cpp **** #include "usermain.h"
   3:src/usermain.cpp **** #include "thread.h"
   4:src/usermain.cpp **** #include "sem.h"
   5:src/usermain.cpp **** #include "sched.h"
   6:src/usermain.cpp **** #include "assert.h"
   7:src/usermain.cpp **** 
   8:src/usermain.cpp **** sem_t sem1;
   9:src/usermain.cpp **** sem_t sem2;
  10:src/usermain.cpp **** 
  11:src/usermain.cpp **** void thread_test_1(void* args){
  12              		.loc 1 11 31
  13              		.cfi_startproc
  14              	.LVL0:
  15 0000 130101FF 		addi	sp,sp,-16
  16              		.cfi_def_cfa_offset 16
  17 0004 23341100 		sd	ra,8(sp)
  18 0008 23308100 		sd	s0,0(sp)
  19              		.cfi_offset 1, -8
  20              		.cfi_offset 8, -16
  21 000c 13040101 		addi	s0,sp,16
  22              		.cfi_def_cfa 8, 0
  12:src/usermain.cpp ****     putc('1');
  23              		.loc 1 12 5
  24              		.loc 1 12 9 is_stmt 0
  25 0010 13051003 		li	a0,49
  26              	.LVL1:
  27 0014 97000000 		call	_Z4putcc@plt
  27      E7800000 
  28              	.LVL2:
  13:src/usermain.cpp ****     putc('s');
  29              		.loc 1 13 5 is_stmt 1
  30              		.loc 1 13 9 is_stmt 0
  31 001c 13053007 		li	a0,115
  32 0020 97000000 		call	_Z4putcc@plt
  32      E7800000 
  33              	.LVL3:
  14:src/usermain.cpp ****     time_sleep(30);
  34              		.loc 1 14 5 is_stmt 1
  35              		.loc 1 14 15 is_stmt 0
  36 0028 1305E001 		li	a0,30
  37 002c 97000000 		call	_Z10time_sleepm@plt
  37      E7800000 
  38              	.LVL4:
  15:src/usermain.cpp ****     putc('1');
  39              		.loc 1 15 5 is_stmt 1
  40              		.loc 1 15 9 is_stmt 0
GAS LISTING /tmp/ccqYytvY.s 			page 2


  41 0034 13051003 		li	a0,49
  42 0038 97000000 		call	_Z4putcc@plt
  42      E7800000 
  43              	.LVL5:
  16:src/usermain.cpp ****     sem_signal(sem1);
  44              		.loc 1 16 5 is_stmt 1
  45              		.loc 1 16 15 is_stmt 0
  46 0040 17050000 		ld	a0,.LANCHOR0
  46      03350500 
  47 0048 97000000 		call	_Z10sem_signalP4_sem@plt
  47      E7800000 
  48              	.LVL6:
  17:src/usermain.cpp ****     putc('S');
  49              		.loc 1 17 5 is_stmt 1
  50              		.loc 1 17 9 is_stmt 0
  51 0050 13053005 		li	a0,83
  52 0054 97000000 		call	_Z4putcc@plt
  52      E7800000 
  53              	.LVL7:
  18:src/usermain.cpp **** }
  54              		.loc 1 18 1
  55 005c 83308100 		ld	ra,8(sp)
  56              		.cfi_restore 1
  57 0060 03340100 		ld	s0,0(sp)
  58              		.cfi_restore 8
  59              		.cfi_def_cfa 2, 16
  60 0064 13010101 		addi	sp,sp,16
  61              		.cfi_def_cfa_offset 0
  62 0068 67800000 		jr	ra
  63              		.cfi_endproc
  64              	.LFE0:
  66              		.align	2
  67              		.globl	_Z13thread_test_2Pv
  69              	_Z13thread_test_2Pv:
  70              	.LFB1:
  19:src/usermain.cpp **** 
  20:src/usermain.cpp **** void thread_test_2(void* args){
  71              		.loc 1 20 31 is_stmt 1
  72              		.cfi_startproc
  73              	.LVL8:
  74 006c 130101FF 		addi	sp,sp,-16
  75              		.cfi_def_cfa_offset 16
  76 0070 23341100 		sd	ra,8(sp)
  77 0074 23308100 		sd	s0,0(sp)
  78              		.cfi_offset 1, -8
  79              		.cfi_offset 8, -16
  80 0078 13040101 		addi	s0,sp,16
  81              		.cfi_def_cfa 8, 0
  21:src/usermain.cpp ****     putc('2');
  82              		.loc 1 21 5
  83              		.loc 1 21 9 is_stmt 0
  84 007c 13052003 		li	a0,50
  85              	.LVL9:
  86 0080 97000000 		call	_Z4putcc@plt
  86      E7800000 
  87              	.LVL10:
  22:src/usermain.cpp ****     putc('s');
GAS LISTING /tmp/ccqYytvY.s 			page 3


  88              		.loc 1 22 5 is_stmt 1
  89              		.loc 1 22 9 is_stmt 0
  90 0088 13053007 		li	a0,115
  91 008c 97000000 		call	_Z4putcc@plt
  91      E7800000 
  92              	.LVL11:
  23:src/usermain.cpp ****     time_sleep(100);
  93              		.loc 1 23 5 is_stmt 1
  94              		.loc 1 23 15 is_stmt 0
  95 0094 13054006 		li	a0,100
  96 0098 97000000 		call	_Z10time_sleepm@plt
  96      E7800000 
  97              	.LVL12:
  24:src/usermain.cpp ****     putc('2');
  98              		.loc 1 24 5 is_stmt 1
  99              		.loc 1 24 9 is_stmt 0
 100 00a0 13052003 		li	a0,50
 101 00a4 97000000 		call	_Z4putcc@plt
 101      E7800000 
 102              	.LVL13:
  25:src/usermain.cpp ****     putc('S');
 103              		.loc 1 25 5 is_stmt 1
 104              		.loc 1 25 9 is_stmt 0
 105 00ac 13053005 		li	a0,83
 106 00b0 97000000 		call	_Z4putcc@plt
 106      E7800000 
 107              	.LVL14:
  26:src/usermain.cpp ****     // while(1);
  27:src/usermain.cpp ****     sem_signal(sem2);
 108              		.loc 1 27 5 is_stmt 1
 109              		.loc 1 27 15 is_stmt 0
 110 00b8 17050000 		ld	a0,.LANCHOR0+8
 110      03350500 
 111 00c0 97000000 		call	_Z10sem_signalP4_sem@plt
 111      E7800000 
 112              	.LVL15:
  28:src/usermain.cpp **** }
 113              		.loc 1 28 1
 114 00c8 83308100 		ld	ra,8(sp)
 115              		.cfi_restore 1
 116 00cc 03340100 		ld	s0,0(sp)
 117              		.cfi_restore 8
 118              		.cfi_def_cfa 2, 16
 119 00d0 13010101 		addi	sp,sp,16
 120              		.cfi_def_cfa_offset 0
 121 00d4 67800000 		jr	ra
 122              		.cfi_endproc
 123              	.LFE1:
 125              		.align	2
 126              		.globl	_Z8usermainPv
 128              	_Z8usermainPv:
 129              	.LFB2:
  29:src/usermain.cpp **** 
  30:src/usermain.cpp **** void usermain(void* arg){
 130              		.loc 1 30 25 is_stmt 1
 131              		.cfi_startproc
 132              	.LVL16:
GAS LISTING /tmp/ccqYytvY.s 			page 4


 133 00d8 130101FD 		addi	sp,sp,-48
 134              		.cfi_def_cfa_offset 48
 135 00dc 23341102 		sd	ra,40(sp)
 136 00e0 23308102 		sd	s0,32(sp)
 137 00e4 233C9100 		sd	s1,24(sp)
 138              		.cfi_offset 1, -8
 139              		.cfi_offset 8, -16
 140              		.cfi_offset 9, -24
 141 00e8 13040103 		addi	s0,sp,48
 142              		.cfi_def_cfa 8, 0
  31:src/usermain.cpp ****     putc('0');
 143              		.loc 1 31 5
 144              		.loc 1 31 9 is_stmt 0
 145 00ec 13050003 		li	a0,48
 146              	.LVL17:
 147 00f0 97000000 		call	_Z4putcc@plt
 147      E7800000 
 148              	.LVL18:
  32:src/usermain.cpp ****     thread_t t1, t2;
 149              		.loc 1 32 5 is_stmt 1
  33:src/usermain.cpp ****     sem_open(&sem1, 0);
 150              		.loc 1 33 5
 151              		.loc 1 33 13 is_stmt 0
 152 00f8 97040000 		lla	s1,.LANCHOR0
 152      93840400 
 153 0100 93050000 		li	a1,0
 154 0104 13850400 		mv	a0,s1
 155 0108 97000000 		call	_Z8sem_openPP4_semj@plt
 155      E7800000 
 156              	.LVL19:
  34:src/usermain.cpp ****     sem_open(&sem2, 0);
 157              		.loc 1 34 5 is_stmt 1
 158              		.loc 1 34 13 is_stmt 0
 159 0110 93050000 		li	a1,0
 160 0114 17050000 		lla	a0,.LANCHOR0+8
 160      13050500 
 161 011c 97000000 		call	_Z8sem_openPP4_semj@plt
 161      E7800000 
 162              	.LVL20:
  35:src/usermain.cpp ****     thread_create(&t1, thread_test_1, 0);
 163              		.loc 1 35 5 is_stmt 1
 164              		.loc 1 35 18 is_stmt 0
 165 0124 13060000 		li	a2,0
 166 0128 97050000 		lla	a1,_Z13thread_test_1Pv
 166      93850500 
 167 0130 130584FD 		addi	a0,s0,-40
 168 0134 97000000 		call	_Z13thread_createPP7_threadPFvPvES2_@plt
 168      E7800000 
 169              	.LVL21:
  36:src/usermain.cpp ****     thread_create(&t2, thread_test_2, 0);
 170              		.loc 1 36 5 is_stmt 1
 171              		.loc 1 36 18 is_stmt 0
 172 013c 13060000 		li	a2,0
 173 0140 97050000 		lla	a1,_Z13thread_test_2Pv
 173      93850500 
 174 0148 130504FD 		addi	a0,s0,-48
 175 014c 97000000 		call	_Z13thread_createPP7_threadPFvPvES2_@plt
GAS LISTING /tmp/ccqYytvY.s 			page 5


 175      E7800000 
 176              	.LVL22:
  37:src/usermain.cpp ****     sem_wait(sem1);
 177              		.loc 1 37 5 is_stmt 1
 178              		.loc 1 37 13 is_stmt 0
 179 0154 03B50400 		ld	a0,0(s1)
 180 0158 97000000 		call	_Z8sem_waitP4_sem@plt
 180      E7800000 
 181              	.LVL23:
  38:src/usermain.cpp ****     putc('3');
 182              		.loc 1 38 5 is_stmt 1
 183              		.loc 1 38 9 is_stmt 0
 184 0160 13053003 		li	a0,51
 185 0164 97000000 		call	_Z4putcc@plt
 185      E7800000 
 186              	.LVL24:
  39:src/usermain.cpp ****     // thread_join(t2);
  40:src/usermain.cpp ****     // if(getc() == 'a')putc('x');
  41:src/usermain.cpp ****     putc('4');
 187              		.loc 1 41 5 is_stmt 1
 188              		.loc 1 41 9 is_stmt 0
 189 016c 13054003 		li	a0,52
 190 0170 97000000 		call	_Z4putcc@plt
 190      E7800000 
 191              	.LVL25:
  42:src/usermain.cpp ****     // thread_join(t1);
  43:src/usermain.cpp ****     // thread_dispatch();
  44:src/usermain.cpp ****     // thread_dispatch();
  45:src/usermain.cpp ****     sem_wait(sem2);
 192              		.loc 1 45 5 is_stmt 1
 193              		.loc 1 45 13 is_stmt 0
 194 0178 03B58400 		ld	a0,8(s1)
 195 017c 97000000 		call	_Z8sem_waitP4_sem@plt
 195      E7800000 
 196              	.LVL26:
  46:src/usermain.cpp ****     putc('5');
 197              		.loc 1 46 5 is_stmt 1
 198              		.loc 1 46 9 is_stmt 0
 199 0184 13055003 		li	a0,53
 200 0188 97000000 		call	_Z4putcc@plt
 200      E7800000 
 201              	.LVL27:
  47:src/usermain.cpp **** }...
 202              		.loc 1 47 1
 203 0190 83308102 		ld	ra,40(sp)
 204              		.cfi_restore 1
 205 0194 03340102 		ld	s0,32(sp)
 206              		.cfi_restore 8
 207              		.cfi_def_cfa 2, 48
 208 0198 83348101 		ld	s1,24(sp)
 209              		.cfi_restore 9
 210 019c 13010103 		addi	sp,sp,48
 211              		.cfi_def_cfa_offset 0
 212 01a0 67800000 		jr	ra
 213              		.cfi_endproc
 214              	.LFE2:
 216              		.globl	sem2
GAS LISTING /tmp/ccqYytvY.s 			page 6


 217              		.globl	sem1
 218              		.bss
 219              		.align	3
 220              		.set	.LANCHOR0,. + 0
 223              	sem1:
 224 0000 00000000 		.zero	8
 224      00000000 
 227              	sem2:
 228 0008 00000000 		.zero	8
 228      00000000 
 229              		.text
 230              	.Letext0:
 231              		.file 2 "./lib/hw.h"
 232              		.file 3 "./h/syscalls_c.h"
 233              		.file 4 "./h/thread.h"
 234              		.file 5 "./h/sem.h"
GAS LISTING /tmp/ccqYytvY.s 			page 7


DEFINED SYMBOLS
                            *ABS*:0000000000000000 usermain.cpp
     /tmp/ccqYytvY.s:9      .text:0000000000000000 _Z13thread_test_1Pv
     /tmp/ccqYytvY.s:13     .text:0000000000000000 .L0 
     /tmp/ccqYytvY.s:15     .text:0000000000000000 .L0 
     /tmp/ccqYytvY.s:16     .text:0000000000000004 .L0 
     /tmp/ccqYytvY.s:19     .text:000000000000000c .L0 
     /tmp/ccqYytvY.s:20     .text:000000000000000c .L0 
     /tmp/ccqYytvY.s:22     .text:0000000000000010 .L0 
     /tmp/ccqYytvY.s:24     .text:0000000000000010 .L0 
     /tmp/ccqYytvY.s:25     .text:0000000000000010 .L0 
     /tmp/ccqYytvY.s:30     .text:000000000000001c .L0 
     /tmp/ccqYytvY.s:31     .text:000000000000001c .L0 
     /tmp/ccqYytvY.s:35     .text:0000000000000028 .L0 
     /tmp/ccqYytvY.s:36     .text:0000000000000028 .L0 
     /tmp/ccqYytvY.s:40     .text:0000000000000034 .L0 
     /tmp/ccqYytvY.s:41     .text:0000000000000034 .L0 
     /tmp/ccqYytvY.s:45     .text:0000000000000040 .L0 
     /tmp/ccqYytvY.s:46     .text:0000000000000040 .L0 
     /tmp/ccqYytvY.s:50     .text:0000000000000050 .L0 
     /tmp/ccqYytvY.s:51     .text:0000000000000050 .L0 
     /tmp/ccqYytvY.s:55     .text:000000000000005c .L0 
     /tmp/ccqYytvY.s:56     .text:0000000000000060 .L0 
     /tmp/ccqYytvY.s:58     .text:0000000000000064 .L0 
     /tmp/ccqYytvY.s:59     .text:0000000000000064 .L0 
     /tmp/ccqYytvY.s:61     .text:0000000000000068 .L0 
     /tmp/ccqYytvY.s:63     .text:000000000000006c .L0 
     /tmp/ccqYytvY.s:69     .text:000000000000006c _Z13thread_test_2Pv
     /tmp/ccqYytvY.s:72     .text:000000000000006c .L0 
     /tmp/ccqYytvY.s:74     .text:000000000000006c .L0 
     /tmp/ccqYytvY.s:75     .text:0000000000000070 .L0 
     /tmp/ccqYytvY.s:78     .text:0000000000000078 .L0 
     /tmp/ccqYytvY.s:79     .text:0000000000000078 .L0 
     /tmp/ccqYytvY.s:81     .text:000000000000007c .L0 
     /tmp/ccqYytvY.s:83     .text:000000000000007c .L0 
     /tmp/ccqYytvY.s:84     .text:000000000000007c .L0 
     /tmp/ccqYytvY.s:89     .text:0000000000000088 .L0 
     /tmp/ccqYytvY.s:90     .text:0000000000000088 .L0 
     /tmp/ccqYytvY.s:94     .text:0000000000000094 .L0 
     /tmp/ccqYytvY.s:95     .text:0000000000000094 .L0 
     /tmp/ccqYytvY.s:99     .text:00000000000000a0 .L0 
     /tmp/ccqYytvY.s:100    .text:00000000000000a0 .L0 
     /tmp/ccqYytvY.s:104    .text:00000000000000ac .L0 
     /tmp/ccqYytvY.s:105    .text:00000000000000ac .L0 
     /tmp/ccqYytvY.s:109    .text:00000000000000b8 .L0 
     /tmp/ccqYytvY.s:110    .text:00000000000000b8 .L0 
     /tmp/ccqYytvY.s:114    .text:00000000000000c8 .L0 
     /tmp/ccqYytvY.s:115    .text:00000000000000cc .L0 
     /tmp/ccqYytvY.s:117    .text:00000000000000d0 .L0 
     /tmp/ccqYytvY.s:118    .text:00000000000000d0 .L0 
     /tmp/ccqYytvY.s:120    .text:00000000000000d4 .L0 
     /tmp/ccqYytvY.s:122    .text:00000000000000d8 .L0 
     /tmp/ccqYytvY.s:128    .text:00000000000000d8 _Z8usermainPv
     /tmp/ccqYytvY.s:131    .text:00000000000000d8 .L0 
     /tmp/ccqYytvY.s:133    .text:00000000000000d8 .L0 
     /tmp/ccqYytvY.s:134    .text:00000000000000dc .L0 
     /tmp/ccqYytvY.s:138    .text:00000000000000e8 .L0 
GAS LISTING /tmp/ccqYytvY.s 			page 8


     /tmp/ccqYytvY.s:139    .text:00000000000000e8 .L0 
     /tmp/ccqYytvY.s:140    .text:00000000000000e8 .L0 
     /tmp/ccqYytvY.s:142    .text:00000000000000ec .L0 
     /tmp/ccqYytvY.s:144    .text:00000000000000ec .L0 
     /tmp/ccqYytvY.s:145    .text:00000000000000ec .L0 
     /tmp/ccqYytvY.s:150    .text:00000000000000f8 .L0 
     /tmp/ccqYytvY.s:151    .text:00000000000000f8 .L0 
     /tmp/ccqYytvY.s:152    .text:00000000000000f8 .L0 
     /tmp/ccqYytvY.s:158    .text:0000000000000110 .L0 
     /tmp/ccqYytvY.s:159    .text:0000000000000110 .L0 
     /tmp/ccqYytvY.s:164    .text:0000000000000124 .L0 
     /tmp/ccqYytvY.s:165    .text:0000000000000124 .L0 
     /tmp/ccqYytvY.s:171    .text:000000000000013c .L0 
     /tmp/ccqYytvY.s:172    .text:000000000000013c .L0 
     /tmp/ccqYytvY.s:178    .text:0000000000000154 .L0 
     /tmp/ccqYytvY.s:179    .text:0000000000000154 .L0 
     /tmp/ccqYytvY.s:183    .text:0000000000000160 .L0 
     /tmp/ccqYytvY.s:184    .text:0000000000000160 .L0 
     /tmp/ccqYytvY.s:188    .text:000000000000016c .L0 
     /tmp/ccqYytvY.s:189    .text:000000000000016c .L0 
     /tmp/ccqYytvY.s:193    .text:0000000000000178 .L0 
     /tmp/ccqYytvY.s:194    .text:0000000000000178 .L0 
     /tmp/ccqYytvY.s:198    .text:0000000000000184 .L0 
     /tmp/ccqYytvY.s:199    .text:0000000000000184 .L0 
     /tmp/ccqYytvY.s:203    .text:0000000000000190 .L0 
     /tmp/ccqYytvY.s:204    .text:0000000000000194 .L0 
     /tmp/ccqYytvY.s:206    .text:0000000000000198 .L0 
     /tmp/ccqYytvY.s:207    .text:0000000000000198 .L0 
     /tmp/ccqYytvY.s:209    .text:000000000000019c .L0 
     /tmp/ccqYytvY.s:211    .text:00000000000001a0 .L0 
     /tmp/ccqYytvY.s:213    .text:00000000000001a4 .L0 
     /tmp/ccqYytvY.s:227    .bss:0000000000000008 sem2
     /tmp/ccqYytvY.s:223    .bss:0000000000000000 sem1
     /tmp/ccqYytvY.s:220    .bss:0000000000000000 .LANCHOR0
     /tmp/ccqYytvY.s:235    .text:00000000000001a4 .L0 
     /tmp/ccqYytvY.s:46     .text:0000000000000040 .L0 
     /tmp/ccqYytvY.s:110    .text:00000000000000b8 .L0 
     /tmp/ccqYytvY.s:152    .text:00000000000000f8 .L0 
     /tmp/ccqYytvY.s:160    .text:0000000000000114 .L0 
     /tmp/ccqYytvY.s:166    .text:0000000000000128 .L0 
     /tmp/ccqYytvY.s:173    .text:0000000000000140 .L0 
     /tmp/ccqYytvY.s:1312   .debug_abbrev:0000000000000000 .Ldebug_abbrev0
     /tmp/ccqYytvY.s:2195   .debug_str:0000000000000480 .LASF92
     /tmp/ccqYytvY.s:2123   .debug_str:000000000000028f .LASF93
     /tmp/ccqYytvY.s:2151   .debug_str:0000000000000336 .LASF94
     /tmp/ccqYytvY.s:5      .text:0000000000000000 .Ltext0
     /tmp/ccqYytvY.s:230    .text:00000000000001a4 .Letext0
     /tmp/ccqYytvY.s:2021   .debug_line:0000000000000000 .Ldebug_line0
     /tmp/ccqYytvY.s:2139   .debug_str:0000000000000309 .LASF0
     /tmp/ccqYytvY.s:2157   .debug_str:0000000000000394 .LASF1
     /tmp/ccqYytvY.s:2125   .debug_str:00000000000002a0 .LASF2
     /tmp/ccqYytvY.s:2183   .debug_str:000000000000043a .LASF3
     /tmp/ccqYytvY.s:2101   .debug_str:0000000000000210 .LASF4
     /tmp/ccqYytvY.s:2187   .debug_str:000000000000044a .LASF5
     /tmp/ccqYytvY.s:2043   .debug_str:00000000000000b1 .LASF6
     /tmp/ccqYytvY.s:2071   .debug_str:0000000000000166 .LASF7
     /tmp/ccqYytvY.s:2159   .debug_str:00000000000003a7 .LASF8
GAS LISTING /tmp/ccqYytvY.s 			page 9


     /tmp/ccqYytvY.s:2137   .debug_str:00000000000002f6 .LASF9
     /tmp/ccqYytvY.s:2203   .debug_str:0000000000000562 .LASF10
     /tmp/ccqYytvY.s:2089   .debug_str:00000000000001d2 .LASF11
     /tmp/ccqYytvY.s:2167   .debug_str:00000000000003d1 .LASF12
     /tmp/ccqYytvY.s:2199   .debug_str:000000000000054e .LASF13
     /tmp/ccqYytvY.s:2047   .debug_str:00000000000000cb .LASF14
     /tmp/ccqYytvY.s:2029   .debug_str:0000000000000025 .LASF15
     /tmp/ccqYytvY.s:2057   .debug_str:000000000000010c .LASF16
     /tmp/ccqYytvY.s:2179   .debug_str:0000000000000419 .LASF17
     /tmp/ccqYytvY.s:2063   .debug_str:0000000000000135 .LASF18
     /tmp/ccqYytvY.s:2023   .debug_str:0000000000000000 .LASF19
     /tmp/ccqYytvY.s:2097   .debug_str:0000000000000203 .LASF36
     /tmp/ccqYytvY.s:2127   .debug_str:00000000000002ae .LASF21
     /tmp/ccqYytvY.s:2177   .debug_str:0000000000000411 .LASF20
     /tmp/ccqYytvY.s:2129   .debug_str:00000000000002bd .LASF22
     /tmp/ccqYytvY.s:2161   .debug_str:00000000000003ba .LASF23
     /tmp/ccqYytvY.s:2227   .debug_str:000000000000060c .LASF24
     /tmp/ccqYytvY.s:2115   .debug_str:0000000000000266 .LASF26
     /tmp/ccqYytvY.s:2033   .debug_str:000000000000005a .LASF28
     /tmp/ccqYytvY.s:2085   .debug_str:00000000000001bd .LASF25
     /tmp/ccqYytvY.s:2117   .debug_str:000000000000026d .LASF95
     /tmp/ccqYytvY.s:2213   .debug_str:00000000000005b9 .LASF96
     /tmp/ccqYytvY.s:2141   .debug_str:0000000000000316 .LASF97
     /tmp/ccqYytvY.s:2193   .debug_str:0000000000000469 .LASF98
     /tmp/ccqYytvY.s:2189   .debug_str:000000000000045c .LASF27
     /tmp/ccqYytvY.s:2109   .debug_str:000000000000023c .LASF29
     /tmp/ccqYytvY.s:2073   .debug_str:000000000000016d .LASF99
     /tmp/ccqYytvY.s:2035   .debug_str:000000000000007f .LASF30
     /tmp/ccqYytvY.s:2231   .debug_str:0000000000000616 .LASF31
     /tmp/ccqYytvY.s:2049   .debug_str:00000000000000db .LASF32
     /tmp/ccqYytvY.s:2039   .debug_str:000000000000008f .LASF33
     /tmp/ccqYytvY.s:2079   .debug_str:00000000000001a3 .LASF34
     /tmp/ccqYytvY.s:2209   .debug_str:0000000000000595 .LASF35
     /tmp/ccqYytvY.s:2221   .debug_str:00000000000005f5 .LASF71
     /tmp/ccqYytvY.s:2045   .debug_str:00000000000000b8 .LASF73
     /tmp/ccqYytvY.s:2205   .debug_str:0000000000000572 .LASF38
     /tmp/ccqYytvY.s:2191   .debug_str:0000000000000461 .LASF100
     /tmp/ccqYytvY.s:2173   .debug_str:00000000000003f2 .LASF101
     /tmp/ccqYytvY.s:2107   .debug_str:0000000000000235 .LASF37
     /tmp/ccqYytvY.s:2105   .debug_str:0000000000000220 .LASF39
     /tmp/ccqYytvY.s:2145   .debug_str:0000000000000324 .LASF40
     /tmp/ccqYytvY.s:2225   .debug_str:0000000000000603 .LASF41
     /tmp/ccqYytvY.s:2171   .debug_str:00000000000003e9 .LASF42
     /tmp/ccqYytvY.s:2103   .debug_str:0000000000000217 .LASF43
     /tmp/ccqYytvY.s:2121   .debug_str:0000000000000284 .LASF44
     /tmp/ccqYytvY.s:2051   .debug_str:00000000000000e5 .LASF45
     /tmp/ccqYytvY.s:2025   .debug_str:0000000000000009 .LASF46
     /tmp/ccqYytvY.s:2169   .debug_str:00000000000003e0 .LASF47
     /tmp/ccqYytvY.s:2175   .debug_str:0000000000000408 .LASF48
     /tmp/ccqYytvY.s:2069   .debug_str:000000000000015f .LASF49
     /tmp/ccqYytvY.s:2223   .debug_str:00000000000005fa .LASF50
     /tmp/ccqYytvY.s:2165   .debug_str:00000000000003c8 .LASF51
     /tmp/ccqYytvY.s:2113   .debug_str:000000000000025f .LASF102
     /tmp/ccqYytvY.s:2217   .debug_str:00000000000005d2 .LASF103
     /tmp/ccqYytvY.s:2153   .debug_str:0000000000000352 .LASF104
     /tmp/ccqYytvY.s:2081   .debug_str:00000000000001af .LASF52
     /tmp/ccqYytvY.s:2099   .debug_str:000000000000020b .LASF53
GAS LISTING /tmp/ccqYytvY.s 			page 10


     /tmp/ccqYytvY.s:2119   .debug_str:0000000000000272 .LASF54
     /tmp/ccqYytvY.s:2083   .debug_str:00000000000001b5 .LASF55
     /tmp/ccqYytvY.s:2093   .debug_str:00000000000001e9 .LASF56
     /tmp/ccqYytvY.s:2201   .debug_str:000000000000055d .LASF57
     /tmp/ccqYytvY.s:2027   .debug_str:0000000000000011 .LASF58
     /tmp/ccqYytvY.s:2215   .debug_str:00000000000005cc .LASF59
     /tmp/ccqYytvY.s:2133   .debug_str:00000000000002d1 .LASF60
     /tmp/ccqYytvY.s:2229   .debug_str:0000000000000611 .LASF61
     /tmp/ccqYytvY.s:2135   .debug_str:00000000000002e4 .LASF62
     /tmp/ccqYytvY.s:2163   .debug_str:00000000000003c1 .LASF63
     /tmp/ccqYytvY.s:2075   .debug_str:000000000000017b .LASF64
     /tmp/ccqYytvY.s:2041   .debug_str:00000000000000a7 .LASF65
     /tmp/ccqYytvY.s:2197   .debug_str:0000000000000544 .LASF66
     /tmp/ccqYytvY.s:2065   .debug_str:000000000000014b .LASF67
     /tmp/ccqYytvY.s:2037   .debug_str:000000000000008a .LASF68
     /tmp/ccqYytvY.s:2147   .debug_str:000000000000032c .LASF69
     /tmp/ccqYytvY.s:2149   .debug_str:0000000000000331 .LASF70
     /tmp/ccqYytvY.s:2211   .debug_str:00000000000005b0 .LASF72
     /tmp/ccqYytvY.s:2111   .debug_str:0000000000000251 .LASF74
     /tmp/ccqYytvY.s:129    .text:00000000000000d8 .LFB2
     /tmp/ccqYytvY.s:214    .text:00000000000001a4 .LFE2
     /tmp/ccqYytvY.s:1966   .debug_loc:0000000000000000 .LLST2
     /tmp/ccqYytvY.s:148    .text:00000000000000f8 .LVL18
     /tmp/ccqYytvY.s:156    .text:0000000000000110 .LVL19
     /tmp/ccqYytvY.s:162    .text:0000000000000124 .LVL20
     /tmp/ccqYytvY.s:169    .text:000000000000013c .LVL21
     /tmp/ccqYytvY.s:176    .text:0000000000000154 .LVL22
     /tmp/ccqYytvY.s:181    .text:0000000000000160 .LVL23
     /tmp/ccqYytvY.s:186    .text:000000000000016c .LVL24
     /tmp/ccqYytvY.s:191    .text:0000000000000178 .LVL25
     /tmp/ccqYytvY.s:196    .text:0000000000000184 .LVL26
     /tmp/ccqYytvY.s:201    .text:0000000000000190 .LVL27
     /tmp/ccqYytvY.s:2155   .debug_str:0000000000000386 .LASF75
     /tmp/ccqYytvY.s:2077   .debug_str:000000000000018f .LASF76
     /tmp/ccqYytvY.s:70     .text:000000000000006c .LFB1
     /tmp/ccqYytvY.s:123    .text:00000000000000d8 .LFE1
     /tmp/ccqYytvY.s:2143   .debug_str:000000000000031f .LASF77
     /tmp/ccqYytvY.s:1980   .debug_loc:0000000000000039 .LLST1
     /tmp/ccqYytvY.s:87     .text:0000000000000088 .LVL10
     /tmp/ccqYytvY.s:92     .text:0000000000000094 .LVL11
     /tmp/ccqYytvY.s:97     .text:00000000000000a0 .LVL12
     /tmp/ccqYytvY.s:102    .text:00000000000000ac .LVL13
     /tmp/ccqYytvY.s:107    .text:00000000000000b8 .LVL14
     /tmp/ccqYytvY.s:112    .text:00000000000000c8 .LVL15
     /tmp/ccqYytvY.s:2055   .debug_str:00000000000000fe .LASF78
     /tmp/ccqYytvY.s:2095   .debug_str:00000000000001ef .LASF79
     /tmp/ccqYytvY.s:10     .text:0000000000000000 .LFB0
     /tmp/ccqYytvY.s:64     .text:000000000000006c .LFE0
     /tmp/ccqYytvY.s:1994   .debug_loc:0000000000000072 .LLST0
     /tmp/ccqYytvY.s:28     .text:000000000000001c .LVL2
     /tmp/ccqYytvY.s:33     .text:0000000000000028 .LVL3
     /tmp/ccqYytvY.s:38     .text:0000000000000034 .LVL4
     /tmp/ccqYytvY.s:43     .text:0000000000000040 .LVL5
     /tmp/ccqYytvY.s:48     .text:0000000000000050 .LVL6
     /tmp/ccqYytvY.s:53     .text:000000000000005c .LVL7
     /tmp/ccqYytvY.s:2091   .debug_str:00000000000001e0 .LASF80
     /tmp/ccqYytvY.s:2131   .debug_str:00000000000002cc .LASF82
GAS LISTING /tmp/ccqYytvY.s 			page 11


     /tmp/ccqYytvY.s:2061   .debug_str:0000000000000121 .LASF81
     /tmp/ccqYytvY.s:2185   .debug_str:0000000000000441 .LASF83
     /tmp/ccqYytvY.s:2031   .debug_str:0000000000000035 .LASF84
     /tmp/ccqYytvY.s:2067   .debug_str:0000000000000151 .LASF85
     /tmp/ccqYytvY.s:2053   .debug_str:00000000000000ec .LASF86
     /tmp/ccqYytvY.s:2059   .debug_str:0000000000000118 .LASF87
     /tmp/ccqYytvY.s:2087   .debug_str:00000000000001c2 .LASF88
     /tmp/ccqYytvY.s:2181   .debug_str:000000000000042f .LASF89
     /tmp/ccqYytvY.s:2219   .debug_str:00000000000005e0 .LASF90
     /tmp/ccqYytvY.s:2207   .debug_str:000000000000058a .LASF91
     /tmp/ccqYytvY.s:132    .text:00000000000000d8 .LVL16
     /tmp/ccqYytvY.s:146    .text:00000000000000f0 .LVL17
     /tmp/ccqYytvY.s:73     .text:000000000000006c .LVL8
     /tmp/ccqYytvY.s:85     .text:0000000000000080 .LVL9
     /tmp/ccqYytvY.s:14     .text:0000000000000000 .LVL0
     /tmp/ccqYytvY.s:26     .text:0000000000000014 .LVL1
     /tmp/ccqYytvY.s:236    .debug_info:0000000000000000 .Ldebug_info0

UNDEFINED SYMBOLS
_Z4putcc
_Z10time_sleepm
_Z10sem_signalP4_sem
_Z8sem_openPP4_semj
_Z13thread_createPP7_threadPFvPvES2_
_Z8sem_waitP4_sem
